
EmptyProject.elf:     file format elf32-avr

Sections:
Idx Name          Size      VMA       LMA       File off  Algn
  0 .data         0000006a  00800200  00005994  00005a28  2**0
                  CONTENTS, ALLOC, LOAD, DATA
  1 .text         00005994  00000000  00000000  00000094  2**1
                  CONTENTS, ALLOC, LOAD, READONLY, CODE
  2 .bss          000012f2  0080026a  0080026a  00005a92  2**0
                  ALLOC

Disassembly of section .text:

00000000 <__vectors>:
       0:	0c 94 9d 02 	jmp	0x53a	; 0x53a <__ctors_end>
       4:	0c 94 bf 02 	jmp	0x57e	; 0x57e <__bad_interrupt>
       8:	0c 94 bf 02 	jmp	0x57e	; 0x57e <__bad_interrupt>
       c:	0c 94 bf 02 	jmp	0x57e	; 0x57e <__bad_interrupt>
      10:	0c 94 bf 02 	jmp	0x57e	; 0x57e <__bad_interrupt>
      14:	0c 94 bf 02 	jmp	0x57e	; 0x57e <__bad_interrupt>
      18:	0c 94 bf 02 	jmp	0x57e	; 0x57e <__bad_interrupt>
      1c:	0c 94 bf 02 	jmp	0x57e	; 0x57e <__bad_interrupt>
      20:	0c 94 bf 02 	jmp	0x57e	; 0x57e <__bad_interrupt>
      24:	0c 94 bf 02 	jmp	0x57e	; 0x57e <__bad_interrupt>
      28:	0c 94 bf 02 	jmp	0x57e	; 0x57e <__bad_interrupt>
      2c:	0c 94 bf 02 	jmp	0x57e	; 0x57e <__bad_interrupt>
      30:	0c 94 bf 02 	jmp	0x57e	; 0x57e <__bad_interrupt>
      34:	0c 94 bf 02 	jmp	0x57e	; 0x57e <__bad_interrupt>
      38:	0c 94 bf 02 	jmp	0x57e	; 0x57e <__bad_interrupt>
      3c:	0c 94 bf 02 	jmp	0x57e	; 0x57e <__bad_interrupt>
      40:	0c 94 bf 02 	jmp	0x57e	; 0x57e <__bad_interrupt>
      44:	0c 94 bf 02 	jmp	0x57e	; 0x57e <__bad_interrupt>
      48:	0c 94 bf 02 	jmp	0x57e	; 0x57e <__bad_interrupt>
      4c:	0c 94 bf 02 	jmp	0x57e	; 0x57e <__bad_interrupt>
      50:	0c 94 bf 02 	jmp	0x57e	; 0x57e <__bad_interrupt>
      54:	0c 94 bf 02 	jmp	0x57e	; 0x57e <__bad_interrupt>
      58:	0c 94 bf 02 	jmp	0x57e	; 0x57e <__bad_interrupt>
      5c:	0c 94 bf 02 	jmp	0x57e	; 0x57e <__bad_interrupt>
      60:	0c 94 bf 02 	jmp	0x57e	; 0x57e <__bad_interrupt>
      64:	0c 94 02 28 	jmp	0x5004	; 0x5004 <__vector_25>
      68:	0c 94 01 29 	jmp	0x5202	; 0x5202 <__vector_26>
      6c:	0c 94 bf 02 	jmp	0x57e	; 0x57e <__bad_interrupt>
      70:	0c 94 bf 02 	jmp	0x57e	; 0x57e <__bad_interrupt>
      74:	0c 94 bf 02 	jmp	0x57e	; 0x57e <__bad_interrupt>
      78:	0c 94 bf 02 	jmp	0x57e	; 0x57e <__bad_interrupt>
      7c:	0c 94 bf 02 	jmp	0x57e	; 0x57e <__bad_interrupt>
      80:	0c 94 8d 24 	jmp	0x491a	; 0x491a <__vector_32>
      84:	0c 94 bf 02 	jmp	0x57e	; 0x57e <__bad_interrupt>
      88:	0c 94 bf 02 	jmp	0x57e	; 0x57e <__bad_interrupt>
      8c:	0c 94 bf 02 	jmp	0x57e	; 0x57e <__bad_interrupt>
      90:	0c 94 d9 27 	jmp	0x4fb2	; 0x4fb2 <__vector_36>
      94:	0c 94 d8 28 	jmp	0x51b0	; 0x51b0 <__vector_37>
      98:	0c 94 bf 02 	jmp	0x57e	; 0x57e <__bad_interrupt>
      9c:	0c 94 bf 02 	jmp	0x57e	; 0x57e <__bad_interrupt>
      a0:	0c 94 bf 02 	jmp	0x57e	; 0x57e <__bad_interrupt>
      a4:	0c 94 bf 02 	jmp	0x57e	; 0x57e <__bad_interrupt>
      a8:	0c 94 bf 02 	jmp	0x57e	; 0x57e <__bad_interrupt>
      ac:	0c 94 bf 02 	jmp	0x57e	; 0x57e <__bad_interrupt>
      b0:	0c 94 bf 02 	jmp	0x57e	; 0x57e <__bad_interrupt>
      b4:	0c 94 bf 02 	jmp	0x57e	; 0x57e <__bad_interrupt>
      b8:	0c 94 bf 02 	jmp	0x57e	; 0x57e <__bad_interrupt>
      bc:	0c 94 bf 02 	jmp	0x57e	; 0x57e <__bad_interrupt>
      c0:	0c 94 bf 02 	jmp	0x57e	; 0x57e <__bad_interrupt>
      c4:	0c 94 bf 02 	jmp	0x57e	; 0x57e <__bad_interrupt>
      c8:	0c 94 bf 02 	jmp	0x57e	; 0x57e <__bad_interrupt>
      cc:	0c 94 b0 27 	jmp	0x4f60	; 0x4f60 <__vector_51>
      d0:	0c 94 af 28 	jmp	0x515e	; 0x515e <__vector_52>
      d4:	0c 94 bf 02 	jmp	0x57e	; 0x57e <__bad_interrupt>
      d8:	0c 94 87 27 	jmp	0x4f0e	; 0x4f0e <__vector_54>
      dc:	0c 94 86 28 	jmp	0x510c	; 0x510c <__vector_55>
      e0:	0c 94 bf 02 	jmp	0x57e	; 0x57e <__bad_interrupt>

000000e4 <__c.2187>:
      e4:	0d 0a 0a 0a 47 6f 6f 64 62 79 65 2e 2e 2e 20 6e     ....Goodbye... n
      f4:	6f 20 73 70 61 63 65 20 66 6f 72 20 69 64 6c 65     o space for idle
     104:	20 74 61 73 6b 21 0d 0a 00                           task!...

0000010d <__c.2185>:
     10d:	0d 0a 0a 46 72 65 65 20 48 65 61 70 20 53 69 7a     ...Free Heap Siz
     11d:	65 3a 20 25 75 0d 0a 00                             e: %u...

00000125 <__c.2183>:
     125:	0d 0a 0a 0a 48 65 6c 6c 6f 20 57 6f 72 6c 64 21     ....Hello World!
     135:	0d 0a 00                                            ...

00000138 <__c.2242>:
     138:	52 65 64 4c 45 44 20 48 69 67 68 57 61 74 65 72     RedLED HighWater
     148:	20 40 20 25 75 0d 0a 00                              @ %u...

00000150 <__c.1778>:
     150:	6e 61 6e 00                                         nan.

00000154 <__c.1776>:
     154:	69 6e 66 00 00 40 7a 10 f3 5a 00 a0 72 4e 18 09     inf..@z..Z..rN..
     164:	00 10 a5 d4 e8 00 00 e8 76 48 17 00 00 e4 0b 54     ........vH.....T
     174:	02 00 00 ca 9a 3b 00 00 00 e1 f5 05 00 00 80 96     .....;..........
     184:	98 00 00 00 40 42 0f 00 00 00 a0 86 01 00 00 00     ....@B..........
     194:	10 27 00 00 00 00 e8 03 00 00 00 00 64 00 00 00     .'..........d...
     1a4:	00 00 0a 00 00 00 00 00 01 00 00 00 00 00 2c 76     ..............,v
     1b4:	d8 88 dc 67 4f 08 23 df c1 df ae 59 e1 b1 b7 96     ...gO.#....Y....
     1c4:	e5 e3 e4 53 c6 3a e6 51 99 76 96 e8 e6 c2 84 26     ...S.:.Q.v.....&
     1d4:	eb 89 8c 9b 62 ed 40 7c 6f fc ef bc 9c 9f 40 f2     ....b.@|o.....@.
     1e4:	ba a5 6f a5 f4 90 05 5a 2a f7 5c 93 6b 6c f9 67     ..o....Z*.\.kl.g
     1f4:	6d c1 1b fc e0 e4 0d 47 fe f5 20 e6 b5 00 d0 ed     m......G.. .....
     204:	90 2e 03 00 94 35 77 05 00 80 84 1e 08 00 00 20     .....5w........ 
     214:	4e 0a 00 00 00 c8 0c 33 33 33 33 0f 98 6e 12 83     N......3333..n..
     224:	11 41 ef 8d 21 14 89 3b e6 55 16 cf fe e6 db 18     .A..!..;.U......
     234:	d1 84 4b 38 1b f7 7c 1d 90 1d a4 bb e4 24 20 32     ..K8..|......$ 2
     244:	84 72 5e 22 81 00 c9 f1 24 ec a1 e5 3d 27           .r^"....$...='

00000252 <prvIdleTask>:
     252:	a0 e0       	ldi	r26, 0x00	; 0
     254:	b0 e0       	ldi	r27, 0x00	; 0
     256:	ef e2       	ldi	r30, 0x2F	; 47
     258:	f1 e0       	ldi	r31, 0x01	; 1
     25a:	0c 94 96 2c 	jmp	0x592c	; 0x592c <__prologue_saves__+0xa>
     25e:	e9 e0       	ldi	r30, 0x09	; 9
     260:	ce 2e       	mov	r12, r30
     262:	aa 24       	eor	r10, r10
     264:	a3 94       	inc	r10
     266:	88 24       	eor	r8, r8
     268:	8a 94       	dec	r8
     26a:	98 2c       	mov	r9, r8
     26c:	77 24       	eor	r7, r7
     26e:	73 94       	inc	r7
     270:	05 c0       	rjmp	.+10     	; 0x27c <prvIdleTask+0x2a>
     272:	0f 90       	pop	r0
     274:	0f be       	out	0x3f, r0	; 63
     276:	bb 20       	and	r11, r11
     278:	09 f0       	breq	.+2      	; 0x27c <prvIdleTask+0x2a>
     27a:	5f c0       	rjmp	.+190    	; 0x33a <prvIdleTask+0xe8>
     27c:	80 91 86 14 	lds	r24, 0x1486
     280:	88 23       	and	r24, r24
     282:	09 f4       	brne	.+2      	; 0x286 <prvIdleTask+0x34>
     284:	80 c0       	rjmp	.+256    	; 0x386 <prvIdleTask+0x134>
     286:	80 91 7b 14 	lds	r24, 0x147B
     28a:	8f 5f       	subi	r24, 0xFF	; 255
     28c:	80 93 7b 14 	sts	0x147B, r24
     290:	b0 90 cb 14 	lds	r11, 0x14CB
     294:	0f b6       	in	r0, 0x3f	; 63
     296:	f8 94       	cli
     298:	0f 92       	push	r0
     29a:	80 91 7b 14 	lds	r24, 0x147B
     29e:	81 50       	subi	r24, 0x01	; 1
     2a0:	80 93 7b 14 	sts	0x147B, r24
     2a4:	80 91 7b 14 	lds	r24, 0x147B
     2a8:	88 23       	and	r24, r24
     2aa:	19 f7       	brne	.-58     	; 0x272 <prvIdleTask+0x20>
     2ac:	80 91 75 14 	lds	r24, 0x1475
     2b0:	88 23       	and	r24, r24
     2b2:	f9 f2       	breq	.-66     	; 0x272 <prvIdleTask+0x20>
     2b4:	80 91 c2 14 	lds	r24, 0x14C2
     2b8:	88 23       	and	r24, r24
     2ba:	71 f1       	breq	.+92     	; 0x318 <prvIdleTask+0xc6>
     2bc:	e0 91 c7 14 	lds	r30, 0x14C7
     2c0:	f0 91 c8 14 	lds	r31, 0x14C8
     2c4:	c6 81       	ldd	r28, Z+6	; 0x06
     2c6:	d7 81       	ldd	r29, Z+7	; 0x07
     2c8:	ce 01       	movw	r24, r28
     2ca:	0c 96       	adiw	r24, 0x0c	; 12
     2cc:	0e 94 56 25 	call	0x4aac	; 0x4aac <uxListRemove>
     2d0:	8e 01       	movw	r16, r28
     2d2:	0e 5f       	subi	r16, 0xFE	; 254
     2d4:	1f 4f       	sbci	r17, 0xFF	; 255
     2d6:	c8 01       	movw	r24, r16
     2d8:	0e 94 56 25 	call	0x4aac	; 0x4aac <uxListRemove>
     2dc:	9e 89       	ldd	r25, Y+22	; 0x16
     2de:	80 91 76 14 	lds	r24, 0x1476
     2e2:	89 17       	cp	r24, r25
     2e4:	18 f4       	brcc	.+6      	; 0x2ec <prvIdleTask+0x9a>
     2e6:	90 93 76 14 	sts	0x1476, r25
     2ea:	9e 89       	ldd	r25, Y+22	; 0x16
     2ec:	9c 9d       	mul	r25, r12
     2ee:	c0 01       	movw	r24, r0
     2f0:	11 24       	eor	r1, r1
     2f2:	88 57       	subi	r24, 0x78	; 120
     2f4:	9b 4e       	sbci	r25, 0xEB	; 235
     2f6:	b8 01       	movw	r22, r16
     2f8:	0e 94 05 25 	call	0x4a0a	; 0x4a0a <vListInsertEnd>
     2fc:	e0 91 73 14 	lds	r30, 0x1473
     300:	f0 91 74 14 	lds	r31, 0x1474
     304:	9e 89       	ldd	r25, Y+22	; 0x16
     306:	86 89       	ldd	r24, Z+22	; 0x16
     308:	98 17       	cp	r25, r24
     30a:	a0 f2       	brcs	.-88     	; 0x2b4 <prvIdleTask+0x62>
     30c:	a0 92 77 14 	sts	0x1477, r10
     310:	80 91 c2 14 	lds	r24, 0x14C2
     314:	88 23       	and	r24, r24
     316:	91 f6       	brne	.-92     	; 0x2bc <prvIdleTask+0x6a>
     318:	80 91 84 14 	lds	r24, 0x1484
     31c:	88 23       	and	r24, r24
     31e:	09 f0       	breq	.+2      	; 0x322 <prvIdleTask+0xd0>
     320:	4d c0       	rjmp	.+154    	; 0x3bc <prvIdleTask+0x16a>
     322:	80 91 77 14 	lds	r24, 0x1477
     326:	81 30       	cpi	r24, 0x01	; 1
     328:	09 f0       	breq	.+2      	; 0x32c <prvIdleTask+0xda>
     32a:	a3 cf       	rjmp	.-186    	; 0x272 <prvIdleTask+0x20>
     32c:	0e 94 90 24 	call	0x4920	; 0x4920 <vPortYield>
     330:	0f 90       	pop	r0
     332:	0f be       	out	0x3f, r0	; 63
     334:	bb 20       	and	r11, r11
     336:	09 f4       	brne	.+2      	; 0x33a <prvIdleTask+0xe8>
     338:	a1 cf       	rjmp	.-190    	; 0x27c <prvIdleTask+0x2a>
     33a:	0f b6       	in	r0, 0x3f	; 63
     33c:	f8 94       	cli
     33e:	0f 92       	push	r0
     340:	e0 91 d0 14 	lds	r30, 0x14D0
     344:	f0 91 d1 14 	lds	r31, 0x14D1
     348:	06 81       	ldd	r16, Z+6	; 0x06
     34a:	17 81       	ldd	r17, Z+7	; 0x07
     34c:	c8 01       	movw	r24, r16
     34e:	02 96       	adiw	r24, 0x02	; 2
     350:	0e 94 56 25 	call	0x4aac	; 0x4aac <uxListRemove>
     354:	80 91 75 14 	lds	r24, 0x1475
     358:	81 50       	subi	r24, 0x01	; 1
     35a:	80 93 75 14 	sts	0x1475, r24
     35e:	80 91 86 14 	lds	r24, 0x1486
     362:	81 50       	subi	r24, 0x01	; 1
     364:	80 93 86 14 	sts	0x1486, r24
     368:	0f 90       	pop	r0
     36a:	0f be       	out	0x3f, r0	; 63
     36c:	f8 01       	movw	r30, r16
     36e:	87 89       	ldd	r24, Z+23	; 0x17
     370:	90 8d       	ldd	r25, Z+24	; 0x18
     372:	0e 94 3e 09 	call	0x127c	; 0x127c <vPortFree>
     376:	c8 01       	movw	r24, r16
     378:	0e 94 3e 09 	call	0x127c	; 0x127c <vPortFree>
     37c:	80 91 86 14 	lds	r24, 0x1486
     380:	88 23       	and	r24, r24
     382:	09 f0       	breq	.+2      	; 0x386 <prvIdleTask+0x134>
     384:	80 cf       	rjmp	.-256    	; 0x286 <prvIdleTask+0x34>
     386:	80 91 88 14 	lds	r24, 0x1488
     38a:	82 30       	cpi	r24, 0x02	; 2
     38c:	08 f4       	brcc	.+2      	; 0x390 <prvIdleTask+0x13e>
     38e:	76 cf       	rjmp	.-276    	; 0x27c <prvIdleTask+0x2a>
     390:	0e 94 90 24 	call	0x4920	; 0x4920 <vPortYield>
     394:	73 cf       	rjmp	.-282    	; 0x27c <prvIdleTask+0x2a>
     396:	80 91 84 14 	lds	r24, 0x1484
     39a:	8f 5f       	subi	r24, 0xFF	; 255
     39c:	80 93 84 14 	sts	0x1484, r24
     3a0:	dd 24       	eor	r13, r13
     3a2:	80 91 77 14 	lds	r24, 0x1477
     3a6:	88 23       	and	r24, r24
     3a8:	09 f0       	breq	.+2      	; 0x3ac <prvIdleTask+0x15a>
     3aa:	95 c0       	rjmp	.+298    	; 0x4d6 <prvIdleTask+0x284>
     3ac:	dd 20       	and	r13, r13
     3ae:	09 f0       	breq	.+2      	; 0x3b2 <prvIdleTask+0x160>
     3b0:	92 c0       	rjmp	.+292    	; 0x4d6 <prvIdleTask+0x284>
     3b2:	80 91 84 14 	lds	r24, 0x1484
     3b6:	81 50       	subi	r24, 0x01	; 1
     3b8:	80 93 84 14 	sts	0x1484, r24
     3bc:	80 91 84 14 	lds	r24, 0x1484
     3c0:	88 23       	and	r24, r24
     3c2:	09 f4       	brne	.+2      	; 0x3c6 <prvIdleTask+0x174>
     3c4:	ae cf       	rjmp	.-164    	; 0x322 <prvIdleTask+0xd0>
     3c6:	80 91 7b 14 	lds	r24, 0x147B
     3ca:	88 23       	and	r24, r24
     3cc:	21 f7       	brne	.-56     	; 0x396 <prvIdleTask+0x144>
     3ce:	80 91 78 14 	lds	r24, 0x1478
     3d2:	90 91 79 14 	lds	r25, 0x1479
     3d6:	01 96       	adiw	r24, 0x01	; 1
     3d8:	90 93 79 14 	sts	0x1479, r25
     3dc:	80 93 78 14 	sts	0x1478, r24
     3e0:	e0 90 78 14 	lds	r14, 0x1478
     3e4:	f0 90 79 14 	lds	r15, 0x1479
     3e8:	e1 14       	cp	r14, r1
     3ea:	f1 04       	cpc	r15, r1
     3ec:	09 f5       	brne	.+66     	; 0x430 <prvIdleTask+0x1de>
     3ee:	20 91 be 14 	lds	r18, 0x14BE
     3f2:	30 91 bf 14 	lds	r19, 0x14BF
     3f6:	80 91 c0 14 	lds	r24, 0x14C0
     3fa:	90 91 c1 14 	lds	r25, 0x14C1
     3fe:	90 93 bf 14 	sts	0x14BF, r25
     402:	80 93 be 14 	sts	0x14BE, r24
     406:	30 93 c1 14 	sts	0x14C1, r19
     40a:	20 93 c0 14 	sts	0x14C0, r18
     40e:	80 91 7a 14 	lds	r24, 0x147A
     412:	8f 5f       	subi	r24, 0xFF	; 255
     414:	80 93 7a 14 	sts	0x147A, r24
     418:	e0 91 be 14 	lds	r30, 0x14BE
     41c:	f0 91 bf 14 	lds	r31, 0x14BF
     420:	80 81       	ld	r24, Z
     422:	88 23       	and	r24, r24
     424:	09 f0       	breq	.+2      	; 0x428 <prvIdleTask+0x1d6>
     426:	73 c0       	rjmp	.+230    	; 0x50e <prvIdleTask+0x2bc>
     428:	90 92 41 02 	sts	0x0241, r9
     42c:	80 92 40 02 	sts	0x0240, r8
     430:	80 91 40 02 	lds	r24, 0x0240
     434:	90 91 41 02 	lds	r25, 0x0241
     438:	e8 16       	cp	r14, r24
     43a:	f9 06       	cpc	r15, r25
     43c:	08 f4       	brcc	.+2      	; 0x440 <prvIdleTask+0x1ee>
     43e:	4e c0       	rjmp	.+156    	; 0x4dc <prvIdleTask+0x28a>
     440:	dd 24       	eor	r13, r13
     442:	e0 91 be 14 	lds	r30, 0x14BE
     446:	f0 91 bf 14 	lds	r31, 0x14BF
     44a:	80 81       	ld	r24, Z
     44c:	88 23       	and	r24, r24
     44e:	f1 f1       	breq	.+124    	; 0x4cc <prvIdleTask+0x27a>
     450:	e0 91 be 14 	lds	r30, 0x14BE
     454:	f0 91 bf 14 	lds	r31, 0x14BF
     458:	05 80       	ldd	r0, Z+5	; 0x05
     45a:	f6 81       	ldd	r31, Z+6	; 0x06
     45c:	e0 2d       	mov	r30, r0
     45e:	c6 81       	ldd	r28, Z+6	; 0x06
     460:	d7 81       	ldd	r29, Z+7	; 0x07
     462:	8a 81       	ldd	r24, Y+2	; 0x02
     464:	9b 81       	ldd	r25, Y+3	; 0x03
     466:	e8 16       	cp	r14, r24
     468:	f9 06       	cpc	r15, r25
     46a:	08 f4       	brcc	.+2      	; 0x46e <prvIdleTask+0x21c>
     46c:	61 c0       	rjmp	.+194    	; 0x530 <prvIdleTask+0x2de>
     46e:	8e 01       	movw	r16, r28
     470:	0e 5f       	subi	r16, 0xFE	; 254
     472:	1f 4f       	sbci	r17, 0xFF	; 255
     474:	c8 01       	movw	r24, r16
     476:	0e 94 56 25 	call	0x4aac	; 0x4aac <uxListRemove>
     47a:	8c 89       	ldd	r24, Y+20	; 0x14
     47c:	9d 89       	ldd	r25, Y+21	; 0x15
     47e:	89 2b       	or	r24, r25
     480:	21 f0       	breq	.+8      	; 0x48a <prvIdleTask+0x238>
     482:	ce 01       	movw	r24, r28
     484:	0c 96       	adiw	r24, 0x0c	; 12
     486:	0e 94 56 25 	call	0x4aac	; 0x4aac <uxListRemove>
     48a:	9e 89       	ldd	r25, Y+22	; 0x16
     48c:	80 91 76 14 	lds	r24, 0x1476
     490:	89 17       	cp	r24, r25
     492:	18 f4       	brcc	.+6      	; 0x49a <prvIdleTask+0x248>
     494:	90 93 76 14 	sts	0x1476, r25
     498:	9e 89       	ldd	r25, Y+22	; 0x16
     49a:	9c 9d       	mul	r25, r12
     49c:	c0 01       	movw	r24, r0
     49e:	11 24       	eor	r1, r1
     4a0:	88 57       	subi	r24, 0x78	; 120
     4a2:	9b 4e       	sbci	r25, 0xEB	; 235
     4a4:	b8 01       	movw	r22, r16
     4a6:	0e 94 05 25 	call	0x4a0a	; 0x4a0a <vListInsertEnd>
     4aa:	e0 91 73 14 	lds	r30, 0x1473
     4ae:	f0 91 74 14 	lds	r31, 0x1474
     4b2:	9e 89       	ldd	r25, Y+22	; 0x16
     4b4:	86 89       	ldd	r24, Z+22	; 0x16
     4b6:	98 17       	cp	r25, r24
     4b8:	20 f2       	brcs	.-120    	; 0x442 <prvIdleTask+0x1f0>
     4ba:	dd 24       	eor	r13, r13
     4bc:	d3 94       	inc	r13
     4be:	e0 91 be 14 	lds	r30, 0x14BE
     4c2:	f0 91 bf 14 	lds	r31, 0x14BF
     4c6:	80 81       	ld	r24, Z
     4c8:	88 23       	and	r24, r24
     4ca:	11 f6       	brne	.-124    	; 0x450 <prvIdleTask+0x1fe>
     4cc:	90 92 41 02 	sts	0x0241, r9
     4d0:	80 92 40 02 	sts	0x0240, r8
     4d4:	04 c0       	rjmp	.+8      	; 0x4de <prvIdleTask+0x28c>
     4d6:	70 92 77 14 	sts	0x1477, r7
     4da:	6b cf       	rjmp	.-298    	; 0x3b2 <prvIdleTask+0x160>
     4dc:	dd 24       	eor	r13, r13
     4de:	e0 91 73 14 	lds	r30, 0x1473
     4e2:	f0 91 74 14 	lds	r31, 0x1474
     4e6:	86 89       	ldd	r24, Z+22	; 0x16
     4e8:	90 e0       	ldi	r25, 0x00	; 0
     4ea:	fc 01       	movw	r30, r24
     4ec:	ee 0f       	add	r30, r30
     4ee:	ff 1f       	adc	r31, r31
     4f0:	ee 0f       	add	r30, r30
     4f2:	ff 1f       	adc	r31, r31
     4f4:	ee 0f       	add	r30, r30
     4f6:	ff 1f       	adc	r31, r31
     4f8:	e8 0f       	add	r30, r24
     4fa:	f9 1f       	adc	r31, r25
     4fc:	e8 57       	subi	r30, 0x78	; 120
     4fe:	fb 4e       	sbci	r31, 0xEB	; 235
     500:	80 81       	ld	r24, Z
     502:	82 30       	cpi	r24, 0x02	; 2
     504:	08 f4       	brcc	.+2      	; 0x508 <prvIdleTask+0x2b6>
     506:	4d cf       	rjmp	.-358    	; 0x3a2 <prvIdleTask+0x150>
     508:	dd 24       	eor	r13, r13
     50a:	d3 94       	inc	r13
     50c:	4a cf       	rjmp	.-364    	; 0x3a2 <prvIdleTask+0x150>
     50e:	e0 91 be 14 	lds	r30, 0x14BE
     512:	f0 91 bf 14 	lds	r31, 0x14BF
     516:	05 80       	ldd	r0, Z+5	; 0x05
     518:	f6 81       	ldd	r31, Z+6	; 0x06
     51a:	e0 2d       	mov	r30, r0
     51c:	06 80       	ldd	r0, Z+6	; 0x06
     51e:	f7 81       	ldd	r31, Z+7	; 0x07
     520:	e0 2d       	mov	r30, r0
     522:	82 81       	ldd	r24, Z+2	; 0x02
     524:	93 81       	ldd	r25, Z+3	; 0x03
     526:	90 93 41 02 	sts	0x0241, r25
     52a:	80 93 40 02 	sts	0x0240, r24
     52e:	80 cf       	rjmp	.-256    	; 0x430 <prvIdleTask+0x1de>
     530:	90 93 41 02 	sts	0x0241, r25
     534:	80 93 40 02 	sts	0x0240, r24
     538:	d2 cf       	rjmp	.-92     	; 0x4de <prvIdleTask+0x28c>

0000053a <__ctors_end>:
     53a:	11 24       	eor	r1, r1
     53c:	1f be       	out	0x3f, r1	; 63
     53e:	cf ef       	ldi	r28, 0xFF	; 255
     540:	d1 e2       	ldi	r29, 0x21	; 33
     542:	de bf       	out	0x3e, r29	; 62
     544:	cd bf       	out	0x3d, r28	; 61
     546:	00 e0       	ldi	r16, 0x00	; 0
     548:	0c bf       	out	0x3c, r16	; 60

0000054a <__do_copy_data>:
     54a:	12 e0       	ldi	r17, 0x02	; 2
     54c:	a0 e0       	ldi	r26, 0x00	; 0
     54e:	b2 e0       	ldi	r27, 0x02	; 2
     550:	e4 e9       	ldi	r30, 0x94	; 148
     552:	f9 e5       	ldi	r31, 0x59	; 89
     554:	00 e0       	ldi	r16, 0x00	; 0
     556:	0b bf       	out	0x3b, r16	; 59
     558:	02 c0       	rjmp	.+4      	; 0x55e <__do_copy_data+0x14>
     55a:	07 90       	elpm	r0, Z+
     55c:	0d 92       	st	X+, r0
     55e:	aa 36       	cpi	r26, 0x6A	; 106
     560:	b1 07       	cpc	r27, r17
     562:	d9 f7       	brne	.-10     	; 0x55a <__do_copy_data+0x10>
     564:	1b be       	out	0x3b, r1	; 59

00000566 <__do_clear_bss>:
     566:	15 e1       	ldi	r17, 0x15	; 21
     568:	aa e6       	ldi	r26, 0x6A	; 106
     56a:	b2 e0       	ldi	r27, 0x02	; 2
     56c:	01 c0       	rjmp	.+2      	; 0x570 <.do_clear_bss_start>

0000056e <.do_clear_bss_loop>:
     56e:	1d 92       	st	X+, r1

00000570 <.do_clear_bss_start>:
     570:	ac 35       	cpi	r26, 0x5C	; 92
     572:	b1 07       	cpc	r27, r17
     574:	e1 f7       	brne	.-8      	; 0x56e <.do_clear_bss_loop>
     576:	0e 94 a9 08 	call	0x1152	; 0x1152 <main>
     57a:	0c 94 c8 2c 	jmp	0x5990	; 0x5990 <_exit>

0000057e <__bad_interrupt>:
     57e:	0c 94 00 00 	jmp	0	; 0x0 <__vectors>

00000582 <system_tick>:
     582:	8f 93       	push	r24
     584:	8f b7       	in	r24, 0x3f	; 63
     586:	8f 93       	push	r24
     588:	f8 94       	cli
     58a:	80 91 e4 14 	lds	r24, 0x14E4
     58e:	8f 5f       	subi	r24, 0xFF	; 255
     590:	80 93 e4 14 	sts	0x14E4, r24
     594:	80 91 e5 14 	lds	r24, 0x14E5
     598:	8f 4f       	sbci	r24, 0xFF	; 255
     59a:	80 93 e5 14 	sts	0x14E5, r24
     59e:	80 91 e6 14 	lds	r24, 0x14E6
     5a2:	8f 4f       	sbci	r24, 0xFF	; 255
     5a4:	80 93 e6 14 	sts	0x14E6, r24
     5a8:	80 91 e7 14 	lds	r24, 0x14E7
     5ac:	8f 4f       	sbci	r24, 0xFF	; 255
     5ae:	80 93 e7 14 	sts	0x14E7, r24
     5b2:	8f 91       	pop	r24
     5b4:	8f bf       	out	0x3f, r24	; 63
     5b6:	8f 91       	pop	r24
     5b8:	08 95       	ret

000005ba <vfprintf>:
     5ba:	a1 e1       	ldi	r26, 0x11	; 17
     5bc:	b0 e0       	ldi	r27, 0x00	; 0
     5be:	e3 ee       	ldi	r30, 0xE3	; 227
     5c0:	f2 e0       	ldi	r31, 0x02	; 2
     5c2:	0c 94 91 2c 	jmp	0x5922	; 0x5922 <__prologue_saves__>
     5c6:	3c 01       	movw	r6, r24
     5c8:	7f 87       	std	Y+15, r23	; 0x0f
     5ca:	6e 87       	std	Y+14, r22	; 0x0e
     5cc:	6a 01       	movw	r12, r20
     5ce:	fc 01       	movw	r30, r24
     5d0:	17 82       	std	Z+7, r1	; 0x07
     5d2:	16 82       	std	Z+6, r1	; 0x06
     5d4:	83 81       	ldd	r24, Z+3	; 0x03
     5d6:	81 fd       	sbrc	r24, 1
     5d8:	03 c0       	rjmp	.+6      	; 0x5e0 <vfprintf+0x26>
     5da:	6f ef       	ldi	r22, 0xFF	; 255
     5dc:	7f ef       	ldi	r23, 0xFF	; 255
     5de:	71 c3       	rjmp	.+1762   	; 0xcc2 <vfprintf+0x708>
     5e0:	9e 01       	movw	r18, r28
     5e2:	2f 5f       	subi	r18, 0xFF	; 255
     5e4:	3f 4f       	sbci	r19, 0xFF	; 255
     5e6:	39 8b       	std	Y+17, r19	; 0x11
     5e8:	28 8b       	std	Y+16, r18	; 0x10
     5ea:	f3 01       	movw	r30, r6
     5ec:	23 81       	ldd	r18, Z+3	; 0x03
     5ee:	ee 85       	ldd	r30, Y+14	; 0x0e
     5f0:	ff 85       	ldd	r31, Y+15	; 0x0f
     5f2:	23 fd       	sbrc	r18, 3
     5f4:	85 91       	lpm	r24, Z+
     5f6:	23 ff       	sbrs	r18, 3
     5f8:	81 91       	ld	r24, Z+
     5fa:	ff 87       	std	Y+15, r31	; 0x0f
     5fc:	ee 87       	std	Y+14, r30	; 0x0e
     5fe:	88 23       	and	r24, r24
     600:	09 f4       	brne	.+2      	; 0x604 <vfprintf+0x4a>
     602:	5c c3       	rjmp	.+1720   	; 0xcbc <vfprintf+0x702>
     604:	85 32       	cpi	r24, 0x25	; 37
     606:	51 f4       	brne	.+20     	; 0x61c <vfprintf+0x62>
     608:	ee 85       	ldd	r30, Y+14	; 0x0e
     60a:	ff 85       	ldd	r31, Y+15	; 0x0f
     60c:	23 fd       	sbrc	r18, 3
     60e:	85 91       	lpm	r24, Z+
     610:	23 ff       	sbrs	r18, 3
     612:	81 91       	ld	r24, Z+
     614:	ff 87       	std	Y+15, r31	; 0x0f
     616:	ee 87       	std	Y+14, r30	; 0x0e
     618:	85 32       	cpi	r24, 0x25	; 37
     61a:	29 f4       	brne	.+10     	; 0x626 <vfprintf+0x6c>
     61c:	90 e0       	ldi	r25, 0x00	; 0
     61e:	b3 01       	movw	r22, r6
     620:	0e 94 64 07 	call	0xec8	; 0xec8 <fputc>
     624:	e2 cf       	rjmp	.-60     	; 0x5ea <vfprintf+0x30>
     626:	98 2f       	mov	r25, r24
     628:	10 e0       	ldi	r17, 0x00	; 0
     62a:	88 24       	eor	r8, r8
     62c:	99 24       	eor	r9, r9
     62e:	10 32       	cpi	r17, 0x20	; 32
     630:	b0 f4       	brcc	.+44     	; 0x65e <vfprintf+0xa4>
     632:	9b 32       	cpi	r25, 0x2B	; 43
     634:	69 f0       	breq	.+26     	; 0x650 <vfprintf+0x96>
     636:	9c 32       	cpi	r25, 0x2C	; 44
     638:	28 f4       	brcc	.+10     	; 0x644 <vfprintf+0x8a>
     63a:	90 32       	cpi	r25, 0x20	; 32
     63c:	51 f0       	breq	.+20     	; 0x652 <vfprintf+0x98>
     63e:	93 32       	cpi	r25, 0x23	; 35
     640:	71 f4       	brne	.+28     	; 0x65e <vfprintf+0xa4>
     642:	0b c0       	rjmp	.+22     	; 0x65a <vfprintf+0xa0>
     644:	9d 32       	cpi	r25, 0x2D	; 45
     646:	39 f0       	breq	.+14     	; 0x656 <vfprintf+0x9c>
     648:	90 33       	cpi	r25, 0x30	; 48
     64a:	49 f4       	brne	.+18     	; 0x65e <vfprintf+0xa4>
     64c:	11 60       	ori	r17, 0x01	; 1
     64e:	28 c0       	rjmp	.+80     	; 0x6a0 <vfprintf+0xe6>
     650:	12 60       	ori	r17, 0x02	; 2
     652:	14 60       	ori	r17, 0x04	; 4
     654:	25 c0       	rjmp	.+74     	; 0x6a0 <vfprintf+0xe6>
     656:	18 60       	ori	r17, 0x08	; 8
     658:	23 c0       	rjmp	.+70     	; 0x6a0 <vfprintf+0xe6>
     65a:	10 61       	ori	r17, 0x10	; 16
     65c:	21 c0       	rjmp	.+66     	; 0x6a0 <vfprintf+0xe6>
     65e:	17 fd       	sbrc	r17, 7
     660:	2a c0       	rjmp	.+84     	; 0x6b6 <vfprintf+0xfc>
     662:	89 2f       	mov	r24, r25
     664:	80 53       	subi	r24, 0x30	; 48
     666:	8a 30       	cpi	r24, 0x0A	; 10
     668:	78 f4       	brcc	.+30     	; 0x688 <vfprintf+0xce>
     66a:	16 ff       	sbrs	r17, 6
     66c:	06 c0       	rjmp	.+12     	; 0x67a <vfprintf+0xc0>
     66e:	fa e0       	ldi	r31, 0x0A	; 10
     670:	9f 9e       	mul	r9, r31
     672:	90 2c       	mov	r9, r0
     674:	11 24       	eor	r1, r1
     676:	98 0e       	add	r9, r24
     678:	13 c0       	rjmp	.+38     	; 0x6a0 <vfprintf+0xe6>
     67a:	3a e0       	ldi	r19, 0x0A	; 10
     67c:	83 9e       	mul	r8, r19
     67e:	80 2c       	mov	r8, r0
     680:	11 24       	eor	r1, r1
     682:	88 0e       	add	r8, r24
     684:	10 62       	ori	r17, 0x20	; 32
     686:	0c c0       	rjmp	.+24     	; 0x6a0 <vfprintf+0xe6>
     688:	9e 32       	cpi	r25, 0x2E	; 46
     68a:	21 f4       	brne	.+8      	; 0x694 <vfprintf+0xda>
     68c:	16 fd       	sbrc	r17, 6
     68e:	16 c3       	rjmp	.+1580   	; 0xcbc <vfprintf+0x702>
     690:	10 64       	ori	r17, 0x40	; 64
     692:	06 c0       	rjmp	.+12     	; 0x6a0 <vfprintf+0xe6>
     694:	9c 36       	cpi	r25, 0x6C	; 108
     696:	11 f4       	brne	.+4      	; 0x69c <vfprintf+0xe2>
     698:	10 68       	ori	r17, 0x80	; 128
     69a:	02 c0       	rjmp	.+4      	; 0x6a0 <vfprintf+0xe6>
     69c:	98 36       	cpi	r25, 0x68	; 104
     69e:	59 f4       	brne	.+22     	; 0x6b6 <vfprintf+0xfc>
     6a0:	ee 85       	ldd	r30, Y+14	; 0x0e
     6a2:	ff 85       	ldd	r31, Y+15	; 0x0f
     6a4:	23 fd       	sbrc	r18, 3
     6a6:	95 91       	lpm	r25, Z+
     6a8:	23 ff       	sbrs	r18, 3
     6aa:	91 91       	ld	r25, Z+
     6ac:	ff 87       	std	Y+15, r31	; 0x0f
     6ae:	ee 87       	std	Y+14, r30	; 0x0e
     6b0:	99 23       	and	r25, r25
     6b2:	09 f0       	breq	.+2      	; 0x6b6 <vfprintf+0xfc>
     6b4:	bc cf       	rjmp	.-136    	; 0x62e <vfprintf+0x74>
     6b6:	89 2f       	mov	r24, r25
     6b8:	85 54       	subi	r24, 0x45	; 69
     6ba:	83 30       	cpi	r24, 0x03	; 3
     6bc:	20 f4       	brcc	.+8      	; 0x6c6 <vfprintf+0x10c>
     6be:	81 2f       	mov	r24, r17
     6c0:	80 61       	ori	r24, 0x10	; 16
     6c2:	90 5e       	subi	r25, 0xE0	; 224
     6c4:	07 c0       	rjmp	.+14     	; 0x6d4 <vfprintf+0x11a>
     6c6:	89 2f       	mov	r24, r25
     6c8:	85 56       	subi	r24, 0x65	; 101
     6ca:	83 30       	cpi	r24, 0x03	; 3
     6cc:	08 f0       	brcs	.+2      	; 0x6d0 <vfprintf+0x116>
     6ce:	a1 c1       	rjmp	.+834    	; 0xa12 <vfprintf+0x458>
     6d0:	81 2f       	mov	r24, r17
     6d2:	8f 7e       	andi	r24, 0xEF	; 239
     6d4:	86 fd       	sbrc	r24, 6
     6d6:	02 c0       	rjmp	.+4      	; 0x6dc <vfprintf+0x122>
     6d8:	76 e0       	ldi	r23, 0x06	; 6
     6da:	97 2e       	mov	r9, r23
     6dc:	6f e3       	ldi	r22, 0x3F	; 63
     6de:	f6 2e       	mov	r15, r22
     6e0:	f8 22       	and	r15, r24
     6e2:	95 36       	cpi	r25, 0x65	; 101
     6e4:	19 f4       	brne	.+6      	; 0x6ec <vfprintf+0x132>
     6e6:	f0 e4       	ldi	r31, 0x40	; 64
     6e8:	ff 2a       	or	r15, r31
     6ea:	07 c0       	rjmp	.+14     	; 0x6fa <vfprintf+0x140>
     6ec:	96 36       	cpi	r25, 0x66	; 102
     6ee:	19 f4       	brne	.+6      	; 0x6f6 <vfprintf+0x13c>
     6f0:	20 e8       	ldi	r18, 0x80	; 128
     6f2:	f2 2a       	or	r15, r18
     6f4:	02 c0       	rjmp	.+4      	; 0x6fa <vfprintf+0x140>
     6f6:	91 10       	cpse	r9, r1
     6f8:	9a 94       	dec	r9
     6fa:	f7 fe       	sbrs	r15, 7
     6fc:	0b c0       	rjmp	.+22     	; 0x714 <vfprintf+0x15a>
     6fe:	3b e3       	ldi	r19, 0x3B	; 59
     700:	39 15       	cp	r19, r9
     702:	20 f4       	brcc	.+8      	; 0x70c <vfprintf+0x152>
     704:	27 e0       	ldi	r18, 0x07	; 7
     706:	5c e3       	ldi	r21, 0x3C	; 60
     708:	b5 2e       	mov	r11, r21
     70a:	0e c0       	rjmp	.+28     	; 0x728 <vfprintf+0x16e>
     70c:	b9 2c       	mov	r11, r9
     70e:	b3 94       	inc	r11
     710:	27 e0       	ldi	r18, 0x07	; 7
     712:	0a c0       	rjmp	.+20     	; 0x728 <vfprintf+0x16e>
     714:	47 e0       	ldi	r20, 0x07	; 7
     716:	49 15       	cp	r20, r9
     718:	28 f4       	brcc	.+10     	; 0x724 <vfprintf+0x16a>
     71a:	27 e0       	ldi	r18, 0x07	; 7
     71c:	bb 24       	eor	r11, r11
     71e:	47 e0       	ldi	r20, 0x07	; 7
     720:	94 2e       	mov	r9, r20
     722:	02 c0       	rjmp	.+4      	; 0x728 <vfprintf+0x16e>
     724:	29 2d       	mov	r18, r9
     726:	bb 24       	eor	r11, r11
     728:	c6 01       	movw	r24, r12
     72a:	04 96       	adiw	r24, 0x04	; 4
     72c:	9d 87       	std	Y+13, r25	; 0x0d
     72e:	8c 87       	std	Y+12, r24	; 0x0c
     730:	f6 01       	movw	r30, r12
     732:	60 81       	ld	r22, Z
     734:	71 81       	ldd	r23, Z+1	; 0x01
     736:	82 81       	ldd	r24, Z+2	; 0x02
     738:	93 81       	ldd	r25, Z+3	; 0x03
     73a:	ae 01       	movw	r20, r28
     73c:	4f 5f       	subi	r20, 0xFF	; 255
     73e:	5f 4f       	sbci	r21, 0xFF	; 255
     740:	0b 2d       	mov	r16, r11
     742:	0e 94 66 06 	call	0xccc	; 0xccc <__ftoa_engine>
     746:	6c 01       	movw	r12, r24
     748:	09 81       	ldd	r16, Y+1	; 0x01
     74a:	20 2e       	mov	r2, r16
     74c:	33 24       	eor	r3, r3
     74e:	00 ff       	sbrs	r16, 0
     750:	04 c0       	rjmp	.+8      	; 0x75a <vfprintf+0x1a0>
     752:	03 fd       	sbrc	r16, 3
     754:	02 c0       	rjmp	.+4      	; 0x75a <vfprintf+0x1a0>
     756:	1d e2       	ldi	r17, 0x2D	; 45
     758:	09 c0       	rjmp	.+18     	; 0x76c <vfprintf+0x1b2>
     75a:	f1 fe       	sbrs	r15, 1
     75c:	02 c0       	rjmp	.+4      	; 0x762 <vfprintf+0x1a8>
     75e:	1b e2       	ldi	r17, 0x2B	; 43
     760:	05 c0       	rjmp	.+10     	; 0x76c <vfprintf+0x1b2>
     762:	f2 fc       	sbrc	r15, 2
     764:	02 c0       	rjmp	.+4      	; 0x76a <vfprintf+0x1b0>
     766:	10 e0       	ldi	r17, 0x00	; 0
     768:	01 c0       	rjmp	.+2      	; 0x76c <vfprintf+0x1b2>
     76a:	10 e2       	ldi	r17, 0x20	; 32
     76c:	c1 01       	movw	r24, r2
     76e:	8c 70       	andi	r24, 0x0C	; 12
     770:	90 70       	andi	r25, 0x00	; 0
     772:	89 2b       	or	r24, r25
     774:	b9 f1       	breq	.+110    	; 0x7e4 <vfprintf+0x22a>
     776:	11 23       	and	r17, r17
     778:	11 f4       	brne	.+4      	; 0x77e <vfprintf+0x1c4>
     77a:	83 e0       	ldi	r24, 0x03	; 3
     77c:	01 c0       	rjmp	.+2      	; 0x780 <vfprintf+0x1c6>
     77e:	84 e0       	ldi	r24, 0x04	; 4
     780:	88 15       	cp	r24, r8
     782:	10 f0       	brcs	.+4      	; 0x788 <vfprintf+0x1ce>
     784:	88 24       	eor	r8, r8
     786:	0a c0       	rjmp	.+20     	; 0x79c <vfprintf+0x1e2>
     788:	88 1a       	sub	r8, r24
     78a:	f3 fc       	sbrc	r15, 3
     78c:	07 c0       	rjmp	.+14     	; 0x79c <vfprintf+0x1e2>
     78e:	80 e2       	ldi	r24, 0x20	; 32
     790:	90 e0       	ldi	r25, 0x00	; 0
     792:	b3 01       	movw	r22, r6
     794:	0e 94 64 07 	call	0xec8	; 0xec8 <fputc>
     798:	8a 94       	dec	r8
     79a:	c9 f7       	brne	.-14     	; 0x78e <vfprintf+0x1d4>
     79c:	11 23       	and	r17, r17
     79e:	29 f0       	breq	.+10     	; 0x7aa <vfprintf+0x1f0>
     7a0:	81 2f       	mov	r24, r17
     7a2:	90 e0       	ldi	r25, 0x00	; 0
     7a4:	b3 01       	movw	r22, r6
     7a6:	0e 94 64 07 	call	0xec8	; 0xec8 <fputc>
     7aa:	23 fe       	sbrs	r2, 3
     7ac:	03 c0       	rjmp	.+6      	; 0x7b4 <vfprintf+0x1fa>
     7ae:	00 e5       	ldi	r16, 0x50	; 80
     7b0:	11 e0       	ldi	r17, 0x01	; 1
     7b2:	0e c0       	rjmp	.+28     	; 0x7d0 <vfprintf+0x216>
     7b4:	04 e5       	ldi	r16, 0x54	; 84
     7b6:	11 e0       	ldi	r17, 0x01	; 1
     7b8:	0b c0       	rjmp	.+22     	; 0x7d0 <vfprintf+0x216>
     7ba:	e1 14       	cp	r14, r1
     7bc:	f1 04       	cpc	r15, r1
     7be:	09 f0       	breq	.+2      	; 0x7c2 <vfprintf+0x208>
     7c0:	80 52       	subi	r24, 0x20	; 32
     7c2:	90 e0       	ldi	r25, 0x00	; 0
     7c4:	b3 01       	movw	r22, r6
     7c6:	0e 94 64 07 	call	0xec8	; 0xec8 <fputc>
     7ca:	0f 5f       	subi	r16, 0xFF	; 255
     7cc:	1f 4f       	sbci	r17, 0xFF	; 255
     7ce:	05 c0       	rjmp	.+10     	; 0x7da <vfprintf+0x220>
     7d0:	ef 2c       	mov	r14, r15
     7d2:	ff 24       	eor	r15, r15
     7d4:	f0 e1       	ldi	r31, 0x10	; 16
     7d6:	ef 22       	and	r14, r31
     7d8:	ff 24       	eor	r15, r15
     7da:	f8 01       	movw	r30, r16
     7dc:	84 91       	lpm	r24, Z+
     7de:	88 23       	and	r24, r24
     7e0:	61 f7       	brne	.-40     	; 0x7ba <vfprintf+0x200>
     7e2:	14 c1       	rjmp	.+552    	; 0xa0c <vfprintf+0x452>
     7e4:	f7 fe       	sbrs	r15, 7
     7e6:	12 c0       	rjmp	.+36     	; 0x80c <vfprintf+0x252>
     7e8:	bc 0c       	add	r11, r12
     7ea:	24 fe       	sbrs	r2, 4
     7ec:	04 c0       	rjmp	.+8      	; 0x7f6 <vfprintf+0x23c>
     7ee:	8a 81       	ldd	r24, Y+2	; 0x02
     7f0:	81 33       	cpi	r24, 0x31	; 49
     7f2:	09 f4       	brne	.+2      	; 0x7f6 <vfprintf+0x23c>
     7f4:	ba 94       	dec	r11
     7f6:	1b 14       	cp	r1, r11
     7f8:	1c f0       	brlt	.+6      	; 0x800 <vfprintf+0x246>
     7fa:	bb 24       	eor	r11, r11
     7fc:	b3 94       	inc	r11
     7fe:	2d c0       	rjmp	.+90     	; 0x85a <vfprintf+0x2a0>
     800:	f8 e0       	ldi	r31, 0x08	; 8
     802:	fb 15       	cp	r31, r11
     804:	50 f5       	brcc	.+84     	; 0x85a <vfprintf+0x2a0>
     806:	38 e0       	ldi	r19, 0x08	; 8
     808:	b3 2e       	mov	r11, r19
     80a:	27 c0       	rjmp	.+78     	; 0x85a <vfprintf+0x2a0>
     80c:	f6 fc       	sbrc	r15, 6
     80e:	25 c0       	rjmp	.+74     	; 0x85a <vfprintf+0x2a0>
     810:	89 2d       	mov	r24, r9
     812:	90 e0       	ldi	r25, 0x00	; 0
     814:	8c 15       	cp	r24, r12
     816:	9d 05       	cpc	r25, r13
     818:	4c f0       	brlt	.+18     	; 0x82c <vfprintf+0x272>
     81a:	2c ef       	ldi	r18, 0xFC	; 252
     81c:	c2 16       	cp	r12, r18
     81e:	2f ef       	ldi	r18, 0xFF	; 255
     820:	d2 06       	cpc	r13, r18
     822:	24 f0       	brlt	.+8      	; 0x82c <vfprintf+0x272>
     824:	30 e8       	ldi	r19, 0x80	; 128
     826:	f3 2a       	or	r15, r19
     828:	01 c0       	rjmp	.+2      	; 0x82c <vfprintf+0x272>
     82a:	9a 94       	dec	r9
     82c:	99 20       	and	r9, r9
     82e:	49 f0       	breq	.+18     	; 0x842 <vfprintf+0x288>
     830:	e2 e0       	ldi	r30, 0x02	; 2
     832:	f0 e0       	ldi	r31, 0x00	; 0
     834:	ec 0f       	add	r30, r28
     836:	fd 1f       	adc	r31, r29
     838:	e9 0d       	add	r30, r9
     83a:	f1 1d       	adc	r31, r1
     83c:	80 81       	ld	r24, Z
     83e:	80 33       	cpi	r24, 0x30	; 48
     840:	a1 f3       	breq	.-24     	; 0x82a <vfprintf+0x270>
     842:	f7 fe       	sbrs	r15, 7
     844:	0a c0       	rjmp	.+20     	; 0x85a <vfprintf+0x2a0>
     846:	b9 2c       	mov	r11, r9
     848:	b3 94       	inc	r11
     84a:	89 2d       	mov	r24, r9
     84c:	90 e0       	ldi	r25, 0x00	; 0
     84e:	c8 16       	cp	r12, r24
     850:	d9 06       	cpc	r13, r25
     852:	14 f0       	brlt	.+4      	; 0x858 <vfprintf+0x29e>
     854:	99 24       	eor	r9, r9
     856:	01 c0       	rjmp	.+2      	; 0x85a <vfprintf+0x2a0>
     858:	9c 18       	sub	r9, r12
     85a:	f7 fc       	sbrc	r15, 7
     85c:	03 c0       	rjmp	.+6      	; 0x864 <vfprintf+0x2aa>
     85e:	25 e0       	ldi	r18, 0x05	; 5
     860:	30 e0       	ldi	r19, 0x00	; 0
     862:	09 c0       	rjmp	.+18     	; 0x876 <vfprintf+0x2bc>
     864:	1c 14       	cp	r1, r12
     866:	1d 04       	cpc	r1, r13
     868:	1c f0       	brlt	.+6      	; 0x870 <vfprintf+0x2b6>
     86a:	21 e0       	ldi	r18, 0x01	; 1
     86c:	30 e0       	ldi	r19, 0x00	; 0
     86e:	03 c0       	rjmp	.+6      	; 0x876 <vfprintf+0x2bc>
     870:	96 01       	movw	r18, r12
     872:	2f 5f       	subi	r18, 0xFF	; 255
     874:	3f 4f       	sbci	r19, 0xFF	; 255
     876:	11 23       	and	r17, r17
     878:	11 f0       	breq	.+4      	; 0x87e <vfprintf+0x2c4>
     87a:	2f 5f       	subi	r18, 0xFF	; 255
     87c:	3f 4f       	sbci	r19, 0xFF	; 255
     87e:	99 20       	and	r9, r9
     880:	29 f0       	breq	.+10     	; 0x88c <vfprintf+0x2d2>
     882:	89 2d       	mov	r24, r9
     884:	90 e0       	ldi	r25, 0x00	; 0
     886:	01 96       	adiw	r24, 0x01	; 1
     888:	28 0f       	add	r18, r24
     88a:	39 1f       	adc	r19, r25
     88c:	88 2d       	mov	r24, r8
     88e:	90 e0       	ldi	r25, 0x00	; 0
     890:	28 17       	cp	r18, r24
     892:	39 07       	cpc	r19, r25
     894:	14 f0       	brlt	.+4      	; 0x89a <vfprintf+0x2e0>
     896:	88 24       	eor	r8, r8
     898:	01 c0       	rjmp	.+2      	; 0x89c <vfprintf+0x2e2>
     89a:	82 1a       	sub	r8, r18
     89c:	4f 2c       	mov	r4, r15
     89e:	55 24       	eor	r5, r5
     8a0:	c2 01       	movw	r24, r4
     8a2:	89 70       	andi	r24, 0x09	; 9
     8a4:	90 70       	andi	r25, 0x00	; 0
     8a6:	89 2b       	or	r24, r25
     8a8:	39 f0       	breq	.+14     	; 0x8b8 <vfprintf+0x2fe>
     8aa:	08 c0       	rjmp	.+16     	; 0x8bc <vfprintf+0x302>
     8ac:	80 e2       	ldi	r24, 0x20	; 32
     8ae:	90 e0       	ldi	r25, 0x00	; 0
     8b0:	b3 01       	movw	r22, r6
     8b2:	0e 94 64 07 	call	0xec8	; 0xec8 <fputc>
     8b6:	8a 94       	dec	r8
     8b8:	88 20       	and	r8, r8
     8ba:	c1 f7       	brne	.-16     	; 0x8ac <vfprintf+0x2f2>
     8bc:	11 23       	and	r17, r17
     8be:	29 f0       	breq	.+10     	; 0x8ca <vfprintf+0x310>
     8c0:	81 2f       	mov	r24, r17
     8c2:	90 e0       	ldi	r25, 0x00	; 0
     8c4:	b3 01       	movw	r22, r6
     8c6:	0e 94 64 07 	call	0xec8	; 0xec8 <fputc>
     8ca:	43 fe       	sbrs	r4, 3
     8cc:	07 c0       	rjmp	.+14     	; 0x8dc <vfprintf+0x322>
     8ce:	08 c0       	rjmp	.+16     	; 0x8e0 <vfprintf+0x326>
     8d0:	80 e3       	ldi	r24, 0x30	; 48
     8d2:	90 e0       	ldi	r25, 0x00	; 0
     8d4:	b3 01       	movw	r22, r6
     8d6:	0e 94 64 07 	call	0xec8	; 0xec8 <fputc>
     8da:	8a 94       	dec	r8
     8dc:	88 20       	and	r8, r8
     8de:	c1 f7       	brne	.-16     	; 0x8d0 <vfprintf+0x316>
     8e0:	f7 fe       	sbrs	r15, 7
     8e2:	46 c0       	rjmp	.+140    	; 0x970 <vfprintf+0x3b6>
     8e4:	86 01       	movw	r16, r12
     8e6:	d7 fe       	sbrs	r13, 7
     8e8:	02 c0       	rjmp	.+4      	; 0x8ee <vfprintf+0x334>
     8ea:	00 e0       	ldi	r16, 0x00	; 0
     8ec:	10 e0       	ldi	r17, 0x00	; 0
     8ee:	76 01       	movw	r14, r12
     8f0:	08 94       	sec
     8f2:	e1 1c       	adc	r14, r1
     8f4:	f1 1c       	adc	r15, r1
     8f6:	e0 1a       	sub	r14, r16
     8f8:	f1 0a       	sbc	r15, r17
     8fa:	41 e0       	ldi	r20, 0x01	; 1
     8fc:	50 e0       	ldi	r21, 0x00	; 0
     8fe:	4c 0f       	add	r20, r28
     900:	5d 1f       	adc	r21, r29
     902:	e4 0e       	add	r14, r20
     904:	f5 1e       	adc	r15, r21
     906:	26 01       	movw	r4, r12
     908:	4b 18       	sub	r4, r11
     90a:	51 08       	sbc	r5, r1
     90c:	89 2d       	mov	r24, r9
     90e:	90 e0       	ldi	r25, 0x00	; 0
     910:	aa 24       	eor	r10, r10
     912:	bb 24       	eor	r11, r11
     914:	a8 1a       	sub	r10, r24
     916:	b9 0a       	sbc	r11, r25
     918:	5f ef       	ldi	r21, 0xFF	; 255
     91a:	0f 3f       	cpi	r16, 0xFF	; 255
     91c:	15 07       	cpc	r17, r21
     91e:	29 f4       	brne	.+10     	; 0x92a <vfprintf+0x370>
     920:	8e e2       	ldi	r24, 0x2E	; 46
     922:	90 e0       	ldi	r25, 0x00	; 0
     924:	b3 01       	movw	r22, r6
     926:	0e 94 64 07 	call	0xec8	; 0xec8 <fputc>
     92a:	c0 16       	cp	r12, r16
     92c:	d1 06       	cpc	r13, r17
     92e:	34 f0       	brlt	.+12     	; 0x93c <vfprintf+0x382>
     930:	40 16       	cp	r4, r16
     932:	51 06       	cpc	r5, r17
     934:	1c f4       	brge	.+6      	; 0x93c <vfprintf+0x382>
     936:	f7 01       	movw	r30, r14
     938:	80 81       	ld	r24, Z
     93a:	01 c0       	rjmp	.+2      	; 0x93e <vfprintf+0x384>
     93c:	80 e3       	ldi	r24, 0x30	; 48
     93e:	01 50       	subi	r16, 0x01	; 1
     940:	10 40       	sbci	r17, 0x00	; 0
     942:	08 94       	sec
     944:	e1 1c       	adc	r14, r1
     946:	f1 1c       	adc	r15, r1
     948:	0a 15       	cp	r16, r10
     94a:	1b 05       	cpc	r17, r11
     94c:	2c f0       	brlt	.+10     	; 0x958 <vfprintf+0x39e>
     94e:	90 e0       	ldi	r25, 0x00	; 0
     950:	b3 01       	movw	r22, r6
     952:	0e 94 64 07 	call	0xec8	; 0xec8 <fputc>
     956:	e0 cf       	rjmp	.-64     	; 0x918 <vfprintf+0x35e>
     958:	0c 15       	cp	r16, r12
     95a:	1d 05       	cpc	r17, r13
     95c:	39 f4       	brne	.+14     	; 0x96c <vfprintf+0x3b2>
     95e:	9a 81       	ldd	r25, Y+2	; 0x02
     960:	96 33       	cpi	r25, 0x36	; 54
     962:	18 f4       	brcc	.+6      	; 0x96a <vfprintf+0x3b0>
     964:	95 33       	cpi	r25, 0x35	; 53
     966:	11 f4       	brne	.+4      	; 0x96c <vfprintf+0x3b2>
     968:	24 fe       	sbrs	r2, 4
     96a:	81 e3       	ldi	r24, 0x31	; 49
     96c:	90 e0       	ldi	r25, 0x00	; 0
     96e:	4b c0       	rjmp	.+150    	; 0xa06 <vfprintf+0x44c>
     970:	8a 81       	ldd	r24, Y+2	; 0x02
     972:	81 33       	cpi	r24, 0x31	; 49
     974:	09 f0       	breq	.+2      	; 0x978 <vfprintf+0x3be>
     976:	0f 7e       	andi	r16, 0xEF	; 239
     978:	90 e0       	ldi	r25, 0x00	; 0
     97a:	b3 01       	movw	r22, r6
     97c:	0e 94 64 07 	call	0xec8	; 0xec8 <fputc>
     980:	99 20       	and	r9, r9
     982:	a1 f0       	breq	.+40     	; 0x9ac <vfprintf+0x3f2>
     984:	8e e2       	ldi	r24, 0x2E	; 46
     986:	90 e0       	ldi	r25, 0x00	; 0
     988:	b3 01       	movw	r22, r6
     98a:	0e 94 64 07 	call	0xec8	; 0xec8 <fputc>
     98e:	12 e0       	ldi	r17, 0x02	; 2
     990:	e1 e0       	ldi	r30, 0x01	; 1
     992:	f0 e0       	ldi	r31, 0x00	; 0
     994:	ec 0f       	add	r30, r28
     996:	fd 1f       	adc	r31, r29
     998:	e1 0f       	add	r30, r17
     99a:	f1 1d       	adc	r31, r1
     99c:	1f 5f       	subi	r17, 0xFF	; 255
     99e:	80 81       	ld	r24, Z
     9a0:	90 e0       	ldi	r25, 0x00	; 0
     9a2:	b3 01       	movw	r22, r6
     9a4:	0e 94 64 07 	call	0xec8	; 0xec8 <fputc>
     9a8:	9a 94       	dec	r9
     9aa:	91 f7       	brne	.-28     	; 0x990 <vfprintf+0x3d6>
     9ac:	44 fc       	sbrc	r4, 4
     9ae:	03 c0       	rjmp	.+6      	; 0x9b6 <vfprintf+0x3fc>
     9b0:	85 e6       	ldi	r24, 0x65	; 101
     9b2:	90 e0       	ldi	r25, 0x00	; 0
     9b4:	02 c0       	rjmp	.+4      	; 0x9ba <vfprintf+0x400>
     9b6:	85 e4       	ldi	r24, 0x45	; 69
     9b8:	90 e0       	ldi	r25, 0x00	; 0
     9ba:	b3 01       	movw	r22, r6
     9bc:	0e 94 64 07 	call	0xec8	; 0xec8 <fputc>
     9c0:	d7 fc       	sbrc	r13, 7
     9c2:	05 c0       	rjmp	.+10     	; 0x9ce <vfprintf+0x414>
     9c4:	c1 14       	cp	r12, r1
     9c6:	d1 04       	cpc	r13, r1
     9c8:	41 f4       	brne	.+16     	; 0x9da <vfprintf+0x420>
     9ca:	04 ff       	sbrs	r16, 4
     9cc:	06 c0       	rjmp	.+12     	; 0x9da <vfprintf+0x420>
     9ce:	d0 94       	com	r13
     9d0:	c1 94       	neg	r12
     9d2:	d1 08       	sbc	r13, r1
     9d4:	d3 94       	inc	r13
     9d6:	8d e2       	ldi	r24, 0x2D	; 45
     9d8:	01 c0       	rjmp	.+2      	; 0x9dc <vfprintf+0x422>
     9da:	8b e2       	ldi	r24, 0x2B	; 43
     9dc:	90 e0       	ldi	r25, 0x00	; 0
     9de:	b3 01       	movw	r22, r6
     9e0:	0e 94 64 07 	call	0xec8	; 0xec8 <fputc>
     9e4:	80 e3       	ldi	r24, 0x30	; 48
     9e6:	05 c0       	rjmp	.+10     	; 0x9f2 <vfprintf+0x438>
     9e8:	8f 5f       	subi	r24, 0xFF	; 255
     9ea:	26 ef       	ldi	r18, 0xF6	; 246
     9ec:	3f ef       	ldi	r19, 0xFF	; 255
     9ee:	c2 0e       	add	r12, r18
     9f0:	d3 1e       	adc	r13, r19
     9f2:	3a e0       	ldi	r19, 0x0A	; 10
     9f4:	c3 16       	cp	r12, r19
     9f6:	d1 04       	cpc	r13, r1
     9f8:	bc f7       	brge	.-18     	; 0x9e8 <vfprintf+0x42e>
     9fa:	90 e0       	ldi	r25, 0x00	; 0
     9fc:	b3 01       	movw	r22, r6
     9fe:	0e 94 64 07 	call	0xec8	; 0xec8 <fputc>
     a02:	c6 01       	movw	r24, r12
     a04:	c0 96       	adiw	r24, 0x30	; 48
     a06:	b3 01       	movw	r22, r6
     a08:	0e 94 64 07 	call	0xec8	; 0xec8 <fputc>
     a0c:	cc 84       	ldd	r12, Y+12	; 0x0c
     a0e:	dd 84       	ldd	r13, Y+13	; 0x0d
     a10:	52 c1       	rjmp	.+676    	; 0xcb6 <vfprintf+0x6fc>
     a12:	93 36       	cpi	r25, 0x63	; 99
     a14:	31 f0       	breq	.+12     	; 0xa22 <vfprintf+0x468>
     a16:	93 37       	cpi	r25, 0x73	; 115
     a18:	99 f0       	breq	.+38     	; 0xa40 <vfprintf+0x486>
     a1a:	93 35       	cpi	r25, 0x53	; 83
     a1c:	09 f0       	breq	.+2      	; 0xa20 <vfprintf+0x466>
     a1e:	59 c0       	rjmp	.+178    	; 0xad2 <vfprintf+0x518>
     a20:	23 c0       	rjmp	.+70     	; 0xa68 <vfprintf+0x4ae>
     a22:	f6 01       	movw	r30, r12
     a24:	80 81       	ld	r24, Z
     a26:	89 83       	std	Y+1, r24	; 0x01
     a28:	5e 01       	movw	r10, r28
     a2a:	08 94       	sec
     a2c:	a1 1c       	adc	r10, r1
     a2e:	b1 1c       	adc	r11, r1
     a30:	22 e0       	ldi	r18, 0x02	; 2
     a32:	30 e0       	ldi	r19, 0x00	; 0
     a34:	c2 0e       	add	r12, r18
     a36:	d3 1e       	adc	r13, r19
     a38:	21 e0       	ldi	r18, 0x01	; 1
     a3a:	e2 2e       	mov	r14, r18
     a3c:	f1 2c       	mov	r15, r1
     a3e:	12 c0       	rjmp	.+36     	; 0xa64 <vfprintf+0x4aa>
     a40:	f6 01       	movw	r30, r12
     a42:	a0 80       	ld	r10, Z
     a44:	b1 80       	ldd	r11, Z+1	; 0x01
     a46:	16 fd       	sbrc	r17, 6
     a48:	03 c0       	rjmp	.+6      	; 0xa50 <vfprintf+0x496>
     a4a:	6f ef       	ldi	r22, 0xFF	; 255
     a4c:	7f ef       	ldi	r23, 0xFF	; 255
     a4e:	02 c0       	rjmp	.+4      	; 0xa54 <vfprintf+0x49a>
     a50:	69 2d       	mov	r22, r9
     a52:	70 e0       	ldi	r23, 0x00	; 0
     a54:	22 e0       	ldi	r18, 0x02	; 2
     a56:	30 e0       	ldi	r19, 0x00	; 0
     a58:	c2 0e       	add	r12, r18
     a5a:	d3 1e       	adc	r13, r19
     a5c:	c5 01       	movw	r24, r10
     a5e:	0e 94 59 07 	call	0xeb2	; 0xeb2 <strnlen>
     a62:	7c 01       	movw	r14, r24
     a64:	1f 77       	andi	r17, 0x7F	; 127
     a66:	13 c0       	rjmp	.+38     	; 0xa8e <vfprintf+0x4d4>
     a68:	f6 01       	movw	r30, r12
     a6a:	a0 80       	ld	r10, Z
     a6c:	b1 80       	ldd	r11, Z+1	; 0x01
     a6e:	16 fd       	sbrc	r17, 6
     a70:	03 c0       	rjmp	.+6      	; 0xa78 <vfprintf+0x4be>
     a72:	6f ef       	ldi	r22, 0xFF	; 255
     a74:	7f ef       	ldi	r23, 0xFF	; 255
     a76:	02 c0       	rjmp	.+4      	; 0xa7c <vfprintf+0x4c2>
     a78:	69 2d       	mov	r22, r9
     a7a:	70 e0       	ldi	r23, 0x00	; 0
     a7c:	22 e0       	ldi	r18, 0x02	; 2
     a7e:	30 e0       	ldi	r19, 0x00	; 0
     a80:	c2 0e       	add	r12, r18
     a82:	d3 1e       	adc	r13, r19
     a84:	c5 01       	movw	r24, r10
     a86:	0e 94 47 07 	call	0xe8e	; 0xe8e <strnlen_P>
     a8a:	7c 01       	movw	r14, r24
     a8c:	10 68       	ori	r17, 0x80	; 128
     a8e:	13 ff       	sbrs	r17, 3
     a90:	07 c0       	rjmp	.+14     	; 0xaa0 <vfprintf+0x4e6>
     a92:	1b c0       	rjmp	.+54     	; 0xaca <vfprintf+0x510>
     a94:	80 e2       	ldi	r24, 0x20	; 32
     a96:	90 e0       	ldi	r25, 0x00	; 0
     a98:	b3 01       	movw	r22, r6
     a9a:	0e 94 64 07 	call	0xec8	; 0xec8 <fputc>
     a9e:	8a 94       	dec	r8
     aa0:	88 2d       	mov	r24, r8
     aa2:	90 e0       	ldi	r25, 0x00	; 0
     aa4:	e8 16       	cp	r14, r24
     aa6:	f9 06       	cpc	r15, r25
     aa8:	a8 f3       	brcs	.-22     	; 0xa94 <vfprintf+0x4da>
     aaa:	0f c0       	rjmp	.+30     	; 0xaca <vfprintf+0x510>
     aac:	f5 01       	movw	r30, r10
     aae:	17 fd       	sbrc	r17, 7
     ab0:	85 91       	lpm	r24, Z+
     ab2:	17 ff       	sbrs	r17, 7
     ab4:	81 91       	ld	r24, Z+
     ab6:	5f 01       	movw	r10, r30
     ab8:	90 e0       	ldi	r25, 0x00	; 0
     aba:	b3 01       	movw	r22, r6
     abc:	0e 94 64 07 	call	0xec8	; 0xec8 <fputc>
     ac0:	81 10       	cpse	r8, r1
     ac2:	8a 94       	dec	r8
     ac4:	08 94       	sec
     ac6:	e1 08       	sbc	r14, r1
     ac8:	f1 08       	sbc	r15, r1
     aca:	e1 14       	cp	r14, r1
     acc:	f1 04       	cpc	r15, r1
     ace:	71 f7       	brne	.-36     	; 0xaac <vfprintf+0x4f2>
     ad0:	f2 c0       	rjmp	.+484    	; 0xcb6 <vfprintf+0x6fc>
     ad2:	94 36       	cpi	r25, 0x64	; 100
     ad4:	11 f0       	breq	.+4      	; 0xada <vfprintf+0x520>
     ad6:	99 36       	cpi	r25, 0x69	; 105
     ad8:	89 f5       	brne	.+98     	; 0xb3c <vfprintf+0x582>
     ada:	17 ff       	sbrs	r17, 7
     adc:	08 c0       	rjmp	.+16     	; 0xaee <vfprintf+0x534>
     ade:	f6 01       	movw	r30, r12
     ae0:	20 81       	ld	r18, Z
     ae2:	31 81       	ldd	r19, Z+1	; 0x01
     ae4:	42 81       	ldd	r20, Z+2	; 0x02
     ae6:	53 81       	ldd	r21, Z+3	; 0x03
     ae8:	84 e0       	ldi	r24, 0x04	; 4
     aea:	90 e0       	ldi	r25, 0x00	; 0
     aec:	0a c0       	rjmp	.+20     	; 0xb02 <vfprintf+0x548>
     aee:	f6 01       	movw	r30, r12
     af0:	80 81       	ld	r24, Z
     af2:	91 81       	ldd	r25, Z+1	; 0x01
     af4:	9c 01       	movw	r18, r24
     af6:	44 27       	eor	r20, r20
     af8:	37 fd       	sbrc	r19, 7
     afa:	40 95       	com	r20
     afc:	54 2f       	mov	r21, r20
     afe:	82 e0       	ldi	r24, 0x02	; 2
     b00:	90 e0       	ldi	r25, 0x00	; 0
     b02:	c8 0e       	add	r12, r24
     b04:	d9 1e       	adc	r13, r25
     b06:	9f e6       	ldi	r25, 0x6F	; 111
     b08:	f9 2e       	mov	r15, r25
     b0a:	f1 22       	and	r15, r17
     b0c:	57 ff       	sbrs	r21, 7
     b0e:	09 c0       	rjmp	.+18     	; 0xb22 <vfprintf+0x568>
     b10:	50 95       	com	r21
     b12:	40 95       	com	r20
     b14:	30 95       	com	r19
     b16:	21 95       	neg	r18
     b18:	3f 4f       	sbci	r19, 0xFF	; 255
     b1a:	4f 4f       	sbci	r20, 0xFF	; 255
     b1c:	5f 4f       	sbci	r21, 0xFF	; 255
     b1e:	90 e8       	ldi	r25, 0x80	; 128
     b20:	f9 2a       	or	r15, r25
     b22:	ca 01       	movw	r24, r20
     b24:	b9 01       	movw	r22, r18
     b26:	ae 01       	movw	r20, r28
     b28:	4f 5f       	subi	r20, 0xFF	; 255
     b2a:	5f 4f       	sbci	r21, 0xFF	; 255
     b2c:	2a e0       	ldi	r18, 0x0A	; 10
     b2e:	30 e0       	ldi	r19, 0x00	; 0
     b30:	0e 94 08 08 	call	0x1010	; 0x1010 <__ultoa_invert>
     b34:	e8 2e       	mov	r14, r24
     b36:	e8 89       	ldd	r30, Y+16	; 0x10
     b38:	ee 1a       	sub	r14, r30
     b3a:	41 c0       	rjmp	.+130    	; 0xbbe <vfprintf+0x604>
     b3c:	95 37       	cpi	r25, 0x75	; 117
     b3e:	21 f4       	brne	.+8      	; 0xb48 <vfprintf+0x58e>
     b40:	1f 7e       	andi	r17, 0xEF	; 239
     b42:	2a e0       	ldi	r18, 0x0A	; 10
     b44:	30 e0       	ldi	r19, 0x00	; 0
     b46:	1c c0       	rjmp	.+56     	; 0xb80 <vfprintf+0x5c6>
     b48:	19 7f       	andi	r17, 0xF9	; 249
     b4a:	9f 36       	cpi	r25, 0x6F	; 111
     b4c:	61 f0       	breq	.+24     	; 0xb66 <vfprintf+0x5ac>
     b4e:	90 37       	cpi	r25, 0x70	; 112
     b50:	20 f4       	brcc	.+8      	; 0xb5a <vfprintf+0x5a0>
     b52:	98 35       	cpi	r25, 0x58	; 88
     b54:	09 f0       	breq	.+2      	; 0xb58 <vfprintf+0x59e>
     b56:	b2 c0       	rjmp	.+356    	; 0xcbc <vfprintf+0x702>
     b58:	0f c0       	rjmp	.+30     	; 0xb78 <vfprintf+0x5be>
     b5a:	90 37       	cpi	r25, 0x70	; 112
     b5c:	39 f0       	breq	.+14     	; 0xb6c <vfprintf+0x5b2>
     b5e:	98 37       	cpi	r25, 0x78	; 120
     b60:	09 f0       	breq	.+2      	; 0xb64 <vfprintf+0x5aa>
     b62:	ac c0       	rjmp	.+344    	; 0xcbc <vfprintf+0x702>
     b64:	04 c0       	rjmp	.+8      	; 0xb6e <vfprintf+0x5b4>
     b66:	28 e0       	ldi	r18, 0x08	; 8
     b68:	30 e0       	ldi	r19, 0x00	; 0
     b6a:	0a c0       	rjmp	.+20     	; 0xb80 <vfprintf+0x5c6>
     b6c:	10 61       	ori	r17, 0x10	; 16
     b6e:	14 fd       	sbrc	r17, 4
     b70:	14 60       	ori	r17, 0x04	; 4
     b72:	20 e1       	ldi	r18, 0x10	; 16
     b74:	30 e0       	ldi	r19, 0x00	; 0
     b76:	04 c0       	rjmp	.+8      	; 0xb80 <vfprintf+0x5c6>
     b78:	14 fd       	sbrc	r17, 4
     b7a:	16 60       	ori	r17, 0x06	; 6
     b7c:	20 e1       	ldi	r18, 0x10	; 16
     b7e:	32 e0       	ldi	r19, 0x02	; 2
     b80:	17 ff       	sbrs	r17, 7
     b82:	08 c0       	rjmp	.+16     	; 0xb94 <vfprintf+0x5da>
     b84:	f6 01       	movw	r30, r12
     b86:	60 81       	ld	r22, Z
     b88:	71 81       	ldd	r23, Z+1	; 0x01
     b8a:	82 81       	ldd	r24, Z+2	; 0x02
     b8c:	93 81       	ldd	r25, Z+3	; 0x03
     b8e:	44 e0       	ldi	r20, 0x04	; 4
     b90:	50 e0       	ldi	r21, 0x00	; 0
     b92:	08 c0       	rjmp	.+16     	; 0xba4 <vfprintf+0x5ea>
     b94:	f6 01       	movw	r30, r12
     b96:	80 81       	ld	r24, Z
     b98:	91 81       	ldd	r25, Z+1	; 0x01
     b9a:	bc 01       	movw	r22, r24
     b9c:	80 e0       	ldi	r24, 0x00	; 0
     b9e:	90 e0       	ldi	r25, 0x00	; 0
     ba0:	42 e0       	ldi	r20, 0x02	; 2
     ba2:	50 e0       	ldi	r21, 0x00	; 0
     ba4:	c4 0e       	add	r12, r20
     ba6:	d5 1e       	adc	r13, r21
     ba8:	ae 01       	movw	r20, r28
     baa:	4f 5f       	subi	r20, 0xFF	; 255
     bac:	5f 4f       	sbci	r21, 0xFF	; 255
     bae:	0e 94 08 08 	call	0x1010	; 0x1010 <__ultoa_invert>
     bb2:	e8 2e       	mov	r14, r24
     bb4:	58 89       	ldd	r21, Y+16	; 0x10
     bb6:	e5 1a       	sub	r14, r21
     bb8:	8f e7       	ldi	r24, 0x7F	; 127
     bba:	f8 2e       	mov	r15, r24
     bbc:	f1 22       	and	r15, r17
     bbe:	f6 fe       	sbrs	r15, 6
     bc0:	0b c0       	rjmp	.+22     	; 0xbd8 <vfprintf+0x61e>
     bc2:	8e ef       	ldi	r24, 0xFE	; 254
     bc4:	f8 22       	and	r15, r24
     bc6:	e9 14       	cp	r14, r9
     bc8:	38 f4       	brcc	.+14     	; 0xbd8 <vfprintf+0x61e>
     bca:	f4 fe       	sbrs	r15, 4
     bcc:	07 c0       	rjmp	.+14     	; 0xbdc <vfprintf+0x622>
     bce:	f2 fc       	sbrc	r15, 2
     bd0:	05 c0       	rjmp	.+10     	; 0xbdc <vfprintf+0x622>
     bd2:	9f ee       	ldi	r25, 0xEF	; 239
     bd4:	f9 22       	and	r15, r25
     bd6:	02 c0       	rjmp	.+4      	; 0xbdc <vfprintf+0x622>
     bd8:	1e 2d       	mov	r17, r14
     bda:	01 c0       	rjmp	.+2      	; 0xbde <vfprintf+0x624>
     bdc:	19 2d       	mov	r17, r9
     bde:	f4 fe       	sbrs	r15, 4
     be0:	0d c0       	rjmp	.+26     	; 0xbfc <vfprintf+0x642>
     be2:	fe 01       	movw	r30, r28
     be4:	ee 0d       	add	r30, r14
     be6:	f1 1d       	adc	r31, r1
     be8:	80 81       	ld	r24, Z
     bea:	80 33       	cpi	r24, 0x30	; 48
     bec:	19 f4       	brne	.+6      	; 0xbf4 <vfprintf+0x63a>
     bee:	e9 ee       	ldi	r30, 0xE9	; 233
     bf0:	fe 22       	and	r15, r30
     bf2:	08 c0       	rjmp	.+16     	; 0xc04 <vfprintf+0x64a>
     bf4:	1f 5f       	subi	r17, 0xFF	; 255
     bf6:	f2 fe       	sbrs	r15, 2
     bf8:	05 c0       	rjmp	.+10     	; 0xc04 <vfprintf+0x64a>
     bfa:	03 c0       	rjmp	.+6      	; 0xc02 <vfprintf+0x648>
     bfc:	8f 2d       	mov	r24, r15
     bfe:	86 78       	andi	r24, 0x86	; 134
     c00:	09 f0       	breq	.+2      	; 0xc04 <vfprintf+0x64a>
     c02:	1f 5f       	subi	r17, 0xFF	; 255
     c04:	0f 2d       	mov	r16, r15
     c06:	f3 fc       	sbrc	r15, 3
     c08:	14 c0       	rjmp	.+40     	; 0xc32 <vfprintf+0x678>
     c0a:	f0 fe       	sbrs	r15, 0
     c0c:	0f c0       	rjmp	.+30     	; 0xc2c <vfprintf+0x672>
     c0e:	18 15       	cp	r17, r8
     c10:	10 f0       	brcs	.+4      	; 0xc16 <vfprintf+0x65c>
     c12:	9e 2c       	mov	r9, r14
     c14:	0b c0       	rjmp	.+22     	; 0xc2c <vfprintf+0x672>
     c16:	9e 2c       	mov	r9, r14
     c18:	98 0c       	add	r9, r8
     c1a:	91 1a       	sub	r9, r17
     c1c:	18 2d       	mov	r17, r8
     c1e:	06 c0       	rjmp	.+12     	; 0xc2c <vfprintf+0x672>
     c20:	80 e2       	ldi	r24, 0x20	; 32
     c22:	90 e0       	ldi	r25, 0x00	; 0
     c24:	b3 01       	movw	r22, r6
     c26:	0e 94 64 07 	call	0xec8	; 0xec8 <fputc>
     c2a:	1f 5f       	subi	r17, 0xFF	; 255
     c2c:	18 15       	cp	r17, r8
     c2e:	c0 f3       	brcs	.-16     	; 0xc20 <vfprintf+0x666>
     c30:	04 c0       	rjmp	.+8      	; 0xc3a <vfprintf+0x680>
     c32:	18 15       	cp	r17, r8
     c34:	10 f4       	brcc	.+4      	; 0xc3a <vfprintf+0x680>
     c36:	81 1a       	sub	r8, r17
     c38:	01 c0       	rjmp	.+2      	; 0xc3c <vfprintf+0x682>
     c3a:	88 24       	eor	r8, r8
     c3c:	04 ff       	sbrs	r16, 4
     c3e:	0f c0       	rjmp	.+30     	; 0xc5e <vfprintf+0x6a4>
     c40:	80 e3       	ldi	r24, 0x30	; 48
     c42:	90 e0       	ldi	r25, 0x00	; 0
     c44:	b3 01       	movw	r22, r6
     c46:	0e 94 64 07 	call	0xec8	; 0xec8 <fputc>
     c4a:	02 ff       	sbrs	r16, 2
     c4c:	1d c0       	rjmp	.+58     	; 0xc88 <vfprintf+0x6ce>
     c4e:	01 fd       	sbrc	r16, 1
     c50:	03 c0       	rjmp	.+6      	; 0xc58 <vfprintf+0x69e>
     c52:	88 e7       	ldi	r24, 0x78	; 120
     c54:	90 e0       	ldi	r25, 0x00	; 0
     c56:	0e c0       	rjmp	.+28     	; 0xc74 <vfprintf+0x6ba>
     c58:	88 e5       	ldi	r24, 0x58	; 88
     c5a:	90 e0       	ldi	r25, 0x00	; 0
     c5c:	0b c0       	rjmp	.+22     	; 0xc74 <vfprintf+0x6ba>
     c5e:	80 2f       	mov	r24, r16
     c60:	86 78       	andi	r24, 0x86	; 134
     c62:	91 f0       	breq	.+36     	; 0xc88 <vfprintf+0x6ce>
     c64:	01 ff       	sbrs	r16, 1
     c66:	02 c0       	rjmp	.+4      	; 0xc6c <vfprintf+0x6b2>
     c68:	8b e2       	ldi	r24, 0x2B	; 43
     c6a:	01 c0       	rjmp	.+2      	; 0xc6e <vfprintf+0x6b4>
     c6c:	80 e2       	ldi	r24, 0x20	; 32
     c6e:	f7 fc       	sbrc	r15, 7
     c70:	8d e2       	ldi	r24, 0x2D	; 45
     c72:	90 e0       	ldi	r25, 0x00	; 0
     c74:	b3 01       	movw	r22, r6
     c76:	0e 94 64 07 	call	0xec8	; 0xec8 <fputc>
     c7a:	06 c0       	rjmp	.+12     	; 0xc88 <vfprintf+0x6ce>
     c7c:	80 e3       	ldi	r24, 0x30	; 48
     c7e:	90 e0       	ldi	r25, 0x00	; 0
     c80:	b3 01       	movw	r22, r6
     c82:	0e 94 64 07 	call	0xec8	; 0xec8 <fputc>
     c86:	9a 94       	dec	r9
     c88:	e9 14       	cp	r14, r9
     c8a:	c0 f3       	brcs	.-16     	; 0xc7c <vfprintf+0x6c2>
     c8c:	ea 94       	dec	r14
     c8e:	e1 e0       	ldi	r30, 0x01	; 1
     c90:	f0 e0       	ldi	r31, 0x00	; 0
     c92:	ec 0f       	add	r30, r28
     c94:	fd 1f       	adc	r31, r29
     c96:	ee 0d       	add	r30, r14
     c98:	f1 1d       	adc	r31, r1
     c9a:	80 81       	ld	r24, Z
     c9c:	90 e0       	ldi	r25, 0x00	; 0
     c9e:	b3 01       	movw	r22, r6
     ca0:	0e 94 64 07 	call	0xec8	; 0xec8 <fputc>
     ca4:	ee 20       	and	r14, r14
     ca6:	91 f7       	brne	.-28     	; 0xc8c <vfprintf+0x6d2>
     ca8:	06 c0       	rjmp	.+12     	; 0xcb6 <vfprintf+0x6fc>
     caa:	80 e2       	ldi	r24, 0x20	; 32
     cac:	90 e0       	ldi	r25, 0x00	; 0
     cae:	b3 01       	movw	r22, r6
     cb0:	0e 94 64 07 	call	0xec8	; 0xec8 <fputc>
     cb4:	8a 94       	dec	r8
     cb6:	88 20       	and	r8, r8
     cb8:	c1 f7       	brne	.-16     	; 0xcaa <vfprintf+0x6f0>
     cba:	97 cc       	rjmp	.-1746   	; 0x5ea <vfprintf+0x30>
     cbc:	f3 01       	movw	r30, r6
     cbe:	66 81       	ldd	r22, Z+6	; 0x06
     cc0:	77 81       	ldd	r23, Z+7	; 0x07
     cc2:	cb 01       	movw	r24, r22
     cc4:	61 96       	adiw	r28, 0x11	; 17
     cc6:	e2 e1       	ldi	r30, 0x12	; 18
     cc8:	0c 94 ad 2c 	jmp	0x595a	; 0x595a <__epilogue_restores__>

00000ccc <__ftoa_engine>:
     ccc:	28 30       	cpi	r18, 0x08	; 8
     cce:	08 f0       	brcs	.+2      	; 0xcd2 <__ftoa_engine+0x6>
     cd0:	27 e0       	ldi	r18, 0x07	; 7
     cd2:	33 27       	eor	r19, r19
     cd4:	da 01       	movw	r26, r20
     cd6:	99 0f       	add	r25, r25
     cd8:	31 1d       	adc	r19, r1
     cda:	87 fd       	sbrc	r24, 7
     cdc:	91 60       	ori	r25, 0x01	; 1
     cde:	00 96       	adiw	r24, 0x00	; 0
     ce0:	61 05       	cpc	r22, r1
     ce2:	71 05       	cpc	r23, r1
     ce4:	39 f4       	brne	.+14     	; 0xcf4 <__ftoa_engine+0x28>
     ce6:	32 60       	ori	r19, 0x02	; 2
     ce8:	2e 5f       	subi	r18, 0xFE	; 254
     cea:	3d 93       	st	X+, r19
     cec:	30 e3       	ldi	r19, 0x30	; 48
     cee:	2a 95       	dec	r18
     cf0:	e1 f7       	brne	.-8      	; 0xcea <__ftoa_engine+0x1e>
     cf2:	08 95       	ret
     cf4:	9f 3f       	cpi	r25, 0xFF	; 255
     cf6:	30 f0       	brcs	.+12     	; 0xd04 <__ftoa_engine+0x38>
     cf8:	80 38       	cpi	r24, 0x80	; 128
     cfa:	71 05       	cpc	r23, r1
     cfc:	61 05       	cpc	r22, r1
     cfe:	09 f0       	breq	.+2      	; 0xd02 <__ftoa_engine+0x36>
     d00:	3c 5f       	subi	r19, 0xFC	; 252
     d02:	3c 5f       	subi	r19, 0xFC	; 252
     d04:	3d 93       	st	X+, r19
     d06:	91 30       	cpi	r25, 0x01	; 1
     d08:	08 f0       	brcs	.+2      	; 0xd0c <__ftoa_engine+0x40>
     d0a:	80 68       	ori	r24, 0x80	; 128
     d0c:	91 1d       	adc	r25, r1
     d0e:	df 93       	push	r29
     d10:	cf 93       	push	r28
     d12:	1f 93       	push	r17
     d14:	0f 93       	push	r16
     d16:	ff 92       	push	r15
     d18:	ef 92       	push	r14
     d1a:	19 2f       	mov	r17, r25
     d1c:	98 7f       	andi	r25, 0xF8	; 248
     d1e:	96 95       	lsr	r25
     d20:	e9 2f       	mov	r30, r25
     d22:	96 95       	lsr	r25
     d24:	96 95       	lsr	r25
     d26:	e9 0f       	add	r30, r25
     d28:	ff 27       	eor	r31, r31
     d2a:	ee 54       	subi	r30, 0x4E	; 78
     d2c:	fe 4f       	sbci	r31, 0xFE	; 254
     d2e:	99 27       	eor	r25, r25
     d30:	33 27       	eor	r19, r19
     d32:	ee 24       	eor	r14, r14
     d34:	ff 24       	eor	r15, r15
     d36:	a7 01       	movw	r20, r14
     d38:	e7 01       	movw	r28, r14
     d3a:	05 90       	lpm	r0, Z+
     d3c:	08 94       	sec
     d3e:	07 94       	ror	r0
     d40:	28 f4       	brcc	.+10     	; 0xd4c <__ftoa_engine+0x80>
     d42:	36 0f       	add	r19, r22
     d44:	e7 1e       	adc	r14, r23
     d46:	f8 1e       	adc	r15, r24
     d48:	49 1f       	adc	r20, r25
     d4a:	51 1d       	adc	r21, r1
     d4c:	66 0f       	add	r22, r22
     d4e:	77 1f       	adc	r23, r23
     d50:	88 1f       	adc	r24, r24
     d52:	99 1f       	adc	r25, r25
     d54:	06 94       	lsr	r0
     d56:	a1 f7       	brne	.-24     	; 0xd40 <__ftoa_engine+0x74>
     d58:	05 90       	lpm	r0, Z+
     d5a:	07 94       	ror	r0
     d5c:	28 f4       	brcc	.+10     	; 0xd68 <__ftoa_engine+0x9c>
     d5e:	e7 0e       	add	r14, r23
     d60:	f8 1e       	adc	r15, r24
     d62:	49 1f       	adc	r20, r25
     d64:	56 1f       	adc	r21, r22
     d66:	c1 1d       	adc	r28, r1
     d68:	77 0f       	add	r23, r23
     d6a:	88 1f       	adc	r24, r24
     d6c:	99 1f       	adc	r25, r25
     d6e:	66 1f       	adc	r22, r22
     d70:	06 94       	lsr	r0
     d72:	a1 f7       	brne	.-24     	; 0xd5c <__ftoa_engine+0x90>
     d74:	05 90       	lpm	r0, Z+
     d76:	07 94       	ror	r0
     d78:	28 f4       	brcc	.+10     	; 0xd84 <__ftoa_engine+0xb8>
     d7a:	f8 0e       	add	r15, r24
     d7c:	49 1f       	adc	r20, r25
     d7e:	56 1f       	adc	r21, r22
     d80:	c7 1f       	adc	r28, r23
     d82:	d1 1d       	adc	r29, r1
     d84:	88 0f       	add	r24, r24
     d86:	99 1f       	adc	r25, r25
     d88:	66 1f       	adc	r22, r22
     d8a:	77 1f       	adc	r23, r23
     d8c:	06 94       	lsr	r0
     d8e:	a1 f7       	brne	.-24     	; 0xd78 <__ftoa_engine+0xac>
     d90:	05 90       	lpm	r0, Z+
     d92:	07 94       	ror	r0
     d94:	20 f4       	brcc	.+8      	; 0xd9e <__ftoa_engine+0xd2>
     d96:	49 0f       	add	r20, r25
     d98:	56 1f       	adc	r21, r22
     d9a:	c7 1f       	adc	r28, r23
     d9c:	d8 1f       	adc	r29, r24
     d9e:	99 0f       	add	r25, r25
     da0:	66 1f       	adc	r22, r22
     da2:	77 1f       	adc	r23, r23
     da4:	88 1f       	adc	r24, r24
     da6:	06 94       	lsr	r0
     da8:	a9 f7       	brne	.-22     	; 0xd94 <__ftoa_engine+0xc8>
     daa:	84 91       	lpm	r24, Z+
     dac:	10 95       	com	r17
     dae:	17 70       	andi	r17, 0x07	; 7
     db0:	41 f0       	breq	.+16     	; 0xdc2 <__ftoa_engine+0xf6>
     db2:	d6 95       	lsr	r29
     db4:	c7 95       	ror	r28
     db6:	57 95       	ror	r21
     db8:	47 95       	ror	r20
     dba:	f7 94       	ror	r15
     dbc:	e7 94       	ror	r14
     dbe:	1a 95       	dec	r17
     dc0:	c1 f7       	brne	.-16     	; 0xdb2 <__ftoa_engine+0xe6>
     dc2:	e8 e5       	ldi	r30, 0x58	; 88
     dc4:	f1 e0       	ldi	r31, 0x01	; 1
     dc6:	68 94       	set
     dc8:	15 90       	lpm	r1, Z+
     dca:	15 91       	lpm	r17, Z+
     dcc:	35 91       	lpm	r19, Z+
     dce:	65 91       	lpm	r22, Z+
     dd0:	95 91       	lpm	r25, Z+
     dd2:	05 90       	lpm	r0, Z+
     dd4:	7f e2       	ldi	r23, 0x2F	; 47
     dd6:	73 95       	inc	r23
     dd8:	e1 18       	sub	r14, r1
     dda:	f1 0a       	sbc	r15, r17
     ddc:	43 0b       	sbc	r20, r19
     dde:	56 0b       	sbc	r21, r22
     de0:	c9 0b       	sbc	r28, r25
     de2:	d0 09       	sbc	r29, r0
     de4:	c0 f7       	brcc	.-16     	; 0xdd6 <__ftoa_engine+0x10a>
     de6:	e1 0c       	add	r14, r1
     de8:	f1 1e       	adc	r15, r17
     dea:	43 1f       	adc	r20, r19
     dec:	56 1f       	adc	r21, r22
     dee:	c9 1f       	adc	r28, r25
     df0:	d0 1d       	adc	r29, r0
     df2:	7e f4       	brtc	.+30     	; 0xe12 <__ftoa_engine+0x146>
     df4:	70 33       	cpi	r23, 0x30	; 48
     df6:	11 f4       	brne	.+4      	; 0xdfc <__ftoa_engine+0x130>
     df8:	8a 95       	dec	r24
     dfa:	e6 cf       	rjmp	.-52     	; 0xdc8 <__ftoa_engine+0xfc>
     dfc:	e8 94       	clt
     dfe:	01 50       	subi	r16, 0x01	; 1
     e00:	30 f0       	brcs	.+12     	; 0xe0e <__ftoa_engine+0x142>
     e02:	08 0f       	add	r16, r24
     e04:	0a f4       	brpl	.+2      	; 0xe08 <__ftoa_engine+0x13c>
     e06:	00 27       	eor	r16, r16
     e08:	02 17       	cp	r16, r18
     e0a:	08 f4       	brcc	.+2      	; 0xe0e <__ftoa_engine+0x142>
     e0c:	20 2f       	mov	r18, r16
     e0e:	23 95       	inc	r18
     e10:	02 2f       	mov	r16, r18
     e12:	7a 33       	cpi	r23, 0x3A	; 58
     e14:	28 f0       	brcs	.+10     	; 0xe20 <__ftoa_engine+0x154>
     e16:	79 e3       	ldi	r23, 0x39	; 57
     e18:	7d 93       	st	X+, r23
     e1a:	2a 95       	dec	r18
     e1c:	e9 f7       	brne	.-6      	; 0xe18 <__ftoa_engine+0x14c>
     e1e:	10 c0       	rjmp	.+32     	; 0xe40 <__ftoa_engine+0x174>
     e20:	7d 93       	st	X+, r23
     e22:	2a 95       	dec	r18
     e24:	89 f6       	brne	.-94     	; 0xdc8 <__ftoa_engine+0xfc>
     e26:	06 94       	lsr	r0
     e28:	97 95       	ror	r25
     e2a:	67 95       	ror	r22
     e2c:	37 95       	ror	r19
     e2e:	17 95       	ror	r17
     e30:	17 94       	ror	r1
     e32:	e1 18       	sub	r14, r1
     e34:	f1 0a       	sbc	r15, r17
     e36:	43 0b       	sbc	r20, r19
     e38:	56 0b       	sbc	r21, r22
     e3a:	c9 0b       	sbc	r28, r25
     e3c:	d0 09       	sbc	r29, r0
     e3e:	98 f0       	brcs	.+38     	; 0xe66 <__ftoa_engine+0x19a>
     e40:	23 95       	inc	r18
     e42:	7e 91       	ld	r23, -X
     e44:	73 95       	inc	r23
     e46:	7a 33       	cpi	r23, 0x3A	; 58
     e48:	08 f0       	brcs	.+2      	; 0xe4c <__ftoa_engine+0x180>
     e4a:	70 e3       	ldi	r23, 0x30	; 48
     e4c:	7c 93       	st	X, r23
     e4e:	20 13       	cpse	r18, r16
     e50:	b8 f7       	brcc	.-18     	; 0xe40 <__ftoa_engine+0x174>
     e52:	7e 91       	ld	r23, -X
     e54:	70 61       	ori	r23, 0x10	; 16
     e56:	7d 93       	st	X+, r23
     e58:	30 f0       	brcs	.+12     	; 0xe66 <__ftoa_engine+0x19a>
     e5a:	83 95       	inc	r24
     e5c:	71 e3       	ldi	r23, 0x31	; 49
     e5e:	7d 93       	st	X+, r23
     e60:	70 e3       	ldi	r23, 0x30	; 48
     e62:	2a 95       	dec	r18
     e64:	e1 f7       	brne	.-8      	; 0xe5e <__ftoa_engine+0x192>
     e66:	11 24       	eor	r1, r1
     e68:	ef 90       	pop	r14
     e6a:	ff 90       	pop	r15
     e6c:	0f 91       	pop	r16
     e6e:	1f 91       	pop	r17
     e70:	cf 91       	pop	r28
     e72:	df 91       	pop	r29
     e74:	99 27       	eor	r25, r25
     e76:	87 fd       	sbrc	r24, 7
     e78:	90 95       	com	r25
     e7a:	08 95       	ret

00000e7c <strlen_P>:
     e7c:	fc 01       	movw	r30, r24
     e7e:	05 90       	lpm	r0, Z+
     e80:	00 20       	and	r0, r0
     e82:	e9 f7       	brne	.-6      	; 0xe7e <strlen_P+0x2>
     e84:	80 95       	com	r24
     e86:	90 95       	com	r25
     e88:	8e 0f       	add	r24, r30
     e8a:	9f 1f       	adc	r25, r31
     e8c:	08 95       	ret

00000e8e <strnlen_P>:
     e8e:	fc 01       	movw	r30, r24
     e90:	05 90       	lpm	r0, Z+
     e92:	61 50       	subi	r22, 0x01	; 1
     e94:	70 40       	sbci	r23, 0x00	; 0
     e96:	01 10       	cpse	r0, r1
     e98:	d8 f7       	brcc	.-10     	; 0xe90 <strnlen_P+0x2>
     e9a:	80 95       	com	r24
     e9c:	90 95       	com	r25
     e9e:	8e 0f       	add	r24, r30
     ea0:	9f 1f       	adc	r25, r31
     ea2:	08 95       	ret

00000ea4 <memset>:
     ea4:	dc 01       	movw	r26, r24
     ea6:	01 c0       	rjmp	.+2      	; 0xeaa <memset+0x6>
     ea8:	6d 93       	st	X+, r22
     eaa:	41 50       	subi	r20, 0x01	; 1
     eac:	50 40       	sbci	r21, 0x00	; 0
     eae:	e0 f7       	brcc	.-8      	; 0xea8 <memset+0x4>
     eb0:	08 95       	ret

00000eb2 <strnlen>:
     eb2:	fc 01       	movw	r30, r24
     eb4:	61 50       	subi	r22, 0x01	; 1
     eb6:	70 40       	sbci	r23, 0x00	; 0
     eb8:	01 90       	ld	r0, Z+
     eba:	01 10       	cpse	r0, r1
     ebc:	d8 f7       	brcc	.-10     	; 0xeb4 <strnlen+0x2>
     ebe:	80 95       	com	r24
     ec0:	90 95       	com	r25
     ec2:	8e 0f       	add	r24, r30
     ec4:	9f 1f       	adc	r25, r31
     ec6:	08 95       	ret

00000ec8 <fputc>:
     ec8:	0f 93       	push	r16
     eca:	1f 93       	push	r17
     ecc:	cf 93       	push	r28
     ece:	df 93       	push	r29
     ed0:	8c 01       	movw	r16, r24
     ed2:	eb 01       	movw	r28, r22
     ed4:	8b 81       	ldd	r24, Y+3	; 0x03
     ed6:	81 ff       	sbrs	r24, 1
     ed8:	1b c0       	rjmp	.+54     	; 0xf10 <fputc+0x48>
     eda:	82 ff       	sbrs	r24, 2
     edc:	0d c0       	rjmp	.+26     	; 0xef8 <fputc+0x30>
     ede:	2e 81       	ldd	r18, Y+6	; 0x06
     ee0:	3f 81       	ldd	r19, Y+7	; 0x07
     ee2:	8c 81       	ldd	r24, Y+4	; 0x04
     ee4:	9d 81       	ldd	r25, Y+5	; 0x05
     ee6:	28 17       	cp	r18, r24
     ee8:	39 07       	cpc	r19, r25
     eea:	64 f4       	brge	.+24     	; 0xf04 <fputc+0x3c>
     eec:	e8 81       	ld	r30, Y
     eee:	f9 81       	ldd	r31, Y+1	; 0x01
     ef0:	01 93       	st	Z+, r16
     ef2:	f9 83       	std	Y+1, r31	; 0x01
     ef4:	e8 83       	st	Y, r30
     ef6:	06 c0       	rjmp	.+12     	; 0xf04 <fputc+0x3c>
     ef8:	e8 85       	ldd	r30, Y+8	; 0x08
     efa:	f9 85       	ldd	r31, Y+9	; 0x09
     efc:	80 2f       	mov	r24, r16
     efe:	19 95       	eicall
     f00:	89 2b       	or	r24, r25
     f02:	31 f4       	brne	.+12     	; 0xf10 <fputc+0x48>
     f04:	8e 81       	ldd	r24, Y+6	; 0x06
     f06:	9f 81       	ldd	r25, Y+7	; 0x07
     f08:	01 96       	adiw	r24, 0x01	; 1
     f0a:	9f 83       	std	Y+7, r25	; 0x07
     f0c:	8e 83       	std	Y+6, r24	; 0x06
     f0e:	02 c0       	rjmp	.+4      	; 0xf14 <fputc+0x4c>
     f10:	0f ef       	ldi	r16, 0xFF	; 255
     f12:	1f ef       	ldi	r17, 0xFF	; 255
     f14:	c8 01       	movw	r24, r16
     f16:	df 91       	pop	r29
     f18:	cf 91       	pop	r28
     f1a:	1f 91       	pop	r17
     f1c:	0f 91       	pop	r16
     f1e:	08 95       	ret

00000f20 <sprintf>:
     f20:	ae e0       	ldi	r26, 0x0E	; 14
     f22:	b0 e0       	ldi	r27, 0x00	; 0
     f24:	e6 e9       	ldi	r30, 0x96	; 150
     f26:	f7 e0       	ldi	r31, 0x07	; 7
     f28:	0c 94 9f 2c 	jmp	0x593e	; 0x593e <__prologue_saves__+0x1c>
     f2c:	0e 89       	ldd	r16, Y+22	; 0x16
     f2e:	1f 89       	ldd	r17, Y+23	; 0x17
     f30:	86 e0       	ldi	r24, 0x06	; 6
     f32:	8c 83       	std	Y+4, r24	; 0x04
     f34:	1a 83       	std	Y+2, r17	; 0x02
     f36:	09 83       	std	Y+1, r16	; 0x01
     f38:	8f ef       	ldi	r24, 0xFF	; 255
     f3a:	9f e7       	ldi	r25, 0x7F	; 127
     f3c:	9e 83       	std	Y+6, r25	; 0x06
     f3e:	8d 83       	std	Y+5, r24	; 0x05
     f40:	9e 01       	movw	r18, r28
     f42:	26 5e       	subi	r18, 0xE6	; 230
     f44:	3f 4f       	sbci	r19, 0xFF	; 255
     f46:	ce 01       	movw	r24, r28
     f48:	01 96       	adiw	r24, 0x01	; 1
     f4a:	68 8d       	ldd	r22, Y+24	; 0x18
     f4c:	79 8d       	ldd	r23, Y+25	; 0x19
     f4e:	a9 01       	movw	r20, r18
     f50:	0e 94 dd 02 	call	0x5ba	; 0x5ba <vfprintf>
     f54:	2f 81       	ldd	r18, Y+7	; 0x07
     f56:	38 85       	ldd	r19, Y+8	; 0x08
     f58:	02 0f       	add	r16, r18
     f5a:	13 1f       	adc	r17, r19
     f5c:	f8 01       	movw	r30, r16
     f5e:	10 82       	st	Z, r1
     f60:	2e 96       	adiw	r28, 0x0e	; 14
     f62:	e4 e0       	ldi	r30, 0x04	; 4
     f64:	0c 94 bb 2c 	jmp	0x5976	; 0x5976 <__epilogue_restores__+0x1c>

00000f68 <vsnprintf>:
     f68:	ae e0       	ldi	r26, 0x0E	; 14
     f6a:	b0 e0       	ldi	r27, 0x00	; 0
     f6c:	ea eb       	ldi	r30, 0xBA	; 186
     f6e:	f7 e0       	ldi	r31, 0x07	; 7
     f70:	0c 94 9f 2c 	jmp	0x593e	; 0x593e <__prologue_saves__+0x1c>
     f74:	8c 01       	movw	r16, r24
     f76:	77 ff       	sbrs	r23, 7
     f78:	02 c0       	rjmp	.+4      	; 0xf7e <vsnprintf+0x16>
     f7a:	60 e0       	ldi	r22, 0x00	; 0
     f7c:	70 e8       	ldi	r23, 0x80	; 128
     f7e:	61 50       	subi	r22, 0x01	; 1
     f80:	70 40       	sbci	r23, 0x00	; 0
     f82:	7e 83       	std	Y+6, r23	; 0x06
     f84:	6d 83       	std	Y+5, r22	; 0x05
     f86:	1a 83       	std	Y+2, r17	; 0x02
     f88:	09 83       	std	Y+1, r16	; 0x01
     f8a:	86 e0       	ldi	r24, 0x06	; 6
     f8c:	8c 83       	std	Y+4, r24	; 0x04
     f8e:	ce 01       	movw	r24, r28
     f90:	01 96       	adiw	r24, 0x01	; 1
     f92:	ba 01       	movw	r22, r20
     f94:	a9 01       	movw	r20, r18
     f96:	0e 94 dd 02 	call	0x5ba	; 0x5ba <vfprintf>
     f9a:	2d 81       	ldd	r18, Y+5	; 0x05
     f9c:	3e 81       	ldd	r19, Y+6	; 0x06
     f9e:	37 fd       	sbrc	r19, 7
     fa0:	09 c0       	rjmp	.+18     	; 0xfb4 <vsnprintf+0x4c>
     fa2:	ef 81       	ldd	r30, Y+7	; 0x07
     fa4:	f8 85       	ldd	r31, Y+8	; 0x08
     fa6:	2e 17       	cp	r18, r30
     fa8:	3f 07       	cpc	r19, r31
     faa:	0c f4       	brge	.+2      	; 0xfae <vsnprintf+0x46>
     fac:	f9 01       	movw	r30, r18
     fae:	e0 0f       	add	r30, r16
     fb0:	f1 1f       	adc	r31, r17
     fb2:	10 82       	st	Z, r1
     fb4:	2e 96       	adiw	r28, 0x0e	; 14
     fb6:	e4 e0       	ldi	r30, 0x04	; 4
     fb8:	0c 94 bb 2c 	jmp	0x5976	; 0x5976 <__epilogue_restores__+0x1c>

00000fbc <vsnprintf_P>:
     fbc:	ae e0       	ldi	r26, 0x0E	; 14
     fbe:	b0 e0       	ldi	r27, 0x00	; 0
     fc0:	e4 ee       	ldi	r30, 0xE4	; 228
     fc2:	f7 e0       	ldi	r31, 0x07	; 7
     fc4:	0c 94 9f 2c 	jmp	0x593e	; 0x593e <__prologue_saves__+0x1c>
     fc8:	8c 01       	movw	r16, r24
     fca:	77 ff       	sbrs	r23, 7
     fcc:	02 c0       	rjmp	.+4      	; 0xfd2 <vsnprintf_P+0x16>
     fce:	60 e0       	ldi	r22, 0x00	; 0
     fd0:	70 e8       	ldi	r23, 0x80	; 128
     fd2:	61 50       	subi	r22, 0x01	; 1
     fd4:	70 40       	sbci	r23, 0x00	; 0
     fd6:	7e 83       	std	Y+6, r23	; 0x06
     fd8:	6d 83       	std	Y+5, r22	; 0x05
     fda:	1a 83       	std	Y+2, r17	; 0x02
     fdc:	09 83       	std	Y+1, r16	; 0x01
     fde:	8e e0       	ldi	r24, 0x0E	; 14
     fe0:	8c 83       	std	Y+4, r24	; 0x04
     fe2:	ce 01       	movw	r24, r28
     fe4:	01 96       	adiw	r24, 0x01	; 1
     fe6:	ba 01       	movw	r22, r20
     fe8:	a9 01       	movw	r20, r18
     fea:	0e 94 dd 02 	call	0x5ba	; 0x5ba <vfprintf>
     fee:	2d 81       	ldd	r18, Y+5	; 0x05
     ff0:	3e 81       	ldd	r19, Y+6	; 0x06
     ff2:	37 fd       	sbrc	r19, 7
     ff4:	09 c0       	rjmp	.+18     	; 0x1008 <vsnprintf_P+0x4c>
     ff6:	ef 81       	ldd	r30, Y+7	; 0x07
     ff8:	f8 85       	ldd	r31, Y+8	; 0x08
     ffa:	2e 17       	cp	r18, r30
     ffc:	3f 07       	cpc	r19, r31
     ffe:	0c f4       	brge	.+2      	; 0x1002 <vsnprintf_P+0x46>
    1000:	f9 01       	movw	r30, r18
    1002:	e0 0f       	add	r30, r16
    1004:	f1 1f       	adc	r31, r17
    1006:	10 82       	st	Z, r1
    1008:	2e 96       	adiw	r28, 0x0e	; 14
    100a:	e4 e0       	ldi	r30, 0x04	; 4
    100c:	0c 94 bb 2c 	jmp	0x5976	; 0x5976 <__epilogue_restores__+0x1c>

00001010 <__ultoa_invert>:
    1010:	fa 01       	movw	r30, r20
    1012:	aa 27       	eor	r26, r26
    1014:	28 30       	cpi	r18, 0x08	; 8
    1016:	51 f1       	breq	.+84     	; 0x106c <__ultoa_invert+0x5c>
    1018:	20 31       	cpi	r18, 0x10	; 16
    101a:	81 f1       	breq	.+96     	; 0x107c <__ultoa_invert+0x6c>
    101c:	e8 94       	clt
    101e:	6f 93       	push	r22
    1020:	6e 7f       	andi	r22, 0xFE	; 254
    1022:	6e 5f       	subi	r22, 0xFE	; 254
    1024:	7f 4f       	sbci	r23, 0xFF	; 255
    1026:	8f 4f       	sbci	r24, 0xFF	; 255
    1028:	9f 4f       	sbci	r25, 0xFF	; 255
    102a:	af 4f       	sbci	r26, 0xFF	; 255
    102c:	b1 e0       	ldi	r27, 0x01	; 1
    102e:	3e d0       	rcall	.+124    	; 0x10ac <__ultoa_invert+0x9c>
    1030:	b4 e0       	ldi	r27, 0x04	; 4
    1032:	3c d0       	rcall	.+120    	; 0x10ac <__ultoa_invert+0x9c>
    1034:	67 0f       	add	r22, r23
    1036:	78 1f       	adc	r23, r24
    1038:	89 1f       	adc	r24, r25
    103a:	9a 1f       	adc	r25, r26
    103c:	a1 1d       	adc	r26, r1
    103e:	68 0f       	add	r22, r24
    1040:	79 1f       	adc	r23, r25
    1042:	8a 1f       	adc	r24, r26
    1044:	91 1d       	adc	r25, r1
    1046:	a1 1d       	adc	r26, r1
    1048:	6a 0f       	add	r22, r26
    104a:	71 1d       	adc	r23, r1
    104c:	81 1d       	adc	r24, r1
    104e:	91 1d       	adc	r25, r1
    1050:	a1 1d       	adc	r26, r1
    1052:	20 d0       	rcall	.+64     	; 0x1094 <__ultoa_invert+0x84>
    1054:	09 f4       	brne	.+2      	; 0x1058 <__ultoa_invert+0x48>
    1056:	68 94       	set
    1058:	3f 91       	pop	r19
    105a:	2a e0       	ldi	r18, 0x0A	; 10
    105c:	26 9f       	mul	r18, r22
    105e:	11 24       	eor	r1, r1
    1060:	30 19       	sub	r19, r0
    1062:	30 5d       	subi	r19, 0xD0	; 208
    1064:	31 93       	st	Z+, r19
    1066:	de f6       	brtc	.-74     	; 0x101e <__ultoa_invert+0xe>
    1068:	cf 01       	movw	r24, r30
    106a:	08 95       	ret
    106c:	46 2f       	mov	r20, r22
    106e:	47 70       	andi	r20, 0x07	; 7
    1070:	40 5d       	subi	r20, 0xD0	; 208
    1072:	41 93       	st	Z+, r20
    1074:	b3 e0       	ldi	r27, 0x03	; 3
    1076:	0f d0       	rcall	.+30     	; 0x1096 <__ultoa_invert+0x86>
    1078:	c9 f7       	brne	.-14     	; 0x106c <__ultoa_invert+0x5c>
    107a:	f6 cf       	rjmp	.-20     	; 0x1068 <__ultoa_invert+0x58>
    107c:	46 2f       	mov	r20, r22
    107e:	4f 70       	andi	r20, 0x0F	; 15
    1080:	40 5d       	subi	r20, 0xD0	; 208
    1082:	4a 33       	cpi	r20, 0x3A	; 58
    1084:	18 f0       	brcs	.+6      	; 0x108c <__ultoa_invert+0x7c>
    1086:	49 5d       	subi	r20, 0xD9	; 217
    1088:	31 fd       	sbrc	r19, 1
    108a:	40 52       	subi	r20, 0x20	; 32
    108c:	41 93       	st	Z+, r20
    108e:	02 d0       	rcall	.+4      	; 0x1094 <__ultoa_invert+0x84>
    1090:	a9 f7       	brne	.-22     	; 0x107c <__ultoa_invert+0x6c>
    1092:	ea cf       	rjmp	.-44     	; 0x1068 <__ultoa_invert+0x58>
    1094:	b4 e0       	ldi	r27, 0x04	; 4
    1096:	a6 95       	lsr	r26
    1098:	97 95       	ror	r25
    109a:	87 95       	ror	r24
    109c:	77 95       	ror	r23
    109e:	67 95       	ror	r22
    10a0:	ba 95       	dec	r27
    10a2:	c9 f7       	brne	.-14     	; 0x1096 <__ultoa_invert+0x86>
    10a4:	00 97       	sbiw	r24, 0x00	; 0
    10a6:	61 05       	cpc	r22, r1
    10a8:	71 05       	cpc	r23, r1
    10aa:	08 95       	ret
    10ac:	9b 01       	movw	r18, r22
    10ae:	ac 01       	movw	r20, r24
    10b0:	0a 2e       	mov	r0, r26
    10b2:	06 94       	lsr	r0
    10b4:	57 95       	ror	r21
    10b6:	47 95       	ror	r20
    10b8:	37 95       	ror	r19
    10ba:	27 95       	ror	r18
    10bc:	ba 95       	dec	r27
    10be:	c9 f7       	brne	.-14     	; 0x10b2 <__ultoa_invert+0xa2>
    10c0:	62 0f       	add	r22, r18
    10c2:	73 1f       	adc	r23, r19
    10c4:	84 1f       	adc	r24, r20
    10c6:	95 1f       	adc	r25, r21
    10c8:	a0 1d       	adc	r26, r0
    10ca:	08 95       	ret

000010cc <setColor>:
    10cc:	28 2f       	mov	r18, r24
    10ce:	80 91 6a 02 	lds	r24, 0x026A
    10d2:	88 23       	and	r24, r24
    10d4:	59 f4       	brne	.+22     	; 0x10ec <setColor+0x20>
    10d6:	81 e0       	ldi	r24, 0x01	; 1
    10d8:	80 93 6a 02 	sts	0x026A, r24
    10dc:	80 91 01 01 	lds	r24, 0x0101
    10e0:	88 60       	ori	r24, 0x08	; 8
    10e2:	80 93 01 01 	sts	0x0101, r24
    10e6:	6d 9a       	sbi	0x0d, 5	; 13
    10e8:	6b 9a       	sbi	0x0d, 3	; 13
    10ea:	27 9a       	sbi	0x04, 7	; 4
    10ec:	20 ff       	sbrs	r18, 0
    10ee:	0c c0       	rjmp	.+24     	; 0x1108 <setColor+0x3c>
    10f0:	80 91 02 01 	lds	r24, 0x0102
    10f4:	87 7f       	andi	r24, 0xF7	; 247
    10f6:	80 93 02 01 	sts	0x0102, r24
    10fa:	21 ff       	sbrs	r18, 1
    10fc:	0c c0       	rjmp	.+24     	; 0x1116 <setColor+0x4a>
    10fe:	73 98       	cbi	0x0e, 3	; 14
    1100:	22 fd       	sbrc	r18, 2
    1102:	0c c0       	rjmp	.+24     	; 0x111c <setColor+0x50>
    1104:	75 9a       	sbi	0x0e, 5	; 14
    1106:	08 95       	ret
    1108:	80 91 02 01 	lds	r24, 0x0102
    110c:	88 60       	ori	r24, 0x08	; 8
    110e:	80 93 02 01 	sts	0x0102, r24
    1112:	21 fd       	sbrc	r18, 1
    1114:	f4 cf       	rjmp	.-24     	; 0x10fe <setColor+0x32>
    1116:	73 9a       	sbi	0x0e, 3	; 14
    1118:	22 ff       	sbrs	r18, 2
    111a:	f4 cf       	rjmp	.-24     	; 0x1104 <setColor+0x38>
    111c:	75 98       	cbi	0x0e, 5	; 14
    111e:	08 95       	ret

00001120 <setDebugLed>:
    1120:	98 2f       	mov	r25, r24
    1122:	80 91 6a 02 	lds	r24, 0x026A
    1126:	88 23       	and	r24, r24
    1128:	59 f4       	brne	.+22     	; 0x1140 <setDebugLed+0x20>
    112a:	81 e0       	ldi	r24, 0x01	; 1
    112c:	80 93 6a 02 	sts	0x026A, r24
    1130:	80 91 01 01 	lds	r24, 0x0101
    1134:	88 60       	ori	r24, 0x08	; 8
    1136:	80 93 01 01 	sts	0x0101, r24
    113a:	6d 9a       	sbi	0x0d, 5	; 13
    113c:	6b 9a       	sbi	0x0d, 3	; 13
    113e:	27 9a       	sbi	0x04, 7	; 4
    1140:	99 23       	and	r25, r25
    1142:	11 f4       	brne	.+4      	; 0x1148 <setDebugLed+0x28>
    1144:	2f 9a       	sbi	0x05, 7	; 5
    1146:	08 95       	ret
    1148:	2f 98       	cbi	0x05, 7	; 5
    114a:	08 95       	ret

0000114c <vApplicationStackOverflowHook>:
    114c:	27 9a       	sbi	0x04, 7	; 4
    114e:	2f 9a       	sbi	0x05, 7	; 5
    1150:	ff cf       	rjmp	.-2      	; 0x1150 <vApplicationStackOverflowHook+0x4>

00001152 <main>:
    1152:	af 92       	push	r10
    1154:	bf 92       	push	r11
    1156:	cf 92       	push	r12
    1158:	df 92       	push	r13
    115a:	ef 92       	push	r14
    115c:	ff 92       	push	r15
    115e:	0f 93       	push	r16
    1160:	1f 93       	push	r17
    1162:	80 e0       	ldi	r24, 0x00	; 0
    1164:	90 e0       	ldi	r25, 0x00	; 0
    1166:	40 e0       	ldi	r20, 0x00	; 0
    1168:	52 ec       	ldi	r21, 0xC2	; 194
    116a:	61 e0       	ldi	r22, 0x01	; 1
    116c:	70 e0       	ldi	r23, 0x00	; 0
    116e:	2f ef       	ldi	r18, 0xFF	; 255
    1170:	30 e0       	ldi	r19, 0x00	; 0
    1172:	00 e4       	ldi	r16, 0x40	; 64
    1174:	10 e0       	ldi	r17, 0x00	; 0
    1176:	0e 94 aa 2b 	call	0x5754	; 0x5754 <usartOpen>
    117a:	90 93 e3 14 	sts	0x14E3, r25
    117e:	80 93 e2 14 	sts	0x14E2, r24
    1182:	85 e2       	ldi	r24, 0x25	; 37
    1184:	91 e0       	ldi	r25, 0x01	; 1
    1186:	0e 94 99 29 	call	0x5332	; 0x5332 <usart_print_P>
    118a:	89 ef       	ldi	r24, 0xF9	; 249
    118c:	98 e0       	ldi	r25, 0x08	; 8
    118e:	60 e0       	ldi	r22, 0x00	; 0
    1190:	72 e0       	ldi	r23, 0x02	; 2
    1192:	40 e0       	ldi	r20, 0x00	; 0
    1194:	51 e0       	ldi	r21, 0x01	; 1
    1196:	20 e0       	ldi	r18, 0x00	; 0
    1198:	30 e0       	ldi	r19, 0x00	; 0
    119a:	03 e0       	ldi	r16, 0x03	; 3
    119c:	ee 24       	eor	r14, r14
    119e:	ff 24       	eor	r15, r15
    11a0:	cc 24       	eor	r12, r12
    11a2:	dd 24       	eor	r13, r13
    11a4:	aa 24       	eor	r10, r10
    11a6:	bb 24       	eor	r11, r11
    11a8:	0e 94 10 21 	call	0x4220	; 0x4220 <xTaskGenericCreate>
    11ac:	0e 94 33 09 	call	0x1266	; 0x1266 <xPortGetFreeHeapSize>
    11b0:	00 d0       	rcall	.+0      	; 0x11b2 <main+0x60>
    11b2:	0f 92       	push	r0
    11b4:	2d e0       	ldi	r18, 0x0D	; 13
    11b6:	31 e0       	ldi	r19, 0x01	; 1
    11b8:	ed b7       	in	r30, 0x3d	; 61
    11ba:	fe b7       	in	r31, 0x3e	; 62
    11bc:	32 83       	std	Z+2, r19	; 0x02
    11be:	21 83       	std	Z+1, r18	; 0x01
    11c0:	94 83       	std	Z+4, r25	; 0x04
    11c2:	83 83       	std	Z+3, r24	; 0x03
    11c4:	0e 94 49 2b 	call	0x5692	; 0x5692 <usart_printf_P>
    11c8:	0f 90       	pop	r0
    11ca:	0f 90       	pop	r0
    11cc:	0f 90       	pop	r0
    11ce:	0f 90       	pop	r0
    11d0:	0e 94 15 22 	call	0x442a	; 0x442a <vTaskStartScheduler>
    11d4:	84 ee       	ldi	r24, 0xE4	; 228
    11d6:	90 e0       	ldi	r25, 0x00	; 0
    11d8:	0e 94 99 29 	call	0x5332	; 0x5332 <usart_print_P>
    11dc:	80 e0       	ldi	r24, 0x00	; 0
    11de:	90 e0       	ldi	r25, 0x00	; 0
    11e0:	1f 91       	pop	r17
    11e2:	0f 91       	pop	r16
    11e4:	ff 90       	pop	r15
    11e6:	ef 90       	pop	r14
    11e8:	df 90       	pop	r13
    11ea:	cf 90       	pop	r12
    11ec:	bf 90       	pop	r11
    11ee:	af 90       	pop	r10
    11f0:	08 95       	ret

000011f2 <TaskBlinkRedLED>:
    11f2:	a2 e0       	ldi	r26, 0x02	; 2
    11f4:	b0 e0       	ldi	r27, 0x00	; 0
    11f6:	ef ef       	ldi	r30, 0xFF	; 255
    11f8:	f8 e0       	ldi	r31, 0x08	; 8
    11fa:	0c 94 9d 2c 	jmp	0x593a	; 0x593a <__prologue_saves__+0x18>
    11fe:	81 e0       	ldi	r24, 0x01	; 1
    1200:	90 e0       	ldi	r25, 0x00	; 0
    1202:	0e 94 66 08 	call	0x10cc	; 0x10cc <setColor>
    1206:	0e 94 b5 0a 	call	0x156a	; 0x156a <xTaskGetTickCount>
    120a:	9a 83       	std	Y+2, r25	; 0x02
    120c:	89 83       	std	Y+1, r24	; 0x01
    120e:	27 9a       	sbi	0x04, 7	; 4
    1210:	8e 01       	movw	r16, r28
    1212:	0f 5f       	subi	r16, 0xFF	; 255
    1214:	1f 4f       	sbci	r17, 0xFF	; 255
    1216:	88 e3       	ldi	r24, 0x38	; 56
    1218:	e8 2e       	mov	r14, r24
    121a:	81 e0       	ldi	r24, 0x01	; 1
    121c:	f8 2e       	mov	r15, r24
    121e:	2f 9a       	sbi	0x05, 7	; 5
    1220:	c8 01       	movw	r24, r16
    1222:	62 e3       	ldi	r22, 0x32	; 50
    1224:	70 e0       	ldi	r23, 0x00	; 0
    1226:	0e 94 05 1f 	call	0x3e0a	; 0x3e0a <vTaskDelayUntil>
    122a:	2f 98       	cbi	0x05, 7	; 5
    122c:	c8 01       	movw	r24, r16
    122e:	68 ec       	ldi	r22, 0xC8	; 200
    1230:	70 e0       	ldi	r23, 0x00	; 0
    1232:	0e 94 05 1f 	call	0x3e0a	; 0x3e0a <vTaskDelayUntil>
    1236:	80 e0       	ldi	r24, 0x00	; 0
    1238:	90 e0       	ldi	r25, 0x00	; 0
    123a:	0e 94 d2 0b 	call	0x17a4	; 0x17a4 <uxTaskGetStackHighWaterMark>
    123e:	00 d0       	rcall	.+0      	; 0x1240 <TaskBlinkRedLED+0x4e>
    1240:	0f 92       	push	r0
    1242:	ed b7       	in	r30, 0x3d	; 61
    1244:	fe b7       	in	r31, 0x3e	; 62
    1246:	31 96       	adiw	r30, 0x01	; 1
    1248:	ad b7       	in	r26, 0x3d	; 61
    124a:	be b7       	in	r27, 0x3e	; 62
    124c:	12 96       	adiw	r26, 0x02	; 2
    124e:	fc 92       	st	X, r15
    1250:	ee 92       	st	-X, r14
    1252:	11 97       	sbiw	r26, 0x01	; 1
    1254:	82 83       	std	Z+2, r24	; 0x02
    1256:	13 82       	std	Z+3, r1	; 0x03
    1258:	0e 94 49 2b 	call	0x5692	; 0x5692 <usart_printf_P>
    125c:	0f 90       	pop	r0
    125e:	0f 90       	pop	r0
    1260:	0f 90       	pop	r0
    1262:	0f 90       	pop	r0
    1264:	dc cf       	rjmp	.-72     	; 0x121e <TaskBlinkRedLED+0x2c>

00001266 <xPortGetFreeHeapSize>:
    1266:	80 91 3e 02 	lds	r24, 0x023E
    126a:	90 91 3f 02 	lds	r25, 0x023F
    126e:	08 95       	ret

00001270 <xPortGetMinimumEverFreeHeapSize>:
    1270:	80 91 3c 02 	lds	r24, 0x023C
    1274:	90 91 3d 02 	lds	r25, 0x023D
    1278:	08 95       	ret

0000127a <vPortInitialiseBlocks>:
    127a:	08 95       	ret

0000127c <vPortFree>:
    127c:	0f 93       	push	r16
    127e:	1f 93       	push	r17
    1280:	cf 93       	push	r28
    1282:	df 93       	push	r29
    1284:	00 97       	sbiw	r24, 0x00	; 0
    1286:	89 f0       	breq	.+34     	; 0x12aa <vPortFree+0x2e>
    1288:	ec 01       	movw	r28, r24
    128a:	24 97       	sbiw	r28, 0x04	; 4
    128c:	4a 81       	ldd	r20, Y+2	; 0x02
    128e:	5b 81       	ldd	r21, Y+3	; 0x03
    1290:	20 91 6b 02 	lds	r18, 0x026B
    1294:	30 91 6c 02 	lds	r19, 0x026C
    1298:	c9 01       	movw	r24, r18
    129a:	84 23       	and	r24, r20
    129c:	95 23       	and	r25, r21
    129e:	89 2b       	or	r24, r25
    12a0:	21 f0       	breq	.+8      	; 0x12aa <vPortFree+0x2e>
    12a2:	88 81       	ld	r24, Y
    12a4:	99 81       	ldd	r25, Y+1	; 0x01
    12a6:	89 2b       	or	r24, r25
    12a8:	29 f0       	breq	.+10     	; 0x12b4 <vPortFree+0x38>
    12aa:	df 91       	pop	r29
    12ac:	cf 91       	pop	r28
    12ae:	1f 91       	pop	r17
    12b0:	0f 91       	pop	r16
    12b2:	08 95       	ret
    12b4:	20 95       	com	r18
    12b6:	30 95       	com	r19
    12b8:	24 23       	and	r18, r20
    12ba:	35 23       	and	r19, r21
    12bc:	3b 83       	std	Y+3, r19	; 0x03
    12be:	2a 83       	std	Y+2, r18	; 0x02
    12c0:	0e 94 af 0a 	call	0x155e	; 0x155e <vTaskSuspendAll>
    12c4:	0a 81       	ldd	r16, Y+2	; 0x02
    12c6:	1b 81       	ldd	r17, Y+3	; 0x03
    12c8:	80 91 3e 02 	lds	r24, 0x023E
    12cc:	90 91 3f 02 	lds	r25, 0x023F
    12d0:	80 0f       	add	r24, r16
    12d2:	91 1f       	adc	r25, r17
    12d4:	90 93 3f 02 	sts	0x023F, r25
    12d8:	80 93 3e 02 	sts	0x023E, r24
    12dc:	ef e6       	ldi	r30, 0x6F	; 111
    12de:	f4 e1       	ldi	r31, 0x14	; 20
    12e0:	01 c0       	rjmp	.+2      	; 0x12e4 <vPortFree+0x68>
    12e2:	fc 01       	movw	r30, r24
    12e4:	80 81       	ld	r24, Z
    12e6:	91 81       	ldd	r25, Z+1	; 0x01
    12e8:	8c 17       	cp	r24, r28
    12ea:	9d 07       	cpc	r25, r29
    12ec:	d0 f3       	brcs	.-12     	; 0x12e2 <vPortFree+0x66>
    12ee:	bf 01       	movw	r22, r30
    12f0:	9f 01       	movw	r18, r30
    12f2:	42 81       	ldd	r20, Z+2	; 0x02
    12f4:	53 81       	ldd	r21, Z+3	; 0x03
    12f6:	cf 01       	movw	r24, r30
    12f8:	84 0f       	add	r24, r20
    12fa:	95 1f       	adc	r25, r21
    12fc:	c8 17       	cp	r28, r24
    12fe:	d9 07       	cpc	r29, r25
    1300:	49 f1       	breq	.+82     	; 0x1354 <vPortFree+0xd8>
    1302:	fe 01       	movw	r30, r28
    1304:	9e 01       	movw	r18, r28
    1306:	eb 01       	movw	r28, r22
    1308:	a8 81       	ld	r26, Y
    130a:	b9 81       	ldd	r27, Y+1	; 0x01
    130c:	20 0f       	add	r18, r16
    130e:	31 1f       	adc	r19, r17
    1310:	a2 17       	cp	r26, r18
    1312:	b3 07       	cpc	r27, r19
    1314:	59 f0       	breq	.+22     	; 0x132c <vPortFree+0xb0>
    1316:	b1 83       	std	Z+1, r27	; 0x01
    1318:	a0 83       	st	Z, r26
    131a:	6e 17       	cp	r22, r30
    131c:	7f 07       	cpc	r23, r31
    131e:	19 f0       	breq	.+6      	; 0x1326 <vPortFree+0xaa>
    1320:	db 01       	movw	r26, r22
    1322:	ed 93       	st	X+, r30
    1324:	fc 93       	st	X, r31
    1326:	0e 94 c9 0f 	call	0x1f92	; 0x1f92 <xTaskResumeAll>
    132a:	bf cf       	rjmp	.-130    	; 0x12aa <vPortFree+0x2e>
    132c:	80 91 6d 02 	lds	r24, 0x026D
    1330:	90 91 6e 02 	lds	r25, 0x026E
    1334:	a8 17       	cp	r26, r24
    1336:	b9 07       	cpc	r27, r25
    1338:	71 f3       	breq	.-36     	; 0x1316 <vPortFree+0x9a>
    133a:	12 96       	adiw	r26, 0x02	; 2
    133c:	8d 91       	ld	r24, X+
    133e:	9c 91       	ld	r25, X
    1340:	13 97       	sbiw	r26, 0x03	; 3
    1342:	80 0f       	add	r24, r16
    1344:	91 1f       	adc	r25, r17
    1346:	93 83       	std	Z+3, r25	; 0x03
    1348:	82 83       	std	Z+2, r24	; 0x02
    134a:	8d 91       	ld	r24, X+
    134c:	9c 91       	ld	r25, X
    134e:	91 83       	std	Z+1, r25	; 0x01
    1350:	80 83       	st	Z, r24
    1352:	e3 cf       	rjmp	.-58     	; 0x131a <vPortFree+0x9e>
    1354:	ca 01       	movw	r24, r20
    1356:	80 0f       	add	r24, r16
    1358:	91 1f       	adc	r25, r17
    135a:	93 83       	std	Z+3, r25	; 0x03
    135c:	82 83       	std	Z+2, r24	; 0x02
    135e:	8c 01       	movw	r16, r24
    1360:	d2 cf       	rjmp	.-92     	; 0x1306 <vPortFree+0x8a>

00001362 <pvPortMalloc>:
    1362:	a0 e0       	ldi	r26, 0x00	; 0
    1364:	b0 e0       	ldi	r27, 0x00	; 0
    1366:	e7 eb       	ldi	r30, 0xB7	; 183
    1368:	f9 e0       	ldi	r31, 0x09	; 9
    136a:	0c 94 99 2c 	jmp	0x5932	; 0x5932 <__prologue_saves__+0x10>
    136e:	ec 01       	movw	r28, r24
    1370:	0e 94 af 0a 	call	0x155e	; 0x155e <vTaskSuspendAll>
    1374:	80 91 6d 02 	lds	r24, 0x026D
    1378:	90 91 6e 02 	lds	r25, 0x026E
    137c:	89 2b       	or	r24, r25
    137e:	99 f0       	breq	.+38     	; 0x13a6 <pvPortMalloc+0x44>
    1380:	40 91 6b 02 	lds	r20, 0x026B
    1384:	50 91 6c 02 	lds	r21, 0x026C
    1388:	ce 01       	movw	r24, r28
    138a:	84 23       	and	r24, r20
    138c:	95 23       	and	r25, r21
    138e:	89 2b       	or	r24, r25
    1390:	e1 f1       	breq	.+120    	; 0x140a <pvPortMalloc+0xa8>
    1392:	c0 e0       	ldi	r28, 0x00	; 0
    1394:	d0 e0       	ldi	r29, 0x00	; 0
    1396:	0e 94 c9 0f 	call	0x1f92	; 0x1f92 <xTaskResumeAll>
    139a:	ce 01       	movw	r24, r28
    139c:	cd b7       	in	r28, 0x3d	; 61
    139e:	de b7       	in	r29, 0x3e	; 62
    13a0:	ea e0       	ldi	r30, 0x0A	; 10
    13a2:	0c 94 b5 2c 	jmp	0x596a	; 0x596a <__epilogue_restores__+0x10>
    13a6:	80 e7       	ldi	r24, 0x70	; 112
    13a8:	92 e0       	ldi	r25, 0x02	; 2
    13aa:	90 93 70 14 	sts	0x1470, r25
    13ae:	80 93 6f 14 	sts	0x146F, r24
    13b2:	10 92 72 14 	sts	0x1472, r1
    13b6:	10 92 71 14 	sts	0x1471, r1
    13ba:	2b e6       	ldi	r18, 0x6B	; 107
    13bc:	34 e1       	ldi	r19, 0x14	; 20
    13be:	30 93 6e 02 	sts	0x026E, r19
    13c2:	20 93 6d 02 	sts	0x026D, r18
    13c6:	10 92 6e 14 	sts	0x146E, r1
    13ca:	10 92 6d 14 	sts	0x146D, r1
    13ce:	10 92 6c 14 	sts	0x146C, r1
    13d2:	10 92 6b 14 	sts	0x146B, r1
    13d6:	8b ef       	ldi	r24, 0xFB	; 251
    13d8:	91 e1       	ldi	r25, 0x11	; 17
    13da:	90 93 73 02 	sts	0x0273, r25
    13de:	80 93 72 02 	sts	0x0272, r24
    13e2:	30 93 71 02 	sts	0x0271, r19
    13e6:	20 93 70 02 	sts	0x0270, r18
    13ea:	80 91 3e 02 	lds	r24, 0x023E
    13ee:	90 91 3f 02 	lds	r25, 0x023F
    13f2:	04 97       	sbiw	r24, 0x04	; 4
    13f4:	90 93 3f 02 	sts	0x023F, r25
    13f8:	80 93 3e 02 	sts	0x023E, r24
    13fc:	80 e0       	ldi	r24, 0x00	; 0
    13fe:	90 e8       	ldi	r25, 0x80	; 128
    1400:	90 93 6c 02 	sts	0x026C, r25
    1404:	80 93 6b 02 	sts	0x026B, r24
    1408:	bb cf       	rjmp	.-138    	; 0x1380 <pvPortMalloc+0x1e>
    140a:	20 97       	sbiw	r28, 0x00	; 0
    140c:	11 f2       	breq	.-124    	; 0x1392 <pvPortMalloc+0x30>
    140e:	be 01       	movw	r22, r28
    1410:	6c 5f       	subi	r22, 0xFC	; 252
    1412:	7f 4f       	sbci	r23, 0xFF	; 255
    1414:	09 f4       	brne	.+2      	; 0x1418 <pvPortMalloc+0xb6>
    1416:	bd cf       	rjmp	.-134    	; 0x1392 <pvPortMalloc+0x30>
    1418:	a0 90 3e 02 	lds	r10, 0x023E
    141c:	b0 90 3f 02 	lds	r11, 0x023F
    1420:	a6 16       	cp	r10, r22
    1422:	b7 06       	cpc	r11, r23
    1424:	08 f4       	brcc	.+2      	; 0x1428 <pvPortMalloc+0xc6>
    1426:	b5 cf       	rjmp	.-150    	; 0x1392 <pvPortMalloc+0x30>
    1428:	00 91 6f 14 	lds	r16, 0x146F
    142c:	10 91 70 14 	lds	r17, 0x1470
    1430:	af e6       	ldi	r26, 0x6F	; 111
    1432:	b4 e1       	ldi	r27, 0x14	; 20
    1434:	06 c0       	rjmp	.+12     	; 0x1442 <pvPortMalloc+0xe0>
    1436:	88 81       	ld	r24, Y
    1438:	99 81       	ldd	r25, Y+1	; 0x01
    143a:	00 97       	sbiw	r24, 0x00	; 0
    143c:	41 f0       	breq	.+16     	; 0x144e <pvPortMalloc+0xec>
    143e:	8c 01       	movw	r16, r24
    1440:	de 01       	movw	r26, r28
    1442:	e8 01       	movw	r28, r16
    1444:	ea 81       	ldd	r30, Y+2	; 0x02
    1446:	fb 81       	ldd	r31, Y+3	; 0x03
    1448:	e6 17       	cp	r30, r22
    144a:	f7 07       	cpc	r31, r23
    144c:	a0 f3       	brcs	.-24     	; 0x1436 <pvPortMalloc+0xd4>
    144e:	e0 90 6d 02 	lds	r14, 0x026D
    1452:	f0 90 6e 02 	lds	r15, 0x026E
    1456:	0e 15       	cp	r16, r14
    1458:	1f 05       	cpc	r17, r15
    145a:	09 f4       	brne	.+2      	; 0x145e <pvPortMalloc+0xfc>
    145c:	9a cf       	rjmp	.-204    	; 0x1392 <pvPortMalloc+0x30>
    145e:	cd 90       	ld	r12, X+
    1460:	dc 90       	ld	r13, X
    1462:	11 97       	sbiw	r26, 0x01	; 1
    1464:	e8 01       	movw	r28, r16
    1466:	88 81       	ld	r24, Y
    1468:	99 81       	ldd	r25, Y+1	; 0x01
    146a:	8d 93       	st	X+, r24
    146c:	9c 93       	st	X, r25
    146e:	cf 01       	movw	r24, r30
    1470:	86 1b       	sub	r24, r22
    1472:	97 0b       	sbc	r25, r23
    1474:	89 30       	cpi	r24, 0x09	; 9
    1476:	91 05       	cpc	r25, r1
    1478:	90 f1       	brcs	.+100    	; 0x14de <pvPortMalloc+0x17c>
    147a:	d8 01       	movw	r26, r16
    147c:	a6 0f       	add	r26, r22
    147e:	b7 1f       	adc	r27, r23
    1480:	13 96       	adiw	r26, 0x03	; 3
    1482:	9c 93       	st	X, r25
    1484:	8e 93       	st	-X, r24
    1486:	12 97       	sbiw	r26, 0x02	; 2
    1488:	f8 01       	movw	r30, r16
    148a:	73 83       	std	Z+3, r23	; 0x03
    148c:	62 83       	std	Z+2, r22	; 0x02
    148e:	ef e6       	ldi	r30, 0x6F	; 111
    1490:	f4 e1       	ldi	r31, 0x14	; 20
    1492:	01 c0       	rjmp	.+2      	; 0x1496 <pvPortMalloc+0x134>
    1494:	fc 01       	movw	r30, r24
    1496:	80 81       	ld	r24, Z
    1498:	91 81       	ldd	r25, Z+1	; 0x01
    149a:	8a 17       	cp	r24, r26
    149c:	9b 07       	cpc	r25, r27
    149e:	d0 f3       	brcs	.-12     	; 0x1494 <pvPortMalloc+0x132>
    14a0:	ef 01       	movw	r28, r30
    14a2:	9f 01       	movw	r18, r30
    14a4:	62 81       	ldd	r22, Z+2	; 0x02
    14a6:	73 81       	ldd	r23, Z+3	; 0x03
    14a8:	cf 01       	movw	r24, r30
    14aa:	86 0f       	add	r24, r22
    14ac:	97 1f       	adc	r25, r23
    14ae:	a8 17       	cp	r26, r24
    14b0:	b9 07       	cpc	r27, r25
    14b2:	99 f1       	breq	.+102    	; 0x151a <pvPortMalloc+0x1b8>
    14b4:	fd 01       	movw	r30, r26
    14b6:	9d 01       	movw	r18, r26
    14b8:	62 81       	ldd	r22, Z+2	; 0x02
    14ba:	73 81       	ldd	r23, Z+3	; 0x03
    14bc:	a8 81       	ld	r26, Y
    14be:	b9 81       	ldd	r27, Y+1	; 0x01
    14c0:	26 0f       	add	r18, r22
    14c2:	37 1f       	adc	r19, r23
    14c4:	a2 17       	cp	r26, r18
    14c6:	b3 07       	cpc	r27, r19
    14c8:	b9 f1       	breq	.+110    	; 0x1538 <pvPortMalloc+0x1d6>
    14ca:	b1 83       	std	Z+1, r27	; 0x01
    14cc:	a0 83       	st	Z, r26
    14ce:	ce 17       	cp	r28, r30
    14d0:	df 07       	cpc	r29, r31
    14d2:	61 f1       	breq	.+88     	; 0x152c <pvPortMalloc+0x1ca>
    14d4:	f9 83       	std	Y+1, r31	; 0x01
    14d6:	e8 83       	st	Y, r30
    14d8:	e8 01       	movw	r28, r16
    14da:	ea 81       	ldd	r30, Y+2	; 0x02
    14dc:	fb 81       	ldd	r31, Y+3	; 0x03
    14de:	95 01       	movw	r18, r10
    14e0:	2e 1b       	sub	r18, r30
    14e2:	3f 0b       	sbc	r19, r31
    14e4:	30 93 3f 02 	sts	0x023F, r19
    14e8:	20 93 3e 02 	sts	0x023E, r18
    14ec:	80 91 3c 02 	lds	r24, 0x023C
    14f0:	90 91 3d 02 	lds	r25, 0x023D
    14f4:	28 17       	cp	r18, r24
    14f6:	39 07       	cpc	r19, r25
    14f8:	20 f4       	brcc	.+8      	; 0x1502 <pvPortMalloc+0x1a0>
    14fa:	30 93 3d 02 	sts	0x023D, r19
    14fe:	20 93 3c 02 	sts	0x023C, r18
    1502:	e6 01       	movw	r28, r12
    1504:	24 96       	adiw	r28, 0x04	; 4
    1506:	e4 2b       	or	r30, r20
    1508:	f5 2b       	or	r31, r21
    150a:	d8 01       	movw	r26, r16
    150c:	13 96       	adiw	r26, 0x03	; 3
    150e:	fc 93       	st	X, r31
    1510:	ee 93       	st	-X, r30
    1512:	12 97       	sbiw	r26, 0x02	; 2
    1514:	1d 92       	st	X+, r1
    1516:	1c 92       	st	X, r1
    1518:	3e cf       	rjmp	.-388    	; 0x1396 <pvPortMalloc+0x34>
    151a:	12 96       	adiw	r26, 0x02	; 2
    151c:	8d 91       	ld	r24, X+
    151e:	9c 91       	ld	r25, X
    1520:	13 97       	sbiw	r26, 0x03	; 3
    1522:	86 0f       	add	r24, r22
    1524:	97 1f       	adc	r25, r23
    1526:	93 83       	std	Z+3, r25	; 0x03
    1528:	82 83       	std	Z+2, r24	; 0x02
    152a:	c6 cf       	rjmp	.-116    	; 0x14b8 <pvPortMalloc+0x156>
    152c:	d8 01       	movw	r26, r16
    152e:	12 96       	adiw	r26, 0x02	; 2
    1530:	ed 91       	ld	r30, X+
    1532:	fc 91       	ld	r31, X
    1534:	13 97       	sbiw	r26, 0x03	; 3
    1536:	d3 cf       	rjmp	.-90     	; 0x14de <pvPortMalloc+0x17c>
    1538:	ea 16       	cp	r14, r26
    153a:	fb 06       	cpc	r15, r27
    153c:	69 f0       	breq	.+26     	; 0x1558 <pvPortMalloc+0x1f6>
    153e:	12 96       	adiw	r26, 0x02	; 2
    1540:	8d 91       	ld	r24, X+
    1542:	9c 91       	ld	r25, X
    1544:	13 97       	sbiw	r26, 0x03	; 3
    1546:	86 0f       	add	r24, r22
    1548:	97 1f       	adc	r25, r23
    154a:	93 83       	std	Z+3, r25	; 0x03
    154c:	82 83       	std	Z+2, r24	; 0x02
    154e:	8d 91       	ld	r24, X+
    1550:	9c 91       	ld	r25, X
    1552:	91 83       	std	Z+1, r25	; 0x01
    1554:	80 83       	st	Z, r24
    1556:	bb cf       	rjmp	.-138    	; 0x14ce <pvPortMalloc+0x16c>
    1558:	f1 82       	std	Z+1, r15	; 0x01
    155a:	e0 82       	st	Z, r14
    155c:	b8 cf       	rjmp	.-144    	; 0x14ce <pvPortMalloc+0x16c>

0000155e <vTaskSuspendAll>:
    155e:	80 91 7b 14 	lds	r24, 0x147B
    1562:	8f 5f       	subi	r24, 0xFF	; 255
    1564:	80 93 7b 14 	sts	0x147B, r24
    1568:	08 95       	ret

0000156a <xTaskGetTickCount>:
    156a:	0f b6       	in	r0, 0x3f	; 63
    156c:	f8 94       	cli
    156e:	0f 92       	push	r0
    1570:	20 91 78 14 	lds	r18, 0x1478
    1574:	30 91 79 14 	lds	r19, 0x1479
    1578:	0f 90       	pop	r0
    157a:	0f be       	out	0x3f, r0	; 63
    157c:	c9 01       	movw	r24, r18
    157e:	08 95       	ret

00001580 <xTaskGetTickCountFromISR>:
    1580:	20 91 78 14 	lds	r18, 0x1478
    1584:	30 91 79 14 	lds	r19, 0x1479
    1588:	c9 01       	movw	r24, r18
    158a:	08 95       	ret

0000158c <uxTaskGetNumberOfTasks>:
    158c:	80 91 75 14 	lds	r24, 0x1475
    1590:	08 95       	ret

00001592 <vTaskSetTimeOutState>:
    1592:	fc 01       	movw	r30, r24
    1594:	80 91 7a 14 	lds	r24, 0x147A
    1598:	80 83       	st	Z, r24
    159a:	80 91 78 14 	lds	r24, 0x1478
    159e:	90 91 79 14 	lds	r25, 0x1479
    15a2:	92 83       	std	Z+2, r25	; 0x02
    15a4:	81 83       	std	Z+1, r24	; 0x01
    15a6:	08 95       	ret

000015a8 <xTaskCheckForTimeOut>:
    15a8:	fc 01       	movw	r30, r24
    15aa:	db 01       	movw	r26, r22
    15ac:	0f b6       	in	r0, 0x3f	; 63
    15ae:	f8 94       	cli
    15b0:	0f 92       	push	r0
    15b2:	60 91 78 14 	lds	r22, 0x1478
    15b6:	70 91 79 14 	lds	r23, 0x1479
    15ba:	2d 91       	ld	r18, X+
    15bc:	3c 91       	ld	r19, X
    15be:	11 97       	sbiw	r26, 0x01	; 1
    15c0:	8f ef       	ldi	r24, 0xFF	; 255
    15c2:	2f 3f       	cpi	r18, 0xFF	; 255
    15c4:	38 07       	cpc	r19, r24
    15c6:	f9 f0       	breq	.+62     	; 0x1606 <xTaskCheckForTimeOut+0x5e>
    15c8:	90 91 7a 14 	lds	r25, 0x147A
    15cc:	80 81       	ld	r24, Z
    15ce:	89 17       	cp	r24, r25
    15d0:	f1 f0       	breq	.+60     	; 0x160e <xTaskCheckForTimeOut+0x66>
    15d2:	41 81       	ldd	r20, Z+1	; 0x01
    15d4:	52 81       	ldd	r21, Z+2	; 0x02
    15d6:	64 17       	cp	r22, r20
    15d8:	75 07       	cpc	r23, r21
    15da:	08 f5       	brcc	.+66     	; 0x161e <xTaskCheckForTimeOut+0x76>
    15dc:	cb 01       	movw	r24, r22
    15de:	84 1b       	sub	r24, r20
    15e0:	95 0b       	sbc	r25, r21
    15e2:	82 17       	cp	r24, r18
    15e4:	93 07       	cpc	r25, r19
    15e6:	d8 f4       	brcc	.+54     	; 0x161e <xTaskCheckForTimeOut+0x76>
    15e8:	26 1b       	sub	r18, r22
    15ea:	37 0b       	sbc	r19, r23
    15ec:	24 0f       	add	r18, r20
    15ee:	35 1f       	adc	r19, r21
    15f0:	2d 93       	st	X+, r18
    15f2:	3c 93       	st	X, r19
    15f4:	80 91 7a 14 	lds	r24, 0x147A
    15f8:	80 83       	st	Z, r24
    15fa:	80 91 78 14 	lds	r24, 0x1478
    15fe:	90 91 79 14 	lds	r25, 0x1479
    1602:	92 83       	std	Z+2, r25	; 0x02
    1604:	81 83       	std	Z+1, r24	; 0x01
    1606:	80 e0       	ldi	r24, 0x00	; 0
    1608:	0f 90       	pop	r0
    160a:	0f be       	out	0x3f, r0	; 63
    160c:	08 95       	ret
    160e:	41 81       	ldd	r20, Z+1	; 0x01
    1610:	52 81       	ldd	r21, Z+2	; 0x02
    1612:	cb 01       	movw	r24, r22
    1614:	84 1b       	sub	r24, r20
    1616:	95 0b       	sbc	r25, r21
    1618:	82 17       	cp	r24, r18
    161a:	93 07       	cpc	r25, r19
    161c:	28 f3       	brcs	.-54     	; 0x15e8 <xTaskCheckForTimeOut+0x40>
    161e:	81 e0       	ldi	r24, 0x01	; 1
    1620:	0f 90       	pop	r0
    1622:	0f be       	out	0x3f, r0	; 63
    1624:	08 95       	ret

00001626 <vTaskMissedYield>:
    1626:	81 e0       	ldi	r24, 0x01	; 1
    1628:	80 93 77 14 	sts	0x1477, r24
    162c:	08 95       	ret

0000162e <uxTaskGetTaskNumber>:
    162e:	fc 01       	movw	r30, r24
    1630:	00 97       	sbiw	r24, 0x00	; 0
    1632:	11 f0       	breq	.+4      	; 0x1638 <uxTaskGetTaskNumber+0xa>
    1634:	82 a1       	ldd	r24, Z+34	; 0x22
    1636:	08 95       	ret
    1638:	80 e0       	ldi	r24, 0x00	; 0
    163a:	08 95       	ret

0000163c <vTaskSetTaskNumber>:
    163c:	fc 01       	movw	r30, r24
    163e:	00 97       	sbiw	r24, 0x00	; 0
    1640:	09 f0       	breq	.+2      	; 0x1644 <vTaskSetTaskNumber+0x8>
    1642:	62 a3       	std	Z+34, r22	; 0x22
    1644:	08 95       	ret

00001646 <prvListTaskWithinSingleList>:
    1646:	a0 e0       	ldi	r26, 0x00	; 0
    1648:	b0 e0       	ldi	r27, 0x00	; 0
    164a:	e9 e2       	ldi	r30, 0x29	; 41
    164c:	fb e0       	ldi	r31, 0x0B	; 11
    164e:	0c 94 93 2c 	jmp	0x5926	; 0x5926 <__prologue_saves__+0x4>
    1652:	3c 01       	movw	r6, r24
    1654:	8b 01       	movw	r16, r22
    1656:	5a 01       	movw	r10, r20
    1658:	db 01       	movw	r26, r22
    165a:	8c 91       	ld	r24, X
    165c:	88 23       	and	r24, r24
    165e:	09 f4       	brne	.+2      	; 0x1662 <prvListTaskWithinSingleList+0x1c>
    1660:	8d c0       	rjmp	.+282    	; 0x177c <prvListTaskWithinSingleList+0x136>
    1662:	11 96       	adiw	r26, 0x01	; 1
    1664:	ed 91       	ld	r30, X+
    1666:	fc 91       	ld	r31, X
    1668:	12 97       	sbiw	r26, 0x02	; 2
    166a:	02 80       	ldd	r0, Z+2	; 0x02
    166c:	f3 81       	ldd	r31, Z+3	; 0x03
    166e:	e0 2d       	mov	r30, r0
    1670:	12 96       	adiw	r26, 0x02	; 2
    1672:	fc 93       	st	X, r31
    1674:	ee 93       	st	-X, r30
    1676:	11 97       	sbiw	r26, 0x01	; 1
    1678:	23 e0       	ldi	r18, 0x03	; 3
    167a:	c2 2e       	mov	r12, r18
    167c:	d1 2c       	mov	r13, r1
    167e:	c6 0e       	add	r12, r22
    1680:	d7 1e       	adc	r13, r23
    1682:	ec 15       	cp	r30, r12
    1684:	fd 05       	cpc	r31, r13
    1686:	09 f4       	brne	.+2      	; 0x168a <prvListTaskWithinSingleList+0x44>
    1688:	83 c0       	rjmp	.+262    	; 0x1790 <prvListTaskWithinSingleList+0x14a>
    168a:	86 80       	ldd	r8, Z+6	; 0x06
    168c:	97 80       	ldd	r9, Z+7	; 0x07
    168e:	ff 24       	eor	r15, r15
    1690:	9f e0       	ldi	r25, 0x0F	; 15
    1692:	e9 2e       	mov	r14, r25
    1694:	82 e0       	ldi	r24, 0x02	; 2
    1696:	48 2e       	mov	r4, r24
    1698:	51 2c       	mov	r5, r1
    169a:	82 81       	ldd	r24, Z+2	; 0x02
    169c:	93 81       	ldd	r25, Z+3	; 0x03
    169e:	f8 01       	movw	r30, r16
    16a0:	92 83       	std	Z+2, r25	; 0x02
    16a2:	81 83       	std	Z+1, r24	; 0x01
    16a4:	c8 16       	cp	r12, r24
    16a6:	d9 06       	cpc	r13, r25
    16a8:	09 f4       	brne	.+2      	; 0x16ac <prvListTaskWithinSingleList+0x66>
    16aa:	55 c0       	rjmp	.+170    	; 0x1756 <prvListTaskWithinSingleList+0x110>
    16ac:	d8 01       	movw	r26, r16
    16ae:	11 96       	adiw	r26, 0x01	; 1
    16b0:	ed 91       	ld	r30, X+
    16b2:	fc 91       	ld	r31, X
    16b4:	12 97       	sbiw	r26, 0x02	; 2
    16b6:	c6 81       	ldd	r28, Z+6	; 0x06
    16b8:	d7 81       	ldd	r29, Z+7	; 0x07
    16ba:	fe 9c       	mul	r15, r14
    16bc:	b0 01       	movw	r22, r0
    16be:	11 24       	eor	r1, r1
    16c0:	66 0d       	add	r22, r6
    16c2:	77 1d       	adc	r23, r7
    16c4:	fb 01       	movw	r30, r22
    16c6:	d1 83       	std	Z+1, r29	; 0x01
    16c8:	c0 83       	st	Z, r28
    16ca:	69 96       	adiw	r28, 0x19	; 25
    16cc:	d3 83       	std	Z+3, r29	; 0x03
    16ce:	c2 83       	std	Z+2, r28	; 0x02
    16d0:	69 97       	sbiw	r28, 0x19	; 25
    16d2:	89 a1       	ldd	r24, Y+33	; 0x21
    16d4:	84 83       	std	Z+4, r24	; 0x04
    16d6:	b6 82       	std	Z+6, r11	; 0x06
    16d8:	a5 82       	std	Z+5, r10	; 0x05
    16da:	8e 89       	ldd	r24, Y+22	; 0x16
    16dc:	87 83       	std	Z+7, r24	; 0x07
    16de:	f3 e0       	ldi	r31, 0x03	; 3
    16e0:	af 16       	cp	r10, r31
    16e2:	b1 04       	cpc	r11, r1
    16e4:	09 f4       	brne	.+2      	; 0x16e8 <prvListTaskWithinSingleList+0xa2>
    16e6:	3f c0       	rjmp	.+126    	; 0x1766 <prvListTaskWithinSingleList+0x120>
    16e8:	8b a1       	ldd	r24, Y+35	; 0x23
    16ea:	fb 01       	movw	r30, r22
    16ec:	80 87       	std	Z+8, r24	; 0x08
    16ee:	8c a1       	ldd	r24, Y+36	; 0x24
    16f0:	9d a1       	ldd	r25, Y+37	; 0x25
    16f2:	ae a1       	ldd	r26, Y+38	; 0x26
    16f4:	bf a1       	ldd	r27, Y+39	; 0x27
    16f6:	81 87       	std	Z+9, r24	; 0x09
    16f8:	92 87       	std	Z+10, r25	; 0x0a
    16fa:	a3 87       	std	Z+11, r26	; 0x0b
    16fc:	b4 87       	std	Z+12, r27	; 0x0c
    16fe:	af 89       	ldd	r26, Y+23	; 0x17
    1700:	b8 8d       	ldd	r27, Y+24	; 0x18
    1702:	8c 91       	ld	r24, X
    1704:	85 3a       	cpi	r24, 0xA5	; 165
    1706:	09 f0       	breq	.+2      	; 0x170a <prvListTaskWithinSingleList+0xc4>
    1708:	40 c0       	rjmp	.+128    	; 0x178a <prvListTaskWithinSingleList+0x144>
    170a:	20 e0       	ldi	r18, 0x00	; 0
    170c:	30 e0       	ldi	r19, 0x00	; 0
    170e:	40 e0       	ldi	r20, 0x00	; 0
    1710:	50 e0       	ldi	r21, 0x00	; 0
    1712:	2f 5f       	subi	r18, 0xFF	; 255
    1714:	3f 4f       	sbci	r19, 0xFF	; 255
    1716:	4f 4f       	sbci	r20, 0xFF	; 255
    1718:	5f 4f       	sbci	r21, 0xFF	; 255
    171a:	fd 01       	movw	r30, r26
    171c:	e2 0f       	add	r30, r18
    171e:	f3 1f       	adc	r31, r19
    1720:	80 81       	ld	r24, Z
    1722:	85 3a       	cpi	r24, 0xA5	; 165
    1724:	b1 f3       	breq	.-20     	; 0x1712 <prvListTaskWithinSingleList+0xcc>
    1726:	c9 01       	movw	r24, r18
    1728:	db 01       	movw	r26, r22
    172a:	1e 96       	adiw	r26, 0x0e	; 14
    172c:	9c 93       	st	X, r25
    172e:	8e 93       	st	-X, r24
    1730:	1d 97       	sbiw	r26, 0x0d	; 13
    1732:	f3 94       	inc	r15
    1734:	c8 15       	cp	r28, r8
    1736:	d9 05       	cpc	r29, r9
    1738:	11 f1       	breq	.+68     	; 0x177e <prvListTaskWithinSingleList+0x138>
    173a:	d8 01       	movw	r26, r16
    173c:	11 96       	adiw	r26, 0x01	; 1
    173e:	ed 91       	ld	r30, X+
    1740:	fc 91       	ld	r31, X
    1742:	12 97       	sbiw	r26, 0x02	; 2
    1744:	82 81       	ldd	r24, Z+2	; 0x02
    1746:	93 81       	ldd	r25, Z+3	; 0x03
    1748:	f8 01       	movw	r30, r16
    174a:	92 83       	std	Z+2, r25	; 0x02
    174c:	81 83       	std	Z+1, r24	; 0x01
    174e:	c8 16       	cp	r12, r24
    1750:	d9 06       	cpc	r13, r25
    1752:	09 f0       	breq	.+2      	; 0x1756 <prvListTaskWithinSingleList+0x110>
    1754:	ab cf       	rjmp	.-170    	; 0x16ac <prvListTaskWithinSingleList+0x66>
    1756:	d6 01       	movw	r26, r12
    1758:	12 96       	adiw	r26, 0x02	; 2
    175a:	8d 91       	ld	r24, X+
    175c:	9c 91       	ld	r25, X
    175e:	13 97       	sbiw	r26, 0x03	; 3
    1760:	92 83       	std	Z+2, r25	; 0x02
    1762:	81 83       	std	Z+1, r24	; 0x01
    1764:	a3 cf       	rjmp	.-186    	; 0x16ac <prvListTaskWithinSingleList+0x66>
    1766:	8c 89       	ldd	r24, Y+20	; 0x14
    1768:	9d 89       	ldd	r25, Y+21	; 0x15
    176a:	89 2b       	or	r24, r25
    176c:	09 f4       	brne	.+2      	; 0x1770 <prvListTaskWithinSingleList+0x12a>
    176e:	bc cf       	rjmp	.-136    	; 0x16e8 <prvListTaskWithinSingleList+0xa2>
    1770:	db 01       	movw	r26, r22
    1772:	16 96       	adiw	r26, 0x06	; 6
    1774:	5c 92       	st	X, r5
    1776:	4e 92       	st	-X, r4
    1778:	15 97       	sbiw	r26, 0x05	; 5
    177a:	b6 cf       	rjmp	.-148    	; 0x16e8 <prvListTaskWithinSingleList+0xa2>
    177c:	ff 24       	eor	r15, r15
    177e:	8f 2d       	mov	r24, r15
    1780:	cd b7       	in	r28, 0x3d	; 61
    1782:	de b7       	in	r29, 0x3e	; 62
    1784:	e0 e1       	ldi	r30, 0x10	; 16
    1786:	0c 94 af 2c 	jmp	0x595e	; 0x595e <__epilogue_restores__+0x4>
    178a:	80 e0       	ldi	r24, 0x00	; 0
    178c:	90 e0       	ldi	r25, 0x00	; 0
    178e:	cc cf       	rjmp	.-104    	; 0x1728 <prvListTaskWithinSingleList+0xe2>
    1790:	82 81       	ldd	r24, Z+2	; 0x02
    1792:	93 81       	ldd	r25, Z+3	; 0x03
    1794:	11 96       	adiw	r26, 0x01	; 1
    1796:	8c 93       	st	X, r24
    1798:	11 97       	sbiw	r26, 0x01	; 1
    179a:	12 96       	adiw	r26, 0x02	; 2
    179c:	9c 93       	st	X, r25
    179e:	9c 01       	movw	r18, r24
    17a0:	f9 01       	movw	r30, r18
    17a2:	73 cf       	rjmp	.-282    	; 0x168a <prvListTaskWithinSingleList+0x44>

000017a4 <uxTaskGetStackHighWaterMark>:
    17a4:	00 97       	sbiw	r24, 0x00	; 0
    17a6:	b1 f0       	breq	.+44     	; 0x17d4 <uxTaskGetStackHighWaterMark+0x30>
    17a8:	fc 01       	movw	r30, r24
    17aa:	a7 89       	ldd	r26, Z+23	; 0x17
    17ac:	b0 8d       	ldd	r27, Z+24	; 0x18
    17ae:	8c 91       	ld	r24, X
    17b0:	85 3a       	cpi	r24, 0xA5	; 165
    17b2:	a9 f4       	brne	.+42     	; 0x17de <uxTaskGetStackHighWaterMark+0x3a>
    17b4:	20 e0       	ldi	r18, 0x00	; 0
    17b6:	30 e0       	ldi	r19, 0x00	; 0
    17b8:	40 e0       	ldi	r20, 0x00	; 0
    17ba:	50 e0       	ldi	r21, 0x00	; 0
    17bc:	2f 5f       	subi	r18, 0xFF	; 255
    17be:	3f 4f       	sbci	r19, 0xFF	; 255
    17c0:	4f 4f       	sbci	r20, 0xFF	; 255
    17c2:	5f 4f       	sbci	r21, 0xFF	; 255
    17c4:	fd 01       	movw	r30, r26
    17c6:	e2 0f       	add	r30, r18
    17c8:	f3 1f       	adc	r31, r19
    17ca:	80 81       	ld	r24, Z
    17cc:	85 3a       	cpi	r24, 0xA5	; 165
    17ce:	b1 f3       	breq	.-20     	; 0x17bc <uxTaskGetStackHighWaterMark+0x18>
    17d0:	82 2f       	mov	r24, r18
    17d2:	08 95       	ret
    17d4:	e0 91 73 14 	lds	r30, 0x1473
    17d8:	f0 91 74 14 	lds	r31, 0x1474
    17dc:	e6 cf       	rjmp	.-52     	; 0x17aa <uxTaskGetStackHighWaterMark+0x6>
    17de:	80 e0       	ldi	r24, 0x00	; 0
    17e0:	08 95       	ret

000017e2 <xTaskGetCurrentTaskHandle>:
    17e2:	20 91 73 14 	lds	r18, 0x1473
    17e6:	30 91 74 14 	lds	r19, 0x1474
    17ea:	c9 01       	movw	r24, r18
    17ec:	08 95       	ret

000017ee <uxTaskResetEventItemValue>:
    17ee:	e0 91 73 14 	lds	r30, 0x1473
    17f2:	f0 91 74 14 	lds	r31, 0x1474
    17f6:	84 85       	ldd	r24, Z+12	; 0x0c
    17f8:	95 85       	ldd	r25, Z+13	; 0x0d
    17fa:	a0 91 73 14 	lds	r26, 0x1473
    17fe:	b0 91 74 14 	lds	r27, 0x1474
    1802:	e0 91 73 14 	lds	r30, 0x1473
    1806:	f0 91 74 14 	lds	r31, 0x1474
    180a:	46 89       	ldd	r20, Z+22	; 0x16
    180c:	24 e0       	ldi	r18, 0x04	; 4
    180e:	30 e0       	ldi	r19, 0x00	; 0
    1810:	24 1b       	sub	r18, r20
    1812:	31 09       	sbc	r19, r1
    1814:	1d 96       	adiw	r26, 0x0d	; 13
    1816:	3c 93       	st	X, r19
    1818:	2e 93       	st	-X, r18
    181a:	1c 97       	sbiw	r26, 0x0c	; 12
    181c:	08 95       	ret

0000181e <vTaskPriorityDisinherit>:
    181e:	0f 93       	push	r16
    1820:	1f 93       	push	r17
    1822:	cf 93       	push	r28
    1824:	df 93       	push	r29
    1826:	ec 01       	movw	r28, r24
    1828:	00 97       	sbiw	r24, 0x00	; 0
    182a:	31 f1       	breq	.+76     	; 0x1878 <vTaskPriorityDisinherit+0x5a>
    182c:	9e 89       	ldd	r25, Y+22	; 0x16
    182e:	8b a1       	ldd	r24, Y+35	; 0x23
    1830:	98 17       	cp	r25, r24
    1832:	11 f1       	breq	.+68     	; 0x1878 <vTaskPriorityDisinherit+0x5a>
    1834:	8e 01       	movw	r16, r28
    1836:	0e 5f       	subi	r16, 0xFE	; 254
    1838:	1f 4f       	sbci	r17, 0xFF	; 255
    183a:	c8 01       	movw	r24, r16
    183c:	0e 94 56 25 	call	0x4aac	; 0x4aac <uxListRemove>
    1840:	2b a1       	ldd	r18, Y+35	; 0x23
    1842:	2e 8b       	std	Y+22, r18	; 0x16
    1844:	8c 85       	ldd	r24, Y+12	; 0x0c
    1846:	9d 85       	ldd	r25, Y+13	; 0x0d
    1848:	97 fd       	sbrc	r25, 7
    184a:	06 c0       	rjmp	.+12     	; 0x1858 <vTaskPriorityDisinherit+0x3a>
    184c:	84 e0       	ldi	r24, 0x04	; 4
    184e:	90 e0       	ldi	r25, 0x00	; 0
    1850:	82 1b       	sub	r24, r18
    1852:	91 09       	sbc	r25, r1
    1854:	9d 87       	std	Y+13, r25	; 0x0d
    1856:	8c 87       	std	Y+12, r24	; 0x0c
    1858:	9e 89       	ldd	r25, Y+22	; 0x16
    185a:	80 91 76 14 	lds	r24, 0x1476
    185e:	89 17       	cp	r24, r25
    1860:	10 f4       	brcc	.+4      	; 0x1866 <vTaskPriorityDisinherit+0x48>
    1862:	90 93 76 14 	sts	0x1476, r25
    1866:	89 e0       	ldi	r24, 0x09	; 9
    1868:	98 9f       	mul	r25, r24
    186a:	c0 01       	movw	r24, r0
    186c:	11 24       	eor	r1, r1
    186e:	88 57       	subi	r24, 0x78	; 120
    1870:	9b 4e       	sbci	r25, 0xEB	; 235
    1872:	b8 01       	movw	r22, r16
    1874:	0e 94 05 25 	call	0x4a0a	; 0x4a0a <vListInsertEnd>
    1878:	df 91       	pop	r29
    187a:	cf 91       	pop	r28
    187c:	1f 91       	pop	r17
    187e:	0f 91       	pop	r16
    1880:	08 95       	ret

00001882 <vTaskPriorityInherit>:
    1882:	0f 93       	push	r16
    1884:	1f 93       	push	r17
    1886:	cf 93       	push	r28
    1888:	df 93       	push	r29
    188a:	ec 01       	movw	r28, r24
    188c:	00 97       	sbiw	r24, 0x00	; 0
    188e:	41 f1       	breq	.+80     	; 0x18e0 <vTaskPriorityInherit+0x5e>
    1890:	3e 89       	ldd	r19, Y+22	; 0x16
    1892:	e0 91 73 14 	lds	r30, 0x1473
    1896:	f0 91 74 14 	lds	r31, 0x1474
    189a:	86 89       	ldd	r24, Z+22	; 0x16
    189c:	38 17       	cp	r19, r24
    189e:	00 f5       	brcc	.+64     	; 0x18e0 <vTaskPriorityInherit+0x5e>
    18a0:	8c 85       	ldd	r24, Y+12	; 0x0c
    18a2:	9d 85       	ldd	r25, Y+13	; 0x0d
    18a4:	97 fd       	sbrc	r25, 7
    18a6:	0b c0       	rjmp	.+22     	; 0x18be <vTaskPriorityInherit+0x3c>
    18a8:	e0 91 73 14 	lds	r30, 0x1473
    18ac:	f0 91 74 14 	lds	r31, 0x1474
    18b0:	26 89       	ldd	r18, Z+22	; 0x16
    18b2:	84 e0       	ldi	r24, 0x04	; 4
    18b4:	90 e0       	ldi	r25, 0x00	; 0
    18b6:	82 1b       	sub	r24, r18
    18b8:	91 09       	sbc	r25, r1
    18ba:	9d 87       	std	Y+13, r25	; 0x0d
    18bc:	8c 87       	std	Y+12, r24	; 0x0c
    18be:	89 e0       	ldi	r24, 0x09	; 9
    18c0:	38 9f       	mul	r19, r24
    18c2:	c0 01       	movw	r24, r0
    18c4:	11 24       	eor	r1, r1
    18c6:	88 57       	subi	r24, 0x78	; 120
    18c8:	9b 4e       	sbci	r25, 0xEB	; 235
    18ca:	2a 85       	ldd	r18, Y+10	; 0x0a
    18cc:	3b 85       	ldd	r19, Y+11	; 0x0b
    18ce:	28 17       	cp	r18, r24
    18d0:	39 07       	cpc	r19, r25
    18d2:	59 f0       	breq	.+22     	; 0x18ea <vTaskPriorityInherit+0x68>
    18d4:	e0 91 73 14 	lds	r30, 0x1473
    18d8:	f0 91 74 14 	lds	r31, 0x1474
    18dc:	86 89       	ldd	r24, Z+22	; 0x16
    18de:	8e 8b       	std	Y+22, r24	; 0x16
    18e0:	df 91       	pop	r29
    18e2:	cf 91       	pop	r28
    18e4:	1f 91       	pop	r17
    18e6:	0f 91       	pop	r16
    18e8:	08 95       	ret
    18ea:	8e 01       	movw	r16, r28
    18ec:	0e 5f       	subi	r16, 0xFE	; 254
    18ee:	1f 4f       	sbci	r17, 0xFF	; 255
    18f0:	c8 01       	movw	r24, r16
    18f2:	0e 94 56 25 	call	0x4aac	; 0x4aac <uxListRemove>
    18f6:	e0 91 73 14 	lds	r30, 0x1473
    18fa:	f0 91 74 14 	lds	r31, 0x1474
    18fe:	96 89       	ldd	r25, Z+22	; 0x16
    1900:	9e 8b       	std	Y+22, r25	; 0x16
    1902:	80 91 76 14 	lds	r24, 0x1476
    1906:	89 17       	cp	r24, r25
    1908:	10 f4       	brcc	.+4      	; 0x190e <vTaskPriorityInherit+0x8c>
    190a:	90 93 76 14 	sts	0x1476, r25
    190e:	89 e0       	ldi	r24, 0x09	; 9
    1910:	98 9f       	mul	r25, r24
    1912:	c0 01       	movw	r24, r0
    1914:	11 24       	eor	r1, r1
    1916:	88 57       	subi	r24, 0x78	; 120
    1918:	9b 4e       	sbci	r25, 0xEB	; 235
    191a:	b8 01       	movw	r22, r16
    191c:	0e 94 05 25 	call	0x4a0a	; 0x4a0a <vListInsertEnd>
    1920:	df cf       	rjmp	.-66     	; 0x18e0 <vTaskPriorityInherit+0x5e>

00001922 <xTaskRemoveFromUnorderedEventList>:
    1922:	0f 93       	push	r16
    1924:	1f 93       	push	r17
    1926:	cf 93       	push	r28
    1928:	df 93       	push	r29
    192a:	fc 01       	movw	r30, r24
    192c:	70 68       	ori	r23, 0x80	; 128
    192e:	71 83       	std	Z+1, r23	; 0x01
    1930:	60 83       	st	Z, r22
    1932:	c6 81       	ldd	r28, Z+6	; 0x06
    1934:	d7 81       	ldd	r29, Z+7	; 0x07
    1936:	0e 94 56 25 	call	0x4aac	; 0x4aac <uxListRemove>
    193a:	8e 01       	movw	r16, r28
    193c:	0e 5f       	subi	r16, 0xFE	; 254
    193e:	1f 4f       	sbci	r17, 0xFF	; 255
    1940:	c8 01       	movw	r24, r16
    1942:	0e 94 56 25 	call	0x4aac	; 0x4aac <uxListRemove>
    1946:	9e 89       	ldd	r25, Y+22	; 0x16
    1948:	80 91 76 14 	lds	r24, 0x1476
    194c:	89 17       	cp	r24, r25
    194e:	10 f4       	brcc	.+4      	; 0x1954 <xTaskRemoveFromUnorderedEventList+0x32>
    1950:	90 93 76 14 	sts	0x1476, r25
    1954:	89 e0       	ldi	r24, 0x09	; 9
    1956:	98 9f       	mul	r25, r24
    1958:	c0 01       	movw	r24, r0
    195a:	11 24       	eor	r1, r1
    195c:	88 57       	subi	r24, 0x78	; 120
    195e:	9b 4e       	sbci	r25, 0xEB	; 235
    1960:	b8 01       	movw	r22, r16
    1962:	0e 94 05 25 	call	0x4a0a	; 0x4a0a <vListInsertEnd>
    1966:	e0 91 73 14 	lds	r30, 0x1473
    196a:	f0 91 74 14 	lds	r31, 0x1474
    196e:	9e 89       	ldd	r25, Y+22	; 0x16
    1970:	86 89       	ldd	r24, Z+22	; 0x16
    1972:	89 17       	cp	r24, r25
    1974:	40 f4       	brcc	.+16     	; 0x1986 <xTaskRemoveFromUnorderedEventList+0x64>
    1976:	81 e0       	ldi	r24, 0x01	; 1
    1978:	80 93 77 14 	sts	0x1477, r24
    197c:	df 91       	pop	r29
    197e:	cf 91       	pop	r28
    1980:	1f 91       	pop	r17
    1982:	0f 91       	pop	r16
    1984:	08 95       	ret
    1986:	80 e0       	ldi	r24, 0x00	; 0
    1988:	df 91       	pop	r29
    198a:	cf 91       	pop	r28
    198c:	1f 91       	pop	r17
    198e:	0f 91       	pop	r16
    1990:	08 95       	ret

00001992 <xTaskRemoveFromEventList>:
    1992:	0f 93       	push	r16
    1994:	1f 93       	push	r17
    1996:	cf 93       	push	r28
    1998:	df 93       	push	r29
    199a:	dc 01       	movw	r26, r24
    199c:	15 96       	adiw	r26, 0x05	; 5
    199e:	ed 91       	ld	r30, X+
    19a0:	fc 91       	ld	r31, X
    19a2:	16 97       	sbiw	r26, 0x06	; 6
    19a4:	06 81       	ldd	r16, Z+6	; 0x06
    19a6:	17 81       	ldd	r17, Z+7	; 0x07
    19a8:	e8 01       	movw	r28, r16
    19aa:	2c 96       	adiw	r28, 0x0c	; 12
    19ac:	ce 01       	movw	r24, r28
    19ae:	0e 94 56 25 	call	0x4aac	; 0x4aac <uxListRemove>
    19b2:	80 91 7b 14 	lds	r24, 0x147B
    19b6:	88 23       	and	r24, r24
    19b8:	31 f5       	brne	.+76     	; 0x1a06 <xTaskRemoveFromEventList+0x74>
    19ba:	e8 01       	movw	r28, r16
    19bc:	22 96       	adiw	r28, 0x02	; 2
    19be:	ce 01       	movw	r24, r28
    19c0:	0e 94 56 25 	call	0x4aac	; 0x4aac <uxListRemove>
    19c4:	f8 01       	movw	r30, r16
    19c6:	96 89       	ldd	r25, Z+22	; 0x16
    19c8:	80 91 76 14 	lds	r24, 0x1476
    19cc:	89 17       	cp	r24, r25
    19ce:	08 f1       	brcs	.+66     	; 0x1a12 <xTaskRemoveFromEventList+0x80>
    19d0:	89 e0       	ldi	r24, 0x09	; 9
    19d2:	98 9f       	mul	r25, r24
    19d4:	c0 01       	movw	r24, r0
    19d6:	11 24       	eor	r1, r1
    19d8:	88 57       	subi	r24, 0x78	; 120
    19da:	9b 4e       	sbci	r25, 0xEB	; 235
    19dc:	be 01       	movw	r22, r28
    19de:	0e 94 05 25 	call	0x4a0a	; 0x4a0a <vListInsertEnd>
    19e2:	e0 91 73 14 	lds	r30, 0x1473
    19e6:	f0 91 74 14 	lds	r31, 0x1474
    19ea:	d8 01       	movw	r26, r16
    19ec:	56 96       	adiw	r26, 0x16	; 22
    19ee:	9c 91       	ld	r25, X
    19f0:	86 89       	ldd	r24, Z+22	; 0x16
    19f2:	89 17       	cp	r24, r25
    19f4:	88 f4       	brcc	.+34     	; 0x1a18 <xTaskRemoveFromEventList+0x86>
    19f6:	81 e0       	ldi	r24, 0x01	; 1
    19f8:	80 93 77 14 	sts	0x1477, r24
    19fc:	df 91       	pop	r29
    19fe:	cf 91       	pop	r28
    1a00:	1f 91       	pop	r17
    1a02:	0f 91       	pop	r16
    1a04:	08 95       	ret
    1a06:	82 ec       	ldi	r24, 0xC2	; 194
    1a08:	94 e1       	ldi	r25, 0x14	; 20
    1a0a:	be 01       	movw	r22, r28
    1a0c:	0e 94 05 25 	call	0x4a0a	; 0x4a0a <vListInsertEnd>
    1a10:	e8 cf       	rjmp	.-48     	; 0x19e2 <xTaskRemoveFromEventList+0x50>
    1a12:	90 93 76 14 	sts	0x1476, r25
    1a16:	dc cf       	rjmp	.-72     	; 0x19d0 <xTaskRemoveFromEventList+0x3e>
    1a18:	80 e0       	ldi	r24, 0x00	; 0
    1a1a:	df 91       	pop	r29
    1a1c:	cf 91       	pop	r28
    1a1e:	1f 91       	pop	r17
    1a20:	0f 91       	pop	r16
    1a22:	08 95       	ret

00001a24 <xTaskIncrementTick>:
    1a24:	a0 e0       	ldi	r26, 0x00	; 0
    1a26:	b0 e0       	ldi	r27, 0x00	; 0
    1a28:	e8 e1       	ldi	r30, 0x18	; 24
    1a2a:	fd e0       	ldi	r31, 0x0D	; 13
    1a2c:	0c 94 9b 2c 	jmp	0x5936	; 0x5936 <__prologue_saves__+0x14>
    1a30:	80 91 7b 14 	lds	r24, 0x147B
    1a34:	88 23       	and	r24, r24
    1a36:	09 f0       	breq	.+2      	; 0x1a3a <xTaskIncrementTick+0x16>
    1a38:	89 c0       	rjmp	.+274    	; 0x1b4c <xTaskIncrementTick+0x128>
    1a3a:	80 91 78 14 	lds	r24, 0x1478
    1a3e:	90 91 79 14 	lds	r25, 0x1479
    1a42:	01 96       	adiw	r24, 0x01	; 1
    1a44:	90 93 79 14 	sts	0x1479, r25
    1a48:	80 93 78 14 	sts	0x1478, r24
    1a4c:	e0 90 78 14 	lds	r14, 0x1478
    1a50:	f0 90 79 14 	lds	r15, 0x1479
    1a54:	e1 14       	cp	r14, r1
    1a56:	f1 04       	cpc	r15, r1
    1a58:	19 f5       	brne	.+70     	; 0x1aa0 <xTaskIncrementTick+0x7c>
    1a5a:	20 91 be 14 	lds	r18, 0x14BE
    1a5e:	30 91 bf 14 	lds	r19, 0x14BF
    1a62:	80 91 c0 14 	lds	r24, 0x14C0
    1a66:	90 91 c1 14 	lds	r25, 0x14C1
    1a6a:	90 93 bf 14 	sts	0x14BF, r25
    1a6e:	80 93 be 14 	sts	0x14BE, r24
    1a72:	30 93 c1 14 	sts	0x14C1, r19
    1a76:	20 93 c0 14 	sts	0x14C0, r18
    1a7a:	80 91 7a 14 	lds	r24, 0x147A
    1a7e:	8f 5f       	subi	r24, 0xFF	; 255
    1a80:	80 93 7a 14 	sts	0x147A, r24
    1a84:	e0 91 be 14 	lds	r30, 0x14BE
    1a88:	f0 91 bf 14 	lds	r31, 0x14BF
    1a8c:	80 81       	ld	r24, Z
    1a8e:	88 23       	and	r24, r24
    1a90:	09 f0       	breq	.+2      	; 0x1a94 <xTaskIncrementTick+0x70>
    1a92:	86 c0       	rjmp	.+268    	; 0x1ba0 <xTaskIncrementTick+0x17c>
    1a94:	8f ef       	ldi	r24, 0xFF	; 255
    1a96:	9f ef       	ldi	r25, 0xFF	; 255
    1a98:	90 93 41 02 	sts	0x0241, r25
    1a9c:	80 93 40 02 	sts	0x0240, r24
    1aa0:	80 91 40 02 	lds	r24, 0x0240
    1aa4:	90 91 41 02 	lds	r25, 0x0241
    1aa8:	e8 16       	cp	r14, r24
    1aaa:	f9 06       	cpc	r15, r25
    1aac:	08 f4       	brcc	.+2      	; 0x1ab0 <xTaskIncrementTick+0x8c>
    1aae:	60 c0       	rjmp	.+192    	; 0x1b70 <xTaskIncrementTick+0x14c>
    1ab0:	dd 24       	eor	r13, r13
    1ab2:	49 e0       	ldi	r20, 0x09	; 9
    1ab4:	c4 2e       	mov	r12, r20
    1ab6:	e0 91 be 14 	lds	r30, 0x14BE
    1aba:	f0 91 bf 14 	lds	r31, 0x14BF
    1abe:	80 81       	ld	r24, Z
    1ac0:	88 23       	and	r24, r24
    1ac2:	e9 f1       	breq	.+122    	; 0x1b3e <xTaskIncrementTick+0x11a>
    1ac4:	e0 91 be 14 	lds	r30, 0x14BE
    1ac8:	f0 91 bf 14 	lds	r31, 0x14BF
    1acc:	05 80       	ldd	r0, Z+5	; 0x05
    1ace:	f6 81       	ldd	r31, Z+6	; 0x06
    1ad0:	e0 2d       	mov	r30, r0
    1ad2:	c6 81       	ldd	r28, Z+6	; 0x06
    1ad4:	d7 81       	ldd	r29, Z+7	; 0x07
    1ad6:	8a 81       	ldd	r24, Y+2	; 0x02
    1ad8:	9b 81       	ldd	r25, Y+3	; 0x03
    1ada:	e8 16       	cp	r14, r24
    1adc:	f9 06       	cpc	r15, r25
    1ade:	08 f4       	brcc	.+2      	; 0x1ae2 <xTaskIncrementTick+0xbe>
    1ae0:	77 c0       	rjmp	.+238    	; 0x1bd0 <xTaskIncrementTick+0x1ac>
    1ae2:	8e 01       	movw	r16, r28
    1ae4:	0e 5f       	subi	r16, 0xFE	; 254
    1ae6:	1f 4f       	sbci	r17, 0xFF	; 255
    1ae8:	c8 01       	movw	r24, r16
    1aea:	0e 94 56 25 	call	0x4aac	; 0x4aac <uxListRemove>
    1aee:	8c 89       	ldd	r24, Y+20	; 0x14
    1af0:	9d 89       	ldd	r25, Y+21	; 0x15
    1af2:	89 2b       	or	r24, r25
    1af4:	21 f0       	breq	.+8      	; 0x1afe <xTaskIncrementTick+0xda>
    1af6:	ce 01       	movw	r24, r28
    1af8:	0c 96       	adiw	r24, 0x0c	; 12
    1afa:	0e 94 56 25 	call	0x4aac	; 0x4aac <uxListRemove>
    1afe:	9e 89       	ldd	r25, Y+22	; 0x16
    1b00:	80 91 76 14 	lds	r24, 0x1476
    1b04:	89 17       	cp	r24, r25
    1b06:	10 f4       	brcc	.+4      	; 0x1b0c <xTaskIncrementTick+0xe8>
    1b08:	90 93 76 14 	sts	0x1476, r25
    1b0c:	9c 9d       	mul	r25, r12
    1b0e:	c0 01       	movw	r24, r0
    1b10:	11 24       	eor	r1, r1
    1b12:	88 57       	subi	r24, 0x78	; 120
    1b14:	9b 4e       	sbci	r25, 0xEB	; 235
    1b16:	b8 01       	movw	r22, r16
    1b18:	0e 94 05 25 	call	0x4a0a	; 0x4a0a <vListInsertEnd>
    1b1c:	e0 91 73 14 	lds	r30, 0x1473
    1b20:	f0 91 74 14 	lds	r31, 0x1474
    1b24:	9e 89       	ldd	r25, Y+22	; 0x16
    1b26:	86 89       	ldd	r24, Z+22	; 0x16
    1b28:	98 17       	cp	r25, r24
    1b2a:	28 f2       	brcs	.-118    	; 0x1ab6 <xTaskIncrementTick+0x92>
    1b2c:	dd 24       	eor	r13, r13
    1b2e:	d3 94       	inc	r13
    1b30:	e0 91 be 14 	lds	r30, 0x14BE
    1b34:	f0 91 bf 14 	lds	r31, 0x14BF
    1b38:	80 81       	ld	r24, Z
    1b3a:	88 23       	and	r24, r24
    1b3c:	19 f6       	brne	.-122    	; 0x1ac4 <xTaskIncrementTick+0xa0>
    1b3e:	8f ef       	ldi	r24, 0xFF	; 255
    1b40:	9f ef       	ldi	r25, 0xFF	; 255
    1b42:	90 93 41 02 	sts	0x0241, r25
    1b46:	80 93 40 02 	sts	0x0240, r24
    1b4a:	13 c0       	rjmp	.+38     	; 0x1b72 <xTaskIncrementTick+0x14e>
    1b4c:	80 91 84 14 	lds	r24, 0x1484
    1b50:	8f 5f       	subi	r24, 0xFF	; 255
    1b52:	80 93 84 14 	sts	0x1484, r24
    1b56:	dd 24       	eor	r13, r13
    1b58:	80 91 77 14 	lds	r24, 0x1477
    1b5c:	88 23       	and	r24, r24
    1b5e:	11 f0       	breq	.+4      	; 0x1b64 <xTaskIncrementTick+0x140>
    1b60:	dd 24       	eor	r13, r13
    1b62:	d3 94       	inc	r13
    1b64:	8d 2d       	mov	r24, r13
    1b66:	cd b7       	in	r28, 0x3d	; 61
    1b68:	de b7       	in	r29, 0x3e	; 62
    1b6a:	e8 e0       	ldi	r30, 0x08	; 8
    1b6c:	0c 94 b7 2c 	jmp	0x596e	; 0x596e <__epilogue_restores__+0x14>
    1b70:	dd 24       	eor	r13, r13
    1b72:	e0 91 73 14 	lds	r30, 0x1473
    1b76:	f0 91 74 14 	lds	r31, 0x1474
    1b7a:	86 89       	ldd	r24, Z+22	; 0x16
    1b7c:	90 e0       	ldi	r25, 0x00	; 0
    1b7e:	fc 01       	movw	r30, r24
    1b80:	ee 0f       	add	r30, r30
    1b82:	ff 1f       	adc	r31, r31
    1b84:	ee 0f       	add	r30, r30
    1b86:	ff 1f       	adc	r31, r31
    1b88:	ee 0f       	add	r30, r30
    1b8a:	ff 1f       	adc	r31, r31
    1b8c:	e8 0f       	add	r30, r24
    1b8e:	f9 1f       	adc	r31, r25
    1b90:	e8 57       	subi	r30, 0x78	; 120
    1b92:	fb 4e       	sbci	r31, 0xEB	; 235
    1b94:	80 81       	ld	r24, Z
    1b96:	82 30       	cpi	r24, 0x02	; 2
    1b98:	f8 f2       	brcs	.-66     	; 0x1b58 <xTaskIncrementTick+0x134>
    1b9a:	dd 24       	eor	r13, r13
    1b9c:	d3 94       	inc	r13
    1b9e:	dc cf       	rjmp	.-72     	; 0x1b58 <xTaskIncrementTick+0x134>
    1ba0:	e0 91 be 14 	lds	r30, 0x14BE
    1ba4:	f0 91 bf 14 	lds	r31, 0x14BF
    1ba8:	05 80       	ldd	r0, Z+5	; 0x05
    1baa:	f6 81       	ldd	r31, Z+6	; 0x06
    1bac:	e0 2d       	mov	r30, r0
    1bae:	06 80       	ldd	r0, Z+6	; 0x06
    1bb0:	f7 81       	ldd	r31, Z+7	; 0x07
    1bb2:	e0 2d       	mov	r30, r0
    1bb4:	82 81       	ldd	r24, Z+2	; 0x02
    1bb6:	93 81       	ldd	r25, Z+3	; 0x03
    1bb8:	90 93 41 02 	sts	0x0241, r25
    1bbc:	80 93 40 02 	sts	0x0240, r24
    1bc0:	80 91 40 02 	lds	r24, 0x0240
    1bc4:	90 91 41 02 	lds	r25, 0x0241
    1bc8:	e8 16       	cp	r14, r24
    1bca:	f9 06       	cpc	r15, r25
    1bcc:	88 f2       	brcs	.-94     	; 0x1b70 <xTaskIncrementTick+0x14c>
    1bce:	70 cf       	rjmp	.-288    	; 0x1ab0 <xTaskIncrementTick+0x8c>
    1bd0:	90 93 41 02 	sts	0x0241, r25
    1bd4:	80 93 40 02 	sts	0x0240, r24
    1bd8:	cc cf       	rjmp	.-104    	; 0x1b72 <xTaskIncrementTick+0x14e>

00001bda <xTaskResumeFromISR>:
    1bda:	df 92       	push	r13
    1bdc:	ef 92       	push	r14
    1bde:	ff 92       	push	r15
    1be0:	0f 93       	push	r16
    1be2:	1f 93       	push	r17
    1be4:	cf 93       	push	r28
    1be6:	df 93       	push	r29
    1be8:	ec 01       	movw	r28, r24
    1bea:	8a 85       	ldd	r24, Y+10	; 0x0a
    1bec:	9b 85       	ldd	r25, Y+11	; 0x0b
    1bee:	84 5d       	subi	r24, 0xD4	; 212
    1bf0:	94 41       	sbci	r25, 0x14	; 20
    1bf2:	41 f0       	breq	.+16     	; 0x1c04 <xTaskResumeFromISR+0x2a>
    1bf4:	10 e0       	ldi	r17, 0x00	; 0
    1bf6:	81 2f       	mov	r24, r17
    1bf8:	cd b7       	in	r28, 0x3d	; 61
    1bfa:	de b7       	in	r29, 0x3e	; 62
    1bfc:	e7 e0       	ldi	r30, 0x07	; 7
    1bfe:	0c 94 b8 2c 	jmp	0x5970	; 0x5970 <__epilogue_restores__+0x16>
    1c02:	42 c0       	rjmp	.+132    	; 0x1c88 <vTaskPlaceOnUnorderedEventList>
    1c04:	8c 89       	ldd	r24, Y+20	; 0x14
    1c06:	9d 89       	ldd	r25, Y+21	; 0x15
    1c08:	24 e1       	ldi	r18, 0x14	; 20
    1c0a:	82 3c       	cpi	r24, 0xC2	; 194
    1c0c:	92 07       	cpc	r25, r18
    1c0e:	91 f3       	breq	.-28     	; 0x1bf4 <xTaskResumeFromISR+0x1a>
    1c10:	89 2b       	or	r24, r25
    1c12:	81 f7       	brne	.-32     	; 0x1bf4 <xTaskResumeFromISR+0x1a>
    1c14:	80 91 7b 14 	lds	r24, 0x147B
    1c18:	88 23       	and	r24, r24
    1c1a:	49 f5       	brne	.+82     	; 0x1c6e <xTaskResumeFromISR+0x94>
    1c1c:	de 88       	ldd	r13, Y+22	; 0x16
    1c1e:	e0 91 73 14 	lds	r30, 0x1473
    1c22:	f0 91 74 14 	lds	r31, 0x1474
    1c26:	06 89       	ldd	r16, Z+22	; 0x16
    1c28:	52 e0       	ldi	r21, 0x02	; 2
    1c2a:	e5 2e       	mov	r14, r21
    1c2c:	f1 2c       	mov	r15, r1
    1c2e:	ec 0e       	add	r14, r28
    1c30:	fd 1e       	adc	r15, r29
    1c32:	c7 01       	movw	r24, r14
    1c34:	0e 94 56 25 	call	0x4aac	; 0x4aac <uxListRemove>
    1c38:	6e 89       	ldd	r22, Y+22	; 0x16
    1c3a:	80 91 76 14 	lds	r24, 0x1476
    1c3e:	86 17       	cp	r24, r22
    1c40:	10 f4       	brcc	.+4      	; 0x1c46 <xTaskResumeFromISR+0x6c>
    1c42:	60 93 76 14 	sts	0x1476, r22
    1c46:	10 e0       	ldi	r17, 0x00	; 0
    1c48:	d0 16       	cp	r13, r16
    1c4a:	08 f0       	brcs	.+2      	; 0x1c4e <xTaskResumeFromISR+0x74>
    1c4c:	11 e0       	ldi	r17, 0x01	; 1
    1c4e:	89 e0       	ldi	r24, 0x09	; 9
    1c50:	68 9f       	mul	r22, r24
    1c52:	c0 01       	movw	r24, r0
    1c54:	11 24       	eor	r1, r1
    1c56:	88 57       	subi	r24, 0x78	; 120
    1c58:	9b 4e       	sbci	r25, 0xEB	; 235
    1c5a:	b7 01       	movw	r22, r14
    1c5c:	0e 94 05 25 	call	0x4a0a	; 0x4a0a <vListInsertEnd>
    1c60:	81 2f       	mov	r24, r17
    1c62:	cd b7       	in	r28, 0x3d	; 61
    1c64:	de b7       	in	r29, 0x3e	; 62
    1c66:	e7 e0       	ldi	r30, 0x07	; 7
    1c68:	0c 94 b8 2c 	jmp	0x5970	; 0x5970 <__epilogue_restores__+0x16>
    1c6c:	0d c0       	rjmp	.+26     	; 0x1c88 <vTaskPlaceOnUnorderedEventList>
    1c6e:	2c 96       	adiw	r28, 0x0c	; 12
    1c70:	82 ec       	ldi	r24, 0xC2	; 194
    1c72:	94 e1       	ldi	r25, 0x14	; 20
    1c74:	be 01       	movw	r22, r28
    1c76:	0e 94 05 25 	call	0x4a0a	; 0x4a0a <vListInsertEnd>
    1c7a:	10 e0       	ldi	r17, 0x00	; 0
    1c7c:	81 2f       	mov	r24, r17
    1c7e:	cd b7       	in	r28, 0x3d	; 61
    1c80:	de b7       	in	r29, 0x3e	; 62
    1c82:	e7 e0       	ldi	r30, 0x07	; 7
    1c84:	0c 94 b8 2c 	jmp	0x5970	; 0x5970 <__epilogue_restores__+0x16>

00001c88 <vTaskPlaceOnUnorderedEventList>:
    1c88:	0f 93       	push	r16
    1c8a:	1f 93       	push	r17
    1c8c:	cf 93       	push	r28
    1c8e:	df 93       	push	r29
    1c90:	8a 01       	movw	r16, r20
    1c92:	e0 91 73 14 	lds	r30, 0x1473
    1c96:	f0 91 74 14 	lds	r31, 0x1474
    1c9a:	70 68       	ori	r23, 0x80	; 128
    1c9c:	75 87       	std	Z+13, r23	; 0x0d
    1c9e:	64 87       	std	Z+12, r22	; 0x0c
    1ca0:	60 91 73 14 	lds	r22, 0x1473
    1ca4:	70 91 74 14 	lds	r23, 0x1474
    1ca8:	64 5f       	subi	r22, 0xF4	; 244
    1caa:	7f 4f       	sbci	r23, 0xFF	; 255
    1cac:	0e 94 05 25 	call	0x4a0a	; 0x4a0a <vListInsertEnd>
    1cb0:	80 91 73 14 	lds	r24, 0x1473
    1cb4:	90 91 74 14 	lds	r25, 0x1474
    1cb8:	02 96       	adiw	r24, 0x02	; 2
    1cba:	0e 94 56 25 	call	0x4aac	; 0x4aac <uxListRemove>
    1cbe:	8f ef       	ldi	r24, 0xFF	; 255
    1cc0:	0f 3f       	cpi	r16, 0xFF	; 255
    1cc2:	18 07       	cpc	r17, r24
    1cc4:	09 f4       	brne	.+2      	; 0x1cc8 <vTaskPlaceOnUnorderedEventList+0x40>
    1cc6:	40 c0       	rjmp	.+128    	; 0x1d48 <vTaskPlaceOnUnorderedEventList+0xc0>
    1cc8:	c0 91 78 14 	lds	r28, 0x1478
    1ccc:	d0 91 79 14 	lds	r29, 0x1479
    1cd0:	c0 0f       	add	r28, r16
    1cd2:	d1 1f       	adc	r29, r17
    1cd4:	e0 91 73 14 	lds	r30, 0x1473
    1cd8:	f0 91 74 14 	lds	r31, 0x1474
    1cdc:	d3 83       	std	Z+3, r29	; 0x03
    1cde:	c2 83       	std	Z+2, r28	; 0x02
    1ce0:	80 91 78 14 	lds	r24, 0x1478
    1ce4:	90 91 79 14 	lds	r25, 0x1479
    1ce8:	c8 17       	cp	r28, r24
    1cea:	d9 07       	cpc	r29, r25
    1cec:	e0 f0       	brcs	.+56     	; 0x1d26 <vTaskPlaceOnUnorderedEventList+0x9e>
    1cee:	80 91 be 14 	lds	r24, 0x14BE
    1cf2:	90 91 bf 14 	lds	r25, 0x14BF
    1cf6:	60 91 73 14 	lds	r22, 0x1473
    1cfa:	70 91 74 14 	lds	r23, 0x1474
    1cfe:	6e 5f       	subi	r22, 0xFE	; 254
    1d00:	7f 4f       	sbci	r23, 0xFF	; 255
    1d02:	0e 94 24 25 	call	0x4a48	; 0x4a48 <vListInsert>
    1d06:	80 91 40 02 	lds	r24, 0x0240
    1d0a:	90 91 41 02 	lds	r25, 0x0241
    1d0e:	c8 17       	cp	r28, r24
    1d10:	d9 07       	cpc	r29, r25
    1d12:	20 f4       	brcc	.+8      	; 0x1d1c <vTaskPlaceOnUnorderedEventList+0x94>
    1d14:	d0 93 41 02 	sts	0x0241, r29
    1d18:	c0 93 40 02 	sts	0x0240, r28
    1d1c:	df 91       	pop	r29
    1d1e:	cf 91       	pop	r28
    1d20:	1f 91       	pop	r17
    1d22:	0f 91       	pop	r16
    1d24:	08 95       	ret
    1d26:	80 91 c0 14 	lds	r24, 0x14C0
    1d2a:	90 91 c1 14 	lds	r25, 0x14C1
    1d2e:	60 91 73 14 	lds	r22, 0x1473
    1d32:	70 91 74 14 	lds	r23, 0x1474
    1d36:	6e 5f       	subi	r22, 0xFE	; 254
    1d38:	7f 4f       	sbci	r23, 0xFF	; 255
    1d3a:	0e 94 24 25 	call	0x4a48	; 0x4a48 <vListInsert>
    1d3e:	df 91       	pop	r29
    1d40:	cf 91       	pop	r28
    1d42:	1f 91       	pop	r17
    1d44:	0f 91       	pop	r16
    1d46:	08 95       	ret
    1d48:	60 91 73 14 	lds	r22, 0x1473
    1d4c:	70 91 74 14 	lds	r23, 0x1474
    1d50:	6e 5f       	subi	r22, 0xFE	; 254
    1d52:	7f 4f       	sbci	r23, 0xFF	; 255
    1d54:	84 ed       	ldi	r24, 0xD4	; 212
    1d56:	94 e1       	ldi	r25, 0x14	; 20
    1d58:	0e 94 05 25 	call	0x4a0a	; 0x4a0a <vListInsertEnd>
    1d5c:	df 91       	pop	r29
    1d5e:	cf 91       	pop	r28
    1d60:	1f 91       	pop	r17
    1d62:	0f 91       	pop	r16
    1d64:	08 95       	ret

00001d66 <vTaskPlaceOnEventList>:
    1d66:	0f 93       	push	r16
    1d68:	1f 93       	push	r17
    1d6a:	cf 93       	push	r28
    1d6c:	df 93       	push	r29
    1d6e:	8b 01       	movw	r16, r22
    1d70:	60 91 73 14 	lds	r22, 0x1473
    1d74:	70 91 74 14 	lds	r23, 0x1474
    1d78:	64 5f       	subi	r22, 0xF4	; 244
    1d7a:	7f 4f       	sbci	r23, 0xFF	; 255
    1d7c:	0e 94 24 25 	call	0x4a48	; 0x4a48 <vListInsert>
    1d80:	80 91 73 14 	lds	r24, 0x1473
    1d84:	90 91 74 14 	lds	r25, 0x1474
    1d88:	02 96       	adiw	r24, 0x02	; 2
    1d8a:	0e 94 56 25 	call	0x4aac	; 0x4aac <uxListRemove>
    1d8e:	8f ef       	ldi	r24, 0xFF	; 255
    1d90:	0f 3f       	cpi	r16, 0xFF	; 255
    1d92:	18 07       	cpc	r17, r24
    1d94:	09 f4       	brne	.+2      	; 0x1d98 <vTaskPlaceOnEventList+0x32>
    1d96:	40 c0       	rjmp	.+128    	; 0x1e18 <vTaskPlaceOnEventList+0xb2>
    1d98:	c0 91 78 14 	lds	r28, 0x1478
    1d9c:	d0 91 79 14 	lds	r29, 0x1479
    1da0:	c0 0f       	add	r28, r16
    1da2:	d1 1f       	adc	r29, r17
    1da4:	e0 91 73 14 	lds	r30, 0x1473
    1da8:	f0 91 74 14 	lds	r31, 0x1474
    1dac:	d3 83       	std	Z+3, r29	; 0x03
    1dae:	c2 83       	std	Z+2, r28	; 0x02
    1db0:	80 91 78 14 	lds	r24, 0x1478
    1db4:	90 91 79 14 	lds	r25, 0x1479
    1db8:	c8 17       	cp	r28, r24
    1dba:	d9 07       	cpc	r29, r25
    1dbc:	e0 f0       	brcs	.+56     	; 0x1df6 <vTaskPlaceOnEventList+0x90>
    1dbe:	80 91 be 14 	lds	r24, 0x14BE
    1dc2:	90 91 bf 14 	lds	r25, 0x14BF
    1dc6:	60 91 73 14 	lds	r22, 0x1473
    1dca:	70 91 74 14 	lds	r23, 0x1474
    1dce:	6e 5f       	subi	r22, 0xFE	; 254
    1dd0:	7f 4f       	sbci	r23, 0xFF	; 255
    1dd2:	0e 94 24 25 	call	0x4a48	; 0x4a48 <vListInsert>
    1dd6:	80 91 40 02 	lds	r24, 0x0240
    1dda:	90 91 41 02 	lds	r25, 0x0241
    1dde:	c8 17       	cp	r28, r24
    1de0:	d9 07       	cpc	r29, r25
    1de2:	20 f4       	brcc	.+8      	; 0x1dec <vTaskPlaceOnEventList+0x86>
    1de4:	d0 93 41 02 	sts	0x0241, r29
    1de8:	c0 93 40 02 	sts	0x0240, r28
    1dec:	df 91       	pop	r29
    1dee:	cf 91       	pop	r28
    1df0:	1f 91       	pop	r17
    1df2:	0f 91       	pop	r16
    1df4:	08 95       	ret
    1df6:	80 91 c0 14 	lds	r24, 0x14C0
    1dfa:	90 91 c1 14 	lds	r25, 0x14C1
    1dfe:	60 91 73 14 	lds	r22, 0x1473
    1e02:	70 91 74 14 	lds	r23, 0x1474
    1e06:	6e 5f       	subi	r22, 0xFE	; 254
    1e08:	7f 4f       	sbci	r23, 0xFF	; 255
    1e0a:	0e 94 24 25 	call	0x4a48	; 0x4a48 <vListInsert>
    1e0e:	df 91       	pop	r29
    1e10:	cf 91       	pop	r28
    1e12:	1f 91       	pop	r17
    1e14:	0f 91       	pop	r16
    1e16:	08 95       	ret
    1e18:	60 91 73 14 	lds	r22, 0x1473
    1e1c:	70 91 74 14 	lds	r23, 0x1474
    1e20:	6e 5f       	subi	r22, 0xFE	; 254
    1e22:	7f 4f       	sbci	r23, 0xFF	; 255
    1e24:	84 ed       	ldi	r24, 0xD4	; 212
    1e26:	94 e1       	ldi	r25, 0x14	; 20
    1e28:	0e 94 05 25 	call	0x4a0a	; 0x4a0a <vListInsertEnd>
    1e2c:	df 91       	pop	r29
    1e2e:	cf 91       	pop	r28
    1e30:	1f 91       	pop	r17
    1e32:	0f 91       	pop	r16
    1e34:	08 95       	ret

00001e36 <vTaskSwitchContext>:
    1e36:	ef 92       	push	r14
    1e38:	ff 92       	push	r15
    1e3a:	0f 93       	push	r16
    1e3c:	1f 93       	push	r17
    1e3e:	80 91 7b 14 	lds	r24, 0x147B
    1e42:	88 23       	and	r24, r24
    1e44:	09 f0       	breq	.+2      	; 0x1e48 <vTaskSwitchContext+0x12>
    1e46:	93 c0       	rjmp	.+294    	; 0x1f6e <vTaskSwitchContext+0x138>
    1e48:	10 92 77 14 	sts	0x1477, r1
    1e4c:	80 91 84 00 	lds	r24, 0x0084
    1e50:	90 91 85 00 	lds	r25, 0x0085
    1e54:	7c 01       	movw	r14, r24
    1e56:	00 e0       	ldi	r16, 0x00	; 0
    1e58:	10 e0       	ldi	r17, 0x00	; 0
    1e5a:	e0 92 7c 14 	sts	0x147C, r14
    1e5e:	f0 92 7d 14 	sts	0x147D, r15
    1e62:	00 93 7e 14 	sts	0x147E, r16
    1e66:	10 93 7f 14 	sts	0x147F, r17
    1e6a:	80 91 80 14 	lds	r24, 0x1480
    1e6e:	90 91 81 14 	lds	r25, 0x1481
    1e72:	a0 91 82 14 	lds	r26, 0x1482
    1e76:	b0 91 83 14 	lds	r27, 0x1483
    1e7a:	8e 15       	cp	r24, r14
    1e7c:	9f 05       	cpc	r25, r15
    1e7e:	a0 07       	cpc	r26, r16
    1e80:	b1 07       	cpc	r27, r17
    1e82:	b0 f4       	brcc	.+44     	; 0x1eb0 <vTaskSwitchContext+0x7a>
    1e84:	e0 91 73 14 	lds	r30, 0x1473
    1e88:	f0 91 74 14 	lds	r31, 0x1474
    1e8c:	a8 01       	movw	r20, r16
    1e8e:	97 01       	movw	r18, r14
    1e90:	28 1b       	sub	r18, r24
    1e92:	39 0b       	sbc	r19, r25
    1e94:	4a 0b       	sbc	r20, r26
    1e96:	5b 0b       	sbc	r21, r27
    1e98:	84 a1       	ldd	r24, Z+36	; 0x24
    1e9a:	95 a1       	ldd	r25, Z+37	; 0x25
    1e9c:	a6 a1       	ldd	r26, Z+38	; 0x26
    1e9e:	b7 a1       	ldd	r27, Z+39	; 0x27
    1ea0:	82 0f       	add	r24, r18
    1ea2:	93 1f       	adc	r25, r19
    1ea4:	a4 1f       	adc	r26, r20
    1ea6:	b5 1f       	adc	r27, r21
    1ea8:	84 a3       	std	Z+36, r24	; 0x24
    1eaa:	95 a3       	std	Z+37, r25	; 0x25
    1eac:	a6 a3       	std	Z+38, r26	; 0x26
    1eae:	b7 a3       	std	Z+39, r27	; 0x27
    1eb0:	e0 92 80 14 	sts	0x1480, r14
    1eb4:	f0 92 81 14 	sts	0x1481, r15
    1eb8:	00 93 82 14 	sts	0x1482, r16
    1ebc:	10 93 83 14 	sts	0x1483, r17
    1ec0:	e0 91 73 14 	lds	r30, 0x1473
    1ec4:	f0 91 74 14 	lds	r31, 0x1474
    1ec8:	a0 91 73 14 	lds	r26, 0x1473
    1ecc:	b0 91 74 14 	lds	r27, 0x1474
    1ed0:	20 81       	ld	r18, Z
    1ed2:	31 81       	ldd	r19, Z+1	; 0x01
    1ed4:	57 96       	adiw	r26, 0x17	; 23
    1ed6:	8d 91       	ld	r24, X+
    1ed8:	9c 91       	ld	r25, X
    1eda:	58 97       	sbiw	r26, 0x18	; 24
    1edc:	82 17       	cp	r24, r18
    1ede:	93 07       	cpc	r25, r19
    1ee0:	90 f0       	brcs	.+36     	; 0x1f06 <vTaskSwitchContext+0xd0>
    1ee2:	80 91 73 14 	lds	r24, 0x1473
    1ee6:	90 91 74 14 	lds	r25, 0x1474
    1eea:	60 91 73 14 	lds	r22, 0x1473
    1eee:	70 91 74 14 	lds	r23, 0x1474
    1ef2:	67 5e       	subi	r22, 0xE7	; 231
    1ef4:	7f 4f       	sbci	r23, 0xFF	; 255
    1ef6:	0e 94 a6 08 	call	0x114c	; 0x114c <vApplicationStackOverflowHook>
    1efa:	05 c0       	rjmp	.+10     	; 0x1f06 <vTaskSwitchContext+0xd0>
    1efc:	80 91 76 14 	lds	r24, 0x1476
    1f00:	81 50       	subi	r24, 0x01	; 1
    1f02:	80 93 76 14 	sts	0x1476, r24
    1f06:	80 91 76 14 	lds	r24, 0x1476
    1f0a:	90 e0       	ldi	r25, 0x00	; 0
    1f0c:	fc 01       	movw	r30, r24
    1f0e:	ee 0f       	add	r30, r30
    1f10:	ff 1f       	adc	r31, r31
    1f12:	ee 0f       	add	r30, r30
    1f14:	ff 1f       	adc	r31, r31
    1f16:	ee 0f       	add	r30, r30
    1f18:	ff 1f       	adc	r31, r31
    1f1a:	e8 0f       	add	r30, r24
    1f1c:	f9 1f       	adc	r31, r25
    1f1e:	e8 57       	subi	r30, 0x78	; 120
    1f20:	fb 4e       	sbci	r31, 0xEB	; 235
    1f22:	80 81       	ld	r24, Z
    1f24:	88 23       	and	r24, r24
    1f26:	51 f3       	breq	.-44     	; 0x1efc <vTaskSwitchContext+0xc6>
    1f28:	90 91 76 14 	lds	r25, 0x1476
    1f2c:	89 e0       	ldi	r24, 0x09	; 9
    1f2e:	98 9f       	mul	r25, r24
    1f30:	d0 01       	movw	r26, r0
    1f32:	11 24       	eor	r1, r1
    1f34:	a8 57       	subi	r26, 0x78	; 120
    1f36:	bb 4e       	sbci	r27, 0xEB	; 235
    1f38:	11 96       	adiw	r26, 0x01	; 1
    1f3a:	ed 91       	ld	r30, X+
    1f3c:	fc 91       	ld	r31, X
    1f3e:	12 97       	sbiw	r26, 0x02	; 2
    1f40:	02 80       	ldd	r0, Z+2	; 0x02
    1f42:	f3 81       	ldd	r31, Z+3	; 0x03
    1f44:	e0 2d       	mov	r30, r0
    1f46:	12 96       	adiw	r26, 0x02	; 2
    1f48:	fc 93       	st	X, r31
    1f4a:	ee 93       	st	-X, r30
    1f4c:	11 97       	sbiw	r26, 0x01	; 1
    1f4e:	cd 01       	movw	r24, r26
    1f50:	03 96       	adiw	r24, 0x03	; 3
    1f52:	e8 17       	cp	r30, r24
    1f54:	f9 07       	cpc	r31, r25
    1f56:	99 f0       	breq	.+38     	; 0x1f7e <vTaskSwitchContext+0x148>
    1f58:	86 81       	ldd	r24, Z+6	; 0x06
    1f5a:	97 81       	ldd	r25, Z+7	; 0x07
    1f5c:	90 93 74 14 	sts	0x1474, r25
    1f60:	80 93 73 14 	sts	0x1473, r24
    1f64:	1f 91       	pop	r17
    1f66:	0f 91       	pop	r16
    1f68:	ff 90       	pop	r15
    1f6a:	ef 90       	pop	r14
    1f6c:	08 95       	ret
    1f6e:	81 e0       	ldi	r24, 0x01	; 1
    1f70:	80 93 77 14 	sts	0x1477, r24
    1f74:	1f 91       	pop	r17
    1f76:	0f 91       	pop	r16
    1f78:	ff 90       	pop	r15
    1f7a:	ef 90       	pop	r14
    1f7c:	08 95       	ret
    1f7e:	82 81       	ldd	r24, Z+2	; 0x02
    1f80:	93 81       	ldd	r25, Z+3	; 0x03
    1f82:	11 96       	adiw	r26, 0x01	; 1
    1f84:	8c 93       	st	X, r24
    1f86:	11 97       	sbiw	r26, 0x01	; 1
    1f88:	12 96       	adiw	r26, 0x02	; 2
    1f8a:	9c 93       	st	X, r25
    1f8c:	9c 01       	movw	r18, r24
    1f8e:	f9 01       	movw	r30, r18
    1f90:	e3 cf       	rjmp	.-58     	; 0x1f58 <vTaskSwitchContext+0x122>

00001f92 <xTaskResumeAll>:
    1f92:	a0 e0       	ldi	r26, 0x00	; 0
    1f94:	b0 e0       	ldi	r27, 0x00	; 0
    1f96:	ef ec       	ldi	r30, 0xCF	; 207
    1f98:	ff e0       	ldi	r31, 0x0F	; 15
    1f9a:	0c 94 98 2c 	jmp	0x5930	; 0x5930 <__prologue_saves__+0xe>
    1f9e:	0f b6       	in	r0, 0x3f	; 63
    1fa0:	f8 94       	cli
    1fa2:	0f 92       	push	r0
    1fa4:	80 91 7b 14 	lds	r24, 0x147B
    1fa8:	81 50       	subi	r24, 0x01	; 1
    1faa:	80 93 7b 14 	sts	0x147B, r24
    1fae:	80 91 7b 14 	lds	r24, 0x147B
    1fb2:	88 23       	and	r24, r24
    1fb4:	09 f0       	breq	.+2      	; 0x1fb8 <xTaskResumeAll+0x26>
    1fb6:	ed c0       	rjmp	.+474    	; 0x2192 <xTaskResumeAll+0x200>
    1fb8:	80 91 75 14 	lds	r24, 0x1475
    1fbc:	88 23       	and	r24, r24
    1fbe:	09 f4       	brne	.+2      	; 0x1fc2 <xTaskResumeAll+0x30>
    1fc0:	e8 c0       	rjmp	.+464    	; 0x2192 <xTaskResumeAll+0x200>
    1fc2:	f9 e0       	ldi	r31, 0x09	; 9
    1fc4:	ff 2e       	mov	r15, r31
    1fc6:	ee 24       	eor	r14, r14
    1fc8:	e3 94       	inc	r14
    1fca:	80 91 c2 14 	lds	r24, 0x14C2
    1fce:	88 23       	and	r24, r24
    1fd0:	69 f1       	breq	.+90     	; 0x202c <xTaskResumeAll+0x9a>
    1fd2:	e0 91 c7 14 	lds	r30, 0x14C7
    1fd6:	f0 91 c8 14 	lds	r31, 0x14C8
    1fda:	c6 81       	ldd	r28, Z+6	; 0x06
    1fdc:	d7 81       	ldd	r29, Z+7	; 0x07
    1fde:	ce 01       	movw	r24, r28
    1fe0:	0c 96       	adiw	r24, 0x0c	; 12
    1fe2:	0e 94 56 25 	call	0x4aac	; 0x4aac <uxListRemove>
    1fe6:	8e 01       	movw	r16, r28
    1fe8:	0e 5f       	subi	r16, 0xFE	; 254
    1fea:	1f 4f       	sbci	r17, 0xFF	; 255
    1fec:	c8 01       	movw	r24, r16
    1fee:	0e 94 56 25 	call	0x4aac	; 0x4aac <uxListRemove>
    1ff2:	9e 89       	ldd	r25, Y+22	; 0x16
    1ff4:	80 91 76 14 	lds	r24, 0x1476
    1ff8:	89 17       	cp	r24, r25
    1ffa:	10 f4       	brcc	.+4      	; 0x2000 <xTaskResumeAll+0x6e>
    1ffc:	90 93 76 14 	sts	0x1476, r25
    2000:	9f 9d       	mul	r25, r15
    2002:	c0 01       	movw	r24, r0
    2004:	11 24       	eor	r1, r1
    2006:	88 57       	subi	r24, 0x78	; 120
    2008:	9b 4e       	sbci	r25, 0xEB	; 235
    200a:	b8 01       	movw	r22, r16
    200c:	0e 94 05 25 	call	0x4a0a	; 0x4a0a <vListInsertEnd>
    2010:	e0 91 73 14 	lds	r30, 0x1473
    2014:	f0 91 74 14 	lds	r31, 0x1474
    2018:	9e 89       	ldd	r25, Y+22	; 0x16
    201a:	86 89       	ldd	r24, Z+22	; 0x16
    201c:	98 17       	cp	r25, r24
    201e:	a8 f2       	brcs	.-86     	; 0x1fca <xTaskResumeAll+0x38>
    2020:	e0 92 77 14 	sts	0x1477, r14
    2024:	80 91 c2 14 	lds	r24, 0x14C2
    2028:	88 23       	and	r24, r24
    202a:	99 f6       	brne	.-90     	; 0x1fd2 <xTaskResumeAll+0x40>
    202c:	80 91 84 14 	lds	r24, 0x1484
    2030:	88 23       	and	r24, r24
    2032:	09 f4       	brne	.+2      	; 0x2036 <xTaskResumeAll+0xa4>
    2034:	aa c0       	rjmp	.+340    	; 0x218a <xTaskResumeAll+0x1f8>
    2036:	80 91 84 14 	lds	r24, 0x1484
    203a:	88 23       	and	r24, r24
    203c:	09 f4       	brne	.+2      	; 0x2040 <xTaskResumeAll+0xae>
    203e:	a5 c0       	rjmp	.+330    	; 0x218a <xTaskResumeAll+0x1f8>
    2040:	e9 e0       	ldi	r30, 0x09	; 9
    2042:	ce 2e       	mov	r12, r30
    2044:	aa 24       	eor	r10, r10
    2046:	aa 94       	dec	r10
    2048:	ba 2c       	mov	r11, r10
    204a:	99 24       	eor	r9, r9
    204c:	93 94       	inc	r9
    204e:	80 91 7b 14 	lds	r24, 0x147B
    2052:	88 23       	and	r24, r24
    2054:	09 f0       	breq	.+2      	; 0x2058 <xTaskResumeAll+0xc6>
    2056:	83 c0       	rjmp	.+262    	; 0x215e <xTaskResumeAll+0x1cc>
    2058:	80 91 78 14 	lds	r24, 0x1478
    205c:	90 91 79 14 	lds	r25, 0x1479
    2060:	01 96       	adiw	r24, 0x01	; 1
    2062:	90 93 79 14 	sts	0x1479, r25
    2066:	80 93 78 14 	sts	0x1478, r24
    206a:	e0 90 78 14 	lds	r14, 0x1478
    206e:	f0 90 79 14 	lds	r15, 0x1479
    2072:	e1 14       	cp	r14, r1
    2074:	f1 04       	cpc	r15, r1
    2076:	09 f5       	brne	.+66     	; 0x20ba <xTaskResumeAll+0x128>
    2078:	20 91 be 14 	lds	r18, 0x14BE
    207c:	30 91 bf 14 	lds	r19, 0x14BF
    2080:	80 91 c0 14 	lds	r24, 0x14C0
    2084:	90 91 c1 14 	lds	r25, 0x14C1
    2088:	90 93 bf 14 	sts	0x14BF, r25
    208c:	80 93 be 14 	sts	0x14BE, r24
    2090:	30 93 c1 14 	sts	0x14C1, r19
    2094:	20 93 c0 14 	sts	0x14C0, r18
    2098:	80 91 7a 14 	lds	r24, 0x147A
    209c:	8f 5f       	subi	r24, 0xFF	; 255
    209e:	80 93 7a 14 	sts	0x147A, r24
    20a2:	e0 91 be 14 	lds	r30, 0x14BE
    20a6:	f0 91 bf 14 	lds	r31, 0x14BF
    20aa:	80 81       	ld	r24, Z
    20ac:	88 23       	and	r24, r24
    20ae:	09 f0       	breq	.+2      	; 0x20b2 <xTaskResumeAll+0x120>
    20b0:	97 c0       	rjmp	.+302    	; 0x21e0 <xTaskResumeAll+0x24e>
    20b2:	b0 92 41 02 	sts	0x0241, r11
    20b6:	a0 92 40 02 	sts	0x0240, r10
    20ba:	80 91 40 02 	lds	r24, 0x0240
    20be:	90 91 41 02 	lds	r25, 0x0241
    20c2:	e8 16       	cp	r14, r24
    20c4:	f9 06       	cpc	r15, r25
    20c6:	08 f4       	brcc	.+2      	; 0x20ca <xTaskResumeAll+0x138>
    20c8:	73 c0       	rjmp	.+230    	; 0x21b0 <xTaskResumeAll+0x21e>
    20ca:	dd 24       	eor	r13, r13
    20cc:	e0 91 be 14 	lds	r30, 0x14BE
    20d0:	f0 91 bf 14 	lds	r31, 0x14BF
    20d4:	80 81       	ld	r24, Z
    20d6:	88 23       	and	r24, r24
    20d8:	e9 f1       	breq	.+122    	; 0x2154 <xTaskResumeAll+0x1c2>
    20da:	e0 91 be 14 	lds	r30, 0x14BE
    20de:	f0 91 bf 14 	lds	r31, 0x14BF
    20e2:	05 80       	ldd	r0, Z+5	; 0x05
    20e4:	f6 81       	ldd	r31, Z+6	; 0x06
    20e6:	e0 2d       	mov	r30, r0
    20e8:	c6 81       	ldd	r28, Z+6	; 0x06
    20ea:	d7 81       	ldd	r29, Z+7	; 0x07
    20ec:	8a 81       	ldd	r24, Y+2	; 0x02
    20ee:	9b 81       	ldd	r25, Y+3	; 0x03
    20f0:	e8 16       	cp	r14, r24
    20f2:	f9 06       	cpc	r15, r25
    20f4:	08 f4       	brcc	.+2      	; 0x20f8 <xTaskResumeAll+0x166>
    20f6:	85 c0       	rjmp	.+266    	; 0x2202 <__stack+0x3>
    20f8:	8e 01       	movw	r16, r28
    20fa:	0e 5f       	subi	r16, 0xFE	; 254
    20fc:	1f 4f       	sbci	r17, 0xFF	; 255
    20fe:	c8 01       	movw	r24, r16
    2100:	0e 94 56 25 	call	0x4aac	; 0x4aac <uxListRemove>
    2104:	8c 89       	ldd	r24, Y+20	; 0x14
    2106:	9d 89       	ldd	r25, Y+21	; 0x15
    2108:	89 2b       	or	r24, r25
    210a:	21 f0       	breq	.+8      	; 0x2114 <xTaskResumeAll+0x182>
    210c:	ce 01       	movw	r24, r28
    210e:	0c 96       	adiw	r24, 0x0c	; 12
    2110:	0e 94 56 25 	call	0x4aac	; 0x4aac <uxListRemove>
    2114:	9e 89       	ldd	r25, Y+22	; 0x16
    2116:	80 91 76 14 	lds	r24, 0x1476
    211a:	89 17       	cp	r24, r25
    211c:	10 f4       	brcc	.+4      	; 0x2122 <xTaskResumeAll+0x190>
    211e:	90 93 76 14 	sts	0x1476, r25
    2122:	9c 9d       	mul	r25, r12
    2124:	c0 01       	movw	r24, r0
    2126:	11 24       	eor	r1, r1
    2128:	88 57       	subi	r24, 0x78	; 120
    212a:	9b 4e       	sbci	r25, 0xEB	; 235
    212c:	b8 01       	movw	r22, r16
    212e:	0e 94 05 25 	call	0x4a0a	; 0x4a0a <vListInsertEnd>
    2132:	e0 91 73 14 	lds	r30, 0x1473
    2136:	f0 91 74 14 	lds	r31, 0x1474
    213a:	9e 89       	ldd	r25, Y+22	; 0x16
    213c:	86 89       	ldd	r24, Z+22	; 0x16
    213e:	98 17       	cp	r25, r24
    2140:	28 f2       	brcs	.-118    	; 0x20cc <xTaskResumeAll+0x13a>
    2142:	dd 24       	eor	r13, r13
    2144:	d3 94       	inc	r13
    2146:	e0 91 be 14 	lds	r30, 0x14BE
    214a:	f0 91 bf 14 	lds	r31, 0x14BF
    214e:	80 81       	ld	r24, Z
    2150:	88 23       	and	r24, r24
    2152:	19 f6       	brne	.-122    	; 0x20da <xTaskResumeAll+0x148>
    2154:	b0 92 41 02 	sts	0x0241, r11
    2158:	a0 92 40 02 	sts	0x0240, r10
    215c:	2a c0       	rjmp	.+84     	; 0x21b2 <xTaskResumeAll+0x220>
    215e:	80 91 84 14 	lds	r24, 0x1484
    2162:	8f 5f       	subi	r24, 0xFF	; 255
    2164:	80 93 84 14 	sts	0x1484, r24
    2168:	dd 24       	eor	r13, r13
    216a:	80 91 77 14 	lds	r24, 0x1477
    216e:	88 23       	and	r24, r24
    2170:	e1 f4       	brne	.+56     	; 0x21aa <xTaskResumeAll+0x218>
    2172:	dd 20       	and	r13, r13
    2174:	d1 f4       	brne	.+52     	; 0x21aa <xTaskResumeAll+0x218>
    2176:	80 91 84 14 	lds	r24, 0x1484
    217a:	81 50       	subi	r24, 0x01	; 1
    217c:	80 93 84 14 	sts	0x1484, r24
    2180:	80 91 84 14 	lds	r24, 0x1484
    2184:	88 23       	and	r24, r24
    2186:	09 f0       	breq	.+2      	; 0x218a <xTaskResumeAll+0x1f8>
    2188:	62 cf       	rjmp	.-316    	; 0x204e <xTaskResumeAll+0xbc>
    218a:	80 91 77 14 	lds	r24, 0x1477
    218e:	81 30       	cpi	r24, 0x01	; 1
    2190:	41 f0       	breq	.+16     	; 0x21a2 <xTaskResumeAll+0x210>
    2192:	80 e0       	ldi	r24, 0x00	; 0
    2194:	0f 90       	pop	r0
    2196:	0f be       	out	0x3f, r0	; 63
    2198:	cd b7       	in	r28, 0x3d	; 61
    219a:	de b7       	in	r29, 0x3e	; 62
    219c:	eb e0       	ldi	r30, 0x0B	; 11
    219e:	0c 94 b4 2c 	jmp	0x5968	; 0x5968 <__epilogue_restores__+0xe>
    21a2:	0e 94 90 24 	call	0x4920	; 0x4920 <vPortYield>
    21a6:	81 e0       	ldi	r24, 0x01	; 1
    21a8:	f5 cf       	rjmp	.-22     	; 0x2194 <xTaskResumeAll+0x202>
    21aa:	90 92 77 14 	sts	0x1477, r9
    21ae:	e3 cf       	rjmp	.-58     	; 0x2176 <xTaskResumeAll+0x1e4>
    21b0:	dd 24       	eor	r13, r13
    21b2:	e0 91 73 14 	lds	r30, 0x1473
    21b6:	f0 91 74 14 	lds	r31, 0x1474
    21ba:	86 89       	ldd	r24, Z+22	; 0x16
    21bc:	90 e0       	ldi	r25, 0x00	; 0
    21be:	fc 01       	movw	r30, r24
    21c0:	ee 0f       	add	r30, r30
    21c2:	ff 1f       	adc	r31, r31
    21c4:	ee 0f       	add	r30, r30
    21c6:	ff 1f       	adc	r31, r31
    21c8:	ee 0f       	add	r30, r30
    21ca:	ff 1f       	adc	r31, r31
    21cc:	e8 0f       	add	r30, r24
    21ce:	f9 1f       	adc	r31, r25
    21d0:	e8 57       	subi	r30, 0x78	; 120
    21d2:	fb 4e       	sbci	r31, 0xEB	; 235
    21d4:	80 81       	ld	r24, Z
    21d6:	82 30       	cpi	r24, 0x02	; 2
    21d8:	40 f2       	brcs	.-112    	; 0x216a <xTaskResumeAll+0x1d8>
    21da:	dd 24       	eor	r13, r13
    21dc:	d3 94       	inc	r13
    21de:	c5 cf       	rjmp	.-118    	; 0x216a <xTaskResumeAll+0x1d8>
    21e0:	e0 91 be 14 	lds	r30, 0x14BE
    21e4:	f0 91 bf 14 	lds	r31, 0x14BF
    21e8:	05 80       	ldd	r0, Z+5	; 0x05
    21ea:	f6 81       	ldd	r31, Z+6	; 0x06
    21ec:	e0 2d       	mov	r30, r0
    21ee:	06 80       	ldd	r0, Z+6	; 0x06
    21f0:	f7 81       	ldd	r31, Z+7	; 0x07
    21f2:	e0 2d       	mov	r30, r0
    21f4:	82 81       	ldd	r24, Z+2	; 0x02
    21f6:	93 81       	ldd	r25, Z+3	; 0x03
    21f8:	90 93 41 02 	sts	0x0241, r25
    21fc:	80 93 40 02 	sts	0x0240, r24
    2200:	5c cf       	rjmp	.-328    	; 0x20ba <xTaskResumeAll+0x128>
    2202:	90 93 41 02 	sts	0x0241, r25
    2206:	80 93 40 02 	sts	0x0240, r24
    220a:	d3 cf       	rjmp	.-90     	; 0x21b2 <xTaskResumeAll+0x220>

0000220c <vTaskGetRunTimeStats>:
    220c:	a4 e0       	ldi	r26, 0x04	; 4
    220e:	b0 e0       	ldi	r27, 0x00	; 0
    2210:	ec e0       	ldi	r30, 0x0C	; 12
    2212:	f1 e1       	ldi	r31, 0x11	; 17
    2214:	0c 94 91 2c 	jmp	0x5922	; 0x5922 <__prologue_saves__>
    2218:	1c 01       	movw	r2, r24
    221a:	dc 01       	movw	r26, r24
    221c:	1c 92       	st	X, r1
    221e:	80 91 75 14 	lds	r24, 0x1475
    2222:	89 83       	std	Y+1, r24	; 0x01
    2224:	90 91 75 14 	lds	r25, 0x1475
    2228:	8f e0       	ldi	r24, 0x0F	; 15
    222a:	98 9f       	mul	r25, r24
    222c:	c0 01       	movw	r24, r0
    222e:	11 24       	eor	r1, r1
    2230:	0e 94 b1 09 	call	0x1362	; 0x1362 <pvPortMalloc>
    2234:	2c 01       	movw	r4, r24
    2236:	00 97       	sbiw	r24, 0x00	; 0
    2238:	09 f4       	brne	.+2      	; 0x223c <vTaskGetRunTimeStats+0x30>
    223a:	ad c0       	rjmp	.+346    	; 0x2396 <vTaskGetRunTimeStats+0x18a>
    223c:	89 81       	ldd	r24, Y+1	; 0x01
    223e:	90 91 7b 14 	lds	r25, 0x147B
    2242:	9f 5f       	subi	r25, 0xFF	; 255
    2244:	90 93 7b 14 	sts	0x147B, r25
    2248:	90 91 75 14 	lds	r25, 0x1475
    224c:	89 17       	cp	r24, r25
    224e:	08 f4       	brcc	.+2      	; 0x2252 <vTaskGetRunTimeStats+0x46>
    2250:	a6 c0       	rjmp	.+332    	; 0x239e <vTaskGetRunTimeStats+0x192>
    2252:	84 e0       	ldi	r24, 0x04	; 4
    2254:	c8 2e       	mov	r12, r24
    2256:	1c 82       	std	Y+4, r1	; 0x04
    2258:	ca 94       	dec	r12
    225a:	bc 81       	ldd	r27, Y+4	; 0x04
    225c:	ef e0       	ldi	r30, 0x0F	; 15
    225e:	be 9f       	mul	r27, r30
    2260:	50 01       	movw	r10, r0
    2262:	11 24       	eor	r1, r1
    2264:	a4 0c       	add	r10, r4
    2266:	b5 1c       	adc	r11, r5
    2268:	f9 e0       	ldi	r31, 0x09	; 9
    226a:	cf 9e       	mul	r12, r31
    226c:	70 01       	movw	r14, r0
    226e:	11 24       	eor	r1, r1
    2270:	48 e8       	ldi	r20, 0x88	; 136
    2272:	54 e1       	ldi	r21, 0x14	; 20
    2274:	e4 0e       	add	r14, r20
    2276:	f5 1e       	adc	r15, r21
    2278:	d7 01       	movw	r26, r14
    227a:	8c 91       	ld	r24, X
    227c:	88 23       	and	r24, r24
    227e:	09 f4       	brne	.+2      	; 0x2282 <vTaskGetRunTimeStats+0x76>
    2280:	84 c1       	rjmp	.+776    	; 0x258a <vTaskGetRunTimeStats+0x37e>
    2282:	11 96       	adiw	r26, 0x01	; 1
    2284:	ed 91       	ld	r30, X+
    2286:	fc 91       	ld	r31, X
    2288:	12 97       	sbiw	r26, 0x02	; 2
    228a:	02 80       	ldd	r0, Z+2	; 0x02
    228c:	f3 81       	ldd	r31, Z+3	; 0x03
    228e:	e0 2d       	mov	r30, r0
    2290:	12 96       	adiw	r26, 0x02	; 2
    2292:	fc 93       	st	X, r31
    2294:	ee 93       	st	-X, r30
    2296:	11 97       	sbiw	r26, 0x01	; 1
    2298:	03 e0       	ldi	r16, 0x03	; 3
    229a:	80 2e       	mov	r8, r16
    229c:	91 2c       	mov	r9, r1
    229e:	8e 0c       	add	r8, r14
    22a0:	9f 1c       	adc	r9, r15
    22a2:	e8 15       	cp	r30, r8
    22a4:	f9 05       	cpc	r31, r9
    22a6:	09 f4       	brne	.+2      	; 0x22aa <vTaskGetRunTimeStats+0x9e>
    22a8:	2c c5       	rjmp	.+2648   	; 0x2d02 <vTaskGetRunTimeStats+0xaf6>
    22aa:	66 80       	ldd	r6, Z+6	; 0x06
    22ac:	77 80       	ldd	r7, Z+7	; 0x07
    22ae:	dd 24       	eor	r13, r13
    22b0:	82 81       	ldd	r24, Z+2	; 0x02
    22b2:	93 81       	ldd	r25, Z+3	; 0x03
    22b4:	f7 01       	movw	r30, r14
    22b6:	92 83       	std	Z+2, r25	; 0x02
    22b8:	81 83       	std	Z+1, r24	; 0x01
    22ba:	88 16       	cp	r8, r24
    22bc:	99 06       	cpc	r9, r25
    22be:	09 f4       	brne	.+2      	; 0x22c2 <vTaskGetRunTimeStats+0xb6>
    22c0:	5f c0       	rjmp	.+190    	; 0x2380 <vTaskGetRunTimeStats+0x174>
    22c2:	d7 01       	movw	r26, r14
    22c4:	11 96       	adiw	r26, 0x01	; 1
    22c6:	ed 91       	ld	r30, X+
    22c8:	fc 91       	ld	r31, X
    22ca:	12 97       	sbiw	r26, 0x02	; 2
    22cc:	66 81       	ldd	r22, Z+6	; 0x06
    22ce:	77 81       	ldd	r23, Z+7	; 0x07
    22d0:	bf e0       	ldi	r27, 0x0F	; 15
    22d2:	db 9e       	mul	r13, r27
    22d4:	80 01       	movw	r16, r0
    22d6:	11 24       	eor	r1, r1
    22d8:	0a 0d       	add	r16, r10
    22da:	1b 1d       	adc	r17, r11
    22dc:	f8 01       	movw	r30, r16
    22de:	71 83       	std	Z+1, r23	; 0x01
    22e0:	60 83       	st	Z, r22
    22e2:	67 5e       	subi	r22, 0xE7	; 231
    22e4:	7f 4f       	sbci	r23, 0xFF	; 255
    22e6:	73 83       	std	Z+3, r23	; 0x03
    22e8:	62 83       	std	Z+2, r22	; 0x02
    22ea:	69 51       	subi	r22, 0x19	; 25
    22ec:	70 40       	sbci	r23, 0x00	; 0
    22ee:	db 01       	movw	r26, r22
    22f0:	91 96       	adiw	r26, 0x21	; 33
    22f2:	8c 91       	ld	r24, X
    22f4:	91 97       	sbiw	r26, 0x21	; 33
    22f6:	84 83       	std	Z+4, r24	; 0x04
    22f8:	41 e0       	ldi	r20, 0x01	; 1
    22fa:	50 e0       	ldi	r21, 0x00	; 0
    22fc:	56 83       	std	Z+6, r21	; 0x06
    22fe:	45 83       	std	Z+5, r20	; 0x05
    2300:	56 96       	adiw	r26, 0x16	; 22
    2302:	8c 91       	ld	r24, X
    2304:	56 97       	sbiw	r26, 0x16	; 22
    2306:	87 83       	std	Z+7, r24	; 0x07
    2308:	93 96       	adiw	r26, 0x23	; 35
    230a:	8c 91       	ld	r24, X
    230c:	93 97       	sbiw	r26, 0x23	; 35
    230e:	80 87       	std	Z+8, r24	; 0x08
    2310:	94 96       	adiw	r26, 0x24	; 36
    2312:	8d 91       	ld	r24, X+
    2314:	9d 91       	ld	r25, X+
    2316:	0d 90       	ld	r0, X+
    2318:	bc 91       	ld	r27, X
    231a:	a0 2d       	mov	r26, r0
    231c:	81 87       	std	Z+9, r24	; 0x09
    231e:	92 87       	std	Z+10, r25	; 0x0a
    2320:	a3 87       	std	Z+11, r26	; 0x0b
    2322:	b4 87       	std	Z+12, r27	; 0x0c
    2324:	fb 01       	movw	r30, r22
    2326:	a7 89       	ldd	r26, Z+23	; 0x17
    2328:	b0 8d       	ldd	r27, Z+24	; 0x18
    232a:	8c 91       	ld	r24, X
    232c:	85 3a       	cpi	r24, 0xA5	; 165
    232e:	09 f0       	breq	.+2      	; 0x2332 <vTaskGetRunTimeStats+0x126>
    2330:	d4 c2       	rjmp	.+1448   	; 0x28da <vTaskGetRunTimeStats+0x6ce>
    2332:	20 e0       	ldi	r18, 0x00	; 0
    2334:	30 e0       	ldi	r19, 0x00	; 0
    2336:	40 e0       	ldi	r20, 0x00	; 0
    2338:	50 e0       	ldi	r21, 0x00	; 0
    233a:	2f 5f       	subi	r18, 0xFF	; 255
    233c:	3f 4f       	sbci	r19, 0xFF	; 255
    233e:	4f 4f       	sbci	r20, 0xFF	; 255
    2340:	5f 4f       	sbci	r21, 0xFF	; 255
    2342:	fd 01       	movw	r30, r26
    2344:	e2 0f       	add	r30, r18
    2346:	f3 1f       	adc	r31, r19
    2348:	80 81       	ld	r24, Z
    234a:	85 3a       	cpi	r24, 0xA5	; 165
    234c:	b1 f3       	breq	.-20     	; 0x233a <vTaskGetRunTimeStats+0x12e>
    234e:	c9 01       	movw	r24, r18
    2350:	d8 01       	movw	r26, r16
    2352:	1e 96       	adiw	r26, 0x0e	; 14
    2354:	9c 93       	st	X, r25
    2356:	8e 93       	st	-X, r24
    2358:	1d 97       	sbiw	r26, 0x0d	; 13
    235a:	d3 94       	inc	r13
    235c:	66 16       	cp	r6, r22
    235e:	77 06       	cpc	r7, r23
    2360:	09 f4       	brne	.+2      	; 0x2364 <vTaskGetRunTimeStats+0x158>
    2362:	14 c1       	rjmp	.+552    	; 0x258c <vTaskGetRunTimeStats+0x380>
    2364:	d7 01       	movw	r26, r14
    2366:	11 96       	adiw	r26, 0x01	; 1
    2368:	ed 91       	ld	r30, X+
    236a:	fc 91       	ld	r31, X
    236c:	12 97       	sbiw	r26, 0x02	; 2
    236e:	82 81       	ldd	r24, Z+2	; 0x02
    2370:	93 81       	ldd	r25, Z+3	; 0x03
    2372:	f7 01       	movw	r30, r14
    2374:	92 83       	std	Z+2, r25	; 0x02
    2376:	81 83       	std	Z+1, r24	; 0x01
    2378:	88 16       	cp	r8, r24
    237a:	99 06       	cpc	r9, r25
    237c:	09 f0       	breq	.+2      	; 0x2380 <vTaskGetRunTimeStats+0x174>
    237e:	a1 cf       	rjmp	.-190    	; 0x22c2 <vTaskGetRunTimeStats+0xb6>
    2380:	d4 01       	movw	r26, r8
    2382:	12 96       	adiw	r26, 0x02	; 2
    2384:	8d 91       	ld	r24, X+
    2386:	9c 91       	ld	r25, X
    2388:	13 97       	sbiw	r26, 0x03	; 3
    238a:	92 83       	std	Z+2, r25	; 0x02
    238c:	81 83       	std	Z+1, r24	; 0x01
    238e:	99 cf       	rjmp	.-206    	; 0x22c2 <vTaskGetRunTimeStats+0xb6>
    2390:	c2 01       	movw	r24, r4
    2392:	0e 94 3e 09 	call	0x127c	; 0x127c <vPortFree>
    2396:	24 96       	adiw	r28, 0x04	; 4
    2398:	e2 e1       	ldi	r30, 0x12	; 18
    239a:	0c 94 ad 2c 	jmp	0x595a	; 0x595a <__epilogue_restores__>
    239e:	1b 82       	std	Y+3, r1	; 0x03
    23a0:	0f b6       	in	r0, 0x3f	; 63
    23a2:	f8 94       	cli
    23a4:	0f 92       	push	r0
    23a6:	80 91 7b 14 	lds	r24, 0x147B
    23aa:	81 50       	subi	r24, 0x01	; 1
    23ac:	80 93 7b 14 	sts	0x147B, r24
    23b0:	80 91 7b 14 	lds	r24, 0x147B
    23b4:	88 23       	and	r24, r24
    23b6:	09 f0       	breq	.+2      	; 0x23ba <vTaskGetRunTimeStats+0x1ae>
    23b8:	a4 c1       	rjmp	.+840    	; 0x2702 <vTaskGetRunTimeStats+0x4f6>
    23ba:	80 91 75 14 	lds	r24, 0x1475
    23be:	88 23       	and	r24, r24
    23c0:	09 f4       	brne	.+2      	; 0x23c4 <vTaskGetRunTimeStats+0x1b8>
    23c2:	9f c1       	rjmp	.+830    	; 0x2702 <vTaskGetRunTimeStats+0x4f6>
    23c4:	99 e0       	ldi	r25, 0x09	; 9
    23c6:	d9 2e       	mov	r13, r25
    23c8:	cc 24       	eor	r12, r12
    23ca:	c3 94       	inc	r12
    23cc:	80 91 c2 14 	lds	r24, 0x14C2
    23d0:	88 23       	and	r24, r24
    23d2:	99 f1       	breq	.+102    	; 0x243a <vTaskGetRunTimeStats+0x22e>
    23d4:	e0 91 c7 14 	lds	r30, 0x14C7
    23d8:	f0 91 c8 14 	lds	r31, 0x14C8
    23dc:	06 81       	ldd	r16, Z+6	; 0x06
    23de:	17 81       	ldd	r17, Z+7	; 0x07
    23e0:	c8 01       	movw	r24, r16
    23e2:	0c 96       	adiw	r24, 0x0c	; 12
    23e4:	0e 94 56 25 	call	0x4aac	; 0x4aac <uxListRemove>
    23e8:	22 e0       	ldi	r18, 0x02	; 2
    23ea:	e2 2e       	mov	r14, r18
    23ec:	f1 2c       	mov	r15, r1
    23ee:	e0 0e       	add	r14, r16
    23f0:	f1 1e       	adc	r15, r17
    23f2:	c7 01       	movw	r24, r14
    23f4:	0e 94 56 25 	call	0x4aac	; 0x4aac <uxListRemove>
    23f8:	f8 01       	movw	r30, r16
    23fa:	96 89       	ldd	r25, Z+22	; 0x16
    23fc:	80 91 76 14 	lds	r24, 0x1476
    2400:	89 17       	cp	r24, r25
    2402:	18 f4       	brcc	.+6      	; 0x240a <vTaskGetRunTimeStats+0x1fe>
    2404:	90 93 76 14 	sts	0x1476, r25
    2408:	96 89       	ldd	r25, Z+22	; 0x16
    240a:	9d 9d       	mul	r25, r13
    240c:	c0 01       	movw	r24, r0
    240e:	11 24       	eor	r1, r1
    2410:	88 57       	subi	r24, 0x78	; 120
    2412:	9b 4e       	sbci	r25, 0xEB	; 235
    2414:	b7 01       	movw	r22, r14
    2416:	0e 94 05 25 	call	0x4a0a	; 0x4a0a <vListInsertEnd>
    241a:	e0 91 73 14 	lds	r30, 0x1473
    241e:	f0 91 74 14 	lds	r31, 0x1474
    2422:	d8 01       	movw	r26, r16
    2424:	56 96       	adiw	r26, 0x16	; 22
    2426:	9c 91       	ld	r25, X
    2428:	86 89       	ldd	r24, Z+22	; 0x16
    242a:	98 17       	cp	r25, r24
    242c:	78 f2       	brcs	.-98     	; 0x23cc <vTaskGetRunTimeStats+0x1c0>
    242e:	c0 92 77 14 	sts	0x1477, r12
    2432:	80 91 c2 14 	lds	r24, 0x14C2
    2436:	88 23       	and	r24, r24
    2438:	69 f6       	brne	.-102    	; 0x23d4 <vTaskGetRunTimeStats+0x1c8>
    243a:	80 91 84 14 	lds	r24, 0x1484
    243e:	88 23       	and	r24, r24
    2440:	09 f4       	brne	.+2      	; 0x2444 <vTaskGetRunTimeStats+0x238>
    2442:	59 c1       	rjmp	.+690    	; 0x26f6 <vTaskGetRunTimeStats+0x4ea>
    2444:	80 91 84 14 	lds	r24, 0x1484
    2448:	88 23       	and	r24, r24
    244a:	09 f4       	brne	.+2      	; 0x244e <vTaskGetRunTimeStats+0x242>
    244c:	54 c1       	rjmp	.+680    	; 0x26f6 <vTaskGetRunTimeStats+0x4ea>
    244e:	89 e0       	ldi	r24, 0x09	; 9
    2450:	a8 2e       	mov	r10, r24
    2452:	80 91 7b 14 	lds	r24, 0x147B
    2456:	88 23       	and	r24, r24
    2458:	09 f0       	breq	.+2      	; 0x245c <vTaskGetRunTimeStats+0x250>
    245a:	35 c1       	rjmp	.+618    	; 0x26c6 <vTaskGetRunTimeStats+0x4ba>
    245c:	80 91 78 14 	lds	r24, 0x1478
    2460:	90 91 79 14 	lds	r25, 0x1479
    2464:	01 96       	adiw	r24, 0x01	; 1
    2466:	90 93 79 14 	sts	0x1479, r25
    246a:	80 93 78 14 	sts	0x1478, r24
    246e:	c0 90 78 14 	lds	r12, 0x1478
    2472:	d0 90 79 14 	lds	r13, 0x1479
    2476:	c1 14       	cp	r12, r1
    2478:	d1 04       	cpc	r13, r1
    247a:	19 f5       	brne	.+70     	; 0x24c2 <vTaskGetRunTimeStats+0x2b6>
    247c:	20 91 be 14 	lds	r18, 0x14BE
    2480:	30 91 bf 14 	lds	r19, 0x14BF
    2484:	80 91 c0 14 	lds	r24, 0x14C0
    2488:	90 91 c1 14 	lds	r25, 0x14C1
    248c:	90 93 bf 14 	sts	0x14BF, r25
    2490:	80 93 be 14 	sts	0x14BE, r24
    2494:	30 93 c1 14 	sts	0x14C1, r19
    2498:	20 93 c0 14 	sts	0x14C0, r18
    249c:	80 91 7a 14 	lds	r24, 0x147A
    24a0:	8f 5f       	subi	r24, 0xFF	; 255
    24a2:	80 93 7a 14 	sts	0x147A, r24
    24a6:	e0 91 be 14 	lds	r30, 0x14BE
    24aa:	f0 91 bf 14 	lds	r31, 0x14BF
    24ae:	80 81       	ld	r24, Z
    24b0:	88 23       	and	r24, r24
    24b2:	09 f0       	breq	.+2      	; 0x24b6 <vTaskGetRunTimeStats+0x2aa>
    24b4:	04 c4       	rjmp	.+2056   	; 0x2cbe <vTaskGetRunTimeStats+0xab2>
    24b6:	ef ef       	ldi	r30, 0xFF	; 255
    24b8:	ff ef       	ldi	r31, 0xFF	; 255
    24ba:	f0 93 41 02 	sts	0x0241, r31
    24be:	e0 93 40 02 	sts	0x0240, r30
    24c2:	80 91 40 02 	lds	r24, 0x0240
    24c6:	90 91 41 02 	lds	r25, 0x0241
    24ca:	c8 16       	cp	r12, r24
    24cc:	d9 06       	cpc	r13, r25
    24ce:	08 f4       	brcc	.+2      	; 0x24d2 <vTaskGetRunTimeStats+0x2c6>
    24d0:	dd c3       	rjmp	.+1978   	; 0x2c8c <vTaskGetRunTimeStats+0xa80>
    24d2:	bb 24       	eor	r11, r11
    24d4:	e0 91 be 14 	lds	r30, 0x14BE
    24d8:	f0 91 bf 14 	lds	r31, 0x14BF
    24dc:	80 81       	ld	r24, Z
    24de:	88 23       	and	r24, r24
    24e0:	09 f4       	brne	.+2      	; 0x24e4 <vTaskGetRunTimeStats+0x2d8>
    24e2:	4c c0       	rjmp	.+152    	; 0x257c <vTaskGetRunTimeStats+0x370>
    24e4:	e0 91 be 14 	lds	r30, 0x14BE
    24e8:	f0 91 bf 14 	lds	r31, 0x14BF
    24ec:	05 80       	ldd	r0, Z+5	; 0x05
    24ee:	f6 81       	ldd	r31, Z+6	; 0x06
    24f0:	e0 2d       	mov	r30, r0
    24f2:	06 81       	ldd	r16, Z+6	; 0x06
    24f4:	17 81       	ldd	r17, Z+7	; 0x07
    24f6:	d8 01       	movw	r26, r16
    24f8:	12 96       	adiw	r26, 0x02	; 2
    24fa:	8d 91       	ld	r24, X+
    24fc:	9c 91       	ld	r25, X
    24fe:	13 97       	sbiw	r26, 0x03	; 3
    2500:	c8 16       	cp	r12, r24
    2502:	d9 06       	cpc	r13, r25
    2504:	08 f4       	brcc	.+2      	; 0x2508 <vTaskGetRunTimeStats+0x2fc>
    2506:	f5 c3       	rjmp	.+2026   	; 0x2cf2 <vTaskGetRunTimeStats+0xae6>
    2508:	b2 e0       	ldi	r27, 0x02	; 2
    250a:	eb 2e       	mov	r14, r27
    250c:	f1 2c       	mov	r15, r1
    250e:	e0 0e       	add	r14, r16
    2510:	f1 1e       	adc	r15, r17
    2512:	c7 01       	movw	r24, r14
    2514:	0e 94 56 25 	call	0x4aac	; 0x4aac <uxListRemove>
    2518:	f8 01       	movw	r30, r16
    251a:	84 89       	ldd	r24, Z+20	; 0x14
    251c:	95 89       	ldd	r25, Z+21	; 0x15
    251e:	89 2b       	or	r24, r25
    2520:	21 f0       	breq	.+8      	; 0x252a <vTaskGetRunTimeStats+0x31e>
    2522:	c8 01       	movw	r24, r16
    2524:	0c 96       	adiw	r24, 0x0c	; 12
    2526:	0e 94 56 25 	call	0x4aac	; 0x4aac <uxListRemove>
    252a:	d8 01       	movw	r26, r16
    252c:	56 96       	adiw	r26, 0x16	; 22
    252e:	9c 91       	ld	r25, X
    2530:	56 97       	sbiw	r26, 0x16	; 22
    2532:	80 91 76 14 	lds	r24, 0x1476
    2536:	89 17       	cp	r24, r25
    2538:	20 f4       	brcc	.+8      	; 0x2542 <vTaskGetRunTimeStats+0x336>
    253a:	90 93 76 14 	sts	0x1476, r25
    253e:	56 96       	adiw	r26, 0x16	; 22
    2540:	9c 91       	ld	r25, X
    2542:	9a 9d       	mul	r25, r10
    2544:	c0 01       	movw	r24, r0
    2546:	11 24       	eor	r1, r1
    2548:	88 57       	subi	r24, 0x78	; 120
    254a:	9b 4e       	sbci	r25, 0xEB	; 235
    254c:	b7 01       	movw	r22, r14
    254e:	0e 94 05 25 	call	0x4a0a	; 0x4a0a <vListInsertEnd>
    2552:	e0 91 73 14 	lds	r30, 0x1473
    2556:	f0 91 74 14 	lds	r31, 0x1474
    255a:	d8 01       	movw	r26, r16
    255c:	56 96       	adiw	r26, 0x16	; 22
    255e:	9c 91       	ld	r25, X
    2560:	86 89       	ldd	r24, Z+22	; 0x16
    2562:	98 17       	cp	r25, r24
    2564:	08 f4       	brcc	.+2      	; 0x2568 <vTaskGetRunTimeStats+0x35c>
    2566:	b6 cf       	rjmp	.-148    	; 0x24d4 <vTaskGetRunTimeStats+0x2c8>
    2568:	bb 24       	eor	r11, r11
    256a:	b3 94       	inc	r11
    256c:	e0 91 be 14 	lds	r30, 0x14BE
    2570:	f0 91 bf 14 	lds	r31, 0x14BF
    2574:	80 81       	ld	r24, Z
    2576:	88 23       	and	r24, r24
    2578:	09 f0       	breq	.+2      	; 0x257c <vTaskGetRunTimeStats+0x370>
    257a:	b4 cf       	rjmp	.-152    	; 0x24e4 <vTaskGetRunTimeStats+0x2d8>
    257c:	4f ef       	ldi	r20, 0xFF	; 255
    257e:	5f ef       	ldi	r21, 0xFF	; 255
    2580:	50 93 41 02 	sts	0x0241, r21
    2584:	40 93 40 02 	sts	0x0240, r20
    2588:	82 c3       	rjmp	.+1796   	; 0x2c8e <vTaskGetRunTimeStats+0xa82>
    258a:	dd 24       	eor	r13, r13
    258c:	bc 81       	ldd	r27, Y+4	; 0x04
    258e:	bd 0d       	add	r27, r13
    2590:	bc 83       	std	Y+4, r27	; 0x04
    2592:	cc 20       	and	r12, r12
    2594:	09 f0       	breq	.+2      	; 0x2598 <vTaskGetRunTimeStats+0x38c>
    2596:	60 ce       	rjmp	.-832    	; 0x2258 <vTaskGetRunTimeStats+0x4c>
    2598:	8f e0       	ldi	r24, 0x0F	; 15
    259a:	b8 9f       	mul	r27, r24
    259c:	50 01       	movw	r10, r0
    259e:	11 24       	eor	r1, r1
    25a0:	a4 0c       	add	r10, r4
    25a2:	b5 1c       	adc	r11, r5
    25a4:	e0 90 be 14 	lds	r14, 0x14BE
    25a8:	f0 90 bf 14 	lds	r15, 0x14BF
    25ac:	f7 01       	movw	r30, r14
    25ae:	80 81       	ld	r24, Z
    25b0:	88 23       	and	r24, r24
    25b2:	09 f4       	brne	.+2      	; 0x25b6 <vTaskGetRunTimeStats+0x3aa>
    25b4:	95 c1       	rjmp	.+810    	; 0x28e0 <vTaskGetRunTimeStats+0x6d4>
    25b6:	01 80       	ldd	r0, Z+1	; 0x01
    25b8:	f2 81       	ldd	r31, Z+2	; 0x02
    25ba:	e0 2d       	mov	r30, r0
    25bc:	02 80       	ldd	r0, Z+2	; 0x02
    25be:	f3 81       	ldd	r31, Z+3	; 0x03
    25c0:	e0 2d       	mov	r30, r0
    25c2:	d7 01       	movw	r26, r14
    25c4:	12 96       	adiw	r26, 0x02	; 2
    25c6:	fc 93       	st	X, r31
    25c8:	ee 93       	st	-X, r30
    25ca:	11 97       	sbiw	r26, 0x01	; 1
    25cc:	13 e0       	ldi	r17, 0x03	; 3
    25ce:	81 2e       	mov	r8, r17
    25d0:	91 2c       	mov	r9, r1
    25d2:	8e 0c       	add	r8, r14
    25d4:	9f 1c       	adc	r9, r15
    25d6:	e8 15       	cp	r30, r8
    25d8:	f9 05       	cpc	r31, r9
    25da:	09 f4       	brne	.+2      	; 0x25de <vTaskGetRunTimeStats+0x3d2>
    25dc:	a3 c3       	rjmp	.+1862   	; 0x2d24 <vTaskGetRunTimeStats+0xb18>
    25de:	66 80       	ldd	r6, Z+6	; 0x06
    25e0:	77 80       	ldd	r7, Z+7	; 0x07
    25e2:	dd 24       	eor	r13, r13
    25e4:	af e0       	ldi	r26, 0x0F	; 15
    25e6:	ca 2e       	mov	r12, r26
    25e8:	82 81       	ldd	r24, Z+2	; 0x02
    25ea:	93 81       	ldd	r25, Z+3	; 0x03
    25ec:	f7 01       	movw	r30, r14
    25ee:	92 83       	std	Z+2, r25	; 0x02
    25f0:	81 83       	std	Z+1, r24	; 0x01
    25f2:	88 16       	cp	r8, r24
    25f4:	99 06       	cpc	r9, r25
    25f6:	09 f4       	brne	.+2      	; 0x25fa <vTaskGetRunTimeStats+0x3ee>
    25f8:	5e c0       	rjmp	.+188    	; 0x26b6 <vTaskGetRunTimeStats+0x4aa>
    25fa:	d7 01       	movw	r26, r14
    25fc:	11 96       	adiw	r26, 0x01	; 1
    25fe:	ed 91       	ld	r30, X+
    2600:	fc 91       	ld	r31, X
    2602:	12 97       	sbiw	r26, 0x02	; 2
    2604:	66 81       	ldd	r22, Z+6	; 0x06
    2606:	77 81       	ldd	r23, Z+7	; 0x07
    2608:	dc 9c       	mul	r13, r12
    260a:	80 01       	movw	r16, r0
    260c:	11 24       	eor	r1, r1
    260e:	0a 0d       	add	r16, r10
    2610:	1b 1d       	adc	r17, r11
    2612:	f8 01       	movw	r30, r16
    2614:	71 83       	std	Z+1, r23	; 0x01
    2616:	60 83       	st	Z, r22
    2618:	67 5e       	subi	r22, 0xE7	; 231
    261a:	7f 4f       	sbci	r23, 0xFF	; 255
    261c:	73 83       	std	Z+3, r23	; 0x03
    261e:	62 83       	std	Z+2, r22	; 0x02
    2620:	69 51       	subi	r22, 0x19	; 25
    2622:	70 40       	sbci	r23, 0x00	; 0
    2624:	db 01       	movw	r26, r22
    2626:	91 96       	adiw	r26, 0x21	; 33
    2628:	8c 91       	ld	r24, X
    262a:	91 97       	sbiw	r26, 0x21	; 33
    262c:	84 83       	std	Z+4, r24	; 0x04
    262e:	42 e0       	ldi	r20, 0x02	; 2
    2630:	50 e0       	ldi	r21, 0x00	; 0
    2632:	56 83       	std	Z+6, r21	; 0x06
    2634:	45 83       	std	Z+5, r20	; 0x05
    2636:	56 96       	adiw	r26, 0x16	; 22
    2638:	8c 91       	ld	r24, X
    263a:	56 97       	sbiw	r26, 0x16	; 22
    263c:	87 83       	std	Z+7, r24	; 0x07
    263e:	93 96       	adiw	r26, 0x23	; 35
    2640:	8c 91       	ld	r24, X
    2642:	93 97       	sbiw	r26, 0x23	; 35
    2644:	80 87       	std	Z+8, r24	; 0x08
    2646:	94 96       	adiw	r26, 0x24	; 36
    2648:	8d 91       	ld	r24, X+
    264a:	9d 91       	ld	r25, X+
    264c:	0d 90       	ld	r0, X+
    264e:	bc 91       	ld	r27, X
    2650:	a0 2d       	mov	r26, r0
    2652:	81 87       	std	Z+9, r24	; 0x09
    2654:	92 87       	std	Z+10, r25	; 0x0a
    2656:	a3 87       	std	Z+11, r26	; 0x0b
    2658:	b4 87       	std	Z+12, r27	; 0x0c
    265a:	fb 01       	movw	r30, r22
    265c:	a7 89       	ldd	r26, Z+23	; 0x17
    265e:	b0 8d       	ldd	r27, Z+24	; 0x18
    2660:	8c 91       	ld	r24, X
    2662:	85 3a       	cpi	r24, 0xA5	; 165
    2664:	09 f0       	breq	.+2      	; 0x2668 <vTaskGetRunTimeStats+0x45c>
    2666:	42 c3       	rjmp	.+1668   	; 0x2cec <vTaskGetRunTimeStats+0xae0>
    2668:	20 e0       	ldi	r18, 0x00	; 0
    266a:	30 e0       	ldi	r19, 0x00	; 0
    266c:	40 e0       	ldi	r20, 0x00	; 0
    266e:	50 e0       	ldi	r21, 0x00	; 0
    2670:	2f 5f       	subi	r18, 0xFF	; 255
    2672:	3f 4f       	sbci	r19, 0xFF	; 255
    2674:	4f 4f       	sbci	r20, 0xFF	; 255
    2676:	5f 4f       	sbci	r21, 0xFF	; 255
    2678:	fd 01       	movw	r30, r26
    267a:	e2 0f       	add	r30, r18
    267c:	f3 1f       	adc	r31, r19
    267e:	80 81       	ld	r24, Z
    2680:	85 3a       	cpi	r24, 0xA5	; 165
    2682:	b1 f3       	breq	.-20     	; 0x2670 <vTaskGetRunTimeStats+0x464>
    2684:	c9 01       	movw	r24, r18
    2686:	d8 01       	movw	r26, r16
    2688:	1e 96       	adiw	r26, 0x0e	; 14
    268a:	9c 93       	st	X, r25
    268c:	8e 93       	st	-X, r24
    268e:	1d 97       	sbiw	r26, 0x0d	; 13
    2690:	d3 94       	inc	r13
    2692:	66 16       	cp	r6, r22
    2694:	77 06       	cpc	r7, r23
    2696:	09 f4       	brne	.+2      	; 0x269a <vTaskGetRunTimeStats+0x48e>
    2698:	24 c1       	rjmp	.+584    	; 0x28e2 <vTaskGetRunTimeStats+0x6d6>
    269a:	d7 01       	movw	r26, r14
    269c:	11 96       	adiw	r26, 0x01	; 1
    269e:	ed 91       	ld	r30, X+
    26a0:	fc 91       	ld	r31, X
    26a2:	12 97       	sbiw	r26, 0x02	; 2
    26a4:	82 81       	ldd	r24, Z+2	; 0x02
    26a6:	93 81       	ldd	r25, Z+3	; 0x03
    26a8:	f7 01       	movw	r30, r14
    26aa:	92 83       	std	Z+2, r25	; 0x02
    26ac:	81 83       	std	Z+1, r24	; 0x01
    26ae:	88 16       	cp	r8, r24
    26b0:	99 06       	cpc	r9, r25
    26b2:	09 f0       	breq	.+2      	; 0x26b6 <vTaskGetRunTimeStats+0x4aa>
    26b4:	a2 cf       	rjmp	.-188    	; 0x25fa <vTaskGetRunTimeStats+0x3ee>
    26b6:	d4 01       	movw	r26, r8
    26b8:	12 96       	adiw	r26, 0x02	; 2
    26ba:	8d 91       	ld	r24, X+
    26bc:	9c 91       	ld	r25, X
    26be:	13 97       	sbiw	r26, 0x03	; 3
    26c0:	92 83       	std	Z+2, r25	; 0x02
    26c2:	81 83       	std	Z+1, r24	; 0x01
    26c4:	9a cf       	rjmp	.-204    	; 0x25fa <vTaskGetRunTimeStats+0x3ee>
    26c6:	80 91 84 14 	lds	r24, 0x1484
    26ca:	8f 5f       	subi	r24, 0xFF	; 255
    26cc:	80 93 84 14 	sts	0x1484, r24
    26d0:	bb 24       	eor	r11, r11
    26d2:	80 91 77 14 	lds	r24, 0x1477
    26d6:	88 23       	and	r24, r24
    26d8:	09 f0       	breq	.+2      	; 0x26dc <vTaskGetRunTimeStats+0x4d0>
    26da:	d4 c2       	rjmp	.+1448   	; 0x2c84 <vTaskGetRunTimeStats+0xa78>
    26dc:	bb 20       	and	r11, r11
    26de:	09 f0       	breq	.+2      	; 0x26e2 <vTaskGetRunTimeStats+0x4d6>
    26e0:	d1 c2       	rjmp	.+1442   	; 0x2c84 <vTaskGetRunTimeStats+0xa78>
    26e2:	80 91 84 14 	lds	r24, 0x1484
    26e6:	81 50       	subi	r24, 0x01	; 1
    26e8:	80 93 84 14 	sts	0x1484, r24
    26ec:	80 91 84 14 	lds	r24, 0x1484
    26f0:	88 23       	and	r24, r24
    26f2:	09 f0       	breq	.+2      	; 0x26f6 <vTaskGetRunTimeStats+0x4ea>
    26f4:	ae ce       	rjmp	.-676    	; 0x2452 <vTaskGetRunTimeStats+0x246>
    26f6:	80 91 77 14 	lds	r24, 0x1477
    26fa:	81 30       	cpi	r24, 0x01	; 1
    26fc:	11 f4       	brne	.+4      	; 0x2702 <vTaskGetRunTimeStats+0x4f6>
    26fe:	0e 94 90 24 	call	0x4920	; 0x4920 <vPortYield>
    2702:	0f 90       	pop	r0
    2704:	0f be       	out	0x3f, r0	; 63
    2706:	eb 81       	ldd	r30, Y+3	; 0x03
    2708:	e9 83       	std	Y+1, r30	; 0x01
    270a:	c4 01       	movw	r24, r8
    270c:	b3 01       	movw	r22, r6
    270e:	24 e6       	ldi	r18, 0x64	; 100
    2710:	30 e0       	ldi	r19, 0x00	; 0
    2712:	40 e0       	ldi	r20, 0x00	; 0
    2714:	50 e0       	ldi	r21, 0x00	; 0
    2716:	0e 94 6f 2c 	call	0x58de	; 0x58de <__udivmodsi4>
    271a:	59 01       	movw	r10, r18
    271c:	6a 01       	movw	r12, r20
    271e:	a1 14       	cp	r10, r1
    2720:	b1 04       	cpc	r11, r1
    2722:	c1 04       	cpc	r12, r1
    2724:	d1 04       	cpc	r13, r1
    2726:	09 f4       	brne	.+2      	; 0x272a <vTaskGetRunTimeStats+0x51e>
    2728:	33 ce       	rjmp	.-922    	; 0x2390 <vTaskGetRunTimeStats+0x184>
    272a:	1a 82       	std	Y+2, r1	; 0x02
    272c:	9a 81       	ldd	r25, Y+2	; 0x02
    272e:	89 81       	ldd	r24, Y+1	; 0x01
    2730:	98 17       	cp	r25, r24
    2732:	08 f0       	brcs	.+2      	; 0x2736 <vTaskGetRunTimeStats+0x52a>
    2734:	2d ce       	rjmp	.-934    	; 0x2390 <vTaskGetRunTimeStats+0x184>
    2736:	e7 e0       	ldi	r30, 0x07	; 7
    2738:	8e 2e       	mov	r8, r30
    273a:	e2 e0       	ldi	r30, 0x02	; 2
    273c:	9e 2e       	mov	r9, r30
    273e:	76 e1       	ldi	r23, 0x16	; 22
    2740:	67 2e       	mov	r6, r23
    2742:	72 e0       	ldi	r23, 0x02	; 2
    2744:	77 2e       	mov	r7, r23
    2746:	60 c0       	rjmp	.+192    	; 0x2808 <vTaskGetRunTimeStats+0x5fc>
    2748:	8a 81       	ldd	r24, Y+2	; 0x02
    274a:	2a 81       	ldd	r18, Y+2	; 0x02
    274c:	4d b7       	in	r20, 0x3d	; 61
    274e:	5e b7       	in	r21, 0x3e	; 62
    2750:	4a 50       	subi	r20, 0x0A	; 10
    2752:	50 40       	sbci	r21, 0x00	; 0
    2754:	0f b6       	in	r0, 0x3f	; 63
    2756:	f8 94       	cli
    2758:	5e bf       	out	0x3e, r21	; 62
    275a:	0f be       	out	0x3f, r0	; 63
    275c:	4d bf       	out	0x3d, r20	; 61
    275e:	ad b7       	in	r26, 0x3d	; 61
    2760:	be b7       	in	r27, 0x3e	; 62
    2762:	11 96       	adiw	r26, 0x01	; 1
    2764:	ed b7       	in	r30, 0x3d	; 61
    2766:	fe b7       	in	r31, 0x3e	; 62
    2768:	32 82       	std	Z+2, r3	; 0x02
    276a:	21 82       	std	Z+1, r2	; 0x01
    276c:	13 96       	adiw	r26, 0x03	; 3
    276e:	9c 92       	st	X, r9
    2770:	8e 92       	st	-X, r8
    2772:	12 97       	sbiw	r26, 0x02	; 2
    2774:	90 e0       	ldi	r25, 0x00	; 0
    2776:	fc 01       	movw	r30, r24
    2778:	ee 0f       	add	r30, r30
    277a:	ff 1f       	adc	r31, r31
    277c:	e8 0f       	add	r30, r24
    277e:	f9 1f       	adc	r31, r25
    2780:	cf 01       	movw	r24, r30
    2782:	88 0f       	add	r24, r24
    2784:	99 1f       	adc	r25, r25
    2786:	88 0f       	add	r24, r24
    2788:	99 1f       	adc	r25, r25
    278a:	e8 0f       	add	r30, r24
    278c:	f9 1f       	adc	r31, r25
    278e:	e4 0d       	add	r30, r4
    2790:	f5 1d       	adc	r31, r5
    2792:	82 81       	ldd	r24, Z+2	; 0x02
    2794:	93 81       	ldd	r25, Z+3	; 0x03
    2796:	15 96       	adiw	r26, 0x05	; 5
    2798:	9c 93       	st	X, r25
    279a:	8e 93       	st	-X, r24
    279c:	14 97       	sbiw	r26, 0x04	; 4
    279e:	30 e0       	ldi	r19, 0x00	; 0
    27a0:	f9 01       	movw	r30, r18
    27a2:	ee 0f       	add	r30, r30
    27a4:	ff 1f       	adc	r31, r31
    27a6:	e2 0f       	add	r30, r18
    27a8:	f3 1f       	adc	r31, r19
    27aa:	cf 01       	movw	r24, r30
    27ac:	88 0f       	add	r24, r24
    27ae:	99 1f       	adc	r25, r25
    27b0:	88 0f       	add	r24, r24
    27b2:	99 1f       	adc	r25, r25
    27b4:	e8 0f       	add	r30, r24
    27b6:	f9 1f       	adc	r31, r25
    27b8:	e4 0d       	add	r30, r4
    27ba:	f5 1d       	adc	r31, r5
    27bc:	81 85       	ldd	r24, Z+9	; 0x09
    27be:	92 85       	ldd	r25, Z+10	; 0x0a
    27c0:	17 96       	adiw	r26, 0x07	; 7
    27c2:	9c 93       	st	X, r25
    27c4:	8e 93       	st	-X, r24
    27c6:	16 97       	sbiw	r26, 0x06	; 6
    27c8:	19 96       	adiw	r26, 0x09	; 9
    27ca:	fc 92       	st	X, r15
    27cc:	ee 92       	st	-X, r14
    27ce:	18 97       	sbiw	r26, 0x08	; 8
    27d0:	0e 94 90 07 	call	0xf20	; 0xf20 <sprintf>
    27d4:	4d b7       	in	r20, 0x3d	; 61
    27d6:	5e b7       	in	r21, 0x3e	; 62
    27d8:	46 5f       	subi	r20, 0xF6	; 246
    27da:	5f 4f       	sbci	r21, 0xFF	; 255
    27dc:	0f b6       	in	r0, 0x3f	; 63
    27de:	f8 94       	cli
    27e0:	5e bf       	out	0x3e, r21	; 62
    27e2:	0f be       	out	0x3f, r0	; 63
    27e4:	4d bf       	out	0x3d, r20	; 61
    27e6:	d1 01       	movw	r26, r2
    27e8:	0d 90       	ld	r0, X+
    27ea:	00 20       	and	r0, r0
    27ec:	e9 f7       	brne	.-6      	; 0x27e8 <vTaskGetRunTimeStats+0x5dc>
    27ee:	11 97       	sbiw	r26, 0x01	; 1
    27f0:	a2 19       	sub	r26, r2
    27f2:	b3 09       	sbc	r27, r3
    27f4:	8a 81       	ldd	r24, Y+2	; 0x02
    27f6:	8f 5f       	subi	r24, 0xFF	; 255
    27f8:	8a 83       	std	Y+2, r24	; 0x02
    27fa:	9a 81       	ldd	r25, Y+2	; 0x02
    27fc:	89 81       	ldd	r24, Y+1	; 0x01
    27fe:	98 17       	cp	r25, r24
    2800:	08 f0       	brcs	.+2      	; 0x2804 <vTaskGetRunTimeStats+0x5f8>
    2802:	c6 cd       	rjmp	.-1140   	; 0x2390 <vTaskGetRunTimeStats+0x184>
    2804:	2a 0e       	add	r2, r26
    2806:	3b 1e       	adc	r3, r27
    2808:	8a 81       	ldd	r24, Y+2	; 0x02
    280a:	90 e0       	ldi	r25, 0x00	; 0
    280c:	fc 01       	movw	r30, r24
    280e:	ee 0f       	add	r30, r30
    2810:	ff 1f       	adc	r31, r31
    2812:	e8 0f       	add	r30, r24
    2814:	f9 1f       	adc	r31, r25
    2816:	cf 01       	movw	r24, r30
    2818:	88 0f       	add	r24, r24
    281a:	99 1f       	adc	r25, r25
    281c:	88 0f       	add	r24, r24
    281e:	99 1f       	adc	r25, r25
    2820:	e8 0f       	add	r30, r24
    2822:	f9 1f       	adc	r31, r25
    2824:	e4 0d       	add	r30, r4
    2826:	f5 1d       	adc	r31, r5
    2828:	61 85       	ldd	r22, Z+9	; 0x09
    282a:	72 85       	ldd	r23, Z+10	; 0x0a
    282c:	83 85       	ldd	r24, Z+11	; 0x0b
    282e:	94 85       	ldd	r25, Z+12	; 0x0c
    2830:	a6 01       	movw	r20, r12
    2832:	95 01       	movw	r18, r10
    2834:	0e 94 6f 2c 	call	0x58de	; 0x58de <__udivmodsi4>
    2838:	79 01       	movw	r14, r18
    283a:	8a 01       	movw	r16, r20
    283c:	e1 14       	cp	r14, r1
    283e:	f1 04       	cpc	r15, r1
    2840:	01 05       	cpc	r16, r1
    2842:	11 05       	cpc	r17, r1
    2844:	09 f0       	breq	.+2      	; 0x2848 <vTaskGetRunTimeStats+0x63c>
    2846:	80 cf       	rjmp	.-256    	; 0x2748 <vTaskGetRunTimeStats+0x53c>
    2848:	8a 81       	ldd	r24, Y+2	; 0x02
    284a:	2a 81       	ldd	r18, Y+2	; 0x02
    284c:	ad b7       	in	r26, 0x3d	; 61
    284e:	be b7       	in	r27, 0x3e	; 62
    2850:	18 97       	sbiw	r26, 0x08	; 8
    2852:	0f b6       	in	r0, 0x3f	; 63
    2854:	f8 94       	cli
    2856:	be bf       	out	0x3e, r27	; 62
    2858:	0f be       	out	0x3f, r0	; 63
    285a:	ad bf       	out	0x3d, r26	; 61
    285c:	11 96       	adiw	r26, 0x01	; 1
    285e:	ed b7       	in	r30, 0x3d	; 61
    2860:	fe b7       	in	r31, 0x3e	; 62
    2862:	32 82       	std	Z+2, r3	; 0x02
    2864:	21 82       	std	Z+1, r2	; 0x01
    2866:	13 96       	adiw	r26, 0x03	; 3
    2868:	7c 92       	st	X, r7
    286a:	6e 92       	st	-X, r6
    286c:	12 97       	sbiw	r26, 0x02	; 2
    286e:	90 e0       	ldi	r25, 0x00	; 0
    2870:	fc 01       	movw	r30, r24
    2872:	ee 0f       	add	r30, r30
    2874:	ff 1f       	adc	r31, r31
    2876:	e8 0f       	add	r30, r24
    2878:	f9 1f       	adc	r31, r25
    287a:	cf 01       	movw	r24, r30
    287c:	88 0f       	add	r24, r24
    287e:	99 1f       	adc	r25, r25
    2880:	88 0f       	add	r24, r24
    2882:	99 1f       	adc	r25, r25
    2884:	e8 0f       	add	r30, r24
    2886:	f9 1f       	adc	r31, r25
    2888:	e4 0d       	add	r30, r4
    288a:	f5 1d       	adc	r31, r5
    288c:	82 81       	ldd	r24, Z+2	; 0x02
    288e:	93 81       	ldd	r25, Z+3	; 0x03
    2890:	15 96       	adiw	r26, 0x05	; 5
    2892:	9c 93       	st	X, r25
    2894:	8e 93       	st	-X, r24
    2896:	14 97       	sbiw	r26, 0x04	; 4
    2898:	30 e0       	ldi	r19, 0x00	; 0
    289a:	f9 01       	movw	r30, r18
    289c:	ee 0f       	add	r30, r30
    289e:	ff 1f       	adc	r31, r31
    28a0:	e2 0f       	add	r30, r18
    28a2:	f3 1f       	adc	r31, r19
    28a4:	cf 01       	movw	r24, r30
    28a6:	88 0f       	add	r24, r24
    28a8:	99 1f       	adc	r25, r25
    28aa:	88 0f       	add	r24, r24
    28ac:	99 1f       	adc	r25, r25
    28ae:	e8 0f       	add	r30, r24
    28b0:	f9 1f       	adc	r31, r25
    28b2:	e4 0d       	add	r30, r4
    28b4:	f5 1d       	adc	r31, r5
    28b6:	81 85       	ldd	r24, Z+9	; 0x09
    28b8:	92 85       	ldd	r25, Z+10	; 0x0a
    28ba:	17 96       	adiw	r26, 0x07	; 7
    28bc:	9c 93       	st	X, r25
    28be:	8e 93       	st	-X, r24
    28c0:	16 97       	sbiw	r26, 0x06	; 6
    28c2:	0e 94 90 07 	call	0xf20	; 0xf20 <sprintf>
    28c6:	4d b7       	in	r20, 0x3d	; 61
    28c8:	5e b7       	in	r21, 0x3e	; 62
    28ca:	48 5f       	subi	r20, 0xF8	; 248
    28cc:	5f 4f       	sbci	r21, 0xFF	; 255
    28ce:	0f b6       	in	r0, 0x3f	; 63
    28d0:	f8 94       	cli
    28d2:	5e bf       	out	0x3e, r21	; 62
    28d4:	0f be       	out	0x3f, r0	; 63
    28d6:	4d bf       	out	0x3d, r20	; 61
    28d8:	86 cf       	rjmp	.-244    	; 0x27e6 <vTaskGetRunTimeStats+0x5da>
    28da:	80 e0       	ldi	r24, 0x00	; 0
    28dc:	90 e0       	ldi	r25, 0x00	; 0
    28de:	38 cd       	rjmp	.-1424   	; 0x2350 <vTaskGetRunTimeStats+0x144>
    28e0:	dd 24       	eor	r13, r13
    28e2:	cc 80       	ldd	r12, Y+4	; 0x04
    28e4:	cd 0c       	add	r12, r13
    28e6:	8f e0       	ldi	r24, 0x0F	; 15
    28e8:	c8 9e       	mul	r12, r24
    28ea:	50 01       	movw	r10, r0
    28ec:	11 24       	eor	r1, r1
    28ee:	a4 0c       	add	r10, r4
    28f0:	b5 1c       	adc	r11, r5
    28f2:	e0 90 c0 14 	lds	r14, 0x14C0
    28f6:	f0 90 c1 14 	lds	r15, 0x14C1
    28fa:	f7 01       	movw	r30, r14
    28fc:	80 81       	ld	r24, Z
    28fe:	88 23       	and	r24, r24
    2900:	09 f4       	brne	.+2      	; 0x2904 <vTaskGetRunTimeStats+0x6f8>
    2902:	86 c0       	rjmp	.+268    	; 0x2a10 <vTaskGetRunTimeStats+0x804>
    2904:	01 80       	ldd	r0, Z+1	; 0x01
    2906:	f2 81       	ldd	r31, Z+2	; 0x02
    2908:	e0 2d       	mov	r30, r0
    290a:	02 80       	ldd	r0, Z+2	; 0x02
    290c:	f3 81       	ldd	r31, Z+3	; 0x03
    290e:	e0 2d       	mov	r30, r0
    2910:	d7 01       	movw	r26, r14
    2912:	12 96       	adiw	r26, 0x02	; 2
    2914:	fc 93       	st	X, r31
    2916:	ee 93       	st	-X, r30
    2918:	11 97       	sbiw	r26, 0x01	; 1
    291a:	73 e0       	ldi	r23, 0x03	; 3
    291c:	87 2e       	mov	r8, r23
    291e:	91 2c       	mov	r9, r1
    2920:	8e 0c       	add	r8, r14
    2922:	9f 1c       	adc	r9, r15
    2924:	e8 15       	cp	r30, r8
    2926:	f9 05       	cpc	r31, r9
    2928:	09 f4       	brne	.+2      	; 0x292c <vTaskGetRunTimeStats+0x720>
    292a:	06 c2       	rjmp	.+1036   	; 0x2d38 <vTaskGetRunTimeStats+0xb2c>
    292c:	66 80       	ldd	r6, Z+6	; 0x06
    292e:	77 80       	ldd	r7, Z+7	; 0x07
    2930:	dd 24       	eor	r13, r13
    2932:	82 81       	ldd	r24, Z+2	; 0x02
    2934:	93 81       	ldd	r25, Z+3	; 0x03
    2936:	f7 01       	movw	r30, r14
    2938:	92 83       	std	Z+2, r25	; 0x02
    293a:	81 83       	std	Z+1, r24	; 0x01
    293c:	88 16       	cp	r8, r24
    293e:	99 06       	cpc	r9, r25
    2940:	09 f4       	brne	.+2      	; 0x2944 <vTaskGetRunTimeStats+0x738>
    2942:	5e c0       	rjmp	.+188    	; 0x2a00 <vTaskGetRunTimeStats+0x7f4>
    2944:	d7 01       	movw	r26, r14
    2946:	11 96       	adiw	r26, 0x01	; 1
    2948:	ed 91       	ld	r30, X+
    294a:	fc 91       	ld	r31, X
    294c:	12 97       	sbiw	r26, 0x02	; 2
    294e:	66 81       	ldd	r22, Z+6	; 0x06
    2950:	77 81       	ldd	r23, Z+7	; 0x07
    2952:	bf e0       	ldi	r27, 0x0F	; 15
    2954:	db 9e       	mul	r13, r27
    2956:	80 01       	movw	r16, r0
    2958:	11 24       	eor	r1, r1
    295a:	0a 0d       	add	r16, r10
    295c:	1b 1d       	adc	r17, r11
    295e:	f8 01       	movw	r30, r16
    2960:	71 83       	std	Z+1, r23	; 0x01
    2962:	60 83       	st	Z, r22
    2964:	67 5e       	subi	r22, 0xE7	; 231
    2966:	7f 4f       	sbci	r23, 0xFF	; 255
    2968:	73 83       	std	Z+3, r23	; 0x03
    296a:	62 83       	std	Z+2, r22	; 0x02
    296c:	69 51       	subi	r22, 0x19	; 25
    296e:	70 40       	sbci	r23, 0x00	; 0
    2970:	db 01       	movw	r26, r22
    2972:	91 96       	adiw	r26, 0x21	; 33
    2974:	8c 91       	ld	r24, X
    2976:	91 97       	sbiw	r26, 0x21	; 33
    2978:	84 83       	std	Z+4, r24	; 0x04
    297a:	42 e0       	ldi	r20, 0x02	; 2
    297c:	50 e0       	ldi	r21, 0x00	; 0
    297e:	56 83       	std	Z+6, r21	; 0x06
    2980:	45 83       	std	Z+5, r20	; 0x05
    2982:	56 96       	adiw	r26, 0x16	; 22
    2984:	8c 91       	ld	r24, X
    2986:	56 97       	sbiw	r26, 0x16	; 22
    2988:	87 83       	std	Z+7, r24	; 0x07
    298a:	93 96       	adiw	r26, 0x23	; 35
    298c:	8c 91       	ld	r24, X
    298e:	93 97       	sbiw	r26, 0x23	; 35
    2990:	80 87       	std	Z+8, r24	; 0x08
    2992:	94 96       	adiw	r26, 0x24	; 36
    2994:	8d 91       	ld	r24, X+
    2996:	9d 91       	ld	r25, X+
    2998:	0d 90       	ld	r0, X+
    299a:	bc 91       	ld	r27, X
    299c:	a0 2d       	mov	r26, r0
    299e:	81 87       	std	Z+9, r24	; 0x09
    29a0:	92 87       	std	Z+10, r25	; 0x0a
    29a2:	a3 87       	std	Z+11, r26	; 0x0b
    29a4:	b4 87       	std	Z+12, r27	; 0x0c
    29a6:	fb 01       	movw	r30, r22
    29a8:	a7 89       	ldd	r26, Z+23	; 0x17
    29aa:	b0 8d       	ldd	r27, Z+24	; 0x18
    29ac:	8c 91       	ld	r24, X
    29ae:	85 3a       	cpi	r24, 0xA5	; 165
    29b0:	09 f0       	breq	.+2      	; 0x29b4 <vTaskGetRunTimeStats+0x7a8>
    29b2:	99 c1       	rjmp	.+818    	; 0x2ce6 <vTaskGetRunTimeStats+0xada>
    29b4:	20 e0       	ldi	r18, 0x00	; 0
    29b6:	30 e0       	ldi	r19, 0x00	; 0
    29b8:	40 e0       	ldi	r20, 0x00	; 0
    29ba:	50 e0       	ldi	r21, 0x00	; 0
    29bc:	2f 5f       	subi	r18, 0xFF	; 255
    29be:	3f 4f       	sbci	r19, 0xFF	; 255
    29c0:	4f 4f       	sbci	r20, 0xFF	; 255
    29c2:	5f 4f       	sbci	r21, 0xFF	; 255
    29c4:	fd 01       	movw	r30, r26
    29c6:	e2 0f       	add	r30, r18
    29c8:	f3 1f       	adc	r31, r19
    29ca:	80 81       	ld	r24, Z
    29cc:	85 3a       	cpi	r24, 0xA5	; 165
    29ce:	b1 f3       	breq	.-20     	; 0x29bc <vTaskGetRunTimeStats+0x7b0>
    29d0:	c9 01       	movw	r24, r18
    29d2:	d8 01       	movw	r26, r16
    29d4:	1e 96       	adiw	r26, 0x0e	; 14
    29d6:	9c 93       	st	X, r25
    29d8:	8e 93       	st	-X, r24
    29da:	1d 97       	sbiw	r26, 0x0d	; 13
    29dc:	d3 94       	inc	r13
    29de:	66 16       	cp	r6, r22
    29e0:	77 06       	cpc	r7, r23
    29e2:	b9 f0       	breq	.+46     	; 0x2a12 <vTaskGetRunTimeStats+0x806>
    29e4:	d7 01       	movw	r26, r14
    29e6:	11 96       	adiw	r26, 0x01	; 1
    29e8:	ed 91       	ld	r30, X+
    29ea:	fc 91       	ld	r31, X
    29ec:	12 97       	sbiw	r26, 0x02	; 2
    29ee:	82 81       	ldd	r24, Z+2	; 0x02
    29f0:	93 81       	ldd	r25, Z+3	; 0x03
    29f2:	f7 01       	movw	r30, r14
    29f4:	92 83       	std	Z+2, r25	; 0x02
    29f6:	81 83       	std	Z+1, r24	; 0x01
    29f8:	88 16       	cp	r8, r24
    29fa:	99 06       	cpc	r9, r25
    29fc:	09 f0       	breq	.+2      	; 0x2a00 <vTaskGetRunTimeStats+0x7f4>
    29fe:	a2 cf       	rjmp	.-188    	; 0x2944 <vTaskGetRunTimeStats+0x738>
    2a00:	d4 01       	movw	r26, r8
    2a02:	12 96       	adiw	r26, 0x02	; 2
    2a04:	8d 91       	ld	r24, X+
    2a06:	9c 91       	ld	r25, X
    2a08:	13 97       	sbiw	r26, 0x03	; 3
    2a0a:	92 83       	std	Z+2, r25	; 0x02
    2a0c:	81 83       	std	Z+1, r24	; 0x01
    2a0e:	9a cf       	rjmp	.-204    	; 0x2944 <vTaskGetRunTimeStats+0x738>
    2a10:	dd 24       	eor	r13, r13
    2a12:	ed 2c       	mov	r14, r13
    2a14:	ec 0c       	add	r14, r12
    2a16:	8f e0       	ldi	r24, 0x0F	; 15
    2a18:	e8 9e       	mul	r14, r24
    2a1a:	60 01       	movw	r12, r0
    2a1c:	11 24       	eor	r1, r1
    2a1e:	c4 0c       	add	r12, r4
    2a20:	d5 1c       	adc	r13, r5
    2a22:	80 91 cb 14 	lds	r24, 0x14CB
    2a26:	88 23       	and	r24, r24
    2a28:	09 f4       	brne	.+2      	; 0x2a2c <vTaskGetRunTimeStats+0x820>
    2a2a:	7c c0       	rjmp	.+248    	; 0x2b24 <vTaskGetRunTimeStats+0x918>
    2a2c:	e0 91 cc 14 	lds	r30, 0x14CC
    2a30:	f0 91 cd 14 	lds	r31, 0x14CD
    2a34:	02 80       	ldd	r0, Z+2	; 0x02
    2a36:	f3 81       	ldd	r31, Z+3	; 0x03
    2a38:	e0 2d       	mov	r30, r0
    2a3a:	f0 93 cd 14 	sts	0x14CD, r31
    2a3e:	e0 93 cc 14 	sts	0x14CC, r30
    2a42:	b4 e1       	ldi	r27, 0x14	; 20
    2a44:	ee 3c       	cpi	r30, 0xCE	; 206
    2a46:	fb 07       	cpc	r31, r27
    2a48:	09 f4       	brne	.+2      	; 0x2a4c <vTaskGetRunTimeStats+0x840>
    2a4a:	80 c1       	rjmp	.+768    	; 0x2d4c <vTaskGetRunTimeStats+0xb40>
    2a4c:	e0 91 cc 14 	lds	r30, 0x14CC
    2a50:	f0 91 cd 14 	lds	r31, 0x14CD
    2a54:	a6 80       	ldd	r10, Z+6	; 0x06
    2a56:	b7 80       	ldd	r11, Z+7	; 0x07
    2a58:	ff 24       	eor	r15, r15
    2a5a:	6f e0       	ldi	r22, 0x0F	; 15
    2a5c:	76 2e       	mov	r7, r22
    2a5e:	54 e0       	ldi	r21, 0x04	; 4
    2a60:	85 2e       	mov	r8, r21
    2a62:	91 2c       	mov	r9, r1
    2a64:	02 80       	ldd	r0, Z+2	; 0x02
    2a66:	f3 81       	ldd	r31, Z+3	; 0x03
    2a68:	e0 2d       	mov	r30, r0
    2a6a:	f0 93 cd 14 	sts	0x14CD, r31
    2a6e:	e0 93 cc 14 	sts	0x14CC, r30
    2a72:	44 e1       	ldi	r20, 0x14	; 20
    2a74:	ee 3c       	cpi	r30, 0xCE	; 206
    2a76:	f4 07       	cpc	r31, r20
    2a78:	09 f4       	brne	.+2      	; 0x2a7c <vTaskGetRunTimeStats+0x870>
    2a7a:	fd c0       	rjmp	.+506    	; 0x2c76 <vTaskGetRunTimeStats+0xa6a>
    2a7c:	e0 91 cc 14 	lds	r30, 0x14CC
    2a80:	f0 91 cd 14 	lds	r31, 0x14CD
    2a84:	66 81       	ldd	r22, Z+6	; 0x06
    2a86:	77 81       	ldd	r23, Z+7	; 0x07
    2a88:	f7 9c       	mul	r15, r7
    2a8a:	80 01       	movw	r16, r0
    2a8c:	11 24       	eor	r1, r1
    2a8e:	0c 0d       	add	r16, r12
    2a90:	1d 1d       	adc	r17, r13
    2a92:	d8 01       	movw	r26, r16
    2a94:	11 96       	adiw	r26, 0x01	; 1
    2a96:	7c 93       	st	X, r23
    2a98:	6e 93       	st	-X, r22
    2a9a:	67 5e       	subi	r22, 0xE7	; 231
    2a9c:	7f 4f       	sbci	r23, 0xFF	; 255
    2a9e:	13 96       	adiw	r26, 0x03	; 3
    2aa0:	7c 93       	st	X, r23
    2aa2:	6e 93       	st	-X, r22
    2aa4:	12 97       	sbiw	r26, 0x02	; 2
    2aa6:	69 51       	subi	r22, 0x19	; 25
    2aa8:	70 40       	sbci	r23, 0x00	; 0
    2aaa:	fb 01       	movw	r30, r22
    2aac:	81 a1       	ldd	r24, Z+33	; 0x21
    2aae:	14 96       	adiw	r26, 0x04	; 4
    2ab0:	8c 93       	st	X, r24
    2ab2:	14 97       	sbiw	r26, 0x04	; 4
    2ab4:	16 96       	adiw	r26, 0x06	; 6
    2ab6:	9c 92       	st	X, r9
    2ab8:	8e 92       	st	-X, r8
    2aba:	15 97       	sbiw	r26, 0x05	; 5
    2abc:	86 89       	ldd	r24, Z+22	; 0x16
    2abe:	17 96       	adiw	r26, 0x07	; 7
    2ac0:	8c 93       	st	X, r24
    2ac2:	17 97       	sbiw	r26, 0x07	; 7
    2ac4:	83 a1       	ldd	r24, Z+35	; 0x23
    2ac6:	18 96       	adiw	r26, 0x08	; 8
    2ac8:	8c 93       	st	X, r24
    2aca:	84 a1       	ldd	r24, Z+36	; 0x24
    2acc:	95 a1       	ldd	r25, Z+37	; 0x25
    2ace:	a6 a1       	ldd	r26, Z+38	; 0x26
    2ad0:	b7 a1       	ldd	r27, Z+39	; 0x27
    2ad2:	f8 01       	movw	r30, r16
    2ad4:	81 87       	std	Z+9, r24	; 0x09
    2ad6:	92 87       	std	Z+10, r25	; 0x0a
    2ad8:	a3 87       	std	Z+11, r26	; 0x0b
    2ada:	b4 87       	std	Z+12, r27	; 0x0c
    2adc:	fb 01       	movw	r30, r22
    2ade:	a7 89       	ldd	r26, Z+23	; 0x17
    2ae0:	b0 8d       	ldd	r27, Z+24	; 0x18
    2ae2:	8c 91       	ld	r24, X
    2ae4:	85 3a       	cpi	r24, 0xA5	; 165
    2ae6:	09 f0       	breq	.+2      	; 0x2aea <vTaskGetRunTimeStats+0x8de>
    2ae8:	fb c0       	rjmp	.+502    	; 0x2ce0 <vTaskGetRunTimeStats+0xad4>
    2aea:	20 e0       	ldi	r18, 0x00	; 0
    2aec:	30 e0       	ldi	r19, 0x00	; 0
    2aee:	40 e0       	ldi	r20, 0x00	; 0
    2af0:	50 e0       	ldi	r21, 0x00	; 0
    2af2:	2f 5f       	subi	r18, 0xFF	; 255
    2af4:	3f 4f       	sbci	r19, 0xFF	; 255
    2af6:	4f 4f       	sbci	r20, 0xFF	; 255
    2af8:	5f 4f       	sbci	r21, 0xFF	; 255
    2afa:	fd 01       	movw	r30, r26
    2afc:	e2 0f       	add	r30, r18
    2afe:	f3 1f       	adc	r31, r19
    2b00:	80 81       	ld	r24, Z
    2b02:	85 3a       	cpi	r24, 0xA5	; 165
    2b04:	b1 f3       	breq	.-20     	; 0x2af2 <vTaskGetRunTimeStats+0x8e6>
    2b06:	c9 01       	movw	r24, r18
    2b08:	d8 01       	movw	r26, r16
    2b0a:	1e 96       	adiw	r26, 0x0e	; 14
    2b0c:	9c 93       	st	X, r25
    2b0e:	8e 93       	st	-X, r24
    2b10:	1d 97       	sbiw	r26, 0x0d	; 13
    2b12:	f3 94       	inc	r15
    2b14:	a6 16       	cp	r10, r22
    2b16:	b7 06       	cpc	r11, r23
    2b18:	31 f0       	breq	.+12     	; 0x2b26 <vTaskGetRunTimeStats+0x91a>
    2b1a:	e0 91 cc 14 	lds	r30, 0x14CC
    2b1e:	f0 91 cd 14 	lds	r31, 0x14CD
    2b22:	a0 cf       	rjmp	.-192    	; 0x2a64 <vTaskGetRunTimeStats+0x858>
    2b24:	ff 24       	eor	r15, r15
    2b26:	ef 0c       	add	r14, r15
    2b28:	8f e0       	ldi	r24, 0x0F	; 15
    2b2a:	e8 9e       	mul	r14, r24
    2b2c:	60 01       	movw	r12, r0
    2b2e:	11 24       	eor	r1, r1
    2b30:	c4 0c       	add	r12, r4
    2b32:	d5 1c       	adc	r13, r5
    2b34:	80 91 d4 14 	lds	r24, 0x14D4
    2b38:	88 23       	and	r24, r24
    2b3a:	09 f4       	brne	.+2      	; 0x2b3e <vTaskGetRunTimeStats+0x932>
    2b3c:	8a c0       	rjmp	.+276    	; 0x2c52 <vTaskGetRunTimeStats+0xa46>
    2b3e:	e0 91 d5 14 	lds	r30, 0x14D5
    2b42:	f0 91 d6 14 	lds	r31, 0x14D6
    2b46:	02 80       	ldd	r0, Z+2	; 0x02
    2b48:	f3 81       	ldd	r31, Z+3	; 0x03
    2b4a:	e0 2d       	mov	r30, r0
    2b4c:	f0 93 d6 14 	sts	0x14D6, r31
    2b50:	e0 93 d5 14 	sts	0x14D5, r30
    2b54:	b4 e1       	ldi	r27, 0x14	; 20
    2b56:	e7 3d       	cpi	r30, 0xD7	; 215
    2b58:	fb 07       	cpc	r31, r27
    2b5a:	09 f4       	brne	.+2      	; 0x2b5e <vTaskGetRunTimeStats+0x952>
    2b5c:	dc c0       	rjmp	.+440    	; 0x2d16 <vTaskGetRunTimeStats+0xb0a>
    2b5e:	e0 91 d5 14 	lds	r30, 0x14D5
    2b62:	f0 91 d6 14 	lds	r31, 0x14D6
    2b66:	a6 80       	ldd	r10, Z+6	; 0x06
    2b68:	b7 80       	ldd	r11, Z+7	; 0x07
    2b6a:	ff 24       	eor	r15, r15
    2b6c:	43 e0       	ldi	r20, 0x03	; 3
    2b6e:	84 2e       	mov	r8, r20
    2b70:	91 2c       	mov	r9, r1
    2b72:	32 e0       	ldi	r19, 0x02	; 2
    2b74:	63 2e       	mov	r6, r19
    2b76:	71 2c       	mov	r7, r1
    2b78:	02 80       	ldd	r0, Z+2	; 0x02
    2b7a:	f3 81       	ldd	r31, Z+3	; 0x03
    2b7c:	e0 2d       	mov	r30, r0
    2b7e:	f0 93 d6 14 	sts	0x14D6, r31
    2b82:	e0 93 d5 14 	sts	0x14D5, r30
    2b86:	44 e1       	ldi	r20, 0x14	; 20
    2b88:	e7 3d       	cpi	r30, 0xD7	; 215
    2b8a:	f4 07       	cpc	r31, r20
    2b8c:	09 f4       	brne	.+2      	; 0x2b90 <vTaskGetRunTimeStats+0x984>
    2b8e:	6c c0       	rjmp	.+216    	; 0x2c68 <vTaskGetRunTimeStats+0xa5c>
    2b90:	e0 91 d5 14 	lds	r30, 0x14D5
    2b94:	f0 91 d6 14 	lds	r31, 0x14D6
    2b98:	66 81       	ldd	r22, Z+6	; 0x06
    2b9a:	77 81       	ldd	r23, Z+7	; 0x07
    2b9c:	5f e0       	ldi	r21, 0x0F	; 15
    2b9e:	f5 9e       	mul	r15, r21
    2ba0:	80 01       	movw	r16, r0
    2ba2:	11 24       	eor	r1, r1
    2ba4:	0c 0d       	add	r16, r12
    2ba6:	1d 1d       	adc	r17, r13
    2ba8:	d8 01       	movw	r26, r16
    2baa:	11 96       	adiw	r26, 0x01	; 1
    2bac:	7c 93       	st	X, r23
    2bae:	6e 93       	st	-X, r22
    2bb0:	67 5e       	subi	r22, 0xE7	; 231
    2bb2:	7f 4f       	sbci	r23, 0xFF	; 255
    2bb4:	13 96       	adiw	r26, 0x03	; 3
    2bb6:	7c 93       	st	X, r23
    2bb8:	6e 93       	st	-X, r22
    2bba:	12 97       	sbiw	r26, 0x02	; 2
    2bbc:	69 51       	subi	r22, 0x19	; 25
    2bbe:	70 40       	sbci	r23, 0x00	; 0
    2bc0:	fb 01       	movw	r30, r22
    2bc2:	81 a1       	ldd	r24, Z+33	; 0x21
    2bc4:	14 96       	adiw	r26, 0x04	; 4
    2bc6:	8c 93       	st	X, r24
    2bc8:	14 97       	sbiw	r26, 0x04	; 4
    2bca:	16 96       	adiw	r26, 0x06	; 6
    2bcc:	9c 92       	st	X, r9
    2bce:	8e 92       	st	-X, r8
    2bd0:	15 97       	sbiw	r26, 0x05	; 5
    2bd2:	86 89       	ldd	r24, Z+22	; 0x16
    2bd4:	17 96       	adiw	r26, 0x07	; 7
    2bd6:	8c 93       	st	X, r24
    2bd8:	17 97       	sbiw	r26, 0x07	; 7
    2bda:	84 89       	ldd	r24, Z+20	; 0x14
    2bdc:	95 89       	ldd	r25, Z+21	; 0x15
    2bde:	89 2b       	or	r24, r25
    2be0:	21 f0       	breq	.+8      	; 0x2bea <vTaskGetRunTimeStats+0x9de>
    2be2:	16 96       	adiw	r26, 0x06	; 6
    2be4:	7c 92       	st	X, r7
    2be6:	6e 92       	st	-X, r6
    2be8:	15 97       	sbiw	r26, 0x05	; 5
    2bea:	db 01       	movw	r26, r22
    2bec:	93 96       	adiw	r26, 0x23	; 35
    2bee:	8c 91       	ld	r24, X
    2bf0:	93 97       	sbiw	r26, 0x23	; 35
    2bf2:	f8 01       	movw	r30, r16
    2bf4:	80 87       	std	Z+8, r24	; 0x08
    2bf6:	94 96       	adiw	r26, 0x24	; 36
    2bf8:	8d 91       	ld	r24, X+
    2bfa:	9d 91       	ld	r25, X+
    2bfc:	0d 90       	ld	r0, X+
    2bfe:	bc 91       	ld	r27, X
    2c00:	a0 2d       	mov	r26, r0
    2c02:	81 87       	std	Z+9, r24	; 0x09
    2c04:	92 87       	std	Z+10, r25	; 0x0a
    2c06:	a3 87       	std	Z+11, r26	; 0x0b
    2c08:	b4 87       	std	Z+12, r27	; 0x0c
    2c0a:	fb 01       	movw	r30, r22
    2c0c:	a7 89       	ldd	r26, Z+23	; 0x17
    2c0e:	b0 8d       	ldd	r27, Z+24	; 0x18
    2c10:	8c 91       	ld	r24, X
    2c12:	85 3a       	cpi	r24, 0xA5	; 165
    2c14:	09 f0       	breq	.+2      	; 0x2c18 <vTaskGetRunTimeStats+0xa0c>
    2c16:	72 c0       	rjmp	.+228    	; 0x2cfc <vTaskGetRunTimeStats+0xaf0>
    2c18:	20 e0       	ldi	r18, 0x00	; 0
    2c1a:	30 e0       	ldi	r19, 0x00	; 0
    2c1c:	40 e0       	ldi	r20, 0x00	; 0
    2c1e:	50 e0       	ldi	r21, 0x00	; 0
    2c20:	2f 5f       	subi	r18, 0xFF	; 255
    2c22:	3f 4f       	sbci	r19, 0xFF	; 255
    2c24:	4f 4f       	sbci	r20, 0xFF	; 255
    2c26:	5f 4f       	sbci	r21, 0xFF	; 255
    2c28:	fd 01       	movw	r30, r26
    2c2a:	e2 0f       	add	r30, r18
    2c2c:	f3 1f       	adc	r31, r19
    2c2e:	80 81       	ld	r24, Z
    2c30:	85 3a       	cpi	r24, 0xA5	; 165
    2c32:	b1 f3       	breq	.-20     	; 0x2c20 <vTaskGetRunTimeStats+0xa14>
    2c34:	c9 01       	movw	r24, r18
    2c36:	d8 01       	movw	r26, r16
    2c38:	1e 96       	adiw	r26, 0x0e	; 14
    2c3a:	9c 93       	st	X, r25
    2c3c:	8e 93       	st	-X, r24
    2c3e:	1d 97       	sbiw	r26, 0x0d	; 13
    2c40:	f3 94       	inc	r15
    2c42:	a6 16       	cp	r10, r22
    2c44:	b7 06       	cpc	r11, r23
    2c46:	31 f0       	breq	.+12     	; 0x2c54 <vTaskGetRunTimeStats+0xa48>
    2c48:	e0 91 d5 14 	lds	r30, 0x14D5
    2c4c:	f0 91 d6 14 	lds	r31, 0x14D6
    2c50:	93 cf       	rjmp	.-218    	; 0x2b78 <vTaskGetRunTimeStats+0x96c>
    2c52:	ff 24       	eor	r15, r15
    2c54:	fe 0c       	add	r15, r14
    2c56:	fb 82       	std	Y+3, r15	; 0x03
    2c58:	80 91 84 00 	lds	r24, 0x0084
    2c5c:	90 91 85 00 	lds	r25, 0x0085
    2c60:	3c 01       	movw	r6, r24
    2c62:	88 24       	eor	r8, r8
    2c64:	99 24       	eor	r9, r9
    2c66:	9c cb       	rjmp	.-2248   	; 0x23a0 <vTaskGetRunTimeStats+0x194>
    2c68:	82 81       	ldd	r24, Z+2	; 0x02
    2c6a:	93 81       	ldd	r25, Z+3	; 0x03
    2c6c:	90 93 d6 14 	sts	0x14D6, r25
    2c70:	80 93 d5 14 	sts	0x14D5, r24
    2c74:	8d cf       	rjmp	.-230    	; 0x2b90 <vTaskGetRunTimeStats+0x984>
    2c76:	82 81       	ldd	r24, Z+2	; 0x02
    2c78:	93 81       	ldd	r25, Z+3	; 0x03
    2c7a:	90 93 cd 14 	sts	0x14CD, r25
    2c7e:	80 93 cc 14 	sts	0x14CC, r24
    2c82:	fc ce       	rjmp	.-520    	; 0x2a7c <vTaskGetRunTimeStats+0x870>
    2c84:	b1 e0       	ldi	r27, 0x01	; 1
    2c86:	b0 93 77 14 	sts	0x1477, r27
    2c8a:	2b cd       	rjmp	.-1450   	; 0x26e2 <vTaskGetRunTimeStats+0x4d6>
    2c8c:	bb 24       	eor	r11, r11
    2c8e:	e0 91 73 14 	lds	r30, 0x1473
    2c92:	f0 91 74 14 	lds	r31, 0x1474
    2c96:	86 89       	ldd	r24, Z+22	; 0x16
    2c98:	90 e0       	ldi	r25, 0x00	; 0
    2c9a:	fc 01       	movw	r30, r24
    2c9c:	ee 0f       	add	r30, r30
    2c9e:	ff 1f       	adc	r31, r31
    2ca0:	ee 0f       	add	r30, r30
    2ca2:	ff 1f       	adc	r31, r31
    2ca4:	ee 0f       	add	r30, r30
    2ca6:	ff 1f       	adc	r31, r31
    2ca8:	e8 0f       	add	r30, r24
    2caa:	f9 1f       	adc	r31, r25
    2cac:	e8 57       	subi	r30, 0x78	; 120
    2cae:	fb 4e       	sbci	r31, 0xEB	; 235
    2cb0:	80 81       	ld	r24, Z
    2cb2:	82 30       	cpi	r24, 0x02	; 2
    2cb4:	08 f4       	brcc	.+2      	; 0x2cb8 <vTaskGetRunTimeStats+0xaac>
    2cb6:	0d cd       	rjmp	.-1510   	; 0x26d2 <vTaskGetRunTimeStats+0x4c6>
    2cb8:	bb 24       	eor	r11, r11
    2cba:	b3 94       	inc	r11
    2cbc:	0a cd       	rjmp	.-1516   	; 0x26d2 <vTaskGetRunTimeStats+0x4c6>
    2cbe:	e0 91 be 14 	lds	r30, 0x14BE
    2cc2:	f0 91 bf 14 	lds	r31, 0x14BF
    2cc6:	05 80       	ldd	r0, Z+5	; 0x05
    2cc8:	f6 81       	ldd	r31, Z+6	; 0x06
    2cca:	e0 2d       	mov	r30, r0
    2ccc:	06 80       	ldd	r0, Z+6	; 0x06
    2cce:	f7 81       	ldd	r31, Z+7	; 0x07
    2cd0:	e0 2d       	mov	r30, r0
    2cd2:	82 81       	ldd	r24, Z+2	; 0x02
    2cd4:	93 81       	ldd	r25, Z+3	; 0x03
    2cd6:	90 93 41 02 	sts	0x0241, r25
    2cda:	80 93 40 02 	sts	0x0240, r24
    2cde:	f1 cb       	rjmp	.-2078   	; 0x24c2 <vTaskGetRunTimeStats+0x2b6>
    2ce0:	80 e0       	ldi	r24, 0x00	; 0
    2ce2:	90 e0       	ldi	r25, 0x00	; 0
    2ce4:	11 cf       	rjmp	.-478    	; 0x2b08 <vTaskGetRunTimeStats+0x8fc>
    2ce6:	80 e0       	ldi	r24, 0x00	; 0
    2ce8:	90 e0       	ldi	r25, 0x00	; 0
    2cea:	73 ce       	rjmp	.-794    	; 0x29d2 <vTaskGetRunTimeStats+0x7c6>
    2cec:	80 e0       	ldi	r24, 0x00	; 0
    2cee:	90 e0       	ldi	r25, 0x00	; 0
    2cf0:	ca cc       	rjmp	.-1644   	; 0x2686 <vTaskGetRunTimeStats+0x47a>
    2cf2:	90 93 41 02 	sts	0x0241, r25
    2cf6:	80 93 40 02 	sts	0x0240, r24
    2cfa:	c9 cf       	rjmp	.-110    	; 0x2c8e <vTaskGetRunTimeStats+0xa82>
    2cfc:	80 e0       	ldi	r24, 0x00	; 0
    2cfe:	90 e0       	ldi	r25, 0x00	; 0
    2d00:	9a cf       	rjmp	.-204    	; 0x2c36 <vTaskGetRunTimeStats+0xa2a>
    2d02:	82 81       	ldd	r24, Z+2	; 0x02
    2d04:	93 81       	ldd	r25, Z+3	; 0x03
    2d06:	11 96       	adiw	r26, 0x01	; 1
    2d08:	8c 93       	st	X, r24
    2d0a:	11 97       	sbiw	r26, 0x01	; 1
    2d0c:	12 96       	adiw	r26, 0x02	; 2
    2d0e:	9c 93       	st	X, r25
    2d10:	9c 01       	movw	r18, r24
    2d12:	f9 01       	movw	r30, r18
    2d14:	ca ca       	rjmp	.-2668   	; 0x22aa <vTaskGetRunTimeStats+0x9e>
    2d16:	82 81       	ldd	r24, Z+2	; 0x02
    2d18:	93 81       	ldd	r25, Z+3	; 0x03
    2d1a:	90 93 d6 14 	sts	0x14D6, r25
    2d1e:	80 93 d5 14 	sts	0x14D5, r24
    2d22:	1d cf       	rjmp	.-454    	; 0x2b5e <vTaskGetRunTimeStats+0x952>
    2d24:	82 81       	ldd	r24, Z+2	; 0x02
    2d26:	93 81       	ldd	r25, Z+3	; 0x03
    2d28:	11 96       	adiw	r26, 0x01	; 1
    2d2a:	8c 93       	st	X, r24
    2d2c:	11 97       	sbiw	r26, 0x01	; 1
    2d2e:	12 96       	adiw	r26, 0x02	; 2
    2d30:	9c 93       	st	X, r25
    2d32:	9c 01       	movw	r18, r24
    2d34:	f9 01       	movw	r30, r18
    2d36:	53 cc       	rjmp	.-1882   	; 0x25de <vTaskGetRunTimeStats+0x3d2>
    2d38:	82 81       	ldd	r24, Z+2	; 0x02
    2d3a:	93 81       	ldd	r25, Z+3	; 0x03
    2d3c:	11 96       	adiw	r26, 0x01	; 1
    2d3e:	8c 93       	st	X, r24
    2d40:	11 97       	sbiw	r26, 0x01	; 1
    2d42:	12 96       	adiw	r26, 0x02	; 2
    2d44:	9c 93       	st	X, r25
    2d46:	9c 01       	movw	r18, r24
    2d48:	f9 01       	movw	r30, r18
    2d4a:	f0 cd       	rjmp	.-1056   	; 0x292c <vTaskGetRunTimeStats+0x720>
    2d4c:	82 81       	ldd	r24, Z+2	; 0x02
    2d4e:	93 81       	ldd	r25, Z+3	; 0x03
    2d50:	90 93 cd 14 	sts	0x14CD, r25
    2d54:	80 93 cc 14 	sts	0x14CC, r24
    2d58:	79 ce       	rjmp	.-782    	; 0x2a4c <vTaskGetRunTimeStats+0x840>

00002d5a <vTaskList>:
    2d5a:	a3 e0       	ldi	r26, 0x03	; 3
    2d5c:	b0 e0       	ldi	r27, 0x00	; 0
    2d5e:	e3 eb       	ldi	r30, 0xB3	; 179
    2d60:	f6 e1       	ldi	r31, 0x16	; 22
    2d62:	0c 94 91 2c 	jmp	0x5922	; 0x5922 <__prologue_saves__>
    2d66:	1c 01       	movw	r2, r24
    2d68:	dc 01       	movw	r26, r24
    2d6a:	1c 92       	st	X, r1
    2d6c:	80 91 75 14 	lds	r24, 0x1475
    2d70:	89 83       	std	Y+1, r24	; 0x01
    2d72:	90 91 75 14 	lds	r25, 0x1475
    2d76:	8f e0       	ldi	r24, 0x0F	; 15
    2d78:	98 9f       	mul	r25, r24
    2d7a:	c0 01       	movw	r24, r0
    2d7c:	11 24       	eor	r1, r1
    2d7e:	0e 94 b1 09 	call	0x1362	; 0x1362 <pvPortMalloc>
    2d82:	5c 01       	movw	r10, r24
    2d84:	00 97       	sbiw	r24, 0x00	; 0
    2d86:	09 f4       	brne	.+2      	; 0x2d8a <vTaskList+0x30>
    2d88:	ad c0       	rjmp	.+346    	; 0x2ee4 <vTaskList+0x18a>
    2d8a:	89 81       	ldd	r24, Y+1	; 0x01
    2d8c:	90 91 7b 14 	lds	r25, 0x147B
    2d90:	9f 5f       	subi	r25, 0xFF	; 255
    2d92:	90 93 7b 14 	sts	0x147B, r25
    2d96:	90 91 75 14 	lds	r25, 0x1475
    2d9a:	89 17       	cp	r24, r25
    2d9c:	08 f4       	brcc	.+2      	; 0x2da0 <vTaskList+0x46>
    2d9e:	a6 c0       	rjmp	.+332    	; 0x2eec <vTaskList+0x192>
    2da0:	64 e0       	ldi	r22, 0x04	; 4
    2da2:	c6 2e       	mov	r12, r22
    2da4:	1b 82       	std	Y+3, r1	; 0x03
    2da6:	ca 94       	dec	r12
    2da8:	bb 81       	ldd	r27, Y+3	; 0x03
    2daa:	ef e0       	ldi	r30, 0x0F	; 15
    2dac:	be 9f       	mul	r27, r30
    2dae:	40 01       	movw	r8, r0
    2db0:	11 24       	eor	r1, r1
    2db2:	8a 0c       	add	r8, r10
    2db4:	9b 1c       	adc	r9, r11
    2db6:	f9 e0       	ldi	r31, 0x09	; 9
    2db8:	cf 9e       	mul	r12, r31
    2dba:	70 01       	movw	r14, r0
    2dbc:	11 24       	eor	r1, r1
    2dbe:	28 e8       	ldi	r18, 0x88	; 136
    2dc0:	34 e1       	ldi	r19, 0x14	; 20
    2dc2:	e2 0e       	add	r14, r18
    2dc4:	f3 1e       	adc	r15, r19
    2dc6:	d7 01       	movw	r26, r14
    2dc8:	8c 91       	ld	r24, X
    2dca:	88 23       	and	r24, r24
    2dcc:	09 f4       	brne	.+2      	; 0x2dd0 <vTaskList+0x76>
    2dce:	82 c1       	rjmp	.+772    	; 0x30d4 <vTaskList+0x37a>
    2dd0:	11 96       	adiw	r26, 0x01	; 1
    2dd2:	ed 91       	ld	r30, X+
    2dd4:	fc 91       	ld	r31, X
    2dd6:	12 97       	sbiw	r26, 0x02	; 2
    2dd8:	02 80       	ldd	r0, Z+2	; 0x02
    2dda:	f3 81       	ldd	r31, Z+3	; 0x03
    2ddc:	e0 2d       	mov	r30, r0
    2dde:	12 96       	adiw	r26, 0x02	; 2
    2de0:	fc 93       	st	X, r31
    2de2:	ee 93       	st	-X, r30
    2de4:	11 97       	sbiw	r26, 0x01	; 1
    2de6:	53 e0       	ldi	r21, 0x03	; 3
    2de8:	65 2e       	mov	r6, r21
    2dea:	71 2c       	mov	r7, r1
    2dec:	6e 0c       	add	r6, r14
    2dee:	7f 1c       	adc	r7, r15
    2df0:	e6 15       	cp	r30, r6
    2df2:	f7 05       	cpc	r31, r7
    2df4:	09 f4       	brne	.+2      	; 0x2df8 <vTaskList+0x9e>
    2df6:	fe c4       	rjmp	.+2556   	; 0x37f4 <vTaskList+0xa9a>
    2df8:	46 80       	ldd	r4, Z+6	; 0x06
    2dfa:	57 80       	ldd	r5, Z+7	; 0x07
    2dfc:	dd 24       	eor	r13, r13
    2dfe:	82 81       	ldd	r24, Z+2	; 0x02
    2e00:	93 81       	ldd	r25, Z+3	; 0x03
    2e02:	f7 01       	movw	r30, r14
    2e04:	92 83       	std	Z+2, r25	; 0x02
    2e06:	81 83       	std	Z+1, r24	; 0x01
    2e08:	68 16       	cp	r6, r24
    2e0a:	79 06       	cpc	r7, r25
    2e0c:	09 f4       	brne	.+2      	; 0x2e10 <vTaskList+0xb6>
    2e0e:	5f c0       	rjmp	.+190    	; 0x2ece <vTaskList+0x174>
    2e10:	d7 01       	movw	r26, r14
    2e12:	11 96       	adiw	r26, 0x01	; 1
    2e14:	ed 91       	ld	r30, X+
    2e16:	fc 91       	ld	r31, X
    2e18:	12 97       	sbiw	r26, 0x02	; 2
    2e1a:	66 81       	ldd	r22, Z+6	; 0x06
    2e1c:	77 81       	ldd	r23, Z+7	; 0x07
    2e1e:	bf e0       	ldi	r27, 0x0F	; 15
    2e20:	db 9e       	mul	r13, r27
    2e22:	80 01       	movw	r16, r0
    2e24:	11 24       	eor	r1, r1
    2e26:	08 0d       	add	r16, r8
    2e28:	19 1d       	adc	r17, r9
    2e2a:	f8 01       	movw	r30, r16
    2e2c:	71 83       	std	Z+1, r23	; 0x01
    2e2e:	60 83       	st	Z, r22
    2e30:	67 5e       	subi	r22, 0xE7	; 231
    2e32:	7f 4f       	sbci	r23, 0xFF	; 255
    2e34:	73 83       	std	Z+3, r23	; 0x03
    2e36:	62 83       	std	Z+2, r22	; 0x02
    2e38:	69 51       	subi	r22, 0x19	; 25
    2e3a:	70 40       	sbci	r23, 0x00	; 0
    2e3c:	db 01       	movw	r26, r22
    2e3e:	91 96       	adiw	r26, 0x21	; 33
    2e40:	8c 91       	ld	r24, X
    2e42:	91 97       	sbiw	r26, 0x21	; 33
    2e44:	84 83       	std	Z+4, r24	; 0x04
    2e46:	21 e0       	ldi	r18, 0x01	; 1
    2e48:	30 e0       	ldi	r19, 0x00	; 0
    2e4a:	36 83       	std	Z+6, r19	; 0x06
    2e4c:	25 83       	std	Z+5, r18	; 0x05
    2e4e:	56 96       	adiw	r26, 0x16	; 22
    2e50:	8c 91       	ld	r24, X
    2e52:	56 97       	sbiw	r26, 0x16	; 22
    2e54:	87 83       	std	Z+7, r24	; 0x07
    2e56:	93 96       	adiw	r26, 0x23	; 35
    2e58:	8c 91       	ld	r24, X
    2e5a:	93 97       	sbiw	r26, 0x23	; 35
    2e5c:	80 87       	std	Z+8, r24	; 0x08
    2e5e:	94 96       	adiw	r26, 0x24	; 36
    2e60:	8d 91       	ld	r24, X+
    2e62:	9d 91       	ld	r25, X+
    2e64:	0d 90       	ld	r0, X+
    2e66:	bc 91       	ld	r27, X
    2e68:	a0 2d       	mov	r26, r0
    2e6a:	81 87       	std	Z+9, r24	; 0x09
    2e6c:	92 87       	std	Z+10, r25	; 0x0a
    2e6e:	a3 87       	std	Z+11, r26	; 0x0b
    2e70:	b4 87       	std	Z+12, r27	; 0x0c
    2e72:	fb 01       	movw	r30, r22
    2e74:	a7 89       	ldd	r26, Z+23	; 0x17
    2e76:	b0 8d       	ldd	r27, Z+24	; 0x18
    2e78:	8c 91       	ld	r24, X
    2e7a:	85 3a       	cpi	r24, 0xA5	; 165
    2e7c:	09 f0       	breq	.+2      	; 0x2e80 <vTaskList+0x126>
    2e7e:	ae c2       	rjmp	.+1372   	; 0x33dc <vTaskList+0x682>
    2e80:	20 e0       	ldi	r18, 0x00	; 0
    2e82:	30 e0       	ldi	r19, 0x00	; 0
    2e84:	40 e0       	ldi	r20, 0x00	; 0
    2e86:	50 e0       	ldi	r21, 0x00	; 0
    2e88:	2f 5f       	subi	r18, 0xFF	; 255
    2e8a:	3f 4f       	sbci	r19, 0xFF	; 255
    2e8c:	4f 4f       	sbci	r20, 0xFF	; 255
    2e8e:	5f 4f       	sbci	r21, 0xFF	; 255
    2e90:	fd 01       	movw	r30, r26
    2e92:	e2 0f       	add	r30, r18
    2e94:	f3 1f       	adc	r31, r19
    2e96:	80 81       	ld	r24, Z
    2e98:	85 3a       	cpi	r24, 0xA5	; 165
    2e9a:	b1 f3       	breq	.-20     	; 0x2e88 <vTaskList+0x12e>
    2e9c:	c9 01       	movw	r24, r18
    2e9e:	d8 01       	movw	r26, r16
    2ea0:	1e 96       	adiw	r26, 0x0e	; 14
    2ea2:	9c 93       	st	X, r25
    2ea4:	8e 93       	st	-X, r24
    2ea6:	1d 97       	sbiw	r26, 0x0d	; 13
    2ea8:	d3 94       	inc	r13
    2eaa:	46 16       	cp	r4, r22
    2eac:	57 06       	cpc	r5, r23
    2eae:	09 f4       	brne	.+2      	; 0x2eb2 <vTaskList+0x158>
    2eb0:	12 c1       	rjmp	.+548    	; 0x30d6 <vTaskList+0x37c>
    2eb2:	d7 01       	movw	r26, r14
    2eb4:	11 96       	adiw	r26, 0x01	; 1
    2eb6:	ed 91       	ld	r30, X+
    2eb8:	fc 91       	ld	r31, X
    2eba:	12 97       	sbiw	r26, 0x02	; 2
    2ebc:	82 81       	ldd	r24, Z+2	; 0x02
    2ebe:	93 81       	ldd	r25, Z+3	; 0x03
    2ec0:	f7 01       	movw	r30, r14
    2ec2:	92 83       	std	Z+2, r25	; 0x02
    2ec4:	81 83       	std	Z+1, r24	; 0x01
    2ec6:	68 16       	cp	r6, r24
    2ec8:	79 06       	cpc	r7, r25
    2eca:	09 f0       	breq	.+2      	; 0x2ece <vTaskList+0x174>
    2ecc:	a1 cf       	rjmp	.-190    	; 0x2e10 <vTaskList+0xb6>
    2ece:	d3 01       	movw	r26, r6
    2ed0:	12 96       	adiw	r26, 0x02	; 2
    2ed2:	8d 91       	ld	r24, X+
    2ed4:	9c 91       	ld	r25, X
    2ed6:	13 97       	sbiw	r26, 0x03	; 3
    2ed8:	92 83       	std	Z+2, r25	; 0x02
    2eda:	81 83       	std	Z+1, r24	; 0x01
    2edc:	99 cf       	rjmp	.-206    	; 0x2e10 <vTaskList+0xb6>
    2ede:	c5 01       	movw	r24, r10
    2ee0:	0e 94 3e 09 	call	0x127c	; 0x127c <vPortFree>
    2ee4:	23 96       	adiw	r28, 0x03	; 3
    2ee6:	e2 e1       	ldi	r30, 0x12	; 18
    2ee8:	0c 94 ad 2c 	jmp	0x595a	; 0x595a <__epilogue_restores__>
    2eec:	77 24       	eor	r7, r7
    2eee:	0f b6       	in	r0, 0x3f	; 63
    2ef0:	f8 94       	cli
    2ef2:	0f 92       	push	r0
    2ef4:	80 91 7b 14 	lds	r24, 0x147B
    2ef8:	81 50       	subi	r24, 0x01	; 1
    2efa:	80 93 7b 14 	sts	0x147B, r24
    2efe:	80 91 7b 14 	lds	r24, 0x147B
    2f02:	88 23       	and	r24, r24
    2f04:	09 f0       	breq	.+2      	; 0x2f08 <vTaskList+0x1ae>
    2f06:	a2 c1       	rjmp	.+836    	; 0x324c <vTaskList+0x4f2>
    2f08:	80 91 75 14 	lds	r24, 0x1475
    2f0c:	88 23       	and	r24, r24
    2f0e:	09 f4       	brne	.+2      	; 0x2f12 <vTaskList+0x1b8>
    2f10:	9d c1       	rjmp	.+826    	; 0x324c <vTaskList+0x4f2>
    2f12:	a9 e0       	ldi	r26, 0x09	; 9
    2f14:	da 2e       	mov	r13, r26
    2f16:	cc 24       	eor	r12, r12
    2f18:	c3 94       	inc	r12
    2f1a:	80 91 c2 14 	lds	r24, 0x14C2
    2f1e:	88 23       	and	r24, r24
    2f20:	99 f1       	breq	.+102    	; 0x2f88 <vTaskList+0x22e>
    2f22:	e0 91 c7 14 	lds	r30, 0x14C7
    2f26:	f0 91 c8 14 	lds	r31, 0x14C8
    2f2a:	06 81       	ldd	r16, Z+6	; 0x06
    2f2c:	17 81       	ldd	r17, Z+7	; 0x07
    2f2e:	c8 01       	movw	r24, r16
    2f30:	0c 96       	adiw	r24, 0x0c	; 12
    2f32:	0e 94 56 25 	call	0x4aac	; 0x4aac <uxListRemove>
    2f36:	b2 e0       	ldi	r27, 0x02	; 2
    2f38:	eb 2e       	mov	r14, r27
    2f3a:	f1 2c       	mov	r15, r1
    2f3c:	e0 0e       	add	r14, r16
    2f3e:	f1 1e       	adc	r15, r17
    2f40:	c7 01       	movw	r24, r14
    2f42:	0e 94 56 25 	call	0x4aac	; 0x4aac <uxListRemove>
    2f46:	f8 01       	movw	r30, r16
    2f48:	96 89       	ldd	r25, Z+22	; 0x16
    2f4a:	80 91 76 14 	lds	r24, 0x1476
    2f4e:	89 17       	cp	r24, r25
    2f50:	18 f4       	brcc	.+6      	; 0x2f58 <vTaskList+0x1fe>
    2f52:	90 93 76 14 	sts	0x1476, r25
    2f56:	96 89       	ldd	r25, Z+22	; 0x16
    2f58:	9d 9d       	mul	r25, r13
    2f5a:	c0 01       	movw	r24, r0
    2f5c:	11 24       	eor	r1, r1
    2f5e:	88 57       	subi	r24, 0x78	; 120
    2f60:	9b 4e       	sbci	r25, 0xEB	; 235
    2f62:	b7 01       	movw	r22, r14
    2f64:	0e 94 05 25 	call	0x4a0a	; 0x4a0a <vListInsertEnd>
    2f68:	e0 91 73 14 	lds	r30, 0x1473
    2f6c:	f0 91 74 14 	lds	r31, 0x1474
    2f70:	d8 01       	movw	r26, r16
    2f72:	56 96       	adiw	r26, 0x16	; 22
    2f74:	9c 91       	ld	r25, X
    2f76:	86 89       	ldd	r24, Z+22	; 0x16
    2f78:	98 17       	cp	r25, r24
    2f7a:	78 f2       	brcs	.-98     	; 0x2f1a <vTaskList+0x1c0>
    2f7c:	c0 92 77 14 	sts	0x1477, r12
    2f80:	80 91 c2 14 	lds	r24, 0x14C2
    2f84:	88 23       	and	r24, r24
    2f86:	69 f6       	brne	.-102    	; 0x2f22 <vTaskList+0x1c8>
    2f88:	80 91 84 14 	lds	r24, 0x1484
    2f8c:	88 23       	and	r24, r24
    2f8e:	09 f4       	brne	.+2      	; 0x2f92 <vTaskList+0x238>
    2f90:	57 c1       	rjmp	.+686    	; 0x3240 <vTaskList+0x4e6>
    2f92:	80 91 84 14 	lds	r24, 0x1484
    2f96:	88 23       	and	r24, r24
    2f98:	09 f4       	brne	.+2      	; 0x2f9c <vTaskList+0x242>
    2f9a:	52 c1       	rjmp	.+676    	; 0x3240 <vTaskList+0x4e6>
    2f9c:	f9 e0       	ldi	r31, 0x09	; 9
    2f9e:	cf 2e       	mov	r12, r31
    2fa0:	44 24       	eor	r4, r4
    2fa2:	4a 94       	dec	r4
    2fa4:	54 2c       	mov	r5, r4
    2fa6:	66 24       	eor	r6, r6
    2fa8:	63 94       	inc	r6
    2faa:	80 91 7b 14 	lds	r24, 0x147B
    2fae:	88 23       	and	r24, r24
    2fb0:	09 f0       	breq	.+2      	; 0x2fb4 <vTaskList+0x25a>
    2fb2:	2e c1       	rjmp	.+604    	; 0x3210 <vTaskList+0x4b6>
    2fb4:	80 91 78 14 	lds	r24, 0x1478
    2fb8:	90 91 79 14 	lds	r25, 0x1479
    2fbc:	01 96       	adiw	r24, 0x01	; 1
    2fbe:	90 93 79 14 	sts	0x1479, r25
    2fc2:	80 93 78 14 	sts	0x1478, r24
    2fc6:	80 90 78 14 	lds	r8, 0x1478
    2fca:	90 90 79 14 	lds	r9, 0x1479
    2fce:	81 14       	cp	r8, r1
    2fd0:	91 04       	cpc	r9, r1
    2fd2:	09 f5       	brne	.+66     	; 0x3016 <vTaskList+0x2bc>
    2fd4:	20 91 be 14 	lds	r18, 0x14BE
    2fd8:	30 91 bf 14 	lds	r19, 0x14BF
    2fdc:	80 91 c0 14 	lds	r24, 0x14C0
    2fe0:	90 91 c1 14 	lds	r25, 0x14C1
    2fe4:	90 93 bf 14 	sts	0x14BF, r25
    2fe8:	80 93 be 14 	sts	0x14BE, r24
    2fec:	30 93 c1 14 	sts	0x14C1, r19
    2ff0:	20 93 c0 14 	sts	0x14C0, r18
    2ff4:	80 91 7a 14 	lds	r24, 0x147A
    2ff8:	8f 5f       	subi	r24, 0xFF	; 255
    2ffa:	80 93 7a 14 	sts	0x147A, r24
    2ffe:	e0 91 be 14 	lds	r30, 0x14BE
    3002:	f0 91 bf 14 	lds	r31, 0x14BF
    3006:	80 81       	ld	r24, Z
    3008:	88 23       	and	r24, r24
    300a:	09 f0       	breq	.+2      	; 0x300e <vTaskList+0x2b4>
    300c:	d1 c3       	rjmp	.+1954   	; 0x37b0 <vTaskList+0xa56>
    300e:	50 92 41 02 	sts	0x0241, r5
    3012:	40 92 40 02 	sts	0x0240, r4
    3016:	80 91 40 02 	lds	r24, 0x0240
    301a:	90 91 41 02 	lds	r25, 0x0241
    301e:	88 16       	cp	r8, r24
    3020:	99 06       	cpc	r9, r25
    3022:	08 f4       	brcc	.+2      	; 0x3026 <vTaskList+0x2cc>
    3024:	ac c3       	rjmp	.+1880   	; 0x377e <vTaskList+0xa24>
    3026:	dd 24       	eor	r13, r13
    3028:	e0 91 be 14 	lds	r30, 0x14BE
    302c:	f0 91 bf 14 	lds	r31, 0x14BF
    3030:	80 81       	ld	r24, Z
    3032:	88 23       	and	r24, r24
    3034:	09 f4       	brne	.+2      	; 0x3038 <vTaskList+0x2de>
    3036:	49 c0       	rjmp	.+146    	; 0x30ca <vTaskList+0x370>
    3038:	e0 91 be 14 	lds	r30, 0x14BE
    303c:	f0 91 bf 14 	lds	r31, 0x14BF
    3040:	05 80       	ldd	r0, Z+5	; 0x05
    3042:	f6 81       	ldd	r31, Z+6	; 0x06
    3044:	e0 2d       	mov	r30, r0
    3046:	06 81       	ldd	r16, Z+6	; 0x06
    3048:	17 81       	ldd	r17, Z+7	; 0x07
    304a:	f8 01       	movw	r30, r16
    304c:	82 81       	ldd	r24, Z+2	; 0x02
    304e:	93 81       	ldd	r25, Z+3	; 0x03
    3050:	88 16       	cp	r8, r24
    3052:	99 06       	cpc	r9, r25
    3054:	08 f4       	brcc	.+2      	; 0x3058 <vTaskList+0x2fe>
    3056:	c6 c3       	rjmp	.+1932   	; 0x37e4 <vTaskList+0xa8a>
    3058:	e2 e0       	ldi	r30, 0x02	; 2
    305a:	ee 2e       	mov	r14, r30
    305c:	f1 2c       	mov	r15, r1
    305e:	e0 0e       	add	r14, r16
    3060:	f1 1e       	adc	r15, r17
    3062:	c7 01       	movw	r24, r14
    3064:	0e 94 56 25 	call	0x4aac	; 0x4aac <uxListRemove>
    3068:	d8 01       	movw	r26, r16
    306a:	54 96       	adiw	r26, 0x14	; 20
    306c:	8d 91       	ld	r24, X+
    306e:	9c 91       	ld	r25, X
    3070:	55 97       	sbiw	r26, 0x15	; 21
    3072:	89 2b       	or	r24, r25
    3074:	21 f0       	breq	.+8      	; 0x307e <vTaskList+0x324>
    3076:	c8 01       	movw	r24, r16
    3078:	0c 96       	adiw	r24, 0x0c	; 12
    307a:	0e 94 56 25 	call	0x4aac	; 0x4aac <uxListRemove>
    307e:	f8 01       	movw	r30, r16
    3080:	96 89       	ldd	r25, Z+22	; 0x16
    3082:	80 91 76 14 	lds	r24, 0x1476
    3086:	89 17       	cp	r24, r25
    3088:	18 f4       	brcc	.+6      	; 0x3090 <vTaskList+0x336>
    308a:	90 93 76 14 	sts	0x1476, r25
    308e:	96 89       	ldd	r25, Z+22	; 0x16
    3090:	9c 9d       	mul	r25, r12
    3092:	c0 01       	movw	r24, r0
    3094:	11 24       	eor	r1, r1
    3096:	88 57       	subi	r24, 0x78	; 120
    3098:	9b 4e       	sbci	r25, 0xEB	; 235
    309a:	b7 01       	movw	r22, r14
    309c:	0e 94 05 25 	call	0x4a0a	; 0x4a0a <vListInsertEnd>
    30a0:	e0 91 73 14 	lds	r30, 0x1473
    30a4:	f0 91 74 14 	lds	r31, 0x1474
    30a8:	d8 01       	movw	r26, r16
    30aa:	56 96       	adiw	r26, 0x16	; 22
    30ac:	9c 91       	ld	r25, X
    30ae:	86 89       	ldd	r24, Z+22	; 0x16
    30b0:	98 17       	cp	r25, r24
    30b2:	08 f4       	brcc	.+2      	; 0x30b6 <vTaskList+0x35c>
    30b4:	b9 cf       	rjmp	.-142    	; 0x3028 <vTaskList+0x2ce>
    30b6:	dd 24       	eor	r13, r13
    30b8:	d3 94       	inc	r13
    30ba:	e0 91 be 14 	lds	r30, 0x14BE
    30be:	f0 91 bf 14 	lds	r31, 0x14BF
    30c2:	80 81       	ld	r24, Z
    30c4:	88 23       	and	r24, r24
    30c6:	09 f0       	breq	.+2      	; 0x30ca <vTaskList+0x370>
    30c8:	b7 cf       	rjmp	.-146    	; 0x3038 <vTaskList+0x2de>
    30ca:	50 92 41 02 	sts	0x0241, r5
    30ce:	40 92 40 02 	sts	0x0240, r4
    30d2:	56 c3       	rjmp	.+1708   	; 0x3780 <vTaskList+0xa26>
    30d4:	dd 24       	eor	r13, r13
    30d6:	bb 81       	ldd	r27, Y+3	; 0x03
    30d8:	bd 0d       	add	r27, r13
    30da:	bb 83       	std	Y+3, r27	; 0x03
    30dc:	cc 20       	and	r12, r12
    30de:	09 f0       	breq	.+2      	; 0x30e2 <vTaskList+0x388>
    30e0:	62 ce       	rjmp	.-828    	; 0x2da6 <vTaskList+0x4c>
    30e2:	8f e0       	ldi	r24, 0x0F	; 15
    30e4:	b8 9f       	mul	r27, r24
    30e6:	40 01       	movw	r8, r0
    30e8:	11 24       	eor	r1, r1
    30ea:	8a 0c       	add	r8, r10
    30ec:	9b 1c       	adc	r9, r11
    30ee:	e0 90 be 14 	lds	r14, 0x14BE
    30f2:	f0 90 bf 14 	lds	r15, 0x14BF
    30f6:	f7 01       	movw	r30, r14
    30f8:	80 81       	ld	r24, Z
    30fa:	88 23       	and	r24, r24
    30fc:	09 f4       	brne	.+2      	; 0x3100 <vTaskList+0x3a6>
    30fe:	71 c1       	rjmp	.+738    	; 0x33e2 <vTaskList+0x688>
    3100:	01 80       	ldd	r0, Z+1	; 0x01
    3102:	f2 81       	ldd	r31, Z+2	; 0x02
    3104:	e0 2d       	mov	r30, r0
    3106:	02 80       	ldd	r0, Z+2	; 0x02
    3108:	f3 81       	ldd	r31, Z+3	; 0x03
    310a:	e0 2d       	mov	r30, r0
    310c:	d7 01       	movw	r26, r14
    310e:	12 96       	adiw	r26, 0x02	; 2
    3110:	fc 93       	st	X, r31
    3112:	ee 93       	st	-X, r30
    3114:	11 97       	sbiw	r26, 0x01	; 1
    3116:	43 e0       	ldi	r20, 0x03	; 3
    3118:	64 2e       	mov	r6, r20
    311a:	71 2c       	mov	r7, r1
    311c:	6e 0c       	add	r6, r14
    311e:	7f 1c       	adc	r7, r15
    3120:	e6 15       	cp	r30, r6
    3122:	f7 05       	cpc	r31, r7
    3124:	09 f4       	brne	.+2      	; 0x3128 <vTaskList+0x3ce>
    3126:	77 c3       	rjmp	.+1774   	; 0x3816 <vTaskList+0xabc>
    3128:	46 80       	ldd	r4, Z+6	; 0x06
    312a:	57 80       	ldd	r5, Z+7	; 0x07
    312c:	dd 24       	eor	r13, r13
    312e:	3f e0       	ldi	r19, 0x0F	; 15
    3130:	c3 2e       	mov	r12, r19
    3132:	82 81       	ldd	r24, Z+2	; 0x02
    3134:	93 81       	ldd	r25, Z+3	; 0x03
    3136:	f7 01       	movw	r30, r14
    3138:	92 83       	std	Z+2, r25	; 0x02
    313a:	81 83       	std	Z+1, r24	; 0x01
    313c:	68 16       	cp	r6, r24
    313e:	79 06       	cpc	r7, r25
    3140:	09 f4       	brne	.+2      	; 0x3144 <vTaskList+0x3ea>
    3142:	5e c0       	rjmp	.+188    	; 0x3200 <vTaskList+0x4a6>
    3144:	d7 01       	movw	r26, r14
    3146:	11 96       	adiw	r26, 0x01	; 1
    3148:	ed 91       	ld	r30, X+
    314a:	fc 91       	ld	r31, X
    314c:	12 97       	sbiw	r26, 0x02	; 2
    314e:	66 81       	ldd	r22, Z+6	; 0x06
    3150:	77 81       	ldd	r23, Z+7	; 0x07
    3152:	dc 9c       	mul	r13, r12
    3154:	80 01       	movw	r16, r0
    3156:	11 24       	eor	r1, r1
    3158:	08 0d       	add	r16, r8
    315a:	19 1d       	adc	r17, r9
    315c:	f8 01       	movw	r30, r16
    315e:	71 83       	std	Z+1, r23	; 0x01
    3160:	60 83       	st	Z, r22
    3162:	67 5e       	subi	r22, 0xE7	; 231
    3164:	7f 4f       	sbci	r23, 0xFF	; 255
    3166:	73 83       	std	Z+3, r23	; 0x03
    3168:	62 83       	std	Z+2, r22	; 0x02
    316a:	69 51       	subi	r22, 0x19	; 25
    316c:	70 40       	sbci	r23, 0x00	; 0
    316e:	db 01       	movw	r26, r22
    3170:	91 96       	adiw	r26, 0x21	; 33
    3172:	8c 91       	ld	r24, X
    3174:	91 97       	sbiw	r26, 0x21	; 33
    3176:	84 83       	std	Z+4, r24	; 0x04
    3178:	22 e0       	ldi	r18, 0x02	; 2
    317a:	30 e0       	ldi	r19, 0x00	; 0
    317c:	36 83       	std	Z+6, r19	; 0x06
    317e:	25 83       	std	Z+5, r18	; 0x05
    3180:	56 96       	adiw	r26, 0x16	; 22
    3182:	8c 91       	ld	r24, X
    3184:	56 97       	sbiw	r26, 0x16	; 22
    3186:	87 83       	std	Z+7, r24	; 0x07
    3188:	93 96       	adiw	r26, 0x23	; 35
    318a:	8c 91       	ld	r24, X
    318c:	93 97       	sbiw	r26, 0x23	; 35
    318e:	80 87       	std	Z+8, r24	; 0x08
    3190:	94 96       	adiw	r26, 0x24	; 36
    3192:	8d 91       	ld	r24, X+
    3194:	9d 91       	ld	r25, X+
    3196:	0d 90       	ld	r0, X+
    3198:	bc 91       	ld	r27, X
    319a:	a0 2d       	mov	r26, r0
    319c:	81 87       	std	Z+9, r24	; 0x09
    319e:	92 87       	std	Z+10, r25	; 0x0a
    31a0:	a3 87       	std	Z+11, r26	; 0x0b
    31a2:	b4 87       	std	Z+12, r27	; 0x0c
    31a4:	fb 01       	movw	r30, r22
    31a6:	a7 89       	ldd	r26, Z+23	; 0x17
    31a8:	b0 8d       	ldd	r27, Z+24	; 0x18
    31aa:	8c 91       	ld	r24, X
    31ac:	85 3a       	cpi	r24, 0xA5	; 165
    31ae:	09 f0       	breq	.+2      	; 0x31b2 <vTaskList+0x458>
    31b0:	16 c3       	rjmp	.+1580   	; 0x37de <vTaskList+0xa84>
    31b2:	20 e0       	ldi	r18, 0x00	; 0
    31b4:	30 e0       	ldi	r19, 0x00	; 0
    31b6:	40 e0       	ldi	r20, 0x00	; 0
    31b8:	50 e0       	ldi	r21, 0x00	; 0
    31ba:	2f 5f       	subi	r18, 0xFF	; 255
    31bc:	3f 4f       	sbci	r19, 0xFF	; 255
    31be:	4f 4f       	sbci	r20, 0xFF	; 255
    31c0:	5f 4f       	sbci	r21, 0xFF	; 255
    31c2:	fd 01       	movw	r30, r26
    31c4:	e2 0f       	add	r30, r18
    31c6:	f3 1f       	adc	r31, r19
    31c8:	80 81       	ld	r24, Z
    31ca:	85 3a       	cpi	r24, 0xA5	; 165
    31cc:	b1 f3       	breq	.-20     	; 0x31ba <vTaskList+0x460>
    31ce:	c9 01       	movw	r24, r18
    31d0:	d8 01       	movw	r26, r16
    31d2:	1e 96       	adiw	r26, 0x0e	; 14
    31d4:	9c 93       	st	X, r25
    31d6:	8e 93       	st	-X, r24
    31d8:	1d 97       	sbiw	r26, 0x0d	; 13
    31da:	d3 94       	inc	r13
    31dc:	46 16       	cp	r4, r22
    31de:	57 06       	cpc	r5, r23
    31e0:	09 f4       	brne	.+2      	; 0x31e4 <vTaskList+0x48a>
    31e2:	00 c1       	rjmp	.+512    	; 0x33e4 <vTaskList+0x68a>
    31e4:	d7 01       	movw	r26, r14
    31e6:	11 96       	adiw	r26, 0x01	; 1
    31e8:	ed 91       	ld	r30, X+
    31ea:	fc 91       	ld	r31, X
    31ec:	12 97       	sbiw	r26, 0x02	; 2
    31ee:	82 81       	ldd	r24, Z+2	; 0x02
    31f0:	93 81       	ldd	r25, Z+3	; 0x03
    31f2:	f7 01       	movw	r30, r14
    31f4:	92 83       	std	Z+2, r25	; 0x02
    31f6:	81 83       	std	Z+1, r24	; 0x01
    31f8:	68 16       	cp	r6, r24
    31fa:	79 06       	cpc	r7, r25
    31fc:	09 f0       	breq	.+2      	; 0x3200 <vTaskList+0x4a6>
    31fe:	a2 cf       	rjmp	.-188    	; 0x3144 <vTaskList+0x3ea>
    3200:	d3 01       	movw	r26, r6
    3202:	12 96       	adiw	r26, 0x02	; 2
    3204:	8d 91       	ld	r24, X+
    3206:	9c 91       	ld	r25, X
    3208:	13 97       	sbiw	r26, 0x03	; 3
    320a:	92 83       	std	Z+2, r25	; 0x02
    320c:	81 83       	std	Z+1, r24	; 0x01
    320e:	9a cf       	rjmp	.-204    	; 0x3144 <vTaskList+0x3ea>
    3210:	80 91 84 14 	lds	r24, 0x1484
    3214:	8f 5f       	subi	r24, 0xFF	; 255
    3216:	80 93 84 14 	sts	0x1484, r24
    321a:	dd 24       	eor	r13, r13
    321c:	80 91 77 14 	lds	r24, 0x1477
    3220:	88 23       	and	r24, r24
    3222:	09 f0       	breq	.+2      	; 0x3226 <vTaskList+0x4cc>
    3224:	a9 c2       	rjmp	.+1362   	; 0x3778 <vTaskList+0xa1e>
    3226:	dd 20       	and	r13, r13
    3228:	09 f0       	breq	.+2      	; 0x322c <vTaskList+0x4d2>
    322a:	a6 c2       	rjmp	.+1356   	; 0x3778 <vTaskList+0xa1e>
    322c:	80 91 84 14 	lds	r24, 0x1484
    3230:	81 50       	subi	r24, 0x01	; 1
    3232:	80 93 84 14 	sts	0x1484, r24
    3236:	80 91 84 14 	lds	r24, 0x1484
    323a:	88 23       	and	r24, r24
    323c:	09 f0       	breq	.+2      	; 0x3240 <vTaskList+0x4e6>
    323e:	b5 ce       	rjmp	.-662    	; 0x2faa <vTaskList+0x250>
    3240:	80 91 77 14 	lds	r24, 0x1477
    3244:	81 30       	cpi	r24, 0x01	; 1
    3246:	11 f4       	brne	.+4      	; 0x324c <vTaskList+0x4f2>
    3248:	0e 94 90 24 	call	0x4920	; 0x4920 <vPortYield>
    324c:	0f 90       	pop	r0
    324e:	0f be       	out	0x3f, r0	; 63
    3250:	79 82       	std	Y+1, r7	; 0x01
    3252:	1a 82       	std	Y+2, r1	; 0x02
    3254:	9a 81       	ldd	r25, Y+2	; 0x02
    3256:	89 81       	ldd	r24, Y+1	; 0x01
    3258:	98 17       	cp	r25, r24
    325a:	08 f0       	brcs	.+2      	; 0x325e <vTaskList+0x504>
    325c:	40 ce       	rjmp	.-896    	; 0x2ede <vTaskList+0x184>
    325e:	65 e2       	ldi	r22, 0x25	; 37
    3260:	e6 2e       	mov	r14, r22
    3262:	62 e0       	ldi	r22, 0x02	; 2
    3264:	f6 2e       	mov	r15, r22
    3266:	8f c0       	rjmp	.+286    	; 0x3386 <vTaskList+0x62c>
    3268:	01 97       	sbiw	r24, 0x01	; 1
    326a:	09 f4       	brne	.+2      	; 0x326e <vTaskList+0x514>
    326c:	b4 c0       	rjmp	.+360    	; 0x33d6 <vTaskList+0x67c>
    326e:	00 e0       	ldi	r16, 0x00	; 0
    3270:	10 e0       	ldi	r17, 0x00	; 0
    3272:	8a 81       	ldd	r24, Y+2	; 0x02
    3274:	2a 81       	ldd	r18, Y+2	; 0x02
    3276:	4a 81       	ldd	r20, Y+2	; 0x02
    3278:	6a 81       	ldd	r22, Y+2	; 0x02
    327a:	ed b7       	in	r30, 0x3d	; 61
    327c:	fe b7       	in	r31, 0x3e	; 62
    327e:	3e 97       	sbiw	r30, 0x0e	; 14
    3280:	0f b6       	in	r0, 0x3f	; 63
    3282:	f8 94       	cli
    3284:	fe bf       	out	0x3e, r31	; 62
    3286:	0f be       	out	0x3f, r0	; 63
    3288:	ed bf       	out	0x3d, r30	; 61
    328a:	ad b7       	in	r26, 0x3d	; 61
    328c:	be b7       	in	r27, 0x3e	; 62
    328e:	11 96       	adiw	r26, 0x01	; 1
    3290:	32 82       	std	Z+2, r3	; 0x02
    3292:	21 82       	std	Z+1, r2	; 0x01
    3294:	13 96       	adiw	r26, 0x03	; 3
    3296:	fc 92       	st	X, r15
    3298:	ee 92       	st	-X, r14
    329a:	12 97       	sbiw	r26, 0x02	; 2
    329c:	90 e0       	ldi	r25, 0x00	; 0
    329e:	fc 01       	movw	r30, r24
    32a0:	ee 0f       	add	r30, r30
    32a2:	ff 1f       	adc	r31, r31
    32a4:	e8 0f       	add	r30, r24
    32a6:	f9 1f       	adc	r31, r25
    32a8:	cf 01       	movw	r24, r30
    32aa:	88 0f       	add	r24, r24
    32ac:	99 1f       	adc	r25, r25
    32ae:	88 0f       	add	r24, r24
    32b0:	99 1f       	adc	r25, r25
    32b2:	e8 0f       	add	r30, r24
    32b4:	f9 1f       	adc	r31, r25
    32b6:	ea 0d       	add	r30, r10
    32b8:	fb 1d       	adc	r31, r11
    32ba:	82 81       	ldd	r24, Z+2	; 0x02
    32bc:	93 81       	ldd	r25, Z+3	; 0x03
    32be:	15 96       	adiw	r26, 0x05	; 5
    32c0:	9c 93       	st	X, r25
    32c2:	8e 93       	st	-X, r24
    32c4:	14 97       	sbiw	r26, 0x04	; 4
    32c6:	17 96       	adiw	r26, 0x07	; 7
    32c8:	1c 93       	st	X, r17
    32ca:	0e 93       	st	-X, r16
    32cc:	16 97       	sbiw	r26, 0x06	; 6
    32ce:	30 e0       	ldi	r19, 0x00	; 0
    32d0:	f9 01       	movw	r30, r18
    32d2:	ee 0f       	add	r30, r30
    32d4:	ff 1f       	adc	r31, r31
    32d6:	e2 0f       	add	r30, r18
    32d8:	f3 1f       	adc	r31, r19
    32da:	cf 01       	movw	r24, r30
    32dc:	88 0f       	add	r24, r24
    32de:	99 1f       	adc	r25, r25
    32e0:	88 0f       	add	r24, r24
    32e2:	99 1f       	adc	r25, r25
    32e4:	e8 0f       	add	r30, r24
    32e6:	f9 1f       	adc	r31, r25
    32e8:	ea 0d       	add	r30, r10
    32ea:	fb 1d       	adc	r31, r11
    32ec:	87 81       	ldd	r24, Z+7	; 0x07
    32ee:	18 96       	adiw	r26, 0x08	; 8
    32f0:	8c 93       	st	X, r24
    32f2:	18 97       	sbiw	r26, 0x08	; 8
    32f4:	19 96       	adiw	r26, 0x09	; 9
    32f6:	1c 92       	st	X, r1
    32f8:	19 97       	sbiw	r26, 0x09	; 9
    32fa:	50 e0       	ldi	r21, 0x00	; 0
    32fc:	fa 01       	movw	r30, r20
    32fe:	ee 0f       	add	r30, r30
    3300:	ff 1f       	adc	r31, r31
    3302:	e4 0f       	add	r30, r20
    3304:	f5 1f       	adc	r31, r21
    3306:	cf 01       	movw	r24, r30
    3308:	88 0f       	add	r24, r24
    330a:	99 1f       	adc	r25, r25
    330c:	88 0f       	add	r24, r24
    330e:	99 1f       	adc	r25, r25
    3310:	e8 0f       	add	r30, r24
    3312:	f9 1f       	adc	r31, r25
    3314:	ea 0d       	add	r30, r10
    3316:	fb 1d       	adc	r31, r11
    3318:	85 85       	ldd	r24, Z+13	; 0x0d
    331a:	96 85       	ldd	r25, Z+14	; 0x0e
    331c:	1b 96       	adiw	r26, 0x0b	; 11
    331e:	9c 93       	st	X, r25
    3320:	8e 93       	st	-X, r24
    3322:	1a 97       	sbiw	r26, 0x0a	; 10
    3324:	70 e0       	ldi	r23, 0x00	; 0
    3326:	fb 01       	movw	r30, r22
    3328:	ee 0f       	add	r30, r30
    332a:	ff 1f       	adc	r31, r31
    332c:	e6 0f       	add	r30, r22
    332e:	f7 1f       	adc	r31, r23
    3330:	cf 01       	movw	r24, r30
    3332:	88 0f       	add	r24, r24
    3334:	99 1f       	adc	r25, r25
    3336:	88 0f       	add	r24, r24
    3338:	99 1f       	adc	r25, r25
    333a:	e8 0f       	add	r30, r24
    333c:	f9 1f       	adc	r31, r25
    333e:	ea 0d       	add	r30, r10
    3340:	fb 1d       	adc	r31, r11
    3342:	84 81       	ldd	r24, Z+4	; 0x04
    3344:	1c 96       	adiw	r26, 0x0c	; 12
    3346:	8c 93       	st	X, r24
    3348:	1c 97       	sbiw	r26, 0x0c	; 12
    334a:	1d 96       	adiw	r26, 0x0d	; 13
    334c:	1c 92       	st	X, r1
    334e:	0e 94 90 07 	call	0xf20	; 0xf20 <sprintf>
    3352:	d1 01       	movw	r26, r2
    3354:	0d 90       	ld	r0, X+
    3356:	00 20       	and	r0, r0
    3358:	e9 f7       	brne	.-6      	; 0x3354 <vTaskList+0x5fa>
    335a:	11 97       	sbiw	r26, 0x01	; 1
    335c:	a2 19       	sub	r26, r2
    335e:	b3 09       	sbc	r27, r3
    3360:	8a 81       	ldd	r24, Y+2	; 0x02
    3362:	8f 5f       	subi	r24, 0xFF	; 255
    3364:	8a 83       	std	Y+2, r24	; 0x02
    3366:	9a 81       	ldd	r25, Y+2	; 0x02
    3368:	89 81       	ldd	r24, Y+1	; 0x01
    336a:	2d b7       	in	r18, 0x3d	; 61
    336c:	3e b7       	in	r19, 0x3e	; 62
    336e:	22 5f       	subi	r18, 0xF2	; 242
    3370:	3f 4f       	sbci	r19, 0xFF	; 255
    3372:	0f b6       	in	r0, 0x3f	; 63
    3374:	f8 94       	cli
    3376:	3e bf       	out	0x3e, r19	; 62
    3378:	0f be       	out	0x3f, r0	; 63
    337a:	2d bf       	out	0x3d, r18	; 61
    337c:	98 17       	cp	r25, r24
    337e:	08 f0       	brcs	.+2      	; 0x3382 <vTaskList+0x628>
    3380:	ae cd       	rjmp	.-1188   	; 0x2ede <vTaskList+0x184>
    3382:	2a 0e       	add	r2, r26
    3384:	3b 1e       	adc	r3, r27
    3386:	8a 81       	ldd	r24, Y+2	; 0x02
    3388:	90 e0       	ldi	r25, 0x00	; 0
    338a:	fc 01       	movw	r30, r24
    338c:	ee 0f       	add	r30, r30
    338e:	ff 1f       	adc	r31, r31
    3390:	e8 0f       	add	r30, r24
    3392:	f9 1f       	adc	r31, r25
    3394:	cf 01       	movw	r24, r30
    3396:	88 0f       	add	r24, r24
    3398:	99 1f       	adc	r25, r25
    339a:	88 0f       	add	r24, r24
    339c:	99 1f       	adc	r25, r25
    339e:	e8 0f       	add	r30, r24
    33a0:	f9 1f       	adc	r31, r25
    33a2:	ea 0d       	add	r30, r10
    33a4:	fb 1d       	adc	r31, r11
    33a6:	85 81       	ldd	r24, Z+5	; 0x05
    33a8:	96 81       	ldd	r25, Z+6	; 0x06
    33aa:	82 30       	cpi	r24, 0x02	; 2
    33ac:	91 05       	cpc	r25, r1
    33ae:	69 f0       	breq	.+26     	; 0x33ca <vTaskList+0x670>
    33b0:	83 30       	cpi	r24, 0x03	; 3
    33b2:	91 05       	cpc	r25, r1
    33b4:	08 f4       	brcc	.+2      	; 0x33b8 <vTaskList+0x65e>
    33b6:	58 cf       	rjmp	.-336    	; 0x3268 <vTaskList+0x50e>
    33b8:	83 30       	cpi	r24, 0x03	; 3
    33ba:	91 05       	cpc	r25, r1
    33bc:	49 f0       	breq	.+18     	; 0x33d0 <vTaskList+0x676>
    33be:	04 97       	sbiw	r24, 0x04	; 4
    33c0:	09 f0       	breq	.+2      	; 0x33c4 <vTaskList+0x66a>
    33c2:	55 cf       	rjmp	.-342    	; 0x326e <vTaskList+0x514>
    33c4:	04 e4       	ldi	r16, 0x44	; 68
    33c6:	10 e0       	ldi	r17, 0x00	; 0
    33c8:	54 cf       	rjmp	.-344    	; 0x3272 <vTaskList+0x518>
    33ca:	02 e4       	ldi	r16, 0x42	; 66
    33cc:	10 e0       	ldi	r17, 0x00	; 0
    33ce:	51 cf       	rjmp	.-350    	; 0x3272 <vTaskList+0x518>
    33d0:	03 e5       	ldi	r16, 0x53	; 83
    33d2:	10 e0       	ldi	r17, 0x00	; 0
    33d4:	4e cf       	rjmp	.-356    	; 0x3272 <vTaskList+0x518>
    33d6:	02 e5       	ldi	r16, 0x52	; 82
    33d8:	10 e0       	ldi	r17, 0x00	; 0
    33da:	4b cf       	rjmp	.-362    	; 0x3272 <vTaskList+0x518>
    33dc:	80 e0       	ldi	r24, 0x00	; 0
    33de:	90 e0       	ldi	r25, 0x00	; 0
    33e0:	5e cd       	rjmp	.-1348   	; 0x2e9e <vTaskList+0x144>
    33e2:	dd 24       	eor	r13, r13
    33e4:	cb 80       	ldd	r12, Y+3	; 0x03
    33e6:	cd 0c       	add	r12, r13
    33e8:	8f e0       	ldi	r24, 0x0F	; 15
    33ea:	c8 9e       	mul	r12, r24
    33ec:	40 01       	movw	r8, r0
    33ee:	11 24       	eor	r1, r1
    33f0:	8a 0c       	add	r8, r10
    33f2:	9b 1c       	adc	r9, r11
    33f4:	e0 90 c0 14 	lds	r14, 0x14C0
    33f8:	f0 90 c1 14 	lds	r15, 0x14C1
    33fc:	f7 01       	movw	r30, r14
    33fe:	80 81       	ld	r24, Z
    3400:	88 23       	and	r24, r24
    3402:	09 f4       	brne	.+2      	; 0x3406 <vTaskList+0x6ac>
    3404:	86 c0       	rjmp	.+268    	; 0x3512 <vTaskList+0x7b8>
    3406:	01 80       	ldd	r0, Z+1	; 0x01
    3408:	f2 81       	ldd	r31, Z+2	; 0x02
    340a:	e0 2d       	mov	r30, r0
    340c:	02 80       	ldd	r0, Z+2	; 0x02
    340e:	f3 81       	ldd	r31, Z+3	; 0x03
    3410:	e0 2d       	mov	r30, r0
    3412:	d7 01       	movw	r26, r14
    3414:	12 96       	adiw	r26, 0x02	; 2
    3416:	fc 93       	st	X, r31
    3418:	ee 93       	st	-X, r30
    341a:	11 97       	sbiw	r26, 0x01	; 1
    341c:	23 e0       	ldi	r18, 0x03	; 3
    341e:	62 2e       	mov	r6, r18
    3420:	71 2c       	mov	r7, r1
    3422:	6e 0c       	add	r6, r14
    3424:	7f 1c       	adc	r7, r15
    3426:	e6 15       	cp	r30, r6
    3428:	f7 05       	cpc	r31, r7
    342a:	09 f4       	brne	.+2      	; 0x342e <vTaskList+0x6d4>
    342c:	fe c1       	rjmp	.+1020   	; 0x382a <vTaskList+0xad0>
    342e:	46 80       	ldd	r4, Z+6	; 0x06
    3430:	57 80       	ldd	r5, Z+7	; 0x07
    3432:	dd 24       	eor	r13, r13
    3434:	82 81       	ldd	r24, Z+2	; 0x02
    3436:	93 81       	ldd	r25, Z+3	; 0x03
    3438:	f7 01       	movw	r30, r14
    343a:	92 83       	std	Z+2, r25	; 0x02
    343c:	81 83       	std	Z+1, r24	; 0x01
    343e:	68 16       	cp	r6, r24
    3440:	79 06       	cpc	r7, r25
    3442:	09 f4       	brne	.+2      	; 0x3446 <vTaskList+0x6ec>
    3444:	5e c0       	rjmp	.+188    	; 0x3502 <vTaskList+0x7a8>
    3446:	d7 01       	movw	r26, r14
    3448:	11 96       	adiw	r26, 0x01	; 1
    344a:	ed 91       	ld	r30, X+
    344c:	fc 91       	ld	r31, X
    344e:	12 97       	sbiw	r26, 0x02	; 2
    3450:	66 81       	ldd	r22, Z+6	; 0x06
    3452:	77 81       	ldd	r23, Z+7	; 0x07
    3454:	bf e0       	ldi	r27, 0x0F	; 15
    3456:	db 9e       	mul	r13, r27
    3458:	80 01       	movw	r16, r0
    345a:	11 24       	eor	r1, r1
    345c:	08 0d       	add	r16, r8
    345e:	19 1d       	adc	r17, r9
    3460:	f8 01       	movw	r30, r16
    3462:	71 83       	std	Z+1, r23	; 0x01
    3464:	60 83       	st	Z, r22
    3466:	67 5e       	subi	r22, 0xE7	; 231
    3468:	7f 4f       	sbci	r23, 0xFF	; 255
    346a:	73 83       	std	Z+3, r23	; 0x03
    346c:	62 83       	std	Z+2, r22	; 0x02
    346e:	69 51       	subi	r22, 0x19	; 25
    3470:	70 40       	sbci	r23, 0x00	; 0
    3472:	db 01       	movw	r26, r22
    3474:	91 96       	adiw	r26, 0x21	; 33
    3476:	8c 91       	ld	r24, X
    3478:	91 97       	sbiw	r26, 0x21	; 33
    347a:	84 83       	std	Z+4, r24	; 0x04
    347c:	22 e0       	ldi	r18, 0x02	; 2
    347e:	30 e0       	ldi	r19, 0x00	; 0
    3480:	36 83       	std	Z+6, r19	; 0x06
    3482:	25 83       	std	Z+5, r18	; 0x05
    3484:	56 96       	adiw	r26, 0x16	; 22
    3486:	8c 91       	ld	r24, X
    3488:	56 97       	sbiw	r26, 0x16	; 22
    348a:	87 83       	std	Z+7, r24	; 0x07
    348c:	93 96       	adiw	r26, 0x23	; 35
    348e:	8c 91       	ld	r24, X
    3490:	93 97       	sbiw	r26, 0x23	; 35
    3492:	80 87       	std	Z+8, r24	; 0x08
    3494:	94 96       	adiw	r26, 0x24	; 36
    3496:	8d 91       	ld	r24, X+
    3498:	9d 91       	ld	r25, X+
    349a:	0d 90       	ld	r0, X+
    349c:	bc 91       	ld	r27, X
    349e:	a0 2d       	mov	r26, r0
    34a0:	81 87       	std	Z+9, r24	; 0x09
    34a2:	92 87       	std	Z+10, r25	; 0x0a
    34a4:	a3 87       	std	Z+11, r26	; 0x0b
    34a6:	b4 87       	std	Z+12, r27	; 0x0c
    34a8:	fb 01       	movw	r30, r22
    34aa:	a7 89       	ldd	r26, Z+23	; 0x17
    34ac:	b0 8d       	ldd	r27, Z+24	; 0x18
    34ae:	8c 91       	ld	r24, X
    34b0:	85 3a       	cpi	r24, 0xA5	; 165
    34b2:	09 f0       	breq	.+2      	; 0x34b6 <vTaskList+0x75c>
    34b4:	91 c1       	rjmp	.+802    	; 0x37d8 <vTaskList+0xa7e>
    34b6:	20 e0       	ldi	r18, 0x00	; 0
    34b8:	30 e0       	ldi	r19, 0x00	; 0
    34ba:	40 e0       	ldi	r20, 0x00	; 0
    34bc:	50 e0       	ldi	r21, 0x00	; 0
    34be:	2f 5f       	subi	r18, 0xFF	; 255
    34c0:	3f 4f       	sbci	r19, 0xFF	; 255
    34c2:	4f 4f       	sbci	r20, 0xFF	; 255
    34c4:	5f 4f       	sbci	r21, 0xFF	; 255
    34c6:	fd 01       	movw	r30, r26
    34c8:	e2 0f       	add	r30, r18
    34ca:	f3 1f       	adc	r31, r19
    34cc:	80 81       	ld	r24, Z
    34ce:	85 3a       	cpi	r24, 0xA5	; 165
    34d0:	b1 f3       	breq	.-20     	; 0x34be <vTaskList+0x764>
    34d2:	c9 01       	movw	r24, r18
    34d4:	d8 01       	movw	r26, r16
    34d6:	1e 96       	adiw	r26, 0x0e	; 14
    34d8:	9c 93       	st	X, r25
    34da:	8e 93       	st	-X, r24
    34dc:	1d 97       	sbiw	r26, 0x0d	; 13
    34de:	d3 94       	inc	r13
    34e0:	46 16       	cp	r4, r22
    34e2:	57 06       	cpc	r5, r23
    34e4:	b9 f0       	breq	.+46     	; 0x3514 <vTaskList+0x7ba>
    34e6:	d7 01       	movw	r26, r14
    34e8:	11 96       	adiw	r26, 0x01	; 1
    34ea:	ed 91       	ld	r30, X+
    34ec:	fc 91       	ld	r31, X
    34ee:	12 97       	sbiw	r26, 0x02	; 2
    34f0:	82 81       	ldd	r24, Z+2	; 0x02
    34f2:	93 81       	ldd	r25, Z+3	; 0x03
    34f4:	f7 01       	movw	r30, r14
    34f6:	92 83       	std	Z+2, r25	; 0x02
    34f8:	81 83       	std	Z+1, r24	; 0x01
    34fa:	68 16       	cp	r6, r24
    34fc:	79 06       	cpc	r7, r25
    34fe:	09 f0       	breq	.+2      	; 0x3502 <vTaskList+0x7a8>
    3500:	a2 cf       	rjmp	.-188    	; 0x3446 <vTaskList+0x6ec>
    3502:	d3 01       	movw	r26, r6
    3504:	12 96       	adiw	r26, 0x02	; 2
    3506:	8d 91       	ld	r24, X+
    3508:	9c 91       	ld	r25, X
    350a:	13 97       	sbiw	r26, 0x03	; 3
    350c:	92 83       	std	Z+2, r25	; 0x02
    350e:	81 83       	std	Z+1, r24	; 0x01
    3510:	9a cf       	rjmp	.-204    	; 0x3446 <vTaskList+0x6ec>
    3512:	dd 24       	eor	r13, r13
    3514:	ed 2c       	mov	r14, r13
    3516:	ec 0c       	add	r14, r12
    3518:	8f e0       	ldi	r24, 0x0F	; 15
    351a:	e8 9e       	mul	r14, r24
    351c:	60 01       	movw	r12, r0
    351e:	11 24       	eor	r1, r1
    3520:	ca 0c       	add	r12, r10
    3522:	db 1c       	adc	r13, r11
    3524:	80 91 cb 14 	lds	r24, 0x14CB
    3528:	88 23       	and	r24, r24
    352a:	09 f4       	brne	.+2      	; 0x352e <vTaskList+0x7d4>
    352c:	7c c0       	rjmp	.+248    	; 0x3626 <vTaskList+0x8cc>
    352e:	e0 91 cc 14 	lds	r30, 0x14CC
    3532:	f0 91 cd 14 	lds	r31, 0x14CD
    3536:	02 80       	ldd	r0, Z+2	; 0x02
    3538:	f3 81       	ldd	r31, Z+3	; 0x03
    353a:	e0 2d       	mov	r30, r0
    353c:	f0 93 cd 14 	sts	0x14CD, r31
    3540:	e0 93 cc 14 	sts	0x14CC, r30
    3544:	b4 e1       	ldi	r27, 0x14	; 20
    3546:	ee 3c       	cpi	r30, 0xCE	; 206
    3548:	fb 07       	cpc	r31, r27
    354a:	09 f4       	brne	.+2      	; 0x354e <vTaskList+0x7f4>
    354c:	78 c1       	rjmp	.+752    	; 0x383e <vTaskList+0xae4>
    354e:	e0 91 cc 14 	lds	r30, 0x14CC
    3552:	f0 91 cd 14 	lds	r31, 0x14CD
    3556:	86 80       	ldd	r8, Z+6	; 0x06
    3558:	97 80       	ldd	r9, Z+7	; 0x07
    355a:	ff 24       	eor	r15, r15
    355c:	9f e0       	ldi	r25, 0x0F	; 15
    355e:	59 2e       	mov	r5, r25
    3560:	84 e0       	ldi	r24, 0x04	; 4
    3562:	68 2e       	mov	r6, r24
    3564:	71 2c       	mov	r7, r1
    3566:	02 80       	ldd	r0, Z+2	; 0x02
    3568:	f3 81       	ldd	r31, Z+3	; 0x03
    356a:	e0 2d       	mov	r30, r0
    356c:	f0 93 cd 14 	sts	0x14CD, r31
    3570:	e0 93 cc 14 	sts	0x14CC, r30
    3574:	24 e1       	ldi	r18, 0x14	; 20
    3576:	ee 3c       	cpi	r30, 0xCE	; 206
    3578:	f2 07       	cpc	r31, r18
    357a:	09 f4       	brne	.+2      	; 0x357e <vTaskList+0x824>
    357c:	f6 c0       	rjmp	.+492    	; 0x376a <vTaskList+0xa10>
    357e:	e0 91 cc 14 	lds	r30, 0x14CC
    3582:	f0 91 cd 14 	lds	r31, 0x14CD
    3586:	66 81       	ldd	r22, Z+6	; 0x06
    3588:	77 81       	ldd	r23, Z+7	; 0x07
    358a:	f5 9c       	mul	r15, r5
    358c:	80 01       	movw	r16, r0
    358e:	11 24       	eor	r1, r1
    3590:	0c 0d       	add	r16, r12
    3592:	1d 1d       	adc	r17, r13
    3594:	d8 01       	movw	r26, r16
    3596:	11 96       	adiw	r26, 0x01	; 1
    3598:	7c 93       	st	X, r23
    359a:	6e 93       	st	-X, r22
    359c:	67 5e       	subi	r22, 0xE7	; 231
    359e:	7f 4f       	sbci	r23, 0xFF	; 255
    35a0:	13 96       	adiw	r26, 0x03	; 3
    35a2:	7c 93       	st	X, r23
    35a4:	6e 93       	st	-X, r22
    35a6:	12 97       	sbiw	r26, 0x02	; 2
    35a8:	69 51       	subi	r22, 0x19	; 25
    35aa:	70 40       	sbci	r23, 0x00	; 0
    35ac:	fb 01       	movw	r30, r22
    35ae:	81 a1       	ldd	r24, Z+33	; 0x21
    35b0:	14 96       	adiw	r26, 0x04	; 4
    35b2:	8c 93       	st	X, r24
    35b4:	14 97       	sbiw	r26, 0x04	; 4
    35b6:	16 96       	adiw	r26, 0x06	; 6
    35b8:	7c 92       	st	X, r7
    35ba:	6e 92       	st	-X, r6
    35bc:	15 97       	sbiw	r26, 0x05	; 5
    35be:	86 89       	ldd	r24, Z+22	; 0x16
    35c0:	17 96       	adiw	r26, 0x07	; 7
    35c2:	8c 93       	st	X, r24
    35c4:	17 97       	sbiw	r26, 0x07	; 7
    35c6:	83 a1       	ldd	r24, Z+35	; 0x23
    35c8:	18 96       	adiw	r26, 0x08	; 8
    35ca:	8c 93       	st	X, r24
    35cc:	84 a1       	ldd	r24, Z+36	; 0x24
    35ce:	95 a1       	ldd	r25, Z+37	; 0x25
    35d0:	a6 a1       	ldd	r26, Z+38	; 0x26
    35d2:	b7 a1       	ldd	r27, Z+39	; 0x27
    35d4:	f8 01       	movw	r30, r16
    35d6:	81 87       	std	Z+9, r24	; 0x09
    35d8:	92 87       	std	Z+10, r25	; 0x0a
    35da:	a3 87       	std	Z+11, r26	; 0x0b
    35dc:	b4 87       	std	Z+12, r27	; 0x0c
    35de:	fb 01       	movw	r30, r22
    35e0:	a7 89       	ldd	r26, Z+23	; 0x17
    35e2:	b0 8d       	ldd	r27, Z+24	; 0x18
    35e4:	8c 91       	ld	r24, X
    35e6:	85 3a       	cpi	r24, 0xA5	; 165
    35e8:	09 f0       	breq	.+2      	; 0x35ec <vTaskList+0x892>
    35ea:	f3 c0       	rjmp	.+486    	; 0x37d2 <vTaskList+0xa78>
    35ec:	20 e0       	ldi	r18, 0x00	; 0
    35ee:	30 e0       	ldi	r19, 0x00	; 0
    35f0:	40 e0       	ldi	r20, 0x00	; 0
    35f2:	50 e0       	ldi	r21, 0x00	; 0
    35f4:	2f 5f       	subi	r18, 0xFF	; 255
    35f6:	3f 4f       	sbci	r19, 0xFF	; 255
    35f8:	4f 4f       	sbci	r20, 0xFF	; 255
    35fa:	5f 4f       	sbci	r21, 0xFF	; 255
    35fc:	fd 01       	movw	r30, r26
    35fe:	e2 0f       	add	r30, r18
    3600:	f3 1f       	adc	r31, r19
    3602:	80 81       	ld	r24, Z
    3604:	85 3a       	cpi	r24, 0xA5	; 165
    3606:	b1 f3       	breq	.-20     	; 0x35f4 <vTaskList+0x89a>
    3608:	c9 01       	movw	r24, r18
    360a:	d8 01       	movw	r26, r16
    360c:	1e 96       	adiw	r26, 0x0e	; 14
    360e:	9c 93       	st	X, r25
    3610:	8e 93       	st	-X, r24
    3612:	1d 97       	sbiw	r26, 0x0d	; 13
    3614:	f3 94       	inc	r15
    3616:	86 16       	cp	r8, r22
    3618:	97 06       	cpc	r9, r23
    361a:	31 f0       	breq	.+12     	; 0x3628 <vTaskList+0x8ce>
    361c:	e0 91 cc 14 	lds	r30, 0x14CC
    3620:	f0 91 cd 14 	lds	r31, 0x14CD
    3624:	a0 cf       	rjmp	.-192    	; 0x3566 <vTaskList+0x80c>
    3626:	ff 24       	eor	r15, r15
    3628:	ef 0c       	add	r14, r15
    362a:	8f e0       	ldi	r24, 0x0F	; 15
    362c:	e8 9e       	mul	r14, r24
    362e:	60 01       	movw	r12, r0
    3630:	11 24       	eor	r1, r1
    3632:	ca 0c       	add	r12, r10
    3634:	db 1c       	adc	r13, r11
    3636:	80 91 d4 14 	lds	r24, 0x14D4
    363a:	88 23       	and	r24, r24
    363c:	09 f4       	brne	.+2      	; 0x3640 <vTaskList+0x8e6>
    363e:	8a c0       	rjmp	.+276    	; 0x3754 <vTaskList+0x9fa>
    3640:	e0 91 d5 14 	lds	r30, 0x14D5
    3644:	f0 91 d6 14 	lds	r31, 0x14D6
    3648:	02 80       	ldd	r0, Z+2	; 0x02
    364a:	f3 81       	ldd	r31, Z+3	; 0x03
    364c:	e0 2d       	mov	r30, r0
    364e:	f0 93 d6 14 	sts	0x14D6, r31
    3652:	e0 93 d5 14 	sts	0x14D5, r30
    3656:	b4 e1       	ldi	r27, 0x14	; 20
    3658:	e7 3d       	cpi	r30, 0xD7	; 215
    365a:	fb 07       	cpc	r31, r27
    365c:	09 f4       	brne	.+2      	; 0x3660 <vTaskList+0x906>
    365e:	d4 c0       	rjmp	.+424    	; 0x3808 <vTaskList+0xaae>
    3660:	e0 91 d5 14 	lds	r30, 0x14D5
    3664:	f0 91 d6 14 	lds	r31, 0x14D6
    3668:	86 80       	ldd	r8, Z+6	; 0x06
    366a:	97 80       	ldd	r9, Z+7	; 0x07
    366c:	ff 24       	eor	r15, r15
    366e:	03 e0       	ldi	r16, 0x03	; 3
    3670:	60 2e       	mov	r6, r16
    3672:	71 2c       	mov	r7, r1
    3674:	12 e0       	ldi	r17, 0x02	; 2
    3676:	41 2e       	mov	r4, r17
    3678:	51 2c       	mov	r5, r1
    367a:	02 80       	ldd	r0, Z+2	; 0x02
    367c:	f3 81       	ldd	r31, Z+3	; 0x03
    367e:	e0 2d       	mov	r30, r0
    3680:	f0 93 d6 14 	sts	0x14D6, r31
    3684:	e0 93 d5 14 	sts	0x14D5, r30
    3688:	24 e1       	ldi	r18, 0x14	; 20
    368a:	e7 3d       	cpi	r30, 0xD7	; 215
    368c:	f2 07       	cpc	r31, r18
    368e:	09 f4       	brne	.+2      	; 0x3692 <vTaskList+0x938>
    3690:	65 c0       	rjmp	.+202    	; 0x375c <vTaskList+0xa02>
    3692:	e0 91 d5 14 	lds	r30, 0x14D5
    3696:	f0 91 d6 14 	lds	r31, 0x14D6
    369a:	66 81       	ldd	r22, Z+6	; 0x06
    369c:	77 81       	ldd	r23, Z+7	; 0x07
    369e:	3f e0       	ldi	r19, 0x0F	; 15
    36a0:	f3 9e       	mul	r15, r19
    36a2:	80 01       	movw	r16, r0
    36a4:	11 24       	eor	r1, r1
    36a6:	0c 0d       	add	r16, r12
    36a8:	1d 1d       	adc	r17, r13
    36aa:	d8 01       	movw	r26, r16
    36ac:	11 96       	adiw	r26, 0x01	; 1
    36ae:	7c 93       	st	X, r23
    36b0:	6e 93       	st	-X, r22
    36b2:	67 5e       	subi	r22, 0xE7	; 231
    36b4:	7f 4f       	sbci	r23, 0xFF	; 255
    36b6:	13 96       	adiw	r26, 0x03	; 3
    36b8:	7c 93       	st	X, r23
    36ba:	6e 93       	st	-X, r22
    36bc:	12 97       	sbiw	r26, 0x02	; 2
    36be:	69 51       	subi	r22, 0x19	; 25
    36c0:	70 40       	sbci	r23, 0x00	; 0
    36c2:	fb 01       	movw	r30, r22
    36c4:	81 a1       	ldd	r24, Z+33	; 0x21
    36c6:	14 96       	adiw	r26, 0x04	; 4
    36c8:	8c 93       	st	X, r24
    36ca:	14 97       	sbiw	r26, 0x04	; 4
    36cc:	16 96       	adiw	r26, 0x06	; 6
    36ce:	7c 92       	st	X, r7
    36d0:	6e 92       	st	-X, r6
    36d2:	15 97       	sbiw	r26, 0x05	; 5
    36d4:	86 89       	ldd	r24, Z+22	; 0x16
    36d6:	17 96       	adiw	r26, 0x07	; 7
    36d8:	8c 93       	st	X, r24
    36da:	17 97       	sbiw	r26, 0x07	; 7
    36dc:	84 89       	ldd	r24, Z+20	; 0x14
    36de:	95 89       	ldd	r25, Z+21	; 0x15
    36e0:	89 2b       	or	r24, r25
    36e2:	21 f0       	breq	.+8      	; 0x36ec <vTaskList+0x992>
    36e4:	16 96       	adiw	r26, 0x06	; 6
    36e6:	5c 92       	st	X, r5
    36e8:	4e 92       	st	-X, r4
    36ea:	15 97       	sbiw	r26, 0x05	; 5
    36ec:	db 01       	movw	r26, r22
    36ee:	93 96       	adiw	r26, 0x23	; 35
    36f0:	8c 91       	ld	r24, X
    36f2:	93 97       	sbiw	r26, 0x23	; 35
    36f4:	f8 01       	movw	r30, r16
    36f6:	80 87       	std	Z+8, r24	; 0x08
    36f8:	94 96       	adiw	r26, 0x24	; 36
    36fa:	8d 91       	ld	r24, X+
    36fc:	9d 91       	ld	r25, X+
    36fe:	0d 90       	ld	r0, X+
    3700:	bc 91       	ld	r27, X
    3702:	a0 2d       	mov	r26, r0
    3704:	81 87       	std	Z+9, r24	; 0x09
    3706:	92 87       	std	Z+10, r25	; 0x0a
    3708:	a3 87       	std	Z+11, r26	; 0x0b
    370a:	b4 87       	std	Z+12, r27	; 0x0c
    370c:	fb 01       	movw	r30, r22
    370e:	a7 89       	ldd	r26, Z+23	; 0x17
    3710:	b0 8d       	ldd	r27, Z+24	; 0x18
    3712:	8c 91       	ld	r24, X
    3714:	85 3a       	cpi	r24, 0xA5	; 165
    3716:	09 f0       	breq	.+2      	; 0x371a <vTaskList+0x9c0>
    3718:	6a c0       	rjmp	.+212    	; 0x37ee <vTaskList+0xa94>
    371a:	20 e0       	ldi	r18, 0x00	; 0
    371c:	30 e0       	ldi	r19, 0x00	; 0
    371e:	40 e0       	ldi	r20, 0x00	; 0
    3720:	50 e0       	ldi	r21, 0x00	; 0
    3722:	2f 5f       	subi	r18, 0xFF	; 255
    3724:	3f 4f       	sbci	r19, 0xFF	; 255
    3726:	4f 4f       	sbci	r20, 0xFF	; 255
    3728:	5f 4f       	sbci	r21, 0xFF	; 255
    372a:	fd 01       	movw	r30, r26
    372c:	e2 0f       	add	r30, r18
    372e:	f3 1f       	adc	r31, r19
    3730:	80 81       	ld	r24, Z
    3732:	85 3a       	cpi	r24, 0xA5	; 165
    3734:	b1 f3       	breq	.-20     	; 0x3722 <vTaskList+0x9c8>
    3736:	c9 01       	movw	r24, r18
    3738:	d8 01       	movw	r26, r16
    373a:	1e 96       	adiw	r26, 0x0e	; 14
    373c:	9c 93       	st	X, r25
    373e:	8e 93       	st	-X, r24
    3740:	1d 97       	sbiw	r26, 0x0d	; 13
    3742:	f3 94       	inc	r15
    3744:	86 16       	cp	r8, r22
    3746:	97 06       	cpc	r9, r23
    3748:	31 f0       	breq	.+12     	; 0x3756 <vTaskList+0x9fc>
    374a:	e0 91 d5 14 	lds	r30, 0x14D5
    374e:	f0 91 d6 14 	lds	r31, 0x14D6
    3752:	93 cf       	rjmp	.-218    	; 0x367a <vTaskList+0x920>
    3754:	ff 24       	eor	r15, r15
    3756:	7f 2c       	mov	r7, r15
    3758:	7e 0c       	add	r7, r14
    375a:	c9 cb       	rjmp	.-2158   	; 0x2eee <vTaskList+0x194>
    375c:	82 81       	ldd	r24, Z+2	; 0x02
    375e:	93 81       	ldd	r25, Z+3	; 0x03
    3760:	90 93 d6 14 	sts	0x14D6, r25
    3764:	80 93 d5 14 	sts	0x14D5, r24
    3768:	94 cf       	rjmp	.-216    	; 0x3692 <vTaskList+0x938>
    376a:	82 81       	ldd	r24, Z+2	; 0x02
    376c:	93 81       	ldd	r25, Z+3	; 0x03
    376e:	90 93 cd 14 	sts	0x14CD, r25
    3772:	80 93 cc 14 	sts	0x14CC, r24
    3776:	03 cf       	rjmp	.-506    	; 0x357e <vTaskList+0x824>
    3778:	60 92 77 14 	sts	0x1477, r6
    377c:	57 cd       	rjmp	.-1362   	; 0x322c <vTaskList+0x4d2>
    377e:	dd 24       	eor	r13, r13
    3780:	e0 91 73 14 	lds	r30, 0x1473
    3784:	f0 91 74 14 	lds	r31, 0x1474
    3788:	86 89       	ldd	r24, Z+22	; 0x16
    378a:	90 e0       	ldi	r25, 0x00	; 0
    378c:	fc 01       	movw	r30, r24
    378e:	ee 0f       	add	r30, r30
    3790:	ff 1f       	adc	r31, r31
    3792:	ee 0f       	add	r30, r30
    3794:	ff 1f       	adc	r31, r31
    3796:	ee 0f       	add	r30, r30
    3798:	ff 1f       	adc	r31, r31
    379a:	e8 0f       	add	r30, r24
    379c:	f9 1f       	adc	r31, r25
    379e:	e8 57       	subi	r30, 0x78	; 120
    37a0:	fb 4e       	sbci	r31, 0xEB	; 235
    37a2:	80 81       	ld	r24, Z
    37a4:	82 30       	cpi	r24, 0x02	; 2
    37a6:	08 f4       	brcc	.+2      	; 0x37aa <vTaskList+0xa50>
    37a8:	39 cd       	rjmp	.-1422   	; 0x321c <vTaskList+0x4c2>
    37aa:	dd 24       	eor	r13, r13
    37ac:	d3 94       	inc	r13
    37ae:	36 cd       	rjmp	.-1428   	; 0x321c <vTaskList+0x4c2>
    37b0:	e0 91 be 14 	lds	r30, 0x14BE
    37b4:	f0 91 bf 14 	lds	r31, 0x14BF
    37b8:	05 80       	ldd	r0, Z+5	; 0x05
    37ba:	f6 81       	ldd	r31, Z+6	; 0x06
    37bc:	e0 2d       	mov	r30, r0
    37be:	06 80       	ldd	r0, Z+6	; 0x06
    37c0:	f7 81       	ldd	r31, Z+7	; 0x07
    37c2:	e0 2d       	mov	r30, r0
    37c4:	82 81       	ldd	r24, Z+2	; 0x02
    37c6:	93 81       	ldd	r25, Z+3	; 0x03
    37c8:	90 93 41 02 	sts	0x0241, r25
    37cc:	80 93 40 02 	sts	0x0240, r24
    37d0:	22 cc       	rjmp	.-1980   	; 0x3016 <vTaskList+0x2bc>
    37d2:	80 e0       	ldi	r24, 0x00	; 0
    37d4:	90 e0       	ldi	r25, 0x00	; 0
    37d6:	19 cf       	rjmp	.-462    	; 0x360a <vTaskList+0x8b0>
    37d8:	80 e0       	ldi	r24, 0x00	; 0
    37da:	90 e0       	ldi	r25, 0x00	; 0
    37dc:	7b ce       	rjmp	.-778    	; 0x34d4 <vTaskList+0x77a>
    37de:	80 e0       	ldi	r24, 0x00	; 0
    37e0:	90 e0       	ldi	r25, 0x00	; 0
    37e2:	f6 cc       	rjmp	.-1556   	; 0x31d0 <vTaskList+0x476>
    37e4:	90 93 41 02 	sts	0x0241, r25
    37e8:	80 93 40 02 	sts	0x0240, r24
    37ec:	c9 cf       	rjmp	.-110    	; 0x3780 <vTaskList+0xa26>
    37ee:	80 e0       	ldi	r24, 0x00	; 0
    37f0:	90 e0       	ldi	r25, 0x00	; 0
    37f2:	a2 cf       	rjmp	.-188    	; 0x3738 <vTaskList+0x9de>
    37f4:	82 81       	ldd	r24, Z+2	; 0x02
    37f6:	93 81       	ldd	r25, Z+3	; 0x03
    37f8:	11 96       	adiw	r26, 0x01	; 1
    37fa:	8c 93       	st	X, r24
    37fc:	11 97       	sbiw	r26, 0x01	; 1
    37fe:	12 96       	adiw	r26, 0x02	; 2
    3800:	9c 93       	st	X, r25
    3802:	9c 01       	movw	r18, r24
    3804:	f9 01       	movw	r30, r18
    3806:	f8 ca       	rjmp	.-2576   	; 0x2df8 <vTaskList+0x9e>
    3808:	82 81       	ldd	r24, Z+2	; 0x02
    380a:	93 81       	ldd	r25, Z+3	; 0x03
    380c:	90 93 d6 14 	sts	0x14D6, r25
    3810:	80 93 d5 14 	sts	0x14D5, r24
    3814:	25 cf       	rjmp	.-438    	; 0x3660 <vTaskList+0x906>
    3816:	82 81       	ldd	r24, Z+2	; 0x02
    3818:	93 81       	ldd	r25, Z+3	; 0x03
    381a:	11 96       	adiw	r26, 0x01	; 1
    381c:	8c 93       	st	X, r24
    381e:	11 97       	sbiw	r26, 0x01	; 1
    3820:	12 96       	adiw	r26, 0x02	; 2
    3822:	9c 93       	st	X, r25
    3824:	9c 01       	movw	r18, r24
    3826:	f9 01       	movw	r30, r18
    3828:	7f cc       	rjmp	.-1794   	; 0x3128 <vTaskList+0x3ce>
    382a:	82 81       	ldd	r24, Z+2	; 0x02
    382c:	93 81       	ldd	r25, Z+3	; 0x03
    382e:	11 96       	adiw	r26, 0x01	; 1
    3830:	8c 93       	st	X, r24
    3832:	11 97       	sbiw	r26, 0x01	; 1
    3834:	12 96       	adiw	r26, 0x02	; 2
    3836:	9c 93       	st	X, r25
    3838:	9c 01       	movw	r18, r24
    383a:	f9 01       	movw	r30, r18
    383c:	f8 cd       	rjmp	.-1040   	; 0x342e <vTaskList+0x6d4>
    383e:	82 81       	ldd	r24, Z+2	; 0x02
    3840:	93 81       	ldd	r25, Z+3	; 0x03
    3842:	90 93 cd 14 	sts	0x14CD, r25
    3846:	80 93 cc 14 	sts	0x14CC, r24
    384a:	81 ce       	rjmp	.-766    	; 0x354e <vTaskList+0x7f4>

0000384c <vTaskResume>:
    384c:	0f 93       	push	r16
    384e:	1f 93       	push	r17
    3850:	cf 93       	push	r28
    3852:	df 93       	push	r29
    3854:	ec 01       	movw	r28, r24
    3856:	00 97       	sbiw	r24, 0x00	; 0
    3858:	89 f0       	breq	.+34     	; 0x387c <vTaskResume+0x30>
    385a:	80 91 73 14 	lds	r24, 0x1473
    385e:	90 91 74 14 	lds	r25, 0x1474
    3862:	c8 17       	cp	r28, r24
    3864:	d9 07       	cpc	r29, r25
    3866:	51 f0       	breq	.+20     	; 0x387c <vTaskResume+0x30>
    3868:	0f b6       	in	r0, 0x3f	; 63
    386a:	f8 94       	cli
    386c:	0f 92       	push	r0
    386e:	8a 85       	ldd	r24, Y+10	; 0x0a
    3870:	9b 85       	ldd	r25, Y+11	; 0x0b
    3872:	84 5d       	subi	r24, 0xD4	; 212
    3874:	94 41       	sbci	r25, 0x14	; 20
    3876:	39 f0       	breq	.+14     	; 0x3886 <vTaskResume+0x3a>
    3878:	0f 90       	pop	r0
    387a:	0f be       	out	0x3f, r0	; 63
    387c:	df 91       	pop	r29
    387e:	cf 91       	pop	r28
    3880:	1f 91       	pop	r17
    3882:	0f 91       	pop	r16
    3884:	08 95       	ret
    3886:	8c 89       	ldd	r24, Y+20	; 0x14
    3888:	9d 89       	ldd	r25, Y+21	; 0x15
    388a:	24 e1       	ldi	r18, 0x14	; 20
    388c:	82 3c       	cpi	r24, 0xC2	; 194
    388e:	92 07       	cpc	r25, r18
    3890:	99 f3       	breq	.-26     	; 0x3878 <vTaskResume+0x2c>
    3892:	89 2b       	or	r24, r25
    3894:	89 f7       	brne	.-30     	; 0x3878 <vTaskResume+0x2c>
    3896:	8e 01       	movw	r16, r28
    3898:	0e 5f       	subi	r16, 0xFE	; 254
    389a:	1f 4f       	sbci	r17, 0xFF	; 255
    389c:	c8 01       	movw	r24, r16
    389e:	0e 94 56 25 	call	0x4aac	; 0x4aac <uxListRemove>
    38a2:	9e 89       	ldd	r25, Y+22	; 0x16
    38a4:	80 91 76 14 	lds	r24, 0x1476
    38a8:	89 17       	cp	r24, r25
    38aa:	10 f4       	brcc	.+4      	; 0x38b0 <vTaskResume+0x64>
    38ac:	90 93 76 14 	sts	0x1476, r25
    38b0:	89 e0       	ldi	r24, 0x09	; 9
    38b2:	98 9f       	mul	r25, r24
    38b4:	c0 01       	movw	r24, r0
    38b6:	11 24       	eor	r1, r1
    38b8:	88 57       	subi	r24, 0x78	; 120
    38ba:	9b 4e       	sbci	r25, 0xEB	; 235
    38bc:	b8 01       	movw	r22, r16
    38be:	0e 94 05 25 	call	0x4a0a	; 0x4a0a <vListInsertEnd>
    38c2:	e0 91 73 14 	lds	r30, 0x1473
    38c6:	f0 91 74 14 	lds	r31, 0x1474
    38ca:	9e 89       	ldd	r25, Y+22	; 0x16
    38cc:	86 89       	ldd	r24, Z+22	; 0x16
    38ce:	98 17       	cp	r25, r24
    38d0:	98 f2       	brcs	.-90     	; 0x3878 <vTaskResume+0x2c>
    38d2:	0e 94 90 24 	call	0x4920	; 0x4920 <vPortYield>
    38d6:	d0 cf       	rjmp	.-96     	; 0x3878 <vTaskResume+0x2c>

000038d8 <vTaskSuspend>:
    38d8:	ef 92       	push	r14
    38da:	ff 92       	push	r15
    38dc:	0f 93       	push	r16
    38de:	1f 93       	push	r17
    38e0:	cf 93       	push	r28
    38e2:	df 93       	push	r29
    38e4:	0f b6       	in	r0, 0x3f	; 63
    38e6:	f8 94       	cli
    38e8:	0f 92       	push	r0
    38ea:	00 97       	sbiw	r24, 0x00	; 0
    38ec:	09 f4       	brne	.+2      	; 0x38f0 <vTaskSuspend+0x18>
    38ee:	dd c0       	rjmp	.+442    	; 0x3aaa <vTaskSuspend+0x1d2>
    38f0:	ec 01       	movw	r28, r24
    38f2:	8e 01       	movw	r16, r28
    38f4:	0e 5f       	subi	r16, 0xFE	; 254
    38f6:	1f 4f       	sbci	r17, 0xFF	; 255
    38f8:	c8 01       	movw	r24, r16
    38fa:	0e 94 56 25 	call	0x4aac	; 0x4aac <uxListRemove>
    38fe:	8c 89       	ldd	r24, Y+20	; 0x14
    3900:	9d 89       	ldd	r25, Y+21	; 0x15
    3902:	89 2b       	or	r24, r25
    3904:	21 f0       	breq	.+8      	; 0x390e <vTaskSuspend+0x36>
    3906:	ce 01       	movw	r24, r28
    3908:	0c 96       	adiw	r24, 0x0c	; 12
    390a:	0e 94 56 25 	call	0x4aac	; 0x4aac <uxListRemove>
    390e:	84 ed       	ldi	r24, 0xD4	; 212
    3910:	94 e1       	ldi	r25, 0x14	; 20
    3912:	b8 01       	movw	r22, r16
    3914:	0e 94 05 25 	call	0x4a0a	; 0x4a0a <vListInsertEnd>
    3918:	0f 90       	pop	r0
    391a:	0f be       	out	0x3f, r0	; 63
    391c:	80 91 73 14 	lds	r24, 0x1473
    3920:	90 91 74 14 	lds	r25, 0x1474
    3924:	c8 17       	cp	r28, r24
    3926:	d9 07       	cpc	r29, r25
    3928:	61 f1       	breq	.+88     	; 0x3982 <vTaskSuspend+0xaa>
    392a:	80 91 85 14 	lds	r24, 0x1485
    392e:	88 23       	and	r24, r24
    3930:	91 f0       	breq	.+36     	; 0x3956 <vTaskSuspend+0x7e>
    3932:	0f b6       	in	r0, 0x3f	; 63
    3934:	f8 94       	cli
    3936:	0f 92       	push	r0
    3938:	e0 91 be 14 	lds	r30, 0x14BE
    393c:	f0 91 bf 14 	lds	r31, 0x14BF
    3940:	80 81       	ld	r24, Z
    3942:	88 23       	and	r24, r24
    3944:	69 f4       	brne	.+26     	; 0x3960 <vTaskSuspend+0x88>
    3946:	8f ef       	ldi	r24, 0xFF	; 255
    3948:	9f ef       	ldi	r25, 0xFF	; 255
    394a:	90 93 41 02 	sts	0x0241, r25
    394e:	80 93 40 02 	sts	0x0240, r24
    3952:	0f 90       	pop	r0
    3954:	0f be       	out	0x3f, r0	; 63
    3956:	cd b7       	in	r28, 0x3d	; 61
    3958:	de b7       	in	r29, 0x3e	; 62
    395a:	e6 e0       	ldi	r30, 0x06	; 6
    395c:	0c 94 b9 2c 	jmp	0x5972	; 0x5972 <__epilogue_restores__+0x18>
    3960:	e0 91 be 14 	lds	r30, 0x14BE
    3964:	f0 91 bf 14 	lds	r31, 0x14BF
    3968:	05 80       	ldd	r0, Z+5	; 0x05
    396a:	f6 81       	ldd	r31, Z+6	; 0x06
    396c:	e0 2d       	mov	r30, r0
    396e:	06 80       	ldd	r0, Z+6	; 0x06
    3970:	f7 81       	ldd	r31, Z+7	; 0x07
    3972:	e0 2d       	mov	r30, r0
    3974:	82 81       	ldd	r24, Z+2	; 0x02
    3976:	93 81       	ldd	r25, Z+3	; 0x03
    3978:	90 93 41 02 	sts	0x0241, r25
    397c:	80 93 40 02 	sts	0x0240, r24
    3980:	e8 cf       	rjmp	.-48     	; 0x3952 <vTaskSuspend+0x7a>
    3982:	80 91 85 14 	lds	r24, 0x1485
    3986:	88 23       	and	r24, r24
    3988:	09 f0       	breq	.+2      	; 0x398c <vTaskSuspend+0xb4>
    398a:	98 c0       	rjmp	.+304    	; 0x3abc <vTaskSuspend+0x1e4>
    398c:	90 91 75 14 	lds	r25, 0x1475
    3990:	80 91 d4 14 	lds	r24, 0x14D4
    3994:	89 17       	cp	r24, r25
    3996:	09 f4       	brne	.+2      	; 0x399a <vTaskSuspend+0xc2>
    3998:	94 c0       	rjmp	.+296    	; 0x3ac2 <vTaskSuspend+0x1ea>
    399a:	80 91 7b 14 	lds	r24, 0x147B
    399e:	88 23       	and	r24, r24
    39a0:	09 f0       	breq	.+2      	; 0x39a4 <vTaskSuspend+0xcc>
    39a2:	88 c0       	rjmp	.+272    	; 0x3ab4 <vTaskSuspend+0x1dc>
    39a4:	10 92 77 14 	sts	0x1477, r1
    39a8:	80 91 84 00 	lds	r24, 0x0084
    39ac:	90 91 85 00 	lds	r25, 0x0085
    39b0:	7c 01       	movw	r14, r24
    39b2:	00 e0       	ldi	r16, 0x00	; 0
    39b4:	10 e0       	ldi	r17, 0x00	; 0
    39b6:	e0 92 7c 14 	sts	0x147C, r14
    39ba:	f0 92 7d 14 	sts	0x147D, r15
    39be:	00 93 7e 14 	sts	0x147E, r16
    39c2:	10 93 7f 14 	sts	0x147F, r17
    39c6:	80 91 80 14 	lds	r24, 0x1480
    39ca:	90 91 81 14 	lds	r25, 0x1481
    39ce:	a0 91 82 14 	lds	r26, 0x1482
    39d2:	b0 91 83 14 	lds	r27, 0x1483
    39d6:	8e 15       	cp	r24, r14
    39d8:	9f 05       	cpc	r25, r15
    39da:	a0 07       	cpc	r26, r16
    39dc:	b1 07       	cpc	r27, r17
    39de:	b0 f4       	brcc	.+44     	; 0x3a0c <vTaskSuspend+0x134>
    39e0:	e0 91 73 14 	lds	r30, 0x1473
    39e4:	f0 91 74 14 	lds	r31, 0x1474
    39e8:	a8 01       	movw	r20, r16
    39ea:	97 01       	movw	r18, r14
    39ec:	28 1b       	sub	r18, r24
    39ee:	39 0b       	sbc	r19, r25
    39f0:	4a 0b       	sbc	r20, r26
    39f2:	5b 0b       	sbc	r21, r27
    39f4:	84 a1       	ldd	r24, Z+36	; 0x24
    39f6:	95 a1       	ldd	r25, Z+37	; 0x25
    39f8:	a6 a1       	ldd	r26, Z+38	; 0x26
    39fa:	b7 a1       	ldd	r27, Z+39	; 0x27
    39fc:	82 0f       	add	r24, r18
    39fe:	93 1f       	adc	r25, r19
    3a00:	a4 1f       	adc	r26, r20
    3a02:	b5 1f       	adc	r27, r21
    3a04:	84 a3       	std	Z+36, r24	; 0x24
    3a06:	95 a3       	std	Z+37, r25	; 0x25
    3a08:	a6 a3       	std	Z+38, r26	; 0x26
    3a0a:	b7 a3       	std	Z+39, r27	; 0x27
    3a0c:	e0 92 80 14 	sts	0x1480, r14
    3a10:	f0 92 81 14 	sts	0x1481, r15
    3a14:	00 93 82 14 	sts	0x1482, r16
    3a18:	10 93 83 14 	sts	0x1483, r17
    3a1c:	e0 91 73 14 	lds	r30, 0x1473
    3a20:	f0 91 74 14 	lds	r31, 0x1474
    3a24:	a0 91 73 14 	lds	r26, 0x1473
    3a28:	b0 91 74 14 	lds	r27, 0x1474
    3a2c:	20 81       	ld	r18, Z
    3a2e:	31 81       	ldd	r19, Z+1	; 0x01
    3a30:	57 96       	adiw	r26, 0x17	; 23
    3a32:	8d 91       	ld	r24, X+
    3a34:	9c 91       	ld	r25, X
    3a36:	58 97       	sbiw	r26, 0x18	; 24
    3a38:	82 17       	cp	r24, r18
    3a3a:	93 07       	cpc	r25, r19
    3a3c:	30 f0       	brcs	.+12     	; 0x3a4a <vTaskSuspend+0x172>
    3a3e:	46 c0       	rjmp	.+140    	; 0x3acc <vTaskSuspend+0x1f4>
    3a40:	80 91 76 14 	lds	r24, 0x1476
    3a44:	81 50       	subi	r24, 0x01	; 1
    3a46:	80 93 76 14 	sts	0x1476, r24
    3a4a:	80 91 76 14 	lds	r24, 0x1476
    3a4e:	90 e0       	ldi	r25, 0x00	; 0
    3a50:	fc 01       	movw	r30, r24
    3a52:	ee 0f       	add	r30, r30
    3a54:	ff 1f       	adc	r31, r31
    3a56:	ee 0f       	add	r30, r30
    3a58:	ff 1f       	adc	r31, r31
    3a5a:	ee 0f       	add	r30, r30
    3a5c:	ff 1f       	adc	r31, r31
    3a5e:	e8 0f       	add	r30, r24
    3a60:	f9 1f       	adc	r31, r25
    3a62:	e8 57       	subi	r30, 0x78	; 120
    3a64:	fb 4e       	sbci	r31, 0xEB	; 235
    3a66:	80 81       	ld	r24, Z
    3a68:	88 23       	and	r24, r24
    3a6a:	51 f3       	breq	.-44     	; 0x3a40 <vTaskSuspend+0x168>
    3a6c:	90 91 76 14 	lds	r25, 0x1476
    3a70:	89 e0       	ldi	r24, 0x09	; 9
    3a72:	98 9f       	mul	r25, r24
    3a74:	d0 01       	movw	r26, r0
    3a76:	11 24       	eor	r1, r1
    3a78:	a8 57       	subi	r26, 0x78	; 120
    3a7a:	bb 4e       	sbci	r27, 0xEB	; 235
    3a7c:	11 96       	adiw	r26, 0x01	; 1
    3a7e:	ed 91       	ld	r30, X+
    3a80:	fc 91       	ld	r31, X
    3a82:	12 97       	sbiw	r26, 0x02	; 2
    3a84:	02 80       	ldd	r0, Z+2	; 0x02
    3a86:	f3 81       	ldd	r31, Z+3	; 0x03
    3a88:	e0 2d       	mov	r30, r0
    3a8a:	12 96       	adiw	r26, 0x02	; 2
    3a8c:	fc 93       	st	X, r31
    3a8e:	ee 93       	st	-X, r30
    3a90:	11 97       	sbiw	r26, 0x01	; 1
    3a92:	cd 01       	movw	r24, r26
    3a94:	03 96       	adiw	r24, 0x03	; 3
    3a96:	e8 17       	cp	r30, r24
    3a98:	f9 07       	cpc	r31, r25
    3a9a:	29 f1       	breq	.+74     	; 0x3ae6 <vTaskSuspend+0x20e>
    3a9c:	86 81       	ldd	r24, Z+6	; 0x06
    3a9e:	97 81       	ldd	r25, Z+7	; 0x07
    3aa0:	90 93 74 14 	sts	0x1474, r25
    3aa4:	80 93 73 14 	sts	0x1473, r24
    3aa8:	56 cf       	rjmp	.-340    	; 0x3956 <vTaskSuspend+0x7e>
    3aaa:	c0 91 73 14 	lds	r28, 0x1473
    3aae:	d0 91 74 14 	lds	r29, 0x1474
    3ab2:	1f cf       	rjmp	.-450    	; 0x38f2 <vTaskSuspend+0x1a>
    3ab4:	81 e0       	ldi	r24, 0x01	; 1
    3ab6:	80 93 77 14 	sts	0x1477, r24
    3aba:	4d cf       	rjmp	.-358    	; 0x3956 <vTaskSuspend+0x7e>
    3abc:	0e 94 90 24 	call	0x4920	; 0x4920 <vPortYield>
    3ac0:	4a cf       	rjmp	.-364    	; 0x3956 <vTaskSuspend+0x7e>
    3ac2:	10 92 74 14 	sts	0x1474, r1
    3ac6:	10 92 73 14 	sts	0x1473, r1
    3aca:	45 cf       	rjmp	.-374    	; 0x3956 <vTaskSuspend+0x7e>
    3acc:	80 91 73 14 	lds	r24, 0x1473
    3ad0:	90 91 74 14 	lds	r25, 0x1474
    3ad4:	60 91 73 14 	lds	r22, 0x1473
    3ad8:	70 91 74 14 	lds	r23, 0x1474
    3adc:	67 5e       	subi	r22, 0xE7	; 231
    3ade:	7f 4f       	sbci	r23, 0xFF	; 255
    3ae0:	0e 94 a6 08 	call	0x114c	; 0x114c <vApplicationStackOverflowHook>
    3ae4:	b2 cf       	rjmp	.-156    	; 0x3a4a <vTaskSuspend+0x172>
    3ae6:	82 81       	ldd	r24, Z+2	; 0x02
    3ae8:	93 81       	ldd	r25, Z+3	; 0x03
    3aea:	11 96       	adiw	r26, 0x01	; 1
    3aec:	8c 93       	st	X, r24
    3aee:	11 97       	sbiw	r26, 0x01	; 1
    3af0:	12 96       	adiw	r26, 0x02	; 2
    3af2:	9c 93       	st	X, r25
    3af4:	9c 01       	movw	r18, r24
    3af6:	f9 01       	movw	r30, r18
    3af8:	d1 cf       	rjmp	.-94     	; 0x3a9c <vTaskSuspend+0x1c4>

00003afa <vTaskDelay>:
    3afa:	a0 e0       	ldi	r26, 0x00	; 0
    3afc:	b0 e0       	ldi	r27, 0x00	; 0
    3afe:	e3 e8       	ldi	r30, 0x83	; 131
    3b00:	fd e1       	ldi	r31, 0x1D	; 29
    3b02:	0c 94 98 2c 	jmp	0x5930	; 0x5930 <__prologue_saves__+0xe>
    3b06:	9c 01       	movw	r18, r24
    3b08:	00 97       	sbiw	r24, 0x00	; 0
    3b0a:	41 f4       	brne	.+16     	; 0x3b1c <vTaskDelay+0x22>
    3b0c:	0e 94 90 24 	call	0x4920	; 0x4920 <vPortYield>
    3b10:	cd b7       	in	r28, 0x3d	; 61
    3b12:	de b7       	in	r29, 0x3e	; 62
    3b14:	eb e0       	ldi	r30, 0x0B	; 11
    3b16:	0c 94 b4 2c 	jmp	0x5968	; 0x5968 <__epilogue_restores__+0xe>
    3b1a:	77 c1       	rjmp	.+750    	; 0x3e0a <vTaskDelayUntil>
    3b1c:	80 91 7b 14 	lds	r24, 0x147B
    3b20:	8f 5f       	subi	r24, 0xFF	; 255
    3b22:	80 93 7b 14 	sts	0x147B, r24
    3b26:	c0 91 78 14 	lds	r28, 0x1478
    3b2a:	d0 91 79 14 	lds	r29, 0x1479
    3b2e:	c2 0f       	add	r28, r18
    3b30:	d3 1f       	adc	r29, r19
    3b32:	80 91 73 14 	lds	r24, 0x1473
    3b36:	90 91 74 14 	lds	r25, 0x1474
    3b3a:	02 96       	adiw	r24, 0x02	; 2
    3b3c:	0e 94 56 25 	call	0x4aac	; 0x4aac <uxListRemove>
    3b40:	e0 91 73 14 	lds	r30, 0x1473
    3b44:	f0 91 74 14 	lds	r31, 0x1474
    3b48:	d3 83       	std	Z+3, r29	; 0x03
    3b4a:	c2 83       	std	Z+2, r28	; 0x02
    3b4c:	80 91 78 14 	lds	r24, 0x1478
    3b50:	90 91 79 14 	lds	r25, 0x1479
    3b54:	c8 17       	cp	r28, r24
    3b56:	d9 07       	cpc	r29, r25
    3b58:	08 f4       	brcc	.+2      	; 0x3b5c <vTaskDelay+0x62>
    3b5a:	5b c0       	rjmp	.+182    	; 0x3c12 <vTaskDelay+0x118>
    3b5c:	80 91 be 14 	lds	r24, 0x14BE
    3b60:	90 91 bf 14 	lds	r25, 0x14BF
    3b64:	60 91 73 14 	lds	r22, 0x1473
    3b68:	70 91 74 14 	lds	r23, 0x1474
    3b6c:	6e 5f       	subi	r22, 0xFE	; 254
    3b6e:	7f 4f       	sbci	r23, 0xFF	; 255
    3b70:	0e 94 24 25 	call	0x4a48	; 0x4a48 <vListInsert>
    3b74:	80 91 40 02 	lds	r24, 0x0240
    3b78:	90 91 41 02 	lds	r25, 0x0241
    3b7c:	c8 17       	cp	r28, r24
    3b7e:	d9 07       	cpc	r29, r25
    3b80:	20 f4       	brcc	.+8      	; 0x3b8a <vTaskDelay+0x90>
    3b82:	d0 93 41 02 	sts	0x0241, r29
    3b86:	c0 93 40 02 	sts	0x0240, r28
    3b8a:	0f b6       	in	r0, 0x3f	; 63
    3b8c:	f8 94       	cli
    3b8e:	0f 92       	push	r0
    3b90:	80 91 7b 14 	lds	r24, 0x147B
    3b94:	81 50       	subi	r24, 0x01	; 1
    3b96:	80 93 7b 14 	sts	0x147B, r24
    3b9a:	80 91 7b 14 	lds	r24, 0x147B
    3b9e:	88 23       	and	r24, r24
    3ba0:	09 f0       	breq	.+2      	; 0x3ba4 <vTaskDelay+0xaa>
    3ba2:	4d c0       	rjmp	.+154    	; 0x3c3e <vTaskDelay+0x144>
    3ba4:	80 91 75 14 	lds	r24, 0x1475
    3ba8:	88 23       	and	r24, r24
    3baa:	09 f4       	brne	.+2      	; 0x3bae <vTaskDelay+0xb4>
    3bac:	48 c0       	rjmp	.+144    	; 0x3c3e <vTaskDelay+0x144>
    3bae:	99 e0       	ldi	r25, 0x09	; 9
    3bb0:	f9 2e       	mov	r15, r25
    3bb2:	ee 24       	eor	r14, r14
    3bb4:	e3 94       	inc	r14
    3bb6:	80 91 c2 14 	lds	r24, 0x14C2
    3bba:	88 23       	and	r24, r24
    3bbc:	b9 f1       	breq	.+110    	; 0x3c2c <vTaskDelay+0x132>
    3bbe:	e0 91 c7 14 	lds	r30, 0x14C7
    3bc2:	f0 91 c8 14 	lds	r31, 0x14C8
    3bc6:	c6 81       	ldd	r28, Z+6	; 0x06
    3bc8:	d7 81       	ldd	r29, Z+7	; 0x07
    3bca:	ce 01       	movw	r24, r28
    3bcc:	0c 96       	adiw	r24, 0x0c	; 12
    3bce:	0e 94 56 25 	call	0x4aac	; 0x4aac <uxListRemove>
    3bd2:	8e 01       	movw	r16, r28
    3bd4:	0e 5f       	subi	r16, 0xFE	; 254
    3bd6:	1f 4f       	sbci	r17, 0xFF	; 255
    3bd8:	c8 01       	movw	r24, r16
    3bda:	0e 94 56 25 	call	0x4aac	; 0x4aac <uxListRemove>
    3bde:	9e 89       	ldd	r25, Y+22	; 0x16
    3be0:	80 91 76 14 	lds	r24, 0x1476
    3be4:	89 17       	cp	r24, r25
    3be6:	10 f4       	brcc	.+4      	; 0x3bec <vTaskDelay+0xf2>
    3be8:	90 93 76 14 	sts	0x1476, r25
    3bec:	9f 9d       	mul	r25, r15
    3bee:	c0 01       	movw	r24, r0
    3bf0:	11 24       	eor	r1, r1
    3bf2:	88 57       	subi	r24, 0x78	; 120
    3bf4:	9b 4e       	sbci	r25, 0xEB	; 235
    3bf6:	b8 01       	movw	r22, r16
    3bf8:	0e 94 05 25 	call	0x4a0a	; 0x4a0a <vListInsertEnd>
    3bfc:	e0 91 73 14 	lds	r30, 0x1473
    3c00:	f0 91 74 14 	lds	r31, 0x1474
    3c04:	9e 89       	ldd	r25, Y+22	; 0x16
    3c06:	86 89       	ldd	r24, Z+22	; 0x16
    3c08:	98 17       	cp	r25, r24
    3c0a:	a8 f2       	brcs	.-86     	; 0x3bb6 <vTaskDelay+0xbc>
    3c0c:	e0 92 77 14 	sts	0x1477, r14
    3c10:	d2 cf       	rjmp	.-92     	; 0x3bb6 <vTaskDelay+0xbc>
    3c12:	80 91 c0 14 	lds	r24, 0x14C0
    3c16:	90 91 c1 14 	lds	r25, 0x14C1
    3c1a:	60 91 73 14 	lds	r22, 0x1473
    3c1e:	70 91 74 14 	lds	r23, 0x1474
    3c22:	6e 5f       	subi	r22, 0xFE	; 254
    3c24:	7f 4f       	sbci	r23, 0xFF	; 255
    3c26:	0e 94 24 25 	call	0x4a48	; 0x4a48 <vListInsert>
    3c2a:	af cf       	rjmp	.-162    	; 0x3b8a <vTaskDelay+0x90>
    3c2c:	80 91 84 14 	lds	r24, 0x1484
    3c30:	88 23       	and	r24, r24
    3c32:	89 f4       	brne	.+34     	; 0x3c56 <vTaskDelay+0x15c>
    3c34:	80 91 77 14 	lds	r24, 0x1477
    3c38:	81 30       	cpi	r24, 0x01	; 1
    3c3a:	09 f4       	brne	.+2      	; 0x3c3e <vTaskDelay+0x144>
    3c3c:	95 c0       	rjmp	.+298    	; 0x3d68 <vTaskDelay+0x26e>
    3c3e:	80 e0       	ldi	r24, 0x00	; 0
    3c40:	0f 90       	pop	r0
    3c42:	0f be       	out	0x3f, r0	; 63
    3c44:	88 23       	and	r24, r24
    3c46:	09 f4       	brne	.+2      	; 0x3c4a <vTaskDelay+0x150>
    3c48:	61 cf       	rjmp	.-318    	; 0x3b0c <vTaskDelay+0x12>
    3c4a:	cd b7       	in	r28, 0x3d	; 61
    3c4c:	de b7       	in	r29, 0x3e	; 62
    3c4e:	eb e0       	ldi	r30, 0x0B	; 11
    3c50:	0c 94 b4 2c 	jmp	0x5968	; 0x5968 <__epilogue_restores__+0xe>
    3c54:	da c0       	rjmp	.+436    	; 0x3e0a <vTaskDelayUntil>
    3c56:	80 91 84 14 	lds	r24, 0x1484
    3c5a:	88 23       	and	r24, r24
    3c5c:	59 f3       	breq	.-42     	; 0x3c34 <vTaskDelay+0x13a>
    3c5e:	89 e0       	ldi	r24, 0x09	; 9
    3c60:	c8 2e       	mov	r12, r24
    3c62:	aa 24       	eor	r10, r10
    3c64:	aa 94       	dec	r10
    3c66:	ba 2c       	mov	r11, r10
    3c68:	99 24       	eor	r9, r9
    3c6a:	93 94       	inc	r9
    3c6c:	80 91 7b 14 	lds	r24, 0x147B
    3c70:	88 23       	and	r24, r24
    3c72:	09 f0       	breq	.+2      	; 0x3c76 <vTaskDelay+0x17c>
    3c74:	7d c0       	rjmp	.+250    	; 0x3d70 <vTaskDelay+0x276>
    3c76:	80 91 78 14 	lds	r24, 0x1478
    3c7a:	90 91 79 14 	lds	r25, 0x1479
    3c7e:	01 96       	adiw	r24, 0x01	; 1
    3c80:	90 93 79 14 	sts	0x1479, r25
    3c84:	80 93 78 14 	sts	0x1478, r24
    3c88:	e0 90 78 14 	lds	r14, 0x1478
    3c8c:	f0 90 79 14 	lds	r15, 0x1479
    3c90:	e1 14       	cp	r14, r1
    3c92:	f1 04       	cpc	r15, r1
    3c94:	09 f5       	brne	.+66     	; 0x3cd8 <vTaskDelay+0x1de>
    3c96:	20 91 be 14 	lds	r18, 0x14BE
    3c9a:	30 91 bf 14 	lds	r19, 0x14BF
    3c9e:	80 91 c0 14 	lds	r24, 0x14C0
    3ca2:	90 91 c1 14 	lds	r25, 0x14C1
    3ca6:	90 93 bf 14 	sts	0x14BF, r25
    3caa:	80 93 be 14 	sts	0x14BE, r24
    3cae:	30 93 c1 14 	sts	0x14C1, r19
    3cb2:	20 93 c0 14 	sts	0x14C0, r18
    3cb6:	80 91 7a 14 	lds	r24, 0x147A
    3cba:	8f 5f       	subi	r24, 0xFF	; 255
    3cbc:	80 93 7a 14 	sts	0x147A, r24
    3cc0:	e0 91 be 14 	lds	r30, 0x14BE
    3cc4:	f0 91 bf 14 	lds	r31, 0x14BF
    3cc8:	80 81       	ld	r24, Z
    3cca:	88 23       	and	r24, r24
    3ccc:	09 f0       	breq	.+2      	; 0x3cd0 <vTaskDelay+0x1d6>
    3cce:	87 c0       	rjmp	.+270    	; 0x3dde <vTaskDelay+0x2e4>
    3cd0:	b0 92 41 02 	sts	0x0241, r11
    3cd4:	a0 92 40 02 	sts	0x0240, r10
    3cd8:	80 91 40 02 	lds	r24, 0x0240
    3cdc:	90 91 41 02 	lds	r25, 0x0241
    3ce0:	e8 16       	cp	r14, r24
    3ce2:	f9 06       	cpc	r15, r25
    3ce4:	08 f4       	brcc	.+2      	; 0x3ce8 <vTaskDelay+0x1ee>
    3ce6:	5e c0       	rjmp	.+188    	; 0x3da4 <vTaskDelay+0x2aa>
    3ce8:	dd 24       	eor	r13, r13
    3cea:	e0 91 be 14 	lds	r30, 0x14BE
    3cee:	f0 91 bf 14 	lds	r31, 0x14BF
    3cf2:	80 81       	ld	r24, Z
    3cf4:	88 23       	and	r24, r24
    3cf6:	09 f4       	brne	.+2      	; 0x3cfa <vTaskDelay+0x200>
    3cf8:	6d c0       	rjmp	.+218    	; 0x3dd4 <vTaskDelay+0x2da>
    3cfa:	e0 91 be 14 	lds	r30, 0x14BE
    3cfe:	f0 91 bf 14 	lds	r31, 0x14BF
    3d02:	05 80       	ldd	r0, Z+5	; 0x05
    3d04:	f6 81       	ldd	r31, Z+6	; 0x06
    3d06:	e0 2d       	mov	r30, r0
    3d08:	c6 81       	ldd	r28, Z+6	; 0x06
    3d0a:	d7 81       	ldd	r29, Z+7	; 0x07
    3d0c:	8a 81       	ldd	r24, Y+2	; 0x02
    3d0e:	9b 81       	ldd	r25, Y+3	; 0x03
    3d10:	e8 16       	cp	r14, r24
    3d12:	f9 06       	cpc	r15, r25
    3d14:	08 f4       	brcc	.+2      	; 0x3d18 <vTaskDelay+0x21e>
    3d16:	74 c0       	rjmp	.+232    	; 0x3e00 <vTaskDelay+0x306>
    3d18:	8e 01       	movw	r16, r28
    3d1a:	0e 5f       	subi	r16, 0xFE	; 254
    3d1c:	1f 4f       	sbci	r17, 0xFF	; 255
    3d1e:	c8 01       	movw	r24, r16
    3d20:	0e 94 56 25 	call	0x4aac	; 0x4aac <uxListRemove>
    3d24:	8c 89       	ldd	r24, Y+20	; 0x14
    3d26:	9d 89       	ldd	r25, Y+21	; 0x15
    3d28:	89 2b       	or	r24, r25
    3d2a:	21 f0       	breq	.+8      	; 0x3d34 <vTaskDelay+0x23a>
    3d2c:	ce 01       	movw	r24, r28
    3d2e:	0c 96       	adiw	r24, 0x0c	; 12
    3d30:	0e 94 56 25 	call	0x4aac	; 0x4aac <uxListRemove>
    3d34:	9e 89       	ldd	r25, Y+22	; 0x16
    3d36:	80 91 76 14 	lds	r24, 0x1476
    3d3a:	89 17       	cp	r24, r25
    3d3c:	10 f4       	brcc	.+4      	; 0x3d42 <vTaskDelay+0x248>
    3d3e:	90 93 76 14 	sts	0x1476, r25
    3d42:	9c 9d       	mul	r25, r12
    3d44:	c0 01       	movw	r24, r0
    3d46:	11 24       	eor	r1, r1
    3d48:	88 57       	subi	r24, 0x78	; 120
    3d4a:	9b 4e       	sbci	r25, 0xEB	; 235
    3d4c:	b8 01       	movw	r22, r16
    3d4e:	0e 94 05 25 	call	0x4a0a	; 0x4a0a <vListInsertEnd>
    3d52:	e0 91 73 14 	lds	r30, 0x1473
    3d56:	f0 91 74 14 	lds	r31, 0x1474
    3d5a:	9e 89       	ldd	r25, Y+22	; 0x16
    3d5c:	86 89       	ldd	r24, Z+22	; 0x16
    3d5e:	98 17       	cp	r25, r24
    3d60:	20 f2       	brcs	.-120    	; 0x3cea <vTaskDelay+0x1f0>
    3d62:	dd 24       	eor	r13, r13
    3d64:	d3 94       	inc	r13
    3d66:	c1 cf       	rjmp	.-126    	; 0x3cea <vTaskDelay+0x1f0>
    3d68:	0e 94 90 24 	call	0x4920	; 0x4920 <vPortYield>
    3d6c:	81 e0       	ldi	r24, 0x01	; 1
    3d6e:	68 cf       	rjmp	.-304    	; 0x3c40 <vTaskDelay+0x146>
    3d70:	80 91 84 14 	lds	r24, 0x1484
    3d74:	8f 5f       	subi	r24, 0xFF	; 255
    3d76:	80 93 84 14 	sts	0x1484, r24
    3d7a:	dd 24       	eor	r13, r13
    3d7c:	80 91 77 14 	lds	r24, 0x1477
    3d80:	88 23       	and	r24, r24
    3d82:	69 f4       	brne	.+26     	; 0x3d9e <vTaskDelay+0x2a4>
    3d84:	dd 20       	and	r13, r13
    3d86:	59 f4       	brne	.+22     	; 0x3d9e <vTaskDelay+0x2a4>
    3d88:	80 91 84 14 	lds	r24, 0x1484
    3d8c:	81 50       	subi	r24, 0x01	; 1
    3d8e:	80 93 84 14 	sts	0x1484, r24
    3d92:	80 91 84 14 	lds	r24, 0x1484
    3d96:	88 23       	and	r24, r24
    3d98:	09 f0       	breq	.+2      	; 0x3d9c <vTaskDelay+0x2a2>
    3d9a:	68 cf       	rjmp	.-304    	; 0x3c6c <vTaskDelay+0x172>
    3d9c:	4b cf       	rjmp	.-362    	; 0x3c34 <vTaskDelay+0x13a>
    3d9e:	90 92 77 14 	sts	0x1477, r9
    3da2:	f2 cf       	rjmp	.-28     	; 0x3d88 <vTaskDelay+0x28e>
    3da4:	dd 24       	eor	r13, r13
    3da6:	e0 91 73 14 	lds	r30, 0x1473
    3daa:	f0 91 74 14 	lds	r31, 0x1474
    3dae:	86 89       	ldd	r24, Z+22	; 0x16
    3db0:	90 e0       	ldi	r25, 0x00	; 0
    3db2:	fc 01       	movw	r30, r24
    3db4:	ee 0f       	add	r30, r30
    3db6:	ff 1f       	adc	r31, r31
    3db8:	ee 0f       	add	r30, r30
    3dba:	ff 1f       	adc	r31, r31
    3dbc:	ee 0f       	add	r30, r30
    3dbe:	ff 1f       	adc	r31, r31
    3dc0:	e8 0f       	add	r30, r24
    3dc2:	f9 1f       	adc	r31, r25
    3dc4:	e8 57       	subi	r30, 0x78	; 120
    3dc6:	fb 4e       	sbci	r31, 0xEB	; 235
    3dc8:	80 81       	ld	r24, Z
    3dca:	82 30       	cpi	r24, 0x02	; 2
    3dcc:	b8 f2       	brcs	.-82     	; 0x3d7c <vTaskDelay+0x282>
    3dce:	dd 24       	eor	r13, r13
    3dd0:	d3 94       	inc	r13
    3dd2:	d4 cf       	rjmp	.-88     	; 0x3d7c <vTaskDelay+0x282>
    3dd4:	b0 92 41 02 	sts	0x0241, r11
    3dd8:	a0 92 40 02 	sts	0x0240, r10
    3ddc:	e4 cf       	rjmp	.-56     	; 0x3da6 <vTaskDelay+0x2ac>
    3dde:	e0 91 be 14 	lds	r30, 0x14BE
    3de2:	f0 91 bf 14 	lds	r31, 0x14BF
    3de6:	05 80       	ldd	r0, Z+5	; 0x05
    3de8:	f6 81       	ldd	r31, Z+6	; 0x06
    3dea:	e0 2d       	mov	r30, r0
    3dec:	06 80       	ldd	r0, Z+6	; 0x06
    3dee:	f7 81       	ldd	r31, Z+7	; 0x07
    3df0:	e0 2d       	mov	r30, r0
    3df2:	82 81       	ldd	r24, Z+2	; 0x02
    3df4:	93 81       	ldd	r25, Z+3	; 0x03
    3df6:	90 93 41 02 	sts	0x0241, r25
    3dfa:	80 93 40 02 	sts	0x0240, r24
    3dfe:	6c cf       	rjmp	.-296    	; 0x3cd8 <vTaskDelay+0x1de>
    3e00:	90 93 41 02 	sts	0x0241, r25
    3e04:	80 93 40 02 	sts	0x0240, r24
    3e08:	ce cf       	rjmp	.-100    	; 0x3da6 <vTaskDelay+0x2ac>

00003e0a <vTaskDelayUntil>:
    3e0a:	a0 e0       	ldi	r26, 0x00	; 0
    3e0c:	b0 e0       	ldi	r27, 0x00	; 0
    3e0e:	eb e0       	ldi	r30, 0x0B	; 11
    3e10:	ff e1       	ldi	r31, 0x1F	; 31
    3e12:	0c 94 98 2c 	jmp	0x5930	; 0x5930 <__prologue_saves__+0xe>
    3e16:	fc 01       	movw	r30, r24
    3e18:	eb 01       	movw	r28, r22
    3e1a:	80 91 7b 14 	lds	r24, 0x147B
    3e1e:	8f 5f       	subi	r24, 0xFF	; 255
    3e20:	80 93 7b 14 	sts	0x147B, r24
    3e24:	20 91 78 14 	lds	r18, 0x1478
    3e28:	30 91 79 14 	lds	r19, 0x1479
    3e2c:	80 81       	ld	r24, Z
    3e2e:	91 81       	ldd	r25, Z+1	; 0x01
    3e30:	c8 0f       	add	r28, r24
    3e32:	d9 1f       	adc	r29, r25
    3e34:	28 17       	cp	r18, r24
    3e36:	39 07       	cpc	r19, r25
    3e38:	08 f0       	brcs	.+2      	; 0x3e3c <vTaskDelayUntil+0x32>
    3e3a:	16 c1       	rjmp	.+556    	; 0x4068 <vTaskDelayUntil+0x25e>
    3e3c:	c8 17       	cp	r28, r24
    3e3e:	d9 07       	cpc	r29, r25
    3e40:	08 f0       	brcs	.+2      	; 0x3e44 <vTaskDelayUntil+0x3a>
    3e42:	24 c1       	rjmp	.+584    	; 0x408c <vTaskDelayUntil+0x282>
    3e44:	2c 17       	cp	r18, r28
    3e46:	3d 07       	cpc	r19, r29
    3e48:	08 f0       	brcs	.+2      	; 0x3e4c <vTaskDelayUntil+0x42>
    3e4a:	20 c1       	rjmp	.+576    	; 0x408c <vTaskDelayUntil+0x282>
    3e4c:	d1 83       	std	Z+1, r29	; 0x01
    3e4e:	c0 83       	st	Z, r28
    3e50:	80 91 73 14 	lds	r24, 0x1473
    3e54:	90 91 74 14 	lds	r25, 0x1474
    3e58:	02 96       	adiw	r24, 0x02	; 2
    3e5a:	0e 94 56 25 	call	0x4aac	; 0x4aac <uxListRemove>
    3e5e:	e0 91 73 14 	lds	r30, 0x1473
    3e62:	f0 91 74 14 	lds	r31, 0x1474
    3e66:	d3 83       	std	Z+3, r29	; 0x03
    3e68:	c2 83       	std	Z+2, r28	; 0x02
    3e6a:	80 91 78 14 	lds	r24, 0x1478
    3e6e:	90 91 79 14 	lds	r25, 0x1479
    3e72:	c8 17       	cp	r28, r24
    3e74:	d9 07       	cpc	r29, r25
    3e76:	08 f4       	brcc	.+2      	; 0x3e7a <vTaskDelayUntil+0x70>
    3e78:	fc c0       	rjmp	.+504    	; 0x4072 <vTaskDelayUntil+0x268>
    3e7a:	80 91 be 14 	lds	r24, 0x14BE
    3e7e:	90 91 bf 14 	lds	r25, 0x14BF
    3e82:	60 91 73 14 	lds	r22, 0x1473
    3e86:	70 91 74 14 	lds	r23, 0x1474
    3e8a:	6e 5f       	subi	r22, 0xFE	; 254
    3e8c:	7f 4f       	sbci	r23, 0xFF	; 255
    3e8e:	0e 94 24 25 	call	0x4a48	; 0x4a48 <vListInsert>
    3e92:	80 91 40 02 	lds	r24, 0x0240
    3e96:	90 91 41 02 	lds	r25, 0x0241
    3e9a:	c8 17       	cp	r28, r24
    3e9c:	d9 07       	cpc	r29, r25
    3e9e:	20 f4       	brcc	.+8      	; 0x3ea8 <vTaskDelayUntil+0x9e>
    3ea0:	d0 93 41 02 	sts	0x0241, r29
    3ea4:	c0 93 40 02 	sts	0x0240, r28
    3ea8:	0f b6       	in	r0, 0x3f	; 63
    3eaa:	f8 94       	cli
    3eac:	0f 92       	push	r0
    3eae:	80 91 7b 14 	lds	r24, 0x147B
    3eb2:	81 50       	subi	r24, 0x01	; 1
    3eb4:	80 93 7b 14 	sts	0x147B, r24
    3eb8:	80 91 7b 14 	lds	r24, 0x147B
    3ebc:	88 23       	and	r24, r24
    3ebe:	09 f0       	breq	.+2      	; 0x3ec2 <vTaskDelayUntil+0xb8>
    3ec0:	03 c1       	rjmp	.+518    	; 0x40c8 <vTaskDelayUntil+0x2be>
    3ec2:	80 91 75 14 	lds	r24, 0x1475
    3ec6:	88 23       	and	r24, r24
    3ec8:	09 f4       	brne	.+2      	; 0x3ecc <vTaskDelayUntil+0xc2>
    3eca:	fe c0       	rjmp	.+508    	; 0x40c8 <vTaskDelayUntil+0x2be>
    3ecc:	49 e0       	ldi	r20, 0x09	; 9
    3ece:	f4 2e       	mov	r15, r20
    3ed0:	ee 24       	eor	r14, r14
    3ed2:	e3 94       	inc	r14
    3ed4:	80 91 c2 14 	lds	r24, 0x14C2
    3ed8:	88 23       	and	r24, r24
    3eda:	69 f1       	breq	.+90     	; 0x3f36 <vTaskDelayUntil+0x12c>
    3edc:	e0 91 c7 14 	lds	r30, 0x14C7
    3ee0:	f0 91 c8 14 	lds	r31, 0x14C8
    3ee4:	c6 81       	ldd	r28, Z+6	; 0x06
    3ee6:	d7 81       	ldd	r29, Z+7	; 0x07
    3ee8:	ce 01       	movw	r24, r28
    3eea:	0c 96       	adiw	r24, 0x0c	; 12
    3eec:	0e 94 56 25 	call	0x4aac	; 0x4aac <uxListRemove>
    3ef0:	8e 01       	movw	r16, r28
    3ef2:	0e 5f       	subi	r16, 0xFE	; 254
    3ef4:	1f 4f       	sbci	r17, 0xFF	; 255
    3ef6:	c8 01       	movw	r24, r16
    3ef8:	0e 94 56 25 	call	0x4aac	; 0x4aac <uxListRemove>
    3efc:	9e 89       	ldd	r25, Y+22	; 0x16
    3efe:	80 91 76 14 	lds	r24, 0x1476
    3f02:	89 17       	cp	r24, r25
    3f04:	10 f4       	brcc	.+4      	; 0x3f0a <vTaskDelayUntil+0x100>
    3f06:	90 93 76 14 	sts	0x1476, r25
    3f0a:	9f 9d       	mul	r25, r15
    3f0c:	c0 01       	movw	r24, r0
    3f0e:	11 24       	eor	r1, r1
    3f10:	88 57       	subi	r24, 0x78	; 120
    3f12:	9b 4e       	sbci	r25, 0xEB	; 235
    3f14:	b8 01       	movw	r22, r16
    3f16:	0e 94 05 25 	call	0x4a0a	; 0x4a0a <vListInsertEnd>
    3f1a:	e0 91 73 14 	lds	r30, 0x1473
    3f1e:	f0 91 74 14 	lds	r31, 0x1474
    3f22:	9e 89       	ldd	r25, Y+22	; 0x16
    3f24:	86 89       	ldd	r24, Z+22	; 0x16
    3f26:	98 17       	cp	r25, r24
    3f28:	a8 f2       	brcs	.-86     	; 0x3ed4 <vTaskDelayUntil+0xca>
    3f2a:	e0 92 77 14 	sts	0x1477, r14
    3f2e:	80 91 c2 14 	lds	r24, 0x14C2
    3f32:	88 23       	and	r24, r24
    3f34:	99 f6       	brne	.-90     	; 0x3edc <vTaskDelayUntil+0xd2>
    3f36:	80 91 84 14 	lds	r24, 0x1484
    3f3a:	88 23       	and	r24, r24
    3f3c:	09 f4       	brne	.+2      	; 0x3f40 <vTaskDelayUntil+0x136>
    3f3e:	bf c0       	rjmp	.+382    	; 0x40be <vTaskDelayUntil+0x2b4>
    3f40:	80 91 84 14 	lds	r24, 0x1484
    3f44:	88 23       	and	r24, r24
    3f46:	09 f4       	brne	.+2      	; 0x3f4a <vTaskDelayUntil+0x140>
    3f48:	ba c0       	rjmp	.+372    	; 0x40be <vTaskDelayUntil+0x2b4>
    3f4a:	39 e0       	ldi	r19, 0x09	; 9
    3f4c:	c3 2e       	mov	r12, r19
    3f4e:	aa 24       	eor	r10, r10
    3f50:	aa 94       	dec	r10
    3f52:	ba 2c       	mov	r11, r10
    3f54:	99 24       	eor	r9, r9
    3f56:	93 94       	inc	r9
    3f58:	80 91 7b 14 	lds	r24, 0x147B
    3f5c:	88 23       	and	r24, r24
    3f5e:	09 f0       	breq	.+2      	; 0x3f62 <vTaskDelayUntil+0x158>
    3f60:	98 c0       	rjmp	.+304    	; 0x4092 <vTaskDelayUntil+0x288>
    3f62:	80 91 78 14 	lds	r24, 0x1478
    3f66:	90 91 79 14 	lds	r25, 0x1479
    3f6a:	01 96       	adiw	r24, 0x01	; 1
    3f6c:	90 93 79 14 	sts	0x1479, r25
    3f70:	80 93 78 14 	sts	0x1478, r24
    3f74:	e0 90 78 14 	lds	r14, 0x1478
    3f78:	f0 90 79 14 	lds	r15, 0x1479
    3f7c:	e1 14       	cp	r14, r1
    3f7e:	f1 04       	cpc	r15, r1
    3f80:	09 f5       	brne	.+66     	; 0x3fc4 <vTaskDelayUntil+0x1ba>
    3f82:	20 91 be 14 	lds	r18, 0x14BE
    3f86:	30 91 bf 14 	lds	r19, 0x14BF
    3f8a:	80 91 c0 14 	lds	r24, 0x14C0
    3f8e:	90 91 c1 14 	lds	r25, 0x14C1
    3f92:	90 93 bf 14 	sts	0x14BF, r25
    3f96:	80 93 be 14 	sts	0x14BE, r24
    3f9a:	30 93 c1 14 	sts	0x14C1, r19
    3f9e:	20 93 c0 14 	sts	0x14C0, r18
    3fa2:	80 91 7a 14 	lds	r24, 0x147A
    3fa6:	8f 5f       	subi	r24, 0xFF	; 255
    3fa8:	80 93 7a 14 	sts	0x147A, r24
    3fac:	e0 91 be 14 	lds	r30, 0x14BE
    3fb0:	f0 91 bf 14 	lds	r31, 0x14BF
    3fb4:	80 81       	ld	r24, Z
    3fb6:	88 23       	and	r24, r24
    3fb8:	09 f0       	breq	.+2      	; 0x3fbc <vTaskDelayUntil+0x1b2>
    3fba:	ad c0       	rjmp	.+346    	; 0x4116 <vTaskDelayUntil+0x30c>
    3fbc:	b0 92 41 02 	sts	0x0241, r11
    3fc0:	a0 92 40 02 	sts	0x0240, r10
    3fc4:	80 91 40 02 	lds	r24, 0x0240
    3fc8:	90 91 41 02 	lds	r25, 0x0241
    3fcc:	e8 16       	cp	r14, r24
    3fce:	f9 06       	cpc	r15, r25
    3fd0:	08 f4       	brcc	.+2      	; 0x3fd4 <vTaskDelayUntil+0x1ca>
    3fd2:	89 c0       	rjmp	.+274    	; 0x40e6 <vTaskDelayUntil+0x2dc>
    3fd4:	dd 24       	eor	r13, r13
    3fd6:	e0 91 be 14 	lds	r30, 0x14BE
    3fda:	f0 91 bf 14 	lds	r31, 0x14BF
    3fde:	80 81       	ld	r24, Z
    3fe0:	88 23       	and	r24, r24
    3fe2:	e9 f1       	breq	.+122    	; 0x405e <vTaskDelayUntil+0x254>
    3fe4:	e0 91 be 14 	lds	r30, 0x14BE
    3fe8:	f0 91 bf 14 	lds	r31, 0x14BF
    3fec:	05 80       	ldd	r0, Z+5	; 0x05
    3fee:	f6 81       	ldd	r31, Z+6	; 0x06
    3ff0:	e0 2d       	mov	r30, r0
    3ff2:	c6 81       	ldd	r28, Z+6	; 0x06
    3ff4:	d7 81       	ldd	r29, Z+7	; 0x07
    3ff6:	8a 81       	ldd	r24, Y+2	; 0x02
    3ff8:	9b 81       	ldd	r25, Y+3	; 0x03
    3ffa:	e8 16       	cp	r14, r24
    3ffc:	f9 06       	cpc	r15, r25
    3ffe:	08 f4       	brcc	.+2      	; 0x4002 <vTaskDelayUntil+0x1f8>
    4000:	9b c0       	rjmp	.+310    	; 0x4138 <vTaskDelayUntil+0x32e>
    4002:	8e 01       	movw	r16, r28
    4004:	0e 5f       	subi	r16, 0xFE	; 254
    4006:	1f 4f       	sbci	r17, 0xFF	; 255
    4008:	c8 01       	movw	r24, r16
    400a:	0e 94 56 25 	call	0x4aac	; 0x4aac <uxListRemove>
    400e:	8c 89       	ldd	r24, Y+20	; 0x14
    4010:	9d 89       	ldd	r25, Y+21	; 0x15
    4012:	89 2b       	or	r24, r25
    4014:	21 f0       	breq	.+8      	; 0x401e <vTaskDelayUntil+0x214>
    4016:	ce 01       	movw	r24, r28
    4018:	0c 96       	adiw	r24, 0x0c	; 12
    401a:	0e 94 56 25 	call	0x4aac	; 0x4aac <uxListRemove>
    401e:	9e 89       	ldd	r25, Y+22	; 0x16
    4020:	80 91 76 14 	lds	r24, 0x1476
    4024:	89 17       	cp	r24, r25
    4026:	10 f4       	brcc	.+4      	; 0x402c <vTaskDelayUntil+0x222>
    4028:	90 93 76 14 	sts	0x1476, r25
    402c:	9c 9d       	mul	r25, r12
    402e:	c0 01       	movw	r24, r0
    4030:	11 24       	eor	r1, r1
    4032:	88 57       	subi	r24, 0x78	; 120
    4034:	9b 4e       	sbci	r25, 0xEB	; 235
    4036:	b8 01       	movw	r22, r16
    4038:	0e 94 05 25 	call	0x4a0a	; 0x4a0a <vListInsertEnd>
    403c:	e0 91 73 14 	lds	r30, 0x1473
    4040:	f0 91 74 14 	lds	r31, 0x1474
    4044:	9e 89       	ldd	r25, Y+22	; 0x16
    4046:	86 89       	ldd	r24, Z+22	; 0x16
    4048:	98 17       	cp	r25, r24
    404a:	28 f2       	brcs	.-118    	; 0x3fd6 <vTaskDelayUntil+0x1cc>
    404c:	dd 24       	eor	r13, r13
    404e:	d3 94       	inc	r13
    4050:	e0 91 be 14 	lds	r30, 0x14BE
    4054:	f0 91 bf 14 	lds	r31, 0x14BF
    4058:	80 81       	ld	r24, Z
    405a:	88 23       	and	r24, r24
    405c:	19 f6       	brne	.-122    	; 0x3fe4 <vTaskDelayUntil+0x1da>
    405e:	b0 92 41 02 	sts	0x0241, r11
    4062:	a0 92 40 02 	sts	0x0240, r10
    4066:	40 c0       	rjmp	.+128    	; 0x40e8 <vTaskDelayUntil+0x2de>
    4068:	c8 17       	cp	r28, r24
    406a:	d9 07       	cpc	r29, r25
    406c:	08 f4       	brcc	.+2      	; 0x4070 <vTaskDelayUntil+0x266>
    406e:	ee ce       	rjmp	.-548    	; 0x3e4c <vTaskDelayUntil+0x42>
    4070:	e9 ce       	rjmp	.-558    	; 0x3e44 <vTaskDelayUntil+0x3a>
    4072:	80 91 c0 14 	lds	r24, 0x14C0
    4076:	90 91 c1 14 	lds	r25, 0x14C1
    407a:	60 91 73 14 	lds	r22, 0x1473
    407e:	70 91 74 14 	lds	r23, 0x1474
    4082:	6e 5f       	subi	r22, 0xFE	; 254
    4084:	7f 4f       	sbci	r23, 0xFF	; 255
    4086:	0e 94 24 25 	call	0x4a48	; 0x4a48 <vListInsert>
    408a:	0e cf       	rjmp	.-484    	; 0x3ea8 <vTaskDelayUntil+0x9e>
    408c:	d1 83       	std	Z+1, r29	; 0x01
    408e:	c0 83       	st	Z, r28
    4090:	0b cf       	rjmp	.-490    	; 0x3ea8 <vTaskDelayUntil+0x9e>
    4092:	80 91 84 14 	lds	r24, 0x1484
    4096:	8f 5f       	subi	r24, 0xFF	; 255
    4098:	80 93 84 14 	sts	0x1484, r24
    409c:	dd 24       	eor	r13, r13
    409e:	80 91 77 14 	lds	r24, 0x1477
    40a2:	88 23       	and	r24, r24
    40a4:	e9 f4       	brne	.+58     	; 0x40e0 <vTaskDelayUntil+0x2d6>
    40a6:	dd 20       	and	r13, r13
    40a8:	d9 f4       	brne	.+54     	; 0x40e0 <vTaskDelayUntil+0x2d6>
    40aa:	80 91 84 14 	lds	r24, 0x1484
    40ae:	81 50       	subi	r24, 0x01	; 1
    40b0:	80 93 84 14 	sts	0x1484, r24
    40b4:	80 91 84 14 	lds	r24, 0x1484
    40b8:	88 23       	and	r24, r24
    40ba:	09 f0       	breq	.+2      	; 0x40be <vTaskDelayUntil+0x2b4>
    40bc:	4d cf       	rjmp	.-358    	; 0x3f58 <vTaskDelayUntil+0x14e>
    40be:	80 91 77 14 	lds	r24, 0x1477
    40c2:	81 30       	cpi	r24, 0x01	; 1
    40c4:	09 f4       	brne	.+2      	; 0x40c8 <vTaskDelayUntil+0x2be>
    40c6:	3d c0       	rjmp	.+122    	; 0x4142 <vTaskDelayUntil+0x338>
    40c8:	80 e0       	ldi	r24, 0x00	; 0
    40ca:	0f 90       	pop	r0
    40cc:	0f be       	out	0x3f, r0	; 63
    40ce:	88 23       	and	r24, r24
    40d0:	11 f4       	brne	.+4      	; 0x40d6 <vTaskDelayUntil+0x2cc>
    40d2:	0e 94 90 24 	call	0x4920	; 0x4920 <vPortYield>
    40d6:	cd b7       	in	r28, 0x3d	; 61
    40d8:	de b7       	in	r29, 0x3e	; 62
    40da:	eb e0       	ldi	r30, 0x0B	; 11
    40dc:	0c 94 b4 2c 	jmp	0x5968	; 0x5968 <__epilogue_restores__+0xe>
    40e0:	90 92 77 14 	sts	0x1477, r9
    40e4:	e2 cf       	rjmp	.-60     	; 0x40aa <vTaskDelayUntil+0x2a0>
    40e6:	dd 24       	eor	r13, r13
    40e8:	e0 91 73 14 	lds	r30, 0x1473
    40ec:	f0 91 74 14 	lds	r31, 0x1474
    40f0:	86 89       	ldd	r24, Z+22	; 0x16
    40f2:	90 e0       	ldi	r25, 0x00	; 0
    40f4:	fc 01       	movw	r30, r24
    40f6:	ee 0f       	add	r30, r30
    40f8:	ff 1f       	adc	r31, r31
    40fa:	ee 0f       	add	r30, r30
    40fc:	ff 1f       	adc	r31, r31
    40fe:	ee 0f       	add	r30, r30
    4100:	ff 1f       	adc	r31, r31
    4102:	e8 0f       	add	r30, r24
    4104:	f9 1f       	adc	r31, r25
    4106:	e8 57       	subi	r30, 0x78	; 120
    4108:	fb 4e       	sbci	r31, 0xEB	; 235
    410a:	80 81       	ld	r24, Z
    410c:	82 30       	cpi	r24, 0x02	; 2
    410e:	38 f2       	brcs	.-114    	; 0x409e <vTaskDelayUntil+0x294>
    4110:	dd 24       	eor	r13, r13
    4112:	d3 94       	inc	r13
    4114:	c4 cf       	rjmp	.-120    	; 0x409e <vTaskDelayUntil+0x294>
    4116:	e0 91 be 14 	lds	r30, 0x14BE
    411a:	f0 91 bf 14 	lds	r31, 0x14BF
    411e:	05 80       	ldd	r0, Z+5	; 0x05
    4120:	f6 81       	ldd	r31, Z+6	; 0x06
    4122:	e0 2d       	mov	r30, r0
    4124:	06 80       	ldd	r0, Z+6	; 0x06
    4126:	f7 81       	ldd	r31, Z+7	; 0x07
    4128:	e0 2d       	mov	r30, r0
    412a:	82 81       	ldd	r24, Z+2	; 0x02
    412c:	93 81       	ldd	r25, Z+3	; 0x03
    412e:	90 93 41 02 	sts	0x0241, r25
    4132:	80 93 40 02 	sts	0x0240, r24
    4136:	46 cf       	rjmp	.-372    	; 0x3fc4 <vTaskDelayUntil+0x1ba>
    4138:	90 93 41 02 	sts	0x0241, r25
    413c:	80 93 40 02 	sts	0x0240, r24
    4140:	d3 cf       	rjmp	.-90     	; 0x40e8 <vTaskDelayUntil+0x2de>
    4142:	0e 94 90 24 	call	0x4920	; 0x4920 <vPortYield>
    4146:	81 e0       	ldi	r24, 0x01	; 1
    4148:	c0 cf       	rjmp	.-128    	; 0x40ca <vTaskDelayUntil+0x2c0>

0000414a <vTaskDelete>:
    414a:	0f 93       	push	r16
    414c:	1f 93       	push	r17
    414e:	cf 93       	push	r28
    4150:	df 93       	push	r29
    4152:	0f b6       	in	r0, 0x3f	; 63
    4154:	f8 94       	cli
    4156:	0f 92       	push	r0
    4158:	00 97       	sbiw	r24, 0x00	; 0
    415a:	09 f4       	brne	.+2      	; 0x415e <vTaskDelete+0x14>
    415c:	53 c0       	rjmp	.+166    	; 0x4204 <vTaskDelete+0xba>
    415e:	ec 01       	movw	r28, r24
    4160:	8e 01       	movw	r16, r28
    4162:	0e 5f       	subi	r16, 0xFE	; 254
    4164:	1f 4f       	sbci	r17, 0xFF	; 255
    4166:	c8 01       	movw	r24, r16
    4168:	0e 94 56 25 	call	0x4aac	; 0x4aac <uxListRemove>
    416c:	8c 89       	ldd	r24, Y+20	; 0x14
    416e:	9d 89       	ldd	r25, Y+21	; 0x15
    4170:	89 2b       	or	r24, r25
    4172:	21 f0       	breq	.+8      	; 0x417c <vTaskDelete+0x32>
    4174:	ce 01       	movw	r24, r28
    4176:	0c 96       	adiw	r24, 0x0c	; 12
    4178:	0e 94 56 25 	call	0x4aac	; 0x4aac <uxListRemove>
    417c:	8b ec       	ldi	r24, 0xCB	; 203
    417e:	94 e1       	ldi	r25, 0x14	; 20
    4180:	b8 01       	movw	r22, r16
    4182:	0e 94 05 25 	call	0x4a0a	; 0x4a0a <vListInsertEnd>
    4186:	80 91 86 14 	lds	r24, 0x1486
    418a:	8f 5f       	subi	r24, 0xFF	; 255
    418c:	80 93 86 14 	sts	0x1486, r24
    4190:	80 91 87 14 	lds	r24, 0x1487
    4194:	8f 5f       	subi	r24, 0xFF	; 255
    4196:	80 93 87 14 	sts	0x1487, r24
    419a:	0f 90       	pop	r0
    419c:	0f be       	out	0x3f, r0	; 63
    419e:	80 91 85 14 	lds	r24, 0x1485
    41a2:	88 23       	and	r24, r24
    41a4:	19 f1       	breq	.+70     	; 0x41ec <vTaskDelete+0xa2>
    41a6:	80 91 73 14 	lds	r24, 0x1473
    41aa:	90 91 74 14 	lds	r25, 0x1474
    41ae:	c8 17       	cp	r28, r24
    41b0:	d9 07       	cpc	r29, r25
    41b2:	69 f1       	breq	.+90     	; 0x420e <vTaskDelete+0xc4>
    41b4:	0f b6       	in	r0, 0x3f	; 63
    41b6:	f8 94       	cli
    41b8:	0f 92       	push	r0
    41ba:	e0 91 be 14 	lds	r30, 0x14BE
    41be:	f0 91 bf 14 	lds	r31, 0x14BF
    41c2:	80 81       	ld	r24, Z
    41c4:	88 23       	and	r24, r24
    41c6:	b9 f0       	breq	.+46     	; 0x41f6 <vTaskDelete+0xac>
    41c8:	e0 91 be 14 	lds	r30, 0x14BE
    41cc:	f0 91 bf 14 	lds	r31, 0x14BF
    41d0:	05 80       	ldd	r0, Z+5	; 0x05
    41d2:	f6 81       	ldd	r31, Z+6	; 0x06
    41d4:	e0 2d       	mov	r30, r0
    41d6:	06 80       	ldd	r0, Z+6	; 0x06
    41d8:	f7 81       	ldd	r31, Z+7	; 0x07
    41da:	e0 2d       	mov	r30, r0
    41dc:	82 81       	ldd	r24, Z+2	; 0x02
    41de:	93 81       	ldd	r25, Z+3	; 0x03
    41e0:	90 93 41 02 	sts	0x0241, r25
    41e4:	80 93 40 02 	sts	0x0240, r24
    41e8:	0f 90       	pop	r0
    41ea:	0f be       	out	0x3f, r0	; 63
    41ec:	df 91       	pop	r29
    41ee:	cf 91       	pop	r28
    41f0:	1f 91       	pop	r17
    41f2:	0f 91       	pop	r16
    41f4:	08 95       	ret
    41f6:	8f ef       	ldi	r24, 0xFF	; 255
    41f8:	9f ef       	ldi	r25, 0xFF	; 255
    41fa:	90 93 41 02 	sts	0x0241, r25
    41fe:	80 93 40 02 	sts	0x0240, r24
    4202:	f2 cf       	rjmp	.-28     	; 0x41e8 <vTaskDelete+0x9e>
    4204:	c0 91 73 14 	lds	r28, 0x1473
    4208:	d0 91 74 14 	lds	r29, 0x1474
    420c:	a9 cf       	rjmp	.-174    	; 0x4160 <vTaskDelete+0x16>
    420e:	0e 94 90 24 	call	0x4920	; 0x4920 <vPortYield>
    4212:	ec cf       	rjmp	.-40     	; 0x41ec <vTaskDelete+0xa2>

00004214 <vTaskEndScheduler>:
    4214:	f8 94       	cli
    4216:	10 92 85 14 	sts	0x1485, r1
    421a:	0e 94 10 24 	call	0x4820	; 0x4820 <vPortEndScheduler>
    421e:	08 95       	ret

00004220 <xTaskGenericCreate>:
    4220:	a0 e0       	ldi	r26, 0x00	; 0
    4222:	b0 e0       	ldi	r27, 0x00	; 0
    4224:	e6 e1       	ldi	r30, 0x16	; 22
    4226:	f1 e2       	ldi	r31, 0x21	; 33
    4228:	0c 94 91 2c 	jmp	0x5922	; 0x5922 <__prologue_saves__>
    422c:	2c 01       	movw	r4, r24
    422e:	36 2e       	mov	r3, r22
    4230:	27 2e       	mov	r2, r23
    4232:	5a 01       	movw	r10, r20
    4234:	39 01       	movw	r6, r18
    4236:	10 2f       	mov	r17, r16
    4238:	47 01       	movw	r8, r14
    423a:	88 e2       	ldi	r24, 0x28	; 40
    423c:	90 e0       	ldi	r25, 0x00	; 0
    423e:	0e 94 b1 09 	call	0x1362	; 0x1362 <pvPortMalloc>
    4242:	ec 01       	movw	r28, r24
    4244:	00 97       	sbiw	r24, 0x00	; 0
    4246:	09 f4       	brne	.+2      	; 0x424a <xTaskGenericCreate+0x2a>
    4248:	ad c0       	rjmp	.+346    	; 0x43a4 <xTaskGenericCreate+0x184>
    424a:	c1 14       	cp	r12, r1
    424c:	d1 04       	cpc	r13, r1
    424e:	09 f4       	brne	.+2      	; 0x4252 <xTaskGenericCreate+0x32>
    4250:	9d c0       	rjmp	.+314    	; 0x438c <xTaskGenericCreate+0x16c>
    4252:	d8 8e       	std	Y+24, r13	; 0x18
    4254:	cf 8a       	std	Y+23, r12	; 0x17
    4256:	c6 01       	movw	r24, r12
    4258:	65 ea       	ldi	r22, 0xA5	; 165
    425a:	70 e0       	ldi	r23, 0x00	; 0
    425c:	a5 01       	movw	r20, r10
    425e:	0e 94 52 07 	call	0xea4	; 0xea4 <memset>
    4262:	ef 88       	ldd	r14, Y+23	; 0x17
    4264:	f8 8c       	ldd	r15, Y+24	; 0x18
    4266:	83 2d       	mov	r24, r3
    4268:	92 2d       	mov	r25, r2
    426a:	9c 01       	movw	r18, r24
    426c:	f9 01       	movw	r30, r18
    426e:	de 01       	movw	r26, r28
    4270:	90 e0       	ldi	r25, 0x00	; 0
    4272:	80 81       	ld	r24, Z
    4274:	59 96       	adiw	r26, 0x19	; 25
    4276:	8c 93       	st	X, r24
    4278:	59 97       	sbiw	r26, 0x19	; 25
    427a:	80 81       	ld	r24, Z
    427c:	88 23       	and	r24, r24
    427e:	29 f0       	breq	.+10     	; 0x428a <xTaskGenericCreate+0x6a>
    4280:	9f 5f       	subi	r25, 0xFF	; 255
    4282:	31 96       	adiw	r30, 0x01	; 1
    4284:	11 96       	adiw	r26, 0x01	; 1
    4286:	98 30       	cpi	r25, 0x08	; 8
    4288:	a1 f7       	brne	.-24     	; 0x4272 <xTaskGenericCreate+0x52>
    428a:	18 a2       	std	Y+32, r1	; 0x20
    428c:	01 2f       	mov	r16, r17
    428e:	14 30       	cpi	r17, 0x04	; 4
    4290:	08 f0       	brcs	.+2      	; 0x4294 <xTaskGenericCreate+0x74>
    4292:	7a c0       	rjmp	.+244    	; 0x4388 <xTaskGenericCreate+0x168>
    4294:	0e 8b       	std	Y+22, r16	; 0x16
    4296:	0b a3       	std	Y+35, r16	; 0x23
    4298:	72 e0       	ldi	r23, 0x02	; 2
    429a:	c7 2e       	mov	r12, r23
    429c:	d1 2c       	mov	r13, r1
    429e:	cc 0e       	add	r12, r28
    42a0:	dd 1e       	adc	r13, r29
    42a2:	c6 01       	movw	r24, r12
    42a4:	0e 94 01 25 	call	0x4a02	; 0x4a02 <vListInitialiseItem>
    42a8:	ce 01       	movw	r24, r28
    42aa:	0c 96       	adiw	r24, 0x0c	; 12
    42ac:	0e 94 01 25 	call	0x4a02	; 0x4a02 <vListInitialiseItem>
    42b0:	d9 87       	std	Y+9, r29	; 0x09
    42b2:	c8 87       	std	Y+8, r28	; 0x08
    42b4:	84 e0       	ldi	r24, 0x04	; 4
    42b6:	90 e0       	ldi	r25, 0x00	; 0
    42b8:	80 1b       	sub	r24, r16
    42ba:	91 09       	sbc	r25, r1
    42bc:	9d 87       	std	Y+13, r25	; 0x0d
    42be:	8c 87       	std	Y+12, r24	; 0x0c
    42c0:	db 8b       	std	Y+19, r29	; 0x13
    42c2:	ca 8b       	std	Y+18, r28	; 0x12
    42c4:	1c a2       	std	Y+36, r1	; 0x24
    42c6:	1d a2       	std	Y+37, r1	; 0x25
    42c8:	1e a2       	std	Y+38, r1	; 0x26
    42ca:	1f a2       	std	Y+39, r1	; 0x27
    42cc:	08 94       	sec
    42ce:	a1 08       	sbc	r10, r1
    42d0:	b1 08       	sbc	r11, r1
    42d2:	c7 01       	movw	r24, r14
    42d4:	8a 0d       	add	r24, r10
    42d6:	9b 1d       	adc	r25, r11
    42d8:	b2 01       	movw	r22, r4
    42da:	a3 01       	movw	r20, r6
    42dc:	0e 94 7c 23 	call	0x46f8	; 0x46f8 <pxPortInitialiseStack>
    42e0:	99 83       	std	Y+1, r25	; 0x01
    42e2:	88 83       	st	Y, r24
    42e4:	81 14       	cp	r8, r1
    42e6:	91 04       	cpc	r9, r1
    42e8:	19 f0       	breq	.+6      	; 0x42f0 <xTaskGenericCreate+0xd0>
    42ea:	f4 01       	movw	r30, r8
    42ec:	d1 83       	std	Z+1, r29	; 0x01
    42ee:	c0 83       	st	Z, r28
    42f0:	0f b6       	in	r0, 0x3f	; 63
    42f2:	f8 94       	cli
    42f4:	0f 92       	push	r0
    42f6:	80 91 75 14 	lds	r24, 0x1475
    42fa:	8f 5f       	subi	r24, 0xFF	; 255
    42fc:	80 93 75 14 	sts	0x1475, r24
    4300:	80 91 73 14 	lds	r24, 0x1473
    4304:	90 91 74 14 	lds	r25, 0x1474
    4308:	89 2b       	or	r24, r25
    430a:	09 f4       	brne	.+2      	; 0x430e <xTaskGenericCreate+0xee>
    430c:	52 c0       	rjmp	.+164    	; 0x43b2 <xTaskGenericCreate+0x192>
    430e:	80 91 85 14 	lds	r24, 0x1485
    4312:	88 23       	and	r24, r24
    4314:	59 f4       	brne	.+22     	; 0x432c <xTaskGenericCreate+0x10c>
    4316:	e0 91 73 14 	lds	r30, 0x1473
    431a:	f0 91 74 14 	lds	r31, 0x1474
    431e:	86 89       	ldd	r24, Z+22	; 0x16
    4320:	18 17       	cp	r17, r24
    4322:	20 f0       	brcs	.+8      	; 0x432c <xTaskGenericCreate+0x10c>
    4324:	d0 93 74 14 	sts	0x1474, r29
    4328:	c0 93 73 14 	sts	0x1473, r28
    432c:	80 91 87 14 	lds	r24, 0x1487
    4330:	8f 5f       	subi	r24, 0xFF	; 255
    4332:	80 93 87 14 	sts	0x1487, r24
    4336:	89 a3       	std	Y+33, r24	; 0x21
    4338:	9e 89       	ldd	r25, Y+22	; 0x16
    433a:	80 91 76 14 	lds	r24, 0x1476
    433e:	89 17       	cp	r24, r25
    4340:	10 f4       	brcc	.+4      	; 0x4346 <xTaskGenericCreate+0x126>
    4342:	90 93 76 14 	sts	0x1476, r25
    4346:	89 e0       	ldi	r24, 0x09	; 9
    4348:	98 9f       	mul	r25, r24
    434a:	c0 01       	movw	r24, r0
    434c:	11 24       	eor	r1, r1
    434e:	88 57       	subi	r24, 0x78	; 120
    4350:	9b 4e       	sbci	r25, 0xEB	; 235
    4352:	b6 01       	movw	r22, r12
    4354:	0e 94 05 25 	call	0x4a0a	; 0x4a0a <vListInsertEnd>
    4358:	0f 90       	pop	r0
    435a:	0f be       	out	0x3f, r0	; 63
    435c:	80 91 85 14 	lds	r24, 0x1485
    4360:	88 23       	and	r24, r24
    4362:	59 f0       	breq	.+22     	; 0x437a <xTaskGenericCreate+0x15a>
    4364:	e0 91 73 14 	lds	r30, 0x1473
    4368:	f0 91 74 14 	lds	r31, 0x1474
    436c:	86 89       	ldd	r24, Z+22	; 0x16
    436e:	81 17       	cp	r24, r17
    4370:	20 f4       	brcc	.+8      	; 0x437a <xTaskGenericCreate+0x15a>
    4372:	0e 94 90 24 	call	0x4920	; 0x4920 <vPortYield>
    4376:	81 e0       	ldi	r24, 0x01	; 1
    4378:	01 c0       	rjmp	.+2      	; 0x437c <xTaskGenericCreate+0x15c>
    437a:	81 e0       	ldi	r24, 0x01	; 1
    437c:	cd b7       	in	r28, 0x3d	; 61
    437e:	de b7       	in	r29, 0x3e	; 62
    4380:	e2 e1       	ldi	r30, 0x12	; 18
    4382:	0c 94 ad 2c 	jmp	0x595a	; 0x595a <__epilogue_restores__>
    4386:	51 c0       	rjmp	.+162    	; 0x442a <vTaskStartScheduler>
    4388:	03 e0       	ldi	r16, 0x03	; 3
    438a:	84 cf       	rjmp	.-248    	; 0x4294 <xTaskGenericCreate+0x74>
    438c:	c5 01       	movw	r24, r10
    438e:	0e 94 b1 09 	call	0x1362	; 0x1362 <pvPortMalloc>
    4392:	6c 01       	movw	r12, r24
    4394:	98 8f       	std	Y+24, r25	; 0x18
    4396:	8f 8b       	std	Y+23, r24	; 0x17
    4398:	00 97       	sbiw	r24, 0x00	; 0
    439a:	09 f0       	breq	.+2      	; 0x439e <xTaskGenericCreate+0x17e>
    439c:	5c cf       	rjmp	.-328    	; 0x4256 <xTaskGenericCreate+0x36>
    439e:	ce 01       	movw	r24, r28
    43a0:	0e 94 3e 09 	call	0x127c	; 0x127c <vPortFree>
    43a4:	8f ef       	ldi	r24, 0xFF	; 255
    43a6:	cd b7       	in	r28, 0x3d	; 61
    43a8:	de b7       	in	r29, 0x3e	; 62
    43aa:	e2 e1       	ldi	r30, 0x12	; 18
    43ac:	0c 94 ad 2c 	jmp	0x595a	; 0x595a <__epilogue_restores__>
    43b0:	3c c0       	rjmp	.+120    	; 0x442a <vTaskStartScheduler>
    43b2:	d0 93 74 14 	sts	0x1474, r29
    43b6:	c0 93 73 14 	sts	0x1473, r28
    43ba:	80 91 75 14 	lds	r24, 0x1475
    43be:	81 30       	cpi	r24, 0x01	; 1
    43c0:	09 f0       	breq	.+2      	; 0x43c4 <xTaskGenericCreate+0x1a4>
    43c2:	b4 cf       	rjmp	.-152    	; 0x432c <xTaskGenericCreate+0x10c>
    43c4:	88 e8       	ldi	r24, 0x88	; 136
    43c6:	94 e1       	ldi	r25, 0x14	; 20
    43c8:	0e 94 f1 24 	call	0x49e2	; 0x49e2 <vListInitialise>
    43cc:	81 e9       	ldi	r24, 0x91	; 145
    43ce:	94 e1       	ldi	r25, 0x14	; 20
    43d0:	0e 94 f1 24 	call	0x49e2	; 0x49e2 <vListInitialise>
    43d4:	8a e9       	ldi	r24, 0x9A	; 154
    43d6:	94 e1       	ldi	r25, 0x14	; 20
    43d8:	0e 94 f1 24 	call	0x49e2	; 0x49e2 <vListInitialise>
    43dc:	83 ea       	ldi	r24, 0xA3	; 163
    43de:	94 e1       	ldi	r25, 0x14	; 20
    43e0:	0e 94 f1 24 	call	0x49e2	; 0x49e2 <vListInitialise>
    43e4:	6c ea       	ldi	r22, 0xAC	; 172
    43e6:	e6 2e       	mov	r14, r22
    43e8:	64 e1       	ldi	r22, 0x14	; 20
    43ea:	f6 2e       	mov	r15, r22
    43ec:	c7 01       	movw	r24, r14
    43ee:	0e 94 f1 24 	call	0x49e2	; 0x49e2 <vListInitialise>
    43f2:	55 eb       	ldi	r21, 0xB5	; 181
    43f4:	a5 2e       	mov	r10, r21
    43f6:	54 e1       	ldi	r21, 0x14	; 20
    43f8:	b5 2e       	mov	r11, r21
    43fa:	c5 01       	movw	r24, r10
    43fc:	0e 94 f1 24 	call	0x49e2	; 0x49e2 <vListInitialise>
    4400:	82 ec       	ldi	r24, 0xC2	; 194
    4402:	94 e1       	ldi	r25, 0x14	; 20
    4404:	0e 94 f1 24 	call	0x49e2	; 0x49e2 <vListInitialise>
    4408:	8b ec       	ldi	r24, 0xCB	; 203
    440a:	94 e1       	ldi	r25, 0x14	; 20
    440c:	0e 94 f1 24 	call	0x49e2	; 0x49e2 <vListInitialise>
    4410:	84 ed       	ldi	r24, 0xD4	; 212
    4412:	94 e1       	ldi	r25, 0x14	; 20
    4414:	0e 94 f1 24 	call	0x49e2	; 0x49e2 <vListInitialise>
    4418:	f0 92 bf 14 	sts	0x14BF, r15
    441c:	e0 92 be 14 	sts	0x14BE, r14
    4420:	b0 92 c1 14 	sts	0x14C1, r11
    4424:	a0 92 c0 14 	sts	0x14C0, r10
    4428:	81 cf       	rjmp	.-254    	; 0x432c <xTaskGenericCreate+0x10c>

0000442a <vTaskStartScheduler>:
    442a:	a0 e0       	ldi	r26, 0x00	; 0
    442c:	b0 e0       	ldi	r27, 0x00	; 0
    442e:	eb e1       	ldi	r30, 0x1B	; 27
    4430:	f2 e2       	ldi	r31, 0x22	; 34
    4432:	0c 94 9b 2c 	jmp	0x5936	; 0x5936 <__prologue_saves__+0x14>
    4436:	88 e2       	ldi	r24, 0x28	; 40
    4438:	90 e0       	ldi	r25, 0x00	; 0
    443a:	0e 94 b1 09 	call	0x1362	; 0x1362 <pvPortMalloc>
    443e:	ec 01       	movw	r28, r24
    4440:	00 97       	sbiw	r24, 0x00	; 0
    4442:	09 f4       	brne	.+2      	; 0x4446 <vTaskStartScheduler+0x1c>
    4444:	91 c0       	rjmp	.+290    	; 0x4568 <vTaskStartScheduler+0x13e>
    4446:	85 e5       	ldi	r24, 0x55	; 85
    4448:	90 e0       	ldi	r25, 0x00	; 0
    444a:	0e 94 b1 09 	call	0x1362	; 0x1362 <pvPortMalloc>
    444e:	98 8f       	std	Y+24, r25	; 0x18
    4450:	8f 8b       	std	Y+23, r24	; 0x17
    4452:	00 97       	sbiw	r24, 0x00	; 0
    4454:	09 f4       	brne	.+2      	; 0x4458 <vTaskStartScheduler+0x2e>
    4456:	c7 c0       	rjmp	.+398    	; 0x45e6 <vTaskStartScheduler+0x1bc>
    4458:	65 ea       	ldi	r22, 0xA5	; 165
    445a:	70 e0       	ldi	r23, 0x00	; 0
    445c:	45 e5       	ldi	r20, 0x55	; 85
    445e:	50 e0       	ldi	r21, 0x00	; 0
    4460:	0e 94 52 07 	call	0xea4	; 0xea4 <memset>
    4464:	0f 89       	ldd	r16, Y+23	; 0x17
    4466:	18 8d       	ldd	r17, Y+24	; 0x18
    4468:	e7 e3       	ldi	r30, 0x37	; 55
    446a:	f2 e0       	ldi	r31, 0x02	; 2
    446c:	de 01       	movw	r26, r28
    446e:	80 81       	ld	r24, Z
    4470:	59 96       	adiw	r26, 0x19	; 25
    4472:	8c 93       	st	X, r24
    4474:	59 97       	sbiw	r26, 0x19	; 25
    4476:	80 81       	ld	r24, Z
    4478:	88 23       	and	r24, r24
    447a:	31 f0       	breq	.+12     	; 0x4488 <vTaskStartScheduler+0x5e>
    447c:	31 96       	adiw	r30, 0x01	; 1
    447e:	11 96       	adiw	r26, 0x01	; 1
    4480:	82 e0       	ldi	r24, 0x02	; 2
    4482:	ef 33       	cpi	r30, 0x3F	; 63
    4484:	f8 07       	cpc	r31, r24
    4486:	99 f7       	brne	.-26     	; 0x446e <vTaskStartScheduler+0x44>
    4488:	18 a2       	std	Y+32, r1	; 0x20
    448a:	1e 8a       	std	Y+22, r1	; 0x16
    448c:	1b a2       	std	Y+35, r1	; 0x23
    448e:	f2 e0       	ldi	r31, 0x02	; 2
    4490:	cf 2e       	mov	r12, r31
    4492:	d1 2c       	mov	r13, r1
    4494:	cc 0e       	add	r12, r28
    4496:	dd 1e       	adc	r13, r29
    4498:	c6 01       	movw	r24, r12
    449a:	0e 94 01 25 	call	0x4a02	; 0x4a02 <vListInitialiseItem>
    449e:	ce 01       	movw	r24, r28
    44a0:	0c 96       	adiw	r24, 0x0c	; 12
    44a2:	0e 94 01 25 	call	0x4a02	; 0x4a02 <vListInitialiseItem>
    44a6:	d9 87       	std	Y+9, r29	; 0x09
    44a8:	c8 87       	std	Y+8, r28	; 0x08
    44aa:	84 e0       	ldi	r24, 0x04	; 4
    44ac:	90 e0       	ldi	r25, 0x00	; 0
    44ae:	9d 87       	std	Y+13, r25	; 0x0d
    44b0:	8c 87       	std	Y+12, r24	; 0x0c
    44b2:	db 8b       	std	Y+19, r29	; 0x13
    44b4:	ca 8b       	std	Y+18, r28	; 0x12
    44b6:	1c a2       	std	Y+36, r1	; 0x24
    44b8:	1d a2       	std	Y+37, r1	; 0x25
    44ba:	1e a2       	std	Y+38, r1	; 0x26
    44bc:	1f a2       	std	Y+39, r1	; 0x27
    44be:	c8 01       	movw	r24, r16
    44c0:	8c 5a       	subi	r24, 0xAC	; 172
    44c2:	9f 4f       	sbci	r25, 0xFF	; 255
    44c4:	69 e2       	ldi	r22, 0x29	; 41
    44c6:	71 e0       	ldi	r23, 0x01	; 1
    44c8:	40 e0       	ldi	r20, 0x00	; 0
    44ca:	50 e0       	ldi	r21, 0x00	; 0
    44cc:	0e 94 7c 23 	call	0x46f8	; 0x46f8 <pxPortInitialiseStack>
    44d0:	99 83       	std	Y+1, r25	; 0x01
    44d2:	88 83       	st	Y, r24
    44d4:	0f b6       	in	r0, 0x3f	; 63
    44d6:	f8 94       	cli
    44d8:	0f 92       	push	r0
    44da:	80 91 75 14 	lds	r24, 0x1475
    44de:	8f 5f       	subi	r24, 0xFF	; 255
    44e0:	80 93 75 14 	sts	0x1475, r24
    44e4:	80 91 73 14 	lds	r24, 0x1473
    44e8:	90 91 74 14 	lds	r25, 0x1474
    44ec:	89 2b       	or	r24, r25
    44ee:	09 f4       	brne	.+2      	; 0x44f2 <vTaskStartScheduler+0xc8>
    44f0:	41 c0       	rjmp	.+130    	; 0x4574 <vTaskStartScheduler+0x14a>
    44f2:	80 91 85 14 	lds	r24, 0x1485
    44f6:	88 23       	and	r24, r24
    44f8:	59 f4       	brne	.+22     	; 0x4510 <vTaskStartScheduler+0xe6>
    44fa:	e0 91 73 14 	lds	r30, 0x1473
    44fe:	f0 91 74 14 	lds	r31, 0x1474
    4502:	86 89       	ldd	r24, Z+22	; 0x16
    4504:	88 23       	and	r24, r24
    4506:	21 f4       	brne	.+8      	; 0x4510 <vTaskStartScheduler+0xe6>
    4508:	d0 93 74 14 	sts	0x1474, r29
    450c:	c0 93 73 14 	sts	0x1473, r28
    4510:	80 91 87 14 	lds	r24, 0x1487
    4514:	8f 5f       	subi	r24, 0xFF	; 255
    4516:	80 93 87 14 	sts	0x1487, r24
    451a:	89 a3       	std	Y+33, r24	; 0x21
    451c:	9e 89       	ldd	r25, Y+22	; 0x16
    451e:	80 91 76 14 	lds	r24, 0x1476
    4522:	89 17       	cp	r24, r25
    4524:	10 f4       	brcc	.+4      	; 0x452a <vTaskStartScheduler+0x100>
    4526:	90 93 76 14 	sts	0x1476, r25
    452a:	89 e0       	ldi	r24, 0x09	; 9
    452c:	98 9f       	mul	r25, r24
    452e:	c0 01       	movw	r24, r0
    4530:	11 24       	eor	r1, r1
    4532:	88 57       	subi	r24, 0x78	; 120
    4534:	9b 4e       	sbci	r25, 0xEB	; 235
    4536:	b6 01       	movw	r22, r12
    4538:	0e 94 05 25 	call	0x4a0a	; 0x4a0a <vListInsertEnd>
    453c:	0f 90       	pop	r0
    453e:	0f be       	out	0x3f, r0	; 63
    4540:	80 91 85 14 	lds	r24, 0x1485
    4544:	88 23       	and	r24, r24
    4546:	21 f0       	breq	.+8      	; 0x4550 <vTaskStartScheduler+0x126>
    4548:	80 91 73 14 	lds	r24, 0x1473
    454c:	90 91 74 14 	lds	r25, 0x1474
    4550:	f8 94       	cli
    4552:	81 e0       	ldi	r24, 0x01	; 1
    4554:	80 93 85 14 	sts	0x1485, r24
    4558:	10 92 79 14 	sts	0x1479, r1
    455c:	10 92 78 14 	sts	0x1478, r1
    4560:	0e 94 81 25 	call	0x4b02	; 0x4b02 <xconfigTimerForRunTimeStats>
    4564:	0e 94 c7 23 	call	0x478e	; 0x478e <xPortStartScheduler>
    4568:	cd b7       	in	r28, 0x3d	; 61
    456a:	de b7       	in	r29, 0x3e	; 62
    456c:	e8 e0       	ldi	r30, 0x08	; 8
    456e:	0c 94 b7 2c 	jmp	0x596e	; 0x596e <__epilogue_restores__+0x14>
    4572:	41 c0       	rjmp	.+130    	; 0x45f6 <uxTaskGetSystemState>
    4574:	d0 93 74 14 	sts	0x1474, r29
    4578:	c0 93 73 14 	sts	0x1473, r28
    457c:	80 91 75 14 	lds	r24, 0x1475
    4580:	81 30       	cpi	r24, 0x01	; 1
    4582:	31 f6       	brne	.-116    	; 0x4510 <vTaskStartScheduler+0xe6>
    4584:	88 e8       	ldi	r24, 0x88	; 136
    4586:	94 e1       	ldi	r25, 0x14	; 20
    4588:	0e 94 f1 24 	call	0x49e2	; 0x49e2 <vListInitialise>
    458c:	81 e9       	ldi	r24, 0x91	; 145
    458e:	94 e1       	ldi	r25, 0x14	; 20
    4590:	0e 94 f1 24 	call	0x49e2	; 0x49e2 <vListInitialise>
    4594:	8a e9       	ldi	r24, 0x9A	; 154
    4596:	94 e1       	ldi	r25, 0x14	; 20
    4598:	0e 94 f1 24 	call	0x49e2	; 0x49e2 <vListInitialise>
    459c:	83 ea       	ldi	r24, 0xA3	; 163
    459e:	94 e1       	ldi	r25, 0x14	; 20
    45a0:	0e 94 f1 24 	call	0x49e2	; 0x49e2 <vListInitialise>
    45a4:	ec ea       	ldi	r30, 0xAC	; 172
    45a6:	ee 2e       	mov	r14, r30
    45a8:	e4 e1       	ldi	r30, 0x14	; 20
    45aa:	fe 2e       	mov	r15, r30
    45ac:	c7 01       	movw	r24, r14
    45ae:	0e 94 f1 24 	call	0x49e2	; 0x49e2 <vListInitialise>
    45b2:	05 eb       	ldi	r16, 0xB5	; 181
    45b4:	14 e1       	ldi	r17, 0x14	; 20
    45b6:	c8 01       	movw	r24, r16
    45b8:	0e 94 f1 24 	call	0x49e2	; 0x49e2 <vListInitialise>
    45bc:	82 ec       	ldi	r24, 0xC2	; 194
    45be:	94 e1       	ldi	r25, 0x14	; 20
    45c0:	0e 94 f1 24 	call	0x49e2	; 0x49e2 <vListInitialise>
    45c4:	8b ec       	ldi	r24, 0xCB	; 203
    45c6:	94 e1       	ldi	r25, 0x14	; 20
    45c8:	0e 94 f1 24 	call	0x49e2	; 0x49e2 <vListInitialise>
    45cc:	84 ed       	ldi	r24, 0xD4	; 212
    45ce:	94 e1       	ldi	r25, 0x14	; 20
    45d0:	0e 94 f1 24 	call	0x49e2	; 0x49e2 <vListInitialise>
    45d4:	f0 92 bf 14 	sts	0x14BF, r15
    45d8:	e0 92 be 14 	sts	0x14BE, r14
    45dc:	10 93 c1 14 	sts	0x14C1, r17
    45e0:	00 93 c0 14 	sts	0x14C0, r16
    45e4:	95 cf       	rjmp	.-214    	; 0x4510 <vTaskStartScheduler+0xe6>
    45e6:	ce 01       	movw	r24, r28
    45e8:	0e 94 3e 09 	call	0x127c	; 0x127c <vPortFree>
    45ec:	cd b7       	in	r28, 0x3d	; 61
    45ee:	de b7       	in	r29, 0x3e	; 62
    45f0:	e8 e0       	ldi	r30, 0x08	; 8
    45f2:	0c 94 b7 2c 	jmp	0x596e	; 0x596e <__epilogue_restores__+0x14>

000045f6 <uxTaskGetSystemState>:
    45f6:	af 92       	push	r10
    45f8:	bf 92       	push	r11
    45fa:	df 92       	push	r13
    45fc:	ef 92       	push	r14
    45fe:	ff 92       	push	r15
    4600:	0f 93       	push	r16
    4602:	1f 93       	push	r17
    4604:	cf 93       	push	r28
    4606:	df 93       	push	r29
    4608:	ec 01       	movw	r28, r24
    460a:	5a 01       	movw	r10, r20
    460c:	80 91 7b 14 	lds	r24, 0x147B
    4610:	8f 5f       	subi	r24, 0xFF	; 255
    4612:	80 93 7b 14 	sts	0x147B, r24
    4616:	80 91 75 14 	lds	r24, 0x1475
    461a:	68 17       	cp	r22, r24
    461c:	08 f4       	brcc	.+2      	; 0x4620 <uxTaskGetSystemState+0x2a>
    461e:	6a c0       	rjmp	.+212    	; 0x46f4 <uxTaskGetSystemState+0xfe>
    4620:	00 e0       	ldi	r16, 0x00	; 0
    4622:	14 e0       	ldi	r17, 0x04	; 4
    4624:	8f e0       	ldi	r24, 0x0F	; 15
    4626:	d8 2e       	mov	r13, r24
    4628:	b9 e0       	ldi	r27, 0x09	; 9
    462a:	eb 2e       	mov	r14, r27
    462c:	11 50       	subi	r17, 0x01	; 1
    462e:	af e0       	ldi	r26, 0x0F	; 15
    4630:	fa 2e       	mov	r15, r26
    4632:	0d 9d       	mul	r16, r13
    4634:	c0 01       	movw	r24, r0
    4636:	11 24       	eor	r1, r1
    4638:	1e 9d       	mul	r17, r14
    463a:	b0 01       	movw	r22, r0
    463c:	11 24       	eor	r1, r1
    463e:	68 57       	subi	r22, 0x78	; 120
    4640:	7b 4e       	sbci	r23, 0xEB	; 235
    4642:	8c 0f       	add	r24, r28
    4644:	9d 1f       	adc	r25, r29
    4646:	41 e0       	ldi	r20, 0x01	; 1
    4648:	50 e0       	ldi	r21, 0x00	; 0
    464a:	0e 94 23 0b 	call	0x1646	; 0x1646 <prvListTaskWithinSingleList>
    464e:	08 0f       	add	r16, r24
    4650:	11 23       	and	r17, r17
    4652:	61 f7       	brne	.-40     	; 0x462c <uxTaskGetSystemState+0x36>
    4654:	60 91 be 14 	lds	r22, 0x14BE
    4658:	70 91 bf 14 	lds	r23, 0x14BF
    465c:	0f 9d       	mul	r16, r15
    465e:	c0 01       	movw	r24, r0
    4660:	11 24       	eor	r1, r1
    4662:	8c 0f       	add	r24, r28
    4664:	9d 1f       	adc	r25, r29
    4666:	42 e0       	ldi	r20, 0x02	; 2
    4668:	50 e0       	ldi	r21, 0x00	; 0
    466a:	0e 94 23 0b 	call	0x1646	; 0x1646 <prvListTaskWithinSingleList>
    466e:	10 2f       	mov	r17, r16
    4670:	18 0f       	add	r17, r24
    4672:	60 91 c0 14 	lds	r22, 0x14C0
    4676:	70 91 c1 14 	lds	r23, 0x14C1
    467a:	1f 9d       	mul	r17, r15
    467c:	c0 01       	movw	r24, r0
    467e:	11 24       	eor	r1, r1
    4680:	8c 0f       	add	r24, r28
    4682:	9d 1f       	adc	r25, r29
    4684:	42 e0       	ldi	r20, 0x02	; 2
    4686:	50 e0       	ldi	r21, 0x00	; 0
    4688:	0e 94 23 0b 	call	0x1646	; 0x1646 <prvListTaskWithinSingleList>
    468c:	18 0f       	add	r17, r24
    468e:	1f 9d       	mul	r17, r15
    4690:	c0 01       	movw	r24, r0
    4692:	11 24       	eor	r1, r1
    4694:	8c 0f       	add	r24, r28
    4696:	9d 1f       	adc	r25, r29
    4698:	6b ec       	ldi	r22, 0xCB	; 203
    469a:	74 e1       	ldi	r23, 0x14	; 20
    469c:	44 e0       	ldi	r20, 0x04	; 4
    469e:	50 e0       	ldi	r21, 0x00	; 0
    46a0:	0e 94 23 0b 	call	0x1646	; 0x1646 <prvListTaskWithinSingleList>
    46a4:	18 0f       	add	r17, r24
    46a6:	1f 9d       	mul	r17, r15
    46a8:	c0 01       	movw	r24, r0
    46aa:	11 24       	eor	r1, r1
    46ac:	8c 0f       	add	r24, r28
    46ae:	9d 1f       	adc	r25, r29
    46b0:	64 ed       	ldi	r22, 0xD4	; 212
    46b2:	74 e1       	ldi	r23, 0x14	; 20
    46b4:	43 e0       	ldi	r20, 0x03	; 3
    46b6:	50 e0       	ldi	r21, 0x00	; 0
    46b8:	0e 94 23 0b 	call	0x1646	; 0x1646 <prvListTaskWithinSingleList>
    46bc:	18 0f       	add	r17, r24
    46be:	a1 14       	cp	r10, r1
    46c0:	b1 04       	cpc	r11, r1
    46c2:	59 f0       	breq	.+22     	; 0x46da <uxTaskGetSystemState+0xe4>
    46c4:	80 91 84 00 	lds	r24, 0x0084
    46c8:	90 91 85 00 	lds	r25, 0x0085
    46cc:	a0 e0       	ldi	r26, 0x00	; 0
    46ce:	b0 e0       	ldi	r27, 0x00	; 0
    46d0:	f5 01       	movw	r30, r10
    46d2:	80 83       	st	Z, r24
    46d4:	91 83       	std	Z+1, r25	; 0x01
    46d6:	a2 83       	std	Z+2, r26	; 0x02
    46d8:	b3 83       	std	Z+3, r27	; 0x03
    46da:	0e 94 c9 0f 	call	0x1f92	; 0x1f92 <xTaskResumeAll>
    46de:	81 2f       	mov	r24, r17
    46e0:	df 91       	pop	r29
    46e2:	cf 91       	pop	r28
    46e4:	1f 91       	pop	r17
    46e6:	0f 91       	pop	r16
    46e8:	ff 90       	pop	r15
    46ea:	ef 90       	pop	r14
    46ec:	df 90       	pop	r13
    46ee:	bf 90       	pop	r11
    46f0:	af 90       	pop	r10
    46f2:	08 95       	ret
    46f4:	10 e0       	ldi	r17, 0x00	; 0
    46f6:	f1 cf       	rjmp	.-30     	; 0x46da <uxTaskGetSystemState+0xe4>

000046f8 <pxPortInitialiseStack>:
    46f8:	fc 01       	movw	r30, r24
    46fa:	91 e1       	ldi	r25, 0x11	; 17
    46fc:	90 83       	st	Z, r25
    46fe:	22 e2       	ldi	r18, 0x22	; 34
    4700:	22 93       	st	-Z, r18
    4702:	83 e3       	ldi	r24, 0x33	; 51
    4704:	82 93       	st	-Z, r24
    4706:	62 93       	st	-Z, r22
    4708:	72 93       	st	-Z, r23
    470a:	12 92       	st	-Z, r1
    470c:	12 92       	st	-Z, r1
    470e:	80 e8       	ldi	r24, 0x80	; 128
    4710:	82 93       	st	-Z, r24
    4712:	12 92       	st	-Z, r1
    4714:	12 92       	st	-Z, r1
    4716:	12 92       	st	-Z, r1
    4718:	82 e0       	ldi	r24, 0x02	; 2
    471a:	82 93       	st	-Z, r24
    471c:	83 e0       	ldi	r24, 0x03	; 3
    471e:	82 93       	st	-Z, r24
    4720:	84 e0       	ldi	r24, 0x04	; 4
    4722:	82 93       	st	-Z, r24
    4724:	85 e0       	ldi	r24, 0x05	; 5
    4726:	82 93       	st	-Z, r24
    4728:	86 e0       	ldi	r24, 0x06	; 6
    472a:	82 93       	st	-Z, r24
    472c:	87 e0       	ldi	r24, 0x07	; 7
    472e:	82 93       	st	-Z, r24
    4730:	88 e0       	ldi	r24, 0x08	; 8
    4732:	82 93       	st	-Z, r24
    4734:	89 e0       	ldi	r24, 0x09	; 9
    4736:	82 93       	st	-Z, r24
    4738:	80 e1       	ldi	r24, 0x10	; 16
    473a:	82 93       	st	-Z, r24
    473c:	92 93       	st	-Z, r25
    473e:	82 e1       	ldi	r24, 0x12	; 18
    4740:	82 93       	st	-Z, r24
    4742:	83 e1       	ldi	r24, 0x13	; 19
    4744:	82 93       	st	-Z, r24
    4746:	84 e1       	ldi	r24, 0x14	; 20
    4748:	82 93       	st	-Z, r24
    474a:	85 e1       	ldi	r24, 0x15	; 21
    474c:	82 93       	st	-Z, r24
    474e:	86 e1       	ldi	r24, 0x16	; 22
    4750:	82 93       	st	-Z, r24
    4752:	87 e1       	ldi	r24, 0x17	; 23
    4754:	82 93       	st	-Z, r24
    4756:	88 e1       	ldi	r24, 0x18	; 24
    4758:	82 93       	st	-Z, r24
    475a:	89 e1       	ldi	r24, 0x19	; 25
    475c:	82 93       	st	-Z, r24
    475e:	80 e2       	ldi	r24, 0x20	; 32
    4760:	82 93       	st	-Z, r24
    4762:	81 e2       	ldi	r24, 0x21	; 33
    4764:	82 93       	st	-Z, r24
    4766:	22 93       	st	-Z, r18
    4768:	83 e2       	ldi	r24, 0x23	; 35
    476a:	82 93       	st	-Z, r24
    476c:	42 93       	st	-Z, r20
    476e:	52 93       	st	-Z, r21
    4770:	86 e2       	ldi	r24, 0x26	; 38
    4772:	82 93       	st	-Z, r24
    4774:	87 e2       	ldi	r24, 0x27	; 39
    4776:	82 93       	st	-Z, r24
    4778:	88 e2       	ldi	r24, 0x28	; 40
    477a:	82 93       	st	-Z, r24
    477c:	89 e2       	ldi	r24, 0x29	; 41
    477e:	82 93       	st	-Z, r24
    4780:	80 e3       	ldi	r24, 0x30	; 48
    4782:	82 93       	st	-Z, r24
    4784:	81 e3       	ldi	r24, 0x31	; 49
    4786:	82 93       	st	-Z, r24
    4788:	31 97       	sbiw	r30, 0x01	; 1
    478a:	cf 01       	movw	r24, r30
    478c:	08 95       	ret

0000478e <xPortStartScheduler>:
    478e:	84 ef       	ldi	r24, 0xF4	; 244
    4790:	91 e0       	ldi	r25, 0x01	; 1
    4792:	90 93 de 14 	sts	0x14DE, r25
    4796:	80 93 dd 14 	sts	0x14DD, r24
    479a:	90 93 e0 14 	sts	0x14E0, r25
    479e:	80 93 df 14 	sts	0x14DF, r24
    47a2:	81 e0       	ldi	r24, 0x01	; 1
    47a4:	80 93 99 00 	sts	0x0099, r24
    47a8:	83 ef       	ldi	r24, 0xF3	; 243
    47aa:	80 93 98 00 	sts	0x0098, r24
    47ae:	8b e0       	ldi	r24, 0x0B	; 11
    47b0:	80 93 91 00 	sts	0x0091, r24
    47b4:	e1 e7       	ldi	r30, 0x71	; 113
    47b6:	f0 e0       	ldi	r31, 0x00	; 0
    47b8:	80 81       	ld	r24, Z
    47ba:	82 60       	ori	r24, 0x02	; 2
    47bc:	80 83       	st	Z, r24
    47be:	a0 91 73 14 	lds	r26, 0x1473
    47c2:	b0 91 74 14 	lds	r27, 0x1474
    47c6:	cd 91       	ld	r28, X+
    47c8:	cd bf       	out	0x3d, r28	; 61
    47ca:	dd 91       	ld	r29, X+
    47cc:	de bf       	out	0x3e, r29	; 62
    47ce:	ff 91       	pop	r31
    47d0:	ef 91       	pop	r30
    47d2:	df 91       	pop	r29
    47d4:	cf 91       	pop	r28
    47d6:	bf 91       	pop	r27
    47d8:	af 91       	pop	r26
    47da:	9f 91       	pop	r25
    47dc:	8f 91       	pop	r24
    47de:	7f 91       	pop	r23
    47e0:	6f 91       	pop	r22
    47e2:	5f 91       	pop	r21
    47e4:	4f 91       	pop	r20
    47e6:	3f 91       	pop	r19
    47e8:	2f 91       	pop	r18
    47ea:	1f 91       	pop	r17
    47ec:	0f 91       	pop	r16
    47ee:	ff 90       	pop	r15
    47f0:	ef 90       	pop	r14
    47f2:	df 90       	pop	r13
    47f4:	cf 90       	pop	r12
    47f6:	bf 90       	pop	r11
    47f8:	af 90       	pop	r10
    47fa:	9f 90       	pop	r9
    47fc:	8f 90       	pop	r8
    47fe:	7f 90       	pop	r7
    4800:	6f 90       	pop	r6
    4802:	5f 90       	pop	r5
    4804:	4f 90       	pop	r4
    4806:	3f 90       	pop	r3
    4808:	2f 90       	pop	r2
    480a:	1f 90       	pop	r1
    480c:	0f 90       	pop	r0
    480e:	0c be       	out	0x3c, r0	; 60
    4810:	0f 90       	pop	r0
    4812:	0b be       	out	0x3b, r0	; 59
    4814:	0f 90       	pop	r0
    4816:	0f be       	out	0x3f, r0	; 63
    4818:	0f 90       	pop	r0
    481a:	08 95       	ret
    481c:	81 e0       	ldi	r24, 0x01	; 1
    481e:	08 95       	ret

00004820 <vPortEndScheduler>:
    4820:	08 95       	ret

00004822 <vPortYieldFromTick>:
    4822:	0f 92       	push	r0
    4824:	0f b6       	in	r0, 0x3f	; 63
    4826:	f8 94       	cli
    4828:	0f 92       	push	r0
    482a:	0b b6       	in	r0, 0x3b	; 59
    482c:	0f 92       	push	r0
    482e:	0c b6       	in	r0, 0x3c	; 60
    4830:	0f 92       	push	r0
    4832:	1f 92       	push	r1
    4834:	11 24       	eor	r1, r1
    4836:	2f 92       	push	r2
    4838:	3f 92       	push	r3
    483a:	4f 92       	push	r4
    483c:	5f 92       	push	r5
    483e:	6f 92       	push	r6
    4840:	7f 92       	push	r7
    4842:	8f 92       	push	r8
    4844:	9f 92       	push	r9
    4846:	af 92       	push	r10
    4848:	bf 92       	push	r11
    484a:	cf 92       	push	r12
    484c:	df 92       	push	r13
    484e:	ef 92       	push	r14
    4850:	ff 92       	push	r15
    4852:	0f 93       	push	r16
    4854:	1f 93       	push	r17
    4856:	2f 93       	push	r18
    4858:	3f 93       	push	r19
    485a:	4f 93       	push	r20
    485c:	5f 93       	push	r21
    485e:	6f 93       	push	r22
    4860:	7f 93       	push	r23
    4862:	8f 93       	push	r24
    4864:	9f 93       	push	r25
    4866:	af 93       	push	r26
    4868:	bf 93       	push	r27
    486a:	cf 93       	push	r28
    486c:	df 93       	push	r29
    486e:	ef 93       	push	r30
    4870:	ff 93       	push	r31
    4872:	a0 91 73 14 	lds	r26, 0x1473
    4876:	b0 91 74 14 	lds	r27, 0x1474
    487a:	0d b6       	in	r0, 0x3d	; 61
    487c:	0d 92       	st	X+, r0
    487e:	0e b6       	in	r0, 0x3e	; 62
    4880:	0d 92       	st	X+, r0
    4882:	80 91 df 14 	lds	r24, 0x14DF
    4886:	90 91 e0 14 	lds	r25, 0x14E0
    488a:	01 97       	sbiw	r24, 0x01	; 1
    488c:	90 93 e0 14 	sts	0x14E0, r25
    4890:	80 93 df 14 	sts	0x14DF, r24
    4894:	89 2b       	or	r24, r25
    4896:	09 f4       	brne	.+2      	; 0x489a <vPortYieldFromTick+0x78>
    4898:	35 c0       	rjmp	.+106    	; 0x4904 <vPortYieldFromTick+0xe2>
    489a:	0e 94 12 0d 	call	0x1a24	; 0x1a24 <xTaskIncrementTick>
    489e:	88 23       	and	r24, r24
    48a0:	11 f0       	breq	.+4      	; 0x48a6 <vPortYieldFromTick+0x84>
    48a2:	0e 94 1b 0f 	call	0x1e36	; 0x1e36 <vTaskSwitchContext>
    48a6:	a0 91 73 14 	lds	r26, 0x1473
    48aa:	b0 91 74 14 	lds	r27, 0x1474
    48ae:	cd 91       	ld	r28, X+
    48b0:	cd bf       	out	0x3d, r28	; 61
    48b2:	dd 91       	ld	r29, X+
    48b4:	de bf       	out	0x3e, r29	; 62
    48b6:	ff 91       	pop	r31
    48b8:	ef 91       	pop	r30
    48ba:	df 91       	pop	r29
    48bc:	cf 91       	pop	r28
    48be:	bf 91       	pop	r27
    48c0:	af 91       	pop	r26
    48c2:	9f 91       	pop	r25
    48c4:	8f 91       	pop	r24
    48c6:	7f 91       	pop	r23
    48c8:	6f 91       	pop	r22
    48ca:	5f 91       	pop	r21
    48cc:	4f 91       	pop	r20
    48ce:	3f 91       	pop	r19
    48d0:	2f 91       	pop	r18
    48d2:	1f 91       	pop	r17
    48d4:	0f 91       	pop	r16
    48d6:	ff 90       	pop	r15
    48d8:	ef 90       	pop	r14
    48da:	df 90       	pop	r13
    48dc:	cf 90       	pop	r12
    48de:	bf 90       	pop	r11
    48e0:	af 90       	pop	r10
    48e2:	9f 90       	pop	r9
    48e4:	8f 90       	pop	r8
    48e6:	7f 90       	pop	r7
    48e8:	6f 90       	pop	r6
    48ea:	5f 90       	pop	r5
    48ec:	4f 90       	pop	r4
    48ee:	3f 90       	pop	r3
    48f0:	2f 90       	pop	r2
    48f2:	1f 90       	pop	r1
    48f4:	0f 90       	pop	r0
    48f6:	0c be       	out	0x3c, r0	; 60
    48f8:	0f 90       	pop	r0
    48fa:	0b be       	out	0x3b, r0	; 59
    48fc:	0f 90       	pop	r0
    48fe:	0f be       	out	0x3f, r0	; 63
    4900:	0f 90       	pop	r0
    4902:	08 95       	ret
    4904:	0e 94 c1 02 	call	0x582	; 0x582 <system_tick>
    4908:	80 91 dd 14 	lds	r24, 0x14DD
    490c:	90 91 de 14 	lds	r25, 0x14DE
    4910:	90 93 e0 14 	sts	0x14E0, r25
    4914:	80 93 df 14 	sts	0x14DF, r24
    4918:	c0 cf       	rjmp	.-128    	; 0x489a <vPortYieldFromTick+0x78>

0000491a <__vector_32>:
    491a:	0e 94 11 24 	call	0x4822	; 0x4822 <vPortYieldFromTick>
    491e:	18 95       	reti

00004920 <vPortYield>:
    4920:	0f 92       	push	r0
    4922:	0f b6       	in	r0, 0x3f	; 63
    4924:	f8 94       	cli
    4926:	0f 92       	push	r0
    4928:	0b b6       	in	r0, 0x3b	; 59
    492a:	0f 92       	push	r0
    492c:	0c b6       	in	r0, 0x3c	; 60
    492e:	0f 92       	push	r0
    4930:	1f 92       	push	r1
    4932:	11 24       	eor	r1, r1
    4934:	2f 92       	push	r2
    4936:	3f 92       	push	r3
    4938:	4f 92       	push	r4
    493a:	5f 92       	push	r5
    493c:	6f 92       	push	r6
    493e:	7f 92       	push	r7
    4940:	8f 92       	push	r8
    4942:	9f 92       	push	r9
    4944:	af 92       	push	r10
    4946:	bf 92       	push	r11
    4948:	cf 92       	push	r12
    494a:	df 92       	push	r13
    494c:	ef 92       	push	r14
    494e:	ff 92       	push	r15
    4950:	0f 93       	push	r16
    4952:	1f 93       	push	r17
    4954:	2f 93       	push	r18
    4956:	3f 93       	push	r19
    4958:	4f 93       	push	r20
    495a:	5f 93       	push	r21
    495c:	6f 93       	push	r22
    495e:	7f 93       	push	r23
    4960:	8f 93       	push	r24
    4962:	9f 93       	push	r25
    4964:	af 93       	push	r26
    4966:	bf 93       	push	r27
    4968:	cf 93       	push	r28
    496a:	df 93       	push	r29
    496c:	ef 93       	push	r30
    496e:	ff 93       	push	r31
    4970:	a0 91 73 14 	lds	r26, 0x1473
    4974:	b0 91 74 14 	lds	r27, 0x1474
    4978:	0d b6       	in	r0, 0x3d	; 61
    497a:	0d 92       	st	X+, r0
    497c:	0e b6       	in	r0, 0x3e	; 62
    497e:	0d 92       	st	X+, r0
    4980:	0e 94 1b 0f 	call	0x1e36	; 0x1e36 <vTaskSwitchContext>
    4984:	a0 91 73 14 	lds	r26, 0x1473
    4988:	b0 91 74 14 	lds	r27, 0x1474
    498c:	cd 91       	ld	r28, X+
    498e:	cd bf       	out	0x3d, r28	; 61
    4990:	dd 91       	ld	r29, X+
    4992:	de bf       	out	0x3e, r29	; 62
    4994:	ff 91       	pop	r31
    4996:	ef 91       	pop	r30
    4998:	df 91       	pop	r29
    499a:	cf 91       	pop	r28
    499c:	bf 91       	pop	r27
    499e:	af 91       	pop	r26
    49a0:	9f 91       	pop	r25
    49a2:	8f 91       	pop	r24
    49a4:	7f 91       	pop	r23
    49a6:	6f 91       	pop	r22
    49a8:	5f 91       	pop	r21
    49aa:	4f 91       	pop	r20
    49ac:	3f 91       	pop	r19
    49ae:	2f 91       	pop	r18
    49b0:	1f 91       	pop	r17
    49b2:	0f 91       	pop	r16
    49b4:	ff 90       	pop	r15
    49b6:	ef 90       	pop	r14
    49b8:	df 90       	pop	r13
    49ba:	cf 90       	pop	r12
    49bc:	bf 90       	pop	r11
    49be:	af 90       	pop	r10
    49c0:	9f 90       	pop	r9
    49c2:	8f 90       	pop	r8
    49c4:	7f 90       	pop	r7
    49c6:	6f 90       	pop	r6
    49c8:	5f 90       	pop	r5
    49ca:	4f 90       	pop	r4
    49cc:	3f 90       	pop	r3
    49ce:	2f 90       	pop	r2
    49d0:	1f 90       	pop	r1
    49d2:	0f 90       	pop	r0
    49d4:	0c be       	out	0x3c, r0	; 60
    49d6:	0f 90       	pop	r0
    49d8:	0b be       	out	0x3b, r0	; 59
    49da:	0f 90       	pop	r0
    49dc:	0f be       	out	0x3f, r0	; 63
    49de:	0f 90       	pop	r0
    49e0:	08 95       	ret

000049e2 <vListInitialise>:
    49e2:	fc 01       	movw	r30, r24
    49e4:	9c 01       	movw	r18, r24
    49e6:	2d 5f       	subi	r18, 0xFD	; 253
    49e8:	3f 4f       	sbci	r19, 0xFF	; 255
    49ea:	32 83       	std	Z+2, r19	; 0x02
    49ec:	21 83       	std	Z+1, r18	; 0x01
    49ee:	8f ef       	ldi	r24, 0xFF	; 255
    49f0:	9f ef       	ldi	r25, 0xFF	; 255
    49f2:	94 83       	std	Z+4, r25	; 0x04
    49f4:	83 83       	std	Z+3, r24	; 0x03
    49f6:	36 83       	std	Z+6, r19	; 0x06
    49f8:	25 83       	std	Z+5, r18	; 0x05
    49fa:	30 87       	std	Z+8, r19	; 0x08
    49fc:	27 83       	std	Z+7, r18	; 0x07
    49fe:	10 82       	st	Z, r1
    4a00:	08 95       	ret

00004a02 <vListInitialiseItem>:
    4a02:	fc 01       	movw	r30, r24
    4a04:	11 86       	std	Z+9, r1	; 0x09
    4a06:	10 86       	std	Z+8, r1	; 0x08
    4a08:	08 95       	ret

00004a0a <vListInsertEnd>:
    4a0a:	ac 01       	movw	r20, r24
    4a0c:	fc 01       	movw	r30, r24
    4a0e:	a1 81       	ldd	r26, Z+1	; 0x01
    4a10:	b2 81       	ldd	r27, Z+2	; 0x02
    4a12:	fb 01       	movw	r30, r22
    4a14:	b3 83       	std	Z+3, r27	; 0x03
    4a16:	a2 83       	std	Z+2, r26	; 0x02
    4a18:	14 96       	adiw	r26, 0x04	; 4
    4a1a:	8d 91       	ld	r24, X+
    4a1c:	9c 91       	ld	r25, X
    4a1e:	15 97       	sbiw	r26, 0x05	; 5
    4a20:	95 83       	std	Z+5, r25	; 0x05
    4a22:	84 83       	std	Z+4, r24	; 0x04
    4a24:	14 96       	adiw	r26, 0x04	; 4
    4a26:	ed 91       	ld	r30, X+
    4a28:	fc 91       	ld	r31, X
    4a2a:	15 97       	sbiw	r26, 0x05	; 5
    4a2c:	73 83       	std	Z+3, r23	; 0x03
    4a2e:	62 83       	std	Z+2, r22	; 0x02
    4a30:	15 96       	adiw	r26, 0x05	; 5
    4a32:	7c 93       	st	X, r23
    4a34:	6e 93       	st	-X, r22
    4a36:	14 97       	sbiw	r26, 0x04	; 4
    4a38:	fb 01       	movw	r30, r22
    4a3a:	51 87       	std	Z+9, r21	; 0x09
    4a3c:	40 87       	std	Z+8, r20	; 0x08
    4a3e:	fa 01       	movw	r30, r20
    4a40:	80 81       	ld	r24, Z
    4a42:	8f 5f       	subi	r24, 0xFF	; 255
    4a44:	80 83       	st	Z, r24
    4a46:	08 95       	ret

00004a48 <vListInsert>:
    4a48:	cf 93       	push	r28
    4a4a:	df 93       	push	r29
    4a4c:	ac 01       	movw	r20, r24
    4a4e:	eb 01       	movw	r28, r22
    4a50:	28 81       	ld	r18, Y
    4a52:	39 81       	ldd	r19, Y+1	; 0x01
    4a54:	8f ef       	ldi	r24, 0xFF	; 255
    4a56:	2f 3f       	cpi	r18, 0xFF	; 255
    4a58:	38 07       	cpc	r19, r24
    4a5a:	01 f1       	breq	.+64     	; 0x4a9c <vListInsert+0x54>
    4a5c:	da 01       	movw	r26, r20
    4a5e:	13 96       	adiw	r26, 0x03	; 3
    4a60:	01 c0       	rjmp	.+2      	; 0x4a64 <vListInsert+0x1c>
    4a62:	df 01       	movw	r26, r30
    4a64:	12 96       	adiw	r26, 0x02	; 2
    4a66:	ed 91       	ld	r30, X+
    4a68:	fc 91       	ld	r31, X
    4a6a:	13 97       	sbiw	r26, 0x03	; 3
    4a6c:	80 81       	ld	r24, Z
    4a6e:	91 81       	ldd	r25, Z+1	; 0x01
    4a70:	28 17       	cp	r18, r24
    4a72:	39 07       	cpc	r19, r25
    4a74:	b0 f7       	brcc	.-20     	; 0x4a62 <vListInsert+0x1a>
    4a76:	fb 83       	std	Y+3, r31	; 0x03
    4a78:	ea 83       	std	Y+2, r30	; 0x02
    4a7a:	d5 83       	std	Z+5, r29	; 0x05
    4a7c:	c4 83       	std	Z+4, r28	; 0x04
    4a7e:	bd 83       	std	Y+5, r27	; 0x05
    4a80:	ac 83       	std	Y+4, r26	; 0x04
    4a82:	13 96       	adiw	r26, 0x03	; 3
    4a84:	dc 93       	st	X, r29
    4a86:	ce 93       	st	-X, r28
    4a88:	12 97       	sbiw	r26, 0x02	; 2
    4a8a:	59 87       	std	Y+9, r21	; 0x09
    4a8c:	48 87       	std	Y+8, r20	; 0x08
    4a8e:	fa 01       	movw	r30, r20
    4a90:	80 81       	ld	r24, Z
    4a92:	8f 5f       	subi	r24, 0xFF	; 255
    4a94:	80 83       	st	Z, r24
    4a96:	df 91       	pop	r29
    4a98:	cf 91       	pop	r28
    4a9a:	08 95       	ret
    4a9c:	fa 01       	movw	r30, r20
    4a9e:	a7 81       	ldd	r26, Z+7	; 0x07
    4aa0:	b0 85       	ldd	r27, Z+8	; 0x08
    4aa2:	12 96       	adiw	r26, 0x02	; 2
    4aa4:	ed 91       	ld	r30, X+
    4aa6:	fc 91       	ld	r31, X
    4aa8:	13 97       	sbiw	r26, 0x03	; 3
    4aaa:	e5 cf       	rjmp	.-54     	; 0x4a76 <vListInsert+0x2e>

00004aac <uxListRemove>:
    4aac:	cf 93       	push	r28
    4aae:	df 93       	push	r29
    4ab0:	dc 01       	movw	r26, r24
    4ab2:	18 96       	adiw	r26, 0x08	; 8
    4ab4:	cd 91       	ld	r28, X+
    4ab6:	dc 91       	ld	r29, X
    4ab8:	19 97       	sbiw	r26, 0x09	; 9
    4aba:	12 96       	adiw	r26, 0x02	; 2
    4abc:	4d 91       	ld	r20, X+
    4abe:	5c 91       	ld	r21, X
    4ac0:	13 97       	sbiw	r26, 0x03	; 3
    4ac2:	14 96       	adiw	r26, 0x04	; 4
    4ac4:	8d 91       	ld	r24, X+
    4ac6:	9c 91       	ld	r25, X
    4ac8:	15 97       	sbiw	r26, 0x05	; 5
    4aca:	fa 01       	movw	r30, r20
    4acc:	95 83       	std	Z+5, r25	; 0x05
    4ace:	84 83       	std	Z+4, r24	; 0x04
    4ad0:	14 96       	adiw	r26, 0x04	; 4
    4ad2:	2d 91       	ld	r18, X+
    4ad4:	3c 91       	ld	r19, X
    4ad6:	15 97       	sbiw	r26, 0x05	; 5
    4ad8:	f9 01       	movw	r30, r18
    4ada:	53 83       	std	Z+3, r21	; 0x03
    4adc:	42 83       	std	Z+2, r20	; 0x02
    4ade:	89 81       	ldd	r24, Y+1	; 0x01
    4ae0:	9a 81       	ldd	r25, Y+2	; 0x02
    4ae2:	8a 17       	cp	r24, r26
    4ae4:	9b 07       	cpc	r25, r27
    4ae6:	51 f0       	breq	.+20     	; 0x4afc <uxListRemove+0x50>
    4ae8:	19 96       	adiw	r26, 0x09	; 9
    4aea:	1c 92       	st	X, r1
    4aec:	1e 92       	st	-X, r1
    4aee:	18 97       	sbiw	r26, 0x08	; 8
    4af0:	88 81       	ld	r24, Y
    4af2:	81 50       	subi	r24, 0x01	; 1
    4af4:	88 83       	st	Y, r24
    4af6:	df 91       	pop	r29
    4af8:	cf 91       	pop	r28
    4afa:	08 95       	ret
    4afc:	3a 83       	std	Y+2, r19	; 0x02
    4afe:	29 83       	std	Y+1, r18	; 0x01
    4b00:	f3 cf       	rjmp	.-26     	; 0x4ae8 <uxListRemove+0x3c>

00004b02 <xconfigTimerForRunTimeStats>:
    4b02:	10 92 80 00 	sts	0x0080, r1
    4b06:	e1 e8       	ldi	r30, 0x81	; 129
    4b08:	f0 e0       	ldi	r31, 0x00	; 0
    4b0a:	10 82       	st	Z, r1
    4b0c:	10 92 85 00 	sts	0x0085, r1
    4b10:	10 92 84 00 	sts	0x0084, r1
    4b14:	84 e0       	ldi	r24, 0x04	; 4
    4b16:	80 83       	st	Z, r24
    4b18:	08 95       	ret

00004b1a <setDefaultUSART>:
    4b1a:	80 93 e1 14 	sts	0x14E1, r24
    4b1e:	08 95       	ret

00004b20 <usartWrite>:
    4b20:	28 2f       	mov	r18, r24
    4b22:	30 e0       	ldi	r19, 0x00	; 0
    4b24:	f9 01       	movw	r30, r18
    4b26:	ee 0f       	add	r30, r30
    4b28:	ff 1f       	adc	r31, r31
    4b2a:	ee 0f       	add	r30, r30
    4b2c:	ff 1f       	adc	r31, r31
    4b2e:	e2 0f       	add	r30, r18
    4b30:	f3 1f       	adc	r31, r19
    4b32:	ee 0f       	add	r30, r30
    4b34:	ff 1f       	adc	r31, r31
    4b36:	ec 5b       	subi	r30, 0xBC	; 188
    4b38:	fd 4f       	sbci	r31, 0xFD	; 253
    4b3a:	01 90       	ld	r0, Z+
    4b3c:	f0 81       	ld	r31, Z
    4b3e:	e0 2d       	mov	r30, r0
    4b40:	95 e8       	ldi	r25, 0x85	; 133
    4b42:	03 c0       	rjmp	.+6      	; 0x4b4a <usartWrite+0x2a>
    4b44:	89 2f       	mov	r24, r25
    4b46:	8a 95       	dec	r24
    4b48:	f1 f7       	brne	.-4      	; 0x4b46 <usartWrite+0x26>
    4b4a:	80 81       	ld	r24, Z
    4b4c:	85 ff       	sbrs	r24, 5
    4b4e:	fa cf       	rjmp	.-12     	; 0x4b44 <usartWrite+0x24>
    4b50:	f9 01       	movw	r30, r18
    4b52:	93 e0       	ldi	r25, 0x03	; 3
    4b54:	ee 0f       	add	r30, r30
    4b56:	ff 1f       	adc	r31, r31
    4b58:	9a 95       	dec	r25
    4b5a:	e1 f7       	brne	.-8      	; 0x4b54 <usartWrite+0x34>
    4b5c:	22 0f       	add	r18, r18
    4b5e:	33 1f       	adc	r19, r19
    4b60:	e2 0f       	add	r30, r18
    4b62:	f3 1f       	adc	r31, r19
    4b64:	ee 5b       	subi	r30, 0xBE	; 190
    4b66:	fd 4f       	sbci	r31, 0xFD	; 253
    4b68:	01 90       	ld	r0, Z+
    4b6a:	f0 81       	ld	r31, Z
    4b6c:	e0 2d       	mov	r30, r0
    4b6e:	60 83       	st	Z, r22
    4b70:	08 95       	ret

00004b72 <usartRead>:
    4b72:	28 2f       	mov	r18, r24
    4b74:	30 e0       	ldi	r19, 0x00	; 0
    4b76:	f9 01       	movw	r30, r18
    4b78:	ee 0f       	add	r30, r30
    4b7a:	ff 1f       	adc	r31, r31
    4b7c:	ee 0f       	add	r30, r30
    4b7e:	ff 1f       	adc	r31, r31
    4b80:	e2 0f       	add	r30, r18
    4b82:	f3 1f       	adc	r31, r19
    4b84:	ee 0f       	add	r30, r30
    4b86:	ff 1f       	adc	r31, r31
    4b88:	ec 5b       	subi	r30, 0xBC	; 188
    4b8a:	fd 4f       	sbci	r31, 0xFD	; 253
    4b8c:	01 90       	ld	r0, Z+
    4b8e:	f0 81       	ld	r31, Z
    4b90:	e0 2d       	mov	r30, r0
    4b92:	95 e8       	ldi	r25, 0x85	; 133
    4b94:	03 c0       	rjmp	.+6      	; 0x4b9c <usartRead+0x2a>
    4b96:	89 2f       	mov	r24, r25
    4b98:	8a 95       	dec	r24
    4b9a:	f1 f7       	brne	.-4      	; 0x4b98 <usartRead+0x26>
    4b9c:	80 81       	ld	r24, Z
    4b9e:	87 ff       	sbrs	r24, 7
    4ba0:	fa cf       	rjmp	.-12     	; 0x4b96 <usartRead+0x24>
    4ba2:	80 81       	ld	r24, Z
    4ba4:	8c 71       	andi	r24, 0x1C	; 28
    4ba6:	11 f0       	breq	.+4      	; 0x4bac <usartRead+0x3a>
    4ba8:	8f ef       	ldi	r24, 0xFF	; 255
    4baa:	08 95       	ret
    4bac:	f9 01       	movw	r30, r18
    4bae:	73 e0       	ldi	r23, 0x03	; 3
    4bb0:	ee 0f       	add	r30, r30
    4bb2:	ff 1f       	adc	r31, r31
    4bb4:	7a 95       	dec	r23
    4bb6:	e1 f7       	brne	.-8      	; 0x4bb0 <usartRead+0x3e>
    4bb8:	22 0f       	add	r18, r18
    4bba:	33 1f       	adc	r19, r19
    4bbc:	e2 0f       	add	r30, r18
    4bbe:	f3 1f       	adc	r31, r19
    4bc0:	ee 5b       	subi	r30, 0xBE	; 190
    4bc2:	fd 4f       	sbci	r31, 0xFD	; 253
    4bc4:	01 90       	ld	r0, Z+
    4bc6:	f0 81       	ld	r31, Z
    4bc8:	e0 2d       	mov	r30, r0
    4bca:	80 81       	ld	r24, Z
    4bcc:	08 95       	ret

00004bce <usart_xflushRx>:
    4bce:	cf 93       	push	r28
    4bd0:	df 93       	push	r29
    4bd2:	28 2f       	mov	r18, r24
    4bd4:	30 e0       	ldi	r19, 0x00	; 0
    4bd6:	f9 01       	movw	r30, r18
    4bd8:	ee 0f       	add	r30, r30
    4bda:	ff 1f       	adc	r31, r31
    4bdc:	ee 0f       	add	r30, r30
    4bde:	ff 1f       	adc	r31, r31
    4be0:	e2 0f       	add	r30, r18
    4be2:	f3 1f       	adc	r31, r19
    4be4:	ee 0f       	add	r30, r30
    4be6:	ff 1f       	adc	r31, r31
    4be8:	ec 5b       	subi	r30, 0xBC	; 188
    4bea:	fd 4f       	sbci	r31, 0xFD	; 253
    4bec:	c0 81       	ld	r28, Z
    4bee:	d1 81       	ldd	r29, Z+1	; 0x01
    4bf0:	d9 01       	movw	r26, r18
    4bf2:	aa 0f       	add	r26, r26
    4bf4:	bb 1f       	adc	r27, r27
    4bf6:	c9 01       	movw	r24, r18
    4bf8:	43 e0       	ldi	r20, 0x03	; 3
    4bfa:	88 0f       	add	r24, r24
    4bfc:	99 1f       	adc	r25, r25
    4bfe:	4a 95       	dec	r20
    4c00:	e1 f7       	brne	.-8      	; 0x4bfa <usart_xflushRx+0x2c>
    4c02:	a8 0f       	add	r26, r24
    4c04:	b9 1f       	adc	r27, r25
    4c06:	ae 5b       	subi	r26, 0xBE	; 190
    4c08:	bd 4f       	sbci	r27, 0xFD	; 253
    4c0a:	04 c0       	rjmp	.+8      	; 0x4c14 <usart_xflushRx+0x46>
    4c0c:	ed 91       	ld	r30, X+
    4c0e:	fc 91       	ld	r31, X
    4c10:	11 97       	sbiw	r26, 0x01	; 1
    4c12:	e0 81       	ld	r30, Z
    4c14:	88 81       	ld	r24, Y
    4c16:	87 fd       	sbrc	r24, 7
    4c18:	f9 cf       	rjmp	.-14     	; 0x4c0c <usart_xflushRx+0x3e>
    4c1a:	0f b6       	in	r0, 0x3f	; 63
    4c1c:	f8 94       	cli
    4c1e:	0f 92       	push	r0
    4c20:	8d e1       	ldi	r24, 0x1D	; 29
    4c22:	90 e0       	ldi	r25, 0x00	; 0
    4c24:	28 9f       	mul	r18, r24
    4c26:	f0 01       	movw	r30, r0
    4c28:	29 9f       	mul	r18, r25
    4c2a:	f0 0d       	add	r31, r0
    4c2c:	38 9f       	mul	r19, r24
    4c2e:	f0 0d       	add	r31, r0
    4c30:	11 24       	eor	r1, r1
    4c32:	e8 51       	subi	r30, 0x18	; 24
    4c34:	fb 4e       	sbci	r31, 0xEB	; 235
    4c36:	11 82       	std	Z+1, r1	; 0x01
    4c38:	10 82       	st	Z, r1
    4c3a:	86 81       	ldd	r24, Z+6	; 0x06
    4c3c:	97 81       	ldd	r25, Z+7	; 0x07
    4c3e:	93 83       	std	Z+3, r25	; 0x03
    4c40:	82 83       	std	Z+2, r24	; 0x02
    4c42:	95 83       	std	Z+5, r25	; 0x05
    4c44:	84 83       	std	Z+4, r24	; 0x04
    4c46:	0f 90       	pop	r0
    4c48:	0f be       	out	0x3f, r0	; 63
    4c4a:	df 91       	pop	r29
    4c4c:	cf 91       	pop	r28
    4c4e:	08 95       	ret

00004c50 <usart_AvailableCharRx>:
    4c50:	90 e0       	ldi	r25, 0x00	; 0
    4c52:	0f b6       	in	r0, 0x3f	; 63
    4c54:	f8 94       	cli
    4c56:	0f 92       	push	r0
    4c58:	2d e1       	ldi	r18, 0x1D	; 29
    4c5a:	30 e0       	ldi	r19, 0x00	; 0
    4c5c:	82 9f       	mul	r24, r18
    4c5e:	f0 01       	movw	r30, r0
    4c60:	83 9f       	mul	r24, r19
    4c62:	f0 0d       	add	r31, r0
    4c64:	92 9f       	mul	r25, r18
    4c66:	f0 0d       	add	r31, r0
    4c68:	11 24       	eor	r1, r1
    4c6a:	e8 51       	subi	r30, 0x18	; 24
    4c6c:	fb 4e       	sbci	r31, 0xEB	; 235
    4c6e:	20 81       	ld	r18, Z
    4c70:	31 81       	ldd	r19, Z+1	; 0x01
    4c72:	0f 90       	pop	r0
    4c74:	0f be       	out	0x3f, r0	; 63
    4c76:	c9 01       	movw	r24, r18
    4c78:	08 95       	ret

00004c7a <usart_xgetChar>:
    4c7a:	cf 93       	push	r28
    4c7c:	df 93       	push	r29
    4c7e:	db 01       	movw	r26, r22
    4c80:	28 2f       	mov	r18, r24
    4c82:	30 e0       	ldi	r19, 0x00	; 0
    4c84:	0f b6       	in	r0, 0x3f	; 63
    4c86:	f8 94       	cli
    4c88:	0f 92       	push	r0
    4c8a:	8d e1       	ldi	r24, 0x1D	; 29
    4c8c:	90 e0       	ldi	r25, 0x00	; 0
    4c8e:	28 9f       	mul	r18, r24
    4c90:	f0 01       	movw	r30, r0
    4c92:	29 9f       	mul	r18, r25
    4c94:	f0 0d       	add	r31, r0
    4c96:	38 9f       	mul	r19, r24
    4c98:	f0 0d       	add	r31, r0
    4c9a:	11 24       	eor	r1, r1
    4c9c:	e8 51       	subi	r30, 0x18	; 24
    4c9e:	fb 4e       	sbci	r31, 0xEB	; 235
    4ca0:	80 81       	ld	r24, Z
    4ca2:	91 81       	ldd	r25, Z+1	; 0x01
    4ca4:	0f 90       	pop	r0
    4ca6:	0f be       	out	0x3f, r0	; 63
    4ca8:	89 2b       	or	r24, r25
    4caa:	11 f4       	brne	.+4      	; 0x4cb0 <usart_xgetChar+0x36>
    4cac:	80 e0       	ldi	r24, 0x00	; 0
    4cae:	27 c0       	rjmp	.+78     	; 0x4cfe <usart_xgetChar+0x84>
    4cb0:	8d e1       	ldi	r24, 0x1D	; 29
    4cb2:	90 e0       	ldi	r25, 0x00	; 0
    4cb4:	ac 01       	movw	r20, r24
    4cb6:	24 9f       	mul	r18, r20
    4cb8:	c0 01       	movw	r24, r0
    4cba:	25 9f       	mul	r18, r21
    4cbc:	90 0d       	add	r25, r0
    4cbe:	34 9f       	mul	r19, r20
    4cc0:	90 0d       	add	r25, r0
    4cc2:	11 24       	eor	r1, r1
    4cc4:	88 51       	subi	r24, 0x18	; 24
    4cc6:	9b 4e       	sbci	r25, 0xEB	; 235
    4cc8:	ec 01       	movw	r28, r24
    4cca:	ec 81       	ldd	r30, Y+4	; 0x04
    4ccc:	fd 81       	ldd	r31, Y+5	; 0x05
    4cce:	21 91       	ld	r18, Z+
    4cd0:	0f b6       	in	r0, 0x3f	; 63
    4cd2:	f8 94       	cli
    4cd4:	0f 92       	push	r0
    4cd6:	fd 83       	std	Y+5, r31	; 0x05
    4cd8:	ec 83       	std	Y+4, r30	; 0x04
    4cda:	88 85       	ldd	r24, Y+8	; 0x08
    4cdc:	99 85       	ldd	r25, Y+9	; 0x09
    4cde:	e8 17       	cp	r30, r24
    4ce0:	f9 07       	cpc	r31, r25
    4ce2:	21 f4       	brne	.+8      	; 0x4cec <usart_xgetChar+0x72>
    4ce4:	8e 81       	ldd	r24, Y+6	; 0x06
    4ce6:	9f 81       	ldd	r25, Y+7	; 0x07
    4ce8:	9d 83       	std	Y+5, r25	; 0x05
    4cea:	8c 83       	std	Y+4, r24	; 0x04
    4cec:	88 81       	ld	r24, Y
    4cee:	99 81       	ldd	r25, Y+1	; 0x01
    4cf0:	01 97       	sbiw	r24, 0x01	; 1
    4cf2:	99 83       	std	Y+1, r25	; 0x01
    4cf4:	88 83       	st	Y, r24
    4cf6:	0f 90       	pop	r0
    4cf8:	0f be       	out	0x3f, r0	; 63
    4cfa:	2c 93       	st	X, r18
    4cfc:	81 e0       	ldi	r24, 0x01	; 1
    4cfe:	df 91       	pop	r29
    4d00:	cf 91       	pop	r28
    4d02:	08 95       	ret

00004d04 <usart_xputChar>:
    4d04:	cf 93       	push	r28
    4d06:	df 93       	push	r29
    4d08:	48 2f       	mov	r20, r24
    4d0a:	50 e0       	ldi	r21, 0x00	; 0
    4d0c:	0f b6       	in	r0, 0x3f	; 63
    4d0e:	f8 94       	cli
    4d10:	0f 92       	push	r0
    4d12:	8d e1       	ldi	r24, 0x1D	; 29
    4d14:	90 e0       	ldi	r25, 0x00	; 0
    4d16:	48 9f       	mul	r20, r24
    4d18:	f0 01       	movw	r30, r0
    4d1a:	49 9f       	mul	r20, r25
    4d1c:	f0 0d       	add	r31, r0
    4d1e:	58 9f       	mul	r21, r24
    4d20:	f0 0d       	add	r31, r0
    4d22:	11 24       	eor	r1, r1
    4d24:	e8 51       	subi	r30, 0x18	; 24
    4d26:	fb 4e       	sbci	r31, 0xEB	; 235
    4d28:	a4 85       	ldd	r26, Z+12	; 0x0c
    4d2a:	b5 85       	ldd	r27, Z+13	; 0x0d
    4d2c:	0f 90       	pop	r0
    4d2e:	0f be       	out	0x3f, r0	; 63
    4d30:	8d e1       	ldi	r24, 0x1D	; 29
    4d32:	90 e0       	ldi	r25, 0x00	; 0
    4d34:	48 9f       	mul	r20, r24
    4d36:	90 01       	movw	r18, r0
    4d38:	49 9f       	mul	r20, r25
    4d3a:	30 0d       	add	r19, r0
    4d3c:	58 9f       	mul	r21, r24
    4d3e:	30 0d       	add	r19, r0
    4d40:	11 24       	eor	r1, r1
    4d42:	f9 01       	movw	r30, r18
    4d44:	e8 51       	subi	r30, 0x18	; 24
    4d46:	fb 4e       	sbci	r31, 0xEB	; 235
    4d48:	86 89       	ldd	r24, Z+22	; 0x16
    4d4a:	97 89       	ldd	r25, Z+23	; 0x17
    4d4c:	a8 17       	cp	r26, r24
    4d4e:	b9 07       	cpc	r27, r25
    4d50:	11 f0       	breq	.+4      	; 0x4d56 <usart_xputChar+0x52>
    4d52:	c9 01       	movw	r24, r18
    4d54:	2d c0       	rjmp	.+90     	; 0x4db0 <usart_xputChar+0xac>
    4d56:	85 e8       	ldi	r24, 0x85	; 133
    4d58:	98 2f       	mov	r25, r24
    4d5a:	9a 95       	dec	r25
    4d5c:	f1 f7       	brne	.-4      	; 0x4d5a <usart_xputChar+0x56>
    4d5e:	98 2f       	mov	r25, r24
    4d60:	9a 95       	dec	r25
    4d62:	f1 f7       	brne	.-4      	; 0x4d60 <usart_xputChar+0x5c>
    4d64:	98 2f       	mov	r25, r24
    4d66:	9a 95       	dec	r25
    4d68:	f1 f7       	brne	.-4      	; 0x4d66 <usart_xputChar+0x62>
    4d6a:	8a 95       	dec	r24
    4d6c:	f1 f7       	brne	.-4      	; 0x4d6a <usart_xputChar+0x66>
    4d6e:	0f b6       	in	r0, 0x3f	; 63
    4d70:	f8 94       	cli
    4d72:	0f 92       	push	r0
    4d74:	8d e1       	ldi	r24, 0x1D	; 29
    4d76:	90 e0       	ldi	r25, 0x00	; 0
    4d78:	48 9f       	mul	r20, r24
    4d7a:	f0 01       	movw	r30, r0
    4d7c:	49 9f       	mul	r20, r25
    4d7e:	f0 0d       	add	r31, r0
    4d80:	58 9f       	mul	r21, r24
    4d82:	f0 0d       	add	r31, r0
    4d84:	11 24       	eor	r1, r1
    4d86:	e8 51       	subi	r30, 0x18	; 24
    4d88:	fb 4e       	sbci	r31, 0xEB	; 235
    4d8a:	84 85       	ldd	r24, Z+12	; 0x0c
    4d8c:	95 85       	ldd	r25, Z+13	; 0x0d
    4d8e:	0f 90       	pop	r0
    4d90:	0f be       	out	0x3f, r0	; 63
    4d92:	8a 17       	cp	r24, r26
    4d94:	9b 07       	cpc	r25, r27
    4d96:	11 f4       	brne	.+4      	; 0x4d9c <usart_xputChar+0x98>
    4d98:	90 e0       	ldi	r25, 0x00	; 0
    4d9a:	29 c0       	rjmp	.+82     	; 0x4dee <usart_xputChar+0xea>
    4d9c:	8d e1       	ldi	r24, 0x1D	; 29
    4d9e:	90 e0       	ldi	r25, 0x00	; 0
    4da0:	9c 01       	movw	r18, r24
    4da2:	42 9f       	mul	r20, r18
    4da4:	c0 01       	movw	r24, r0
    4da6:	43 9f       	mul	r20, r19
    4da8:	90 0d       	add	r25, r0
    4daa:	52 9f       	mul	r21, r18
    4dac:	90 0d       	add	r25, r0
    4dae:	11 24       	eor	r1, r1
    4db0:	8c 50       	subi	r24, 0x0C	; 12
    4db2:	9b 4e       	sbci	r25, 0xEB	; 235
    4db4:	ec 01       	movw	r28, r24
    4db6:	ea 81       	ldd	r30, Y+2	; 0x02
    4db8:	fb 81       	ldd	r31, Y+3	; 0x03
    4dba:	60 83       	st	Z, r22
    4dbc:	0f b6       	in	r0, 0x3f	; 63
    4dbe:	f8 94       	cli
    4dc0:	0f 92       	push	r0
    4dc2:	8a 81       	ldd	r24, Y+2	; 0x02
    4dc4:	9b 81       	ldd	r25, Y+3	; 0x03
    4dc6:	01 96       	adiw	r24, 0x01	; 1
    4dc8:	9b 83       	std	Y+3, r25	; 0x03
    4dca:	8a 83       	std	Y+2, r24	; 0x02
    4dcc:	28 85       	ldd	r18, Y+8	; 0x08
    4dce:	39 85       	ldd	r19, Y+9	; 0x09
    4dd0:	82 17       	cp	r24, r18
    4dd2:	93 07       	cpc	r25, r19
    4dd4:	21 f4       	brne	.+8      	; 0x4dde <usart_xputChar+0xda>
    4dd6:	8e 81       	ldd	r24, Y+6	; 0x06
    4dd8:	9f 81       	ldd	r25, Y+7	; 0x07
    4dda:	9b 83       	std	Y+3, r25	; 0x03
    4ddc:	8a 83       	std	Y+2, r24	; 0x02
    4dde:	88 81       	ld	r24, Y
    4de0:	99 81       	ldd	r25, Y+1	; 0x01
    4de2:	01 96       	adiw	r24, 0x01	; 1
    4de4:	99 83       	std	Y+1, r25	; 0x01
    4de6:	88 83       	st	Y, r24
    4de8:	0f 90       	pop	r0
    4dea:	0f be       	out	0x3f, r0	; 63
    4dec:	91 e0       	ldi	r25, 0x01	; 1
    4dee:	fa 01       	movw	r30, r20
    4df0:	b3 e0       	ldi	r27, 0x03	; 3
    4df2:	ee 0f       	add	r30, r30
    4df4:	ff 1f       	adc	r31, r31
    4df6:	ba 95       	dec	r27
    4df8:	e1 f7       	brne	.-8      	; 0x4df2 <usart_xputChar+0xee>
    4dfa:	44 0f       	add	r20, r20
    4dfc:	55 1f       	adc	r21, r21
    4dfe:	e4 0f       	add	r30, r20
    4e00:	f5 1f       	adc	r31, r21
    4e02:	ee 5b       	subi	r30, 0xBE	; 190
    4e04:	fd 4f       	sbci	r31, 0xFD	; 253
    4e06:	04 80       	ldd	r0, Z+4	; 0x04
    4e08:	f5 81       	ldd	r31, Z+5	; 0x05
    4e0a:	e0 2d       	mov	r30, r0
    4e0c:	80 81       	ld	r24, Z
    4e0e:	80 62       	ori	r24, 0x20	; 32
    4e10:	80 83       	st	Z, r24
    4e12:	89 2f       	mov	r24, r25
    4e14:	df 91       	pop	r29
    4e16:	cf 91       	pop	r28
    4e18:	08 95       	ret

00004e1a <usartCheckRxComplete>:
    4e1a:	90 e0       	ldi	r25, 0x00	; 0
    4e1c:	fc 01       	movw	r30, r24
    4e1e:	ee 0f       	add	r30, r30
    4e20:	ff 1f       	adc	r31, r31
    4e22:	ee 0f       	add	r30, r30
    4e24:	ff 1f       	adc	r31, r31
    4e26:	e8 0f       	add	r30, r24
    4e28:	f9 1f       	adc	r31, r25
    4e2a:	ee 0f       	add	r30, r30
    4e2c:	ff 1f       	adc	r31, r31
    4e2e:	ec 5b       	subi	r30, 0xBC	; 188
    4e30:	fd 4f       	sbci	r31, 0xFD	; 253
    4e32:	01 90       	ld	r0, Z+
    4e34:	f0 81       	ld	r31, Z
    4e36:	e0 2d       	mov	r30, r0
    4e38:	80 81       	ld	r24, Z
    4e3a:	80 78       	andi	r24, 0x80	; 128
    4e3c:	08 95       	ret

00004e3e <usart_rx_isr>:
    4e3e:	cf 93       	push	r28
    4e40:	df 93       	push	r29
    4e42:	48 2f       	mov	r20, r24
    4e44:	50 e0       	ldi	r21, 0x00	; 0
    4e46:	fa 01       	movw	r30, r20
    4e48:	ee 0f       	add	r30, r30
    4e4a:	ff 1f       	adc	r31, r31
    4e4c:	ee 0f       	add	r30, r30
    4e4e:	ff 1f       	adc	r31, r31
    4e50:	e4 0f       	add	r30, r20
    4e52:	f5 1f       	adc	r31, r21
    4e54:	ee 0f       	add	r30, r30
    4e56:	ff 1f       	adc	r31, r31
    4e58:	ec 5b       	subi	r30, 0xBC	; 188
    4e5a:	fd 4f       	sbci	r31, 0xFD	; 253
    4e5c:	01 90       	ld	r0, Z+
    4e5e:	f0 81       	ld	r31, Z
    4e60:	e0 2d       	mov	r30, r0
    4e62:	80 81       	ld	r24, Z
    4e64:	8c 71       	andi	r24, 0x1C	; 28
    4e66:	09 f0       	breq	.+2      	; 0x4e6a <usart_rx_isr+0x2c>
    4e68:	4f c0       	rjmp	.+158    	; 0x4f08 <usart_rx_isr+0xca>
    4e6a:	fa 01       	movw	r30, r20
    4e6c:	ee 0f       	add	r30, r30
    4e6e:	ff 1f       	adc	r31, r31
    4e70:	ca 01       	movw	r24, r20
    4e72:	33 e0       	ldi	r19, 0x03	; 3
    4e74:	88 0f       	add	r24, r24
    4e76:	99 1f       	adc	r25, r25
    4e78:	3a 95       	dec	r19
    4e7a:	e1 f7       	brne	.-8      	; 0x4e74 <usart_rx_isr+0x36>
    4e7c:	e8 0f       	add	r30, r24
    4e7e:	f9 1f       	adc	r31, r25
    4e80:	ee 5b       	subi	r30, 0xBE	; 190
    4e82:	fd 4f       	sbci	r31, 0xFD	; 253
    4e84:	01 90       	ld	r0, Z+
    4e86:	f0 81       	ld	r31, Z
    4e88:	e0 2d       	mov	r30, r0
    4e8a:	60 81       	ld	r22, Z
    4e8c:	0f b6       	in	r0, 0x3f	; 63
    4e8e:	f8 94       	cli
    4e90:	0f 92       	push	r0
    4e92:	8d e1       	ldi	r24, 0x1D	; 29
    4e94:	90 e0       	ldi	r25, 0x00	; 0
    4e96:	48 9f       	mul	r20, r24
    4e98:	f0 01       	movw	r30, r0
    4e9a:	49 9f       	mul	r20, r25
    4e9c:	f0 0d       	add	r31, r0
    4e9e:	58 9f       	mul	r21, r24
    4ea0:	f0 0d       	add	r31, r0
    4ea2:	11 24       	eor	r1, r1
    4ea4:	e8 51       	subi	r30, 0x18	; 24
    4ea6:	fb 4e       	sbci	r31, 0xEB	; 235
    4ea8:	20 81       	ld	r18, Z
    4eaa:	31 81       	ldd	r19, Z+1	; 0x01
    4eac:	0f 90       	pop	r0
    4eae:	0f be       	out	0x3f, r0	; 63
    4eb0:	8d e1       	ldi	r24, 0x1D	; 29
    4eb2:	90 e0       	ldi	r25, 0x00	; 0
    4eb4:	48 9f       	mul	r20, r24
    4eb6:	f0 01       	movw	r30, r0
    4eb8:	49 9f       	mul	r20, r25
    4eba:	f0 0d       	add	r31, r0
    4ebc:	58 9f       	mul	r21, r24
    4ebe:	f0 0d       	add	r31, r0
    4ec0:	11 24       	eor	r1, r1
    4ec2:	e8 51       	subi	r30, 0x18	; 24
    4ec4:	fb 4e       	sbci	r31, 0xEB	; 235
    4ec6:	82 85       	ldd	r24, Z+10	; 0x0a
    4ec8:	93 85       	ldd	r25, Z+11	; 0x0b
    4eca:	28 17       	cp	r18, r24
    4ecc:	39 07       	cpc	r19, r25
    4ece:	e1 f0       	breq	.+56     	; 0x4f08 <usart_rx_isr+0xca>
    4ed0:	ef 01       	movw	r28, r30
    4ed2:	ea 81       	ldd	r30, Y+2	; 0x02
    4ed4:	fb 81       	ldd	r31, Y+3	; 0x03
    4ed6:	60 83       	st	Z, r22
    4ed8:	0f b6       	in	r0, 0x3f	; 63
    4eda:	f8 94       	cli
    4edc:	0f 92       	push	r0
    4ede:	8a 81       	ldd	r24, Y+2	; 0x02
    4ee0:	9b 81       	ldd	r25, Y+3	; 0x03
    4ee2:	01 96       	adiw	r24, 0x01	; 1
    4ee4:	9b 83       	std	Y+3, r25	; 0x03
    4ee6:	8a 83       	std	Y+2, r24	; 0x02
    4ee8:	28 85       	ldd	r18, Y+8	; 0x08
    4eea:	39 85       	ldd	r19, Y+9	; 0x09
    4eec:	82 17       	cp	r24, r18
    4eee:	93 07       	cpc	r25, r19
    4ef0:	21 f4       	brne	.+8      	; 0x4efa <usart_rx_isr+0xbc>
    4ef2:	8e 81       	ldd	r24, Y+6	; 0x06
    4ef4:	9f 81       	ldd	r25, Y+7	; 0x07
    4ef6:	9b 83       	std	Y+3, r25	; 0x03
    4ef8:	8a 83       	std	Y+2, r24	; 0x02
    4efa:	88 81       	ld	r24, Y
    4efc:	99 81       	ldd	r25, Y+1	; 0x01
    4efe:	01 96       	adiw	r24, 0x01	; 1
    4f00:	99 83       	std	Y+1, r25	; 0x01
    4f02:	88 83       	st	Y, r24
    4f04:	0f 90       	pop	r0
    4f06:	0f be       	out	0x3f, r0	; 63
    4f08:	df 91       	pop	r29
    4f0a:	cf 91       	pop	r28
    4f0c:	08 95       	ret

00004f0e <__vector_54>:
    4f0e:	1f 92       	push	r1
    4f10:	0f 92       	push	r0
    4f12:	0f b6       	in	r0, 0x3f	; 63
    4f14:	0f 92       	push	r0
    4f16:	0b b6       	in	r0, 0x3b	; 59
    4f18:	0f 92       	push	r0
    4f1a:	11 24       	eor	r1, r1
    4f1c:	2f 93       	push	r18
    4f1e:	3f 93       	push	r19
    4f20:	4f 93       	push	r20
    4f22:	5f 93       	push	r21
    4f24:	6f 93       	push	r22
    4f26:	7f 93       	push	r23
    4f28:	8f 93       	push	r24
    4f2a:	9f 93       	push	r25
    4f2c:	af 93       	push	r26
    4f2e:	bf 93       	push	r27
    4f30:	ef 93       	push	r30
    4f32:	ff 93       	push	r31
    4f34:	83 e0       	ldi	r24, 0x03	; 3
    4f36:	0e 94 1f 27 	call	0x4e3e	; 0x4e3e <usart_rx_isr>
    4f3a:	ff 91       	pop	r31
    4f3c:	ef 91       	pop	r30
    4f3e:	bf 91       	pop	r27
    4f40:	af 91       	pop	r26
    4f42:	9f 91       	pop	r25
    4f44:	8f 91       	pop	r24
    4f46:	7f 91       	pop	r23
    4f48:	6f 91       	pop	r22
    4f4a:	5f 91       	pop	r21
    4f4c:	4f 91       	pop	r20
    4f4e:	3f 91       	pop	r19
    4f50:	2f 91       	pop	r18
    4f52:	0f 90       	pop	r0
    4f54:	0b be       	out	0x3b, r0	; 59
    4f56:	0f 90       	pop	r0
    4f58:	0f be       	out	0x3f, r0	; 63
    4f5a:	0f 90       	pop	r0
    4f5c:	1f 90       	pop	r1
    4f5e:	18 95       	reti

00004f60 <__vector_51>:
    4f60:	1f 92       	push	r1
    4f62:	0f 92       	push	r0
    4f64:	0f b6       	in	r0, 0x3f	; 63
    4f66:	0f 92       	push	r0
    4f68:	0b b6       	in	r0, 0x3b	; 59
    4f6a:	0f 92       	push	r0
    4f6c:	11 24       	eor	r1, r1
    4f6e:	2f 93       	push	r18
    4f70:	3f 93       	push	r19
    4f72:	4f 93       	push	r20
    4f74:	5f 93       	push	r21
    4f76:	6f 93       	push	r22
    4f78:	7f 93       	push	r23
    4f7a:	8f 93       	push	r24
    4f7c:	9f 93       	push	r25
    4f7e:	af 93       	push	r26
    4f80:	bf 93       	push	r27
    4f82:	ef 93       	push	r30
    4f84:	ff 93       	push	r31
    4f86:	82 e0       	ldi	r24, 0x02	; 2
    4f88:	0e 94 1f 27 	call	0x4e3e	; 0x4e3e <usart_rx_isr>
    4f8c:	ff 91       	pop	r31
    4f8e:	ef 91       	pop	r30
    4f90:	bf 91       	pop	r27
    4f92:	af 91       	pop	r26
    4f94:	9f 91       	pop	r25
    4f96:	8f 91       	pop	r24
    4f98:	7f 91       	pop	r23
    4f9a:	6f 91       	pop	r22
    4f9c:	5f 91       	pop	r21
    4f9e:	4f 91       	pop	r20
    4fa0:	3f 91       	pop	r19
    4fa2:	2f 91       	pop	r18
    4fa4:	0f 90       	pop	r0
    4fa6:	0b be       	out	0x3b, r0	; 59
    4fa8:	0f 90       	pop	r0
    4faa:	0f be       	out	0x3f, r0	; 63
    4fac:	0f 90       	pop	r0
    4fae:	1f 90       	pop	r1
    4fb0:	18 95       	reti

00004fb2 <__vector_36>:
    4fb2:	1f 92       	push	r1
    4fb4:	0f 92       	push	r0
    4fb6:	0f b6       	in	r0, 0x3f	; 63
    4fb8:	0f 92       	push	r0
    4fba:	0b b6       	in	r0, 0x3b	; 59
    4fbc:	0f 92       	push	r0
    4fbe:	11 24       	eor	r1, r1
    4fc0:	2f 93       	push	r18
    4fc2:	3f 93       	push	r19
    4fc4:	4f 93       	push	r20
    4fc6:	5f 93       	push	r21
    4fc8:	6f 93       	push	r22
    4fca:	7f 93       	push	r23
    4fcc:	8f 93       	push	r24
    4fce:	9f 93       	push	r25
    4fd0:	af 93       	push	r26
    4fd2:	bf 93       	push	r27
    4fd4:	ef 93       	push	r30
    4fd6:	ff 93       	push	r31
    4fd8:	81 e0       	ldi	r24, 0x01	; 1
    4fda:	0e 94 1f 27 	call	0x4e3e	; 0x4e3e <usart_rx_isr>
    4fde:	ff 91       	pop	r31
    4fe0:	ef 91       	pop	r30
    4fe2:	bf 91       	pop	r27
    4fe4:	af 91       	pop	r26
    4fe6:	9f 91       	pop	r25
    4fe8:	8f 91       	pop	r24
    4fea:	7f 91       	pop	r23
    4fec:	6f 91       	pop	r22
    4fee:	5f 91       	pop	r21
    4ff0:	4f 91       	pop	r20
    4ff2:	3f 91       	pop	r19
    4ff4:	2f 91       	pop	r18
    4ff6:	0f 90       	pop	r0
    4ff8:	0b be       	out	0x3b, r0	; 59
    4ffa:	0f 90       	pop	r0
    4ffc:	0f be       	out	0x3f, r0	; 63
    4ffe:	0f 90       	pop	r0
    5000:	1f 90       	pop	r1
    5002:	18 95       	reti

00005004 <__vector_25>:
    5004:	1f 92       	push	r1
    5006:	0f 92       	push	r0
    5008:	0f b6       	in	r0, 0x3f	; 63
    500a:	0f 92       	push	r0
    500c:	0b b6       	in	r0, 0x3b	; 59
    500e:	0f 92       	push	r0
    5010:	11 24       	eor	r1, r1
    5012:	2f 93       	push	r18
    5014:	3f 93       	push	r19
    5016:	4f 93       	push	r20
    5018:	5f 93       	push	r21
    501a:	6f 93       	push	r22
    501c:	7f 93       	push	r23
    501e:	8f 93       	push	r24
    5020:	9f 93       	push	r25
    5022:	af 93       	push	r26
    5024:	bf 93       	push	r27
    5026:	ef 93       	push	r30
    5028:	ff 93       	push	r31
    502a:	80 e0       	ldi	r24, 0x00	; 0
    502c:	0e 94 1f 27 	call	0x4e3e	; 0x4e3e <usart_rx_isr>
    5030:	ff 91       	pop	r31
    5032:	ef 91       	pop	r30
    5034:	bf 91       	pop	r27
    5036:	af 91       	pop	r26
    5038:	9f 91       	pop	r25
    503a:	8f 91       	pop	r24
    503c:	7f 91       	pop	r23
    503e:	6f 91       	pop	r22
    5040:	5f 91       	pop	r21
    5042:	4f 91       	pop	r20
    5044:	3f 91       	pop	r19
    5046:	2f 91       	pop	r18
    5048:	0f 90       	pop	r0
    504a:	0b be       	out	0x3b, r0	; 59
    504c:	0f 90       	pop	r0
    504e:	0f be       	out	0x3f, r0	; 63
    5050:	0f 90       	pop	r0
    5052:	1f 90       	pop	r1
    5054:	18 95       	reti

00005056 <usart_tx_isr>:
    5056:	cf 93       	push	r28
    5058:	df 93       	push	r29
    505a:	48 2f       	mov	r20, r24
    505c:	50 e0       	ldi	r21, 0x00	; 0
    505e:	0f b6       	in	r0, 0x3f	; 63
    5060:	f8 94       	cli
    5062:	0f 92       	push	r0
    5064:	8d e1       	ldi	r24, 0x1D	; 29
    5066:	90 e0       	ldi	r25, 0x00	; 0
    5068:	48 9f       	mul	r20, r24
    506a:	f0 01       	movw	r30, r0
    506c:	49 9f       	mul	r20, r25
    506e:	f0 0d       	add	r31, r0
    5070:	58 9f       	mul	r21, r24
    5072:	f0 0d       	add	r31, r0
    5074:	11 24       	eor	r1, r1
    5076:	e8 51       	subi	r30, 0x18	; 24
    5078:	fb 4e       	sbci	r31, 0xEB	; 235
    507a:	84 85       	ldd	r24, Z+12	; 0x0c
    507c:	95 85       	ldd	r25, Z+13	; 0x0d
    507e:	0f 90       	pop	r0
    5080:	0f be       	out	0x3f, r0	; 63
    5082:	fa 01       	movw	r30, r20
    5084:	ee 0f       	add	r30, r30
    5086:	ff 1f       	adc	r31, r31
    5088:	9a 01       	movw	r18, r20
    508a:	b3 e0       	ldi	r27, 0x03	; 3
    508c:	22 0f       	add	r18, r18
    508e:	33 1f       	adc	r19, r19
    5090:	ba 95       	dec	r27
    5092:	e1 f7       	brne	.-8      	; 0x508c <usart_tx_isr+0x36>
    5094:	89 2b       	or	r24, r25
    5096:	59 f4       	brne	.+22     	; 0x50ae <usart_tx_isr+0x58>
    5098:	e2 0f       	add	r30, r18
    509a:	f3 1f       	adc	r31, r19
    509c:	ee 5b       	subi	r30, 0xBE	; 190
    509e:	fd 4f       	sbci	r31, 0xFD	; 253
    50a0:	04 80       	ldd	r0, Z+4	; 0x04
    50a2:	f5 81       	ldd	r31, Z+5	; 0x05
    50a4:	e0 2d       	mov	r30, r0
    50a6:	80 81       	ld	r24, Z
    50a8:	8f 7d       	andi	r24, 0xDF	; 223
    50aa:	80 83       	st	Z, r24
    50ac:	2c c0       	rjmp	.+88     	; 0x5106 <usart_tx_isr+0xb0>
    50ae:	e2 0f       	add	r30, r18
    50b0:	f3 1f       	adc	r31, r19
    50b2:	ee 5b       	subi	r30, 0xBE	; 190
    50b4:	fd 4f       	sbci	r31, 0xFD	; 253
    50b6:	a0 81       	ld	r26, Z
    50b8:	b1 81       	ldd	r27, Z+1	; 0x01
    50ba:	8d e1       	ldi	r24, 0x1D	; 29
    50bc:	90 e0       	ldi	r25, 0x00	; 0
    50be:	9c 01       	movw	r18, r24
    50c0:	42 9f       	mul	r20, r18
    50c2:	c0 01       	movw	r24, r0
    50c4:	43 9f       	mul	r20, r19
    50c6:	90 0d       	add	r25, r0
    50c8:	52 9f       	mul	r21, r18
    50ca:	90 0d       	add	r25, r0
    50cc:	11 24       	eor	r1, r1
    50ce:	8c 50       	subi	r24, 0x0C	; 12
    50d0:	9b 4e       	sbci	r25, 0xEB	; 235
    50d2:	ec 01       	movw	r28, r24
    50d4:	ec 81       	ldd	r30, Y+4	; 0x04
    50d6:	fd 81       	ldd	r31, Y+5	; 0x05
    50d8:	21 91       	ld	r18, Z+
    50da:	0f b6       	in	r0, 0x3f	; 63
    50dc:	f8 94       	cli
    50de:	0f 92       	push	r0
    50e0:	fd 83       	std	Y+5, r31	; 0x05
    50e2:	ec 83       	std	Y+4, r30	; 0x04
    50e4:	88 85       	ldd	r24, Y+8	; 0x08
    50e6:	99 85       	ldd	r25, Y+9	; 0x09
    50e8:	e8 17       	cp	r30, r24
    50ea:	f9 07       	cpc	r31, r25
    50ec:	21 f4       	brne	.+8      	; 0x50f6 <usart_tx_isr+0xa0>
    50ee:	8e 81       	ldd	r24, Y+6	; 0x06
    50f0:	9f 81       	ldd	r25, Y+7	; 0x07
    50f2:	9d 83       	std	Y+5, r25	; 0x05
    50f4:	8c 83       	std	Y+4, r24	; 0x04
    50f6:	88 81       	ld	r24, Y
    50f8:	99 81       	ldd	r25, Y+1	; 0x01
    50fa:	01 97       	sbiw	r24, 0x01	; 1
    50fc:	99 83       	std	Y+1, r25	; 0x01
    50fe:	88 83       	st	Y, r24
    5100:	0f 90       	pop	r0
    5102:	0f be       	out	0x3f, r0	; 63
    5104:	2c 93       	st	X, r18
    5106:	df 91       	pop	r29
    5108:	cf 91       	pop	r28
    510a:	08 95       	ret

0000510c <__vector_55>:
    510c:	1f 92       	push	r1
    510e:	0f 92       	push	r0
    5110:	0f b6       	in	r0, 0x3f	; 63
    5112:	0f 92       	push	r0
    5114:	0b b6       	in	r0, 0x3b	; 59
    5116:	0f 92       	push	r0
    5118:	11 24       	eor	r1, r1
    511a:	2f 93       	push	r18
    511c:	3f 93       	push	r19
    511e:	4f 93       	push	r20
    5120:	5f 93       	push	r21
    5122:	6f 93       	push	r22
    5124:	7f 93       	push	r23
    5126:	8f 93       	push	r24
    5128:	9f 93       	push	r25
    512a:	af 93       	push	r26
    512c:	bf 93       	push	r27
    512e:	ef 93       	push	r30
    5130:	ff 93       	push	r31
    5132:	83 e0       	ldi	r24, 0x03	; 3
    5134:	0e 94 2b 28 	call	0x5056	; 0x5056 <usart_tx_isr>
    5138:	ff 91       	pop	r31
    513a:	ef 91       	pop	r30
    513c:	bf 91       	pop	r27
    513e:	af 91       	pop	r26
    5140:	9f 91       	pop	r25
    5142:	8f 91       	pop	r24
    5144:	7f 91       	pop	r23
    5146:	6f 91       	pop	r22
    5148:	5f 91       	pop	r21
    514a:	4f 91       	pop	r20
    514c:	3f 91       	pop	r19
    514e:	2f 91       	pop	r18
    5150:	0f 90       	pop	r0
    5152:	0b be       	out	0x3b, r0	; 59
    5154:	0f 90       	pop	r0
    5156:	0f be       	out	0x3f, r0	; 63
    5158:	0f 90       	pop	r0
    515a:	1f 90       	pop	r1
    515c:	18 95       	reti

0000515e <__vector_52>:
    515e:	1f 92       	push	r1
    5160:	0f 92       	push	r0
    5162:	0f b6       	in	r0, 0x3f	; 63
    5164:	0f 92       	push	r0
    5166:	0b b6       	in	r0, 0x3b	; 59
    5168:	0f 92       	push	r0
    516a:	11 24       	eor	r1, r1
    516c:	2f 93       	push	r18
    516e:	3f 93       	push	r19
    5170:	4f 93       	push	r20
    5172:	5f 93       	push	r21
    5174:	6f 93       	push	r22
    5176:	7f 93       	push	r23
    5178:	8f 93       	push	r24
    517a:	9f 93       	push	r25
    517c:	af 93       	push	r26
    517e:	bf 93       	push	r27
    5180:	ef 93       	push	r30
    5182:	ff 93       	push	r31
    5184:	82 e0       	ldi	r24, 0x02	; 2
    5186:	0e 94 2b 28 	call	0x5056	; 0x5056 <usart_tx_isr>
    518a:	ff 91       	pop	r31
    518c:	ef 91       	pop	r30
    518e:	bf 91       	pop	r27
    5190:	af 91       	pop	r26
    5192:	9f 91       	pop	r25
    5194:	8f 91       	pop	r24
    5196:	7f 91       	pop	r23
    5198:	6f 91       	pop	r22
    519a:	5f 91       	pop	r21
    519c:	4f 91       	pop	r20
    519e:	3f 91       	pop	r19
    51a0:	2f 91       	pop	r18
    51a2:	0f 90       	pop	r0
    51a4:	0b be       	out	0x3b, r0	; 59
    51a6:	0f 90       	pop	r0
    51a8:	0f be       	out	0x3f, r0	; 63
    51aa:	0f 90       	pop	r0
    51ac:	1f 90       	pop	r1
    51ae:	18 95       	reti

000051b0 <__vector_37>:
    51b0:	1f 92       	push	r1
    51b2:	0f 92       	push	r0
    51b4:	0f b6       	in	r0, 0x3f	; 63
    51b6:	0f 92       	push	r0
    51b8:	0b b6       	in	r0, 0x3b	; 59
    51ba:	0f 92       	push	r0
    51bc:	11 24       	eor	r1, r1
    51be:	2f 93       	push	r18
    51c0:	3f 93       	push	r19
    51c2:	4f 93       	push	r20
    51c4:	5f 93       	push	r21
    51c6:	6f 93       	push	r22
    51c8:	7f 93       	push	r23
    51ca:	8f 93       	push	r24
    51cc:	9f 93       	push	r25
    51ce:	af 93       	push	r26
    51d0:	bf 93       	push	r27
    51d2:	ef 93       	push	r30
    51d4:	ff 93       	push	r31
    51d6:	81 e0       	ldi	r24, 0x01	; 1
    51d8:	0e 94 2b 28 	call	0x5056	; 0x5056 <usart_tx_isr>
    51dc:	ff 91       	pop	r31
    51de:	ef 91       	pop	r30
    51e0:	bf 91       	pop	r27
    51e2:	af 91       	pop	r26
    51e4:	9f 91       	pop	r25
    51e6:	8f 91       	pop	r24
    51e8:	7f 91       	pop	r23
    51ea:	6f 91       	pop	r22
    51ec:	5f 91       	pop	r21
    51ee:	4f 91       	pop	r20
    51f0:	3f 91       	pop	r19
    51f2:	2f 91       	pop	r18
    51f4:	0f 90       	pop	r0
    51f6:	0b be       	out	0x3b, r0	; 59
    51f8:	0f 90       	pop	r0
    51fa:	0f be       	out	0x3f, r0	; 63
    51fc:	0f 90       	pop	r0
    51fe:	1f 90       	pop	r1
    5200:	18 95       	reti

00005202 <__vector_26>:
    5202:	1f 92       	push	r1
    5204:	0f 92       	push	r0
    5206:	0f b6       	in	r0, 0x3f	; 63
    5208:	0f 92       	push	r0
    520a:	0b b6       	in	r0, 0x3b	; 59
    520c:	0f 92       	push	r0
    520e:	11 24       	eor	r1, r1
    5210:	2f 93       	push	r18
    5212:	3f 93       	push	r19
    5214:	4f 93       	push	r20
    5216:	5f 93       	push	r21
    5218:	6f 93       	push	r22
    521a:	7f 93       	push	r23
    521c:	8f 93       	push	r24
    521e:	9f 93       	push	r25
    5220:	af 93       	push	r26
    5222:	bf 93       	push	r27
    5224:	ef 93       	push	r30
    5226:	ff 93       	push	r31
    5228:	80 e0       	ldi	r24, 0x00	; 0
    522a:	0e 94 2b 28 	call	0x5056	; 0x5056 <usart_tx_isr>
    522e:	ff 91       	pop	r31
    5230:	ef 91       	pop	r30
    5232:	bf 91       	pop	r27
    5234:	af 91       	pop	r26
    5236:	9f 91       	pop	r25
    5238:	8f 91       	pop	r24
    523a:	7f 91       	pop	r23
    523c:	6f 91       	pop	r22
    523e:	5f 91       	pop	r21
    5240:	4f 91       	pop	r20
    5242:	3f 91       	pop	r19
    5244:	2f 91       	pop	r18
    5246:	0f 90       	pop	r0
    5248:	0b be       	out	0x3b, r0	; 59
    524a:	0f 90       	pop	r0
    524c:	0f be       	out	0x3f, r0	; 63
    524e:	0f 90       	pop	r0
    5250:	1f 90       	pop	r1
    5252:	18 95       	reti

00005254 <usart_xfprint_P>:
    5254:	df 92       	push	r13
    5256:	ef 92       	push	r14
    5258:	ff 92       	push	r15
    525a:	0f 93       	push	r16
    525c:	1f 93       	push	r17
    525e:	cf 93       	push	r28
    5260:	df 93       	push	r29
    5262:	d8 2e       	mov	r13, r24
    5264:	8b 01       	movw	r16, r22
    5266:	cb 01       	movw	r24, r22
    5268:	0e 94 3e 07 	call	0xe7c	; 0xe7c <strlen_P>
    526c:	7c 01       	movw	r14, r24
    526e:	c0 e0       	ldi	r28, 0x00	; 0
    5270:	d0 e0       	ldi	r29, 0x00	; 0
    5272:	09 c0       	rjmp	.+18     	; 0x5286 <usart_xfprint_P+0x32>
    5274:	f8 01       	movw	r30, r16
    5276:	ec 0f       	add	r30, r28
    5278:	fd 1f       	adc	r31, r29
    527a:	21 96       	adiw	r28, 0x01	; 1
    527c:	e4 91       	lpm	r30, Z+
    527e:	8d 2d       	mov	r24, r13
    5280:	6e 2f       	mov	r22, r30
    5282:	0e 94 82 26 	call	0x4d04	; 0x4d04 <usart_xputChar>
    5286:	ce 15       	cp	r28, r14
    5288:	df 05       	cpc	r29, r15
    528a:	a0 f3       	brcs	.-24     	; 0x5274 <usart_xfprint_P+0x20>
    528c:	df 91       	pop	r29
    528e:	cf 91       	pop	r28
    5290:	1f 91       	pop	r17
    5292:	0f 91       	pop	r16
    5294:	ff 90       	pop	r15
    5296:	ef 90       	pop	r14
    5298:	df 90       	pop	r13
    529a:	08 95       	ret

0000529c <usart_xprint_P>:
    529c:	bc 01       	movw	r22, r24
    529e:	80 91 e1 14 	lds	r24, 0x14E1
    52a2:	0e 94 2a 29 	call	0x5254	; 0x5254 <usart_xfprint_P>
    52a6:	08 95       	ret

000052a8 <usart_fprint_P>:
    52a8:	ef 92       	push	r14
    52aa:	ff 92       	push	r15
    52ac:	0f 93       	push	r16
    52ae:	1f 93       	push	r17
    52b0:	cf 93       	push	r28
    52b2:	df 93       	push	r29
    52b4:	08 2f       	mov	r16, r24
    52b6:	7b 01       	movw	r14, r22
    52b8:	cb 01       	movw	r24, r22
    52ba:	0e 94 3e 07 	call	0xe7c	; 0xe7c <strlen_P>
    52be:	bc 01       	movw	r22, r24
    52c0:	20 e0       	ldi	r18, 0x00	; 0
    52c2:	30 e0       	ldi	r19, 0x00	; 0
    52c4:	10 e0       	ldi	r17, 0x00	; 0
    52c6:	d8 01       	movw	r26, r16
    52c8:	aa 0f       	add	r26, r26
    52ca:	bb 1f       	adc	r27, r27
    52cc:	aa 0f       	add	r26, r26
    52ce:	bb 1f       	adc	r27, r27
    52d0:	a0 0f       	add	r26, r16
    52d2:	b1 1f       	adc	r27, r17
    52d4:	aa 0f       	add	r26, r26
    52d6:	bb 1f       	adc	r27, r27
    52d8:	ac 5b       	subi	r26, 0xBC	; 188
    52da:	bd 4f       	sbci	r27, 0xFD	; 253
    52dc:	95 e8       	ldi	r25, 0x85	; 133
    52de:	e8 01       	movw	r28, r16
    52e0:	53 e0       	ldi	r21, 0x03	; 3
    52e2:	cc 0f       	add	r28, r28
    52e4:	dd 1f       	adc	r29, r29
    52e6:	5a 95       	dec	r21
    52e8:	e1 f7       	brne	.-8      	; 0x52e2 <usart_fprint_P+0x3a>
    52ea:	00 0f       	add	r16, r16
    52ec:	11 1f       	adc	r17, r17
    52ee:	c0 0f       	add	r28, r16
    52f0:	d1 1f       	adc	r29, r17
    52f2:	ce 5b       	subi	r28, 0xBE	; 190
    52f4:	dd 4f       	sbci	r29, 0xFD	; 253
    52f6:	13 c0       	rjmp	.+38     	; 0x531e <usart_fprint_P+0x76>
    52f8:	f7 01       	movw	r30, r14
    52fa:	e2 0f       	add	r30, r18
    52fc:	f3 1f       	adc	r31, r19
    52fe:	44 91       	lpm	r20, Z+
    5300:	ed 91       	ld	r30, X+
    5302:	fc 91       	ld	r31, X
    5304:	11 97       	sbiw	r26, 0x01	; 1
    5306:	03 c0       	rjmp	.+6      	; 0x530e <usart_fprint_P+0x66>
    5308:	89 2f       	mov	r24, r25
    530a:	8a 95       	dec	r24
    530c:	f1 f7       	brne	.-4      	; 0x530a <usart_fprint_P+0x62>
    530e:	80 81       	ld	r24, Z
    5310:	85 ff       	sbrs	r24, 5
    5312:	fa cf       	rjmp	.-12     	; 0x5308 <usart_fprint_P+0x60>
    5314:	2f 5f       	subi	r18, 0xFF	; 255
    5316:	3f 4f       	sbci	r19, 0xFF	; 255
    5318:	e8 81       	ld	r30, Y
    531a:	f9 81       	ldd	r31, Y+1	; 0x01
    531c:	40 83       	st	Z, r20
    531e:	26 17       	cp	r18, r22
    5320:	37 07       	cpc	r19, r23
    5322:	50 f3       	brcs	.-44     	; 0x52f8 <usart_fprint_P+0x50>
    5324:	df 91       	pop	r29
    5326:	cf 91       	pop	r28
    5328:	1f 91       	pop	r17
    532a:	0f 91       	pop	r16
    532c:	ff 90       	pop	r15
    532e:	ef 90       	pop	r14
    5330:	08 95       	ret

00005332 <usart_print_P>:
    5332:	bc 01       	movw	r22, r24
    5334:	80 91 e1 14 	lds	r24, 0x14E1
    5338:	0e 94 54 29 	call	0x52a8	; 0x52a8 <usart_fprint_P>
    533c:	08 95       	ret

0000533e <usart_xfprint>:
    533e:	df 92       	push	r13
    5340:	ef 92       	push	r14
    5342:	ff 92       	push	r15
    5344:	0f 93       	push	r16
    5346:	1f 93       	push	r17
    5348:	cf 93       	push	r28
    534a:	df 93       	push	r29
    534c:	d8 2e       	mov	r13, r24
    534e:	7b 01       	movw	r14, r22
    5350:	db 01       	movw	r26, r22
    5352:	0d 90       	ld	r0, X+
    5354:	00 20       	and	r0, r0
    5356:	e9 f7       	brne	.-6      	; 0x5352 <usart_xfprint+0x14>
    5358:	8d 01       	movw	r16, r26
    535a:	01 50       	subi	r16, 0x01	; 1
    535c:	10 40       	sbci	r17, 0x00	; 0
    535e:	06 1b       	sub	r16, r22
    5360:	17 0b       	sbc	r17, r23
    5362:	c0 e0       	ldi	r28, 0x00	; 0
    5364:	d0 e0       	ldi	r29, 0x00	; 0
    5366:	07 c0       	rjmp	.+14     	; 0x5376 <usart_xfprint+0x38>
    5368:	21 96       	adiw	r28, 0x01	; 1
    536a:	ee 0d       	add	r30, r14
    536c:	ff 1d       	adc	r31, r15
    536e:	8d 2d       	mov	r24, r13
    5370:	60 81       	ld	r22, Z
    5372:	0e 94 82 26 	call	0x4d04	; 0x4d04 <usart_xputChar>
    5376:	fe 01       	movw	r30, r28
    5378:	c0 17       	cp	r28, r16
    537a:	d1 07       	cpc	r29, r17
    537c:	a8 f3       	brcs	.-22     	; 0x5368 <usart_xfprint+0x2a>
    537e:	df 91       	pop	r29
    5380:	cf 91       	pop	r28
    5382:	1f 91       	pop	r17
    5384:	0f 91       	pop	r16
    5386:	ff 90       	pop	r15
    5388:	ef 90       	pop	r14
    538a:	df 90       	pop	r13
    538c:	08 95       	ret

0000538e <usart_xfprintf_P_arg>:
    538e:	bf 92       	push	r11
    5390:	cf 92       	push	r12
    5392:	df 92       	push	r13
    5394:	ef 92       	push	r14
    5396:	ff 92       	push	r15
    5398:	0f 93       	push	r16
    539a:	1f 93       	push	r17
    539c:	cf 93       	push	r28
    539e:	df 93       	push	r29
    53a0:	b8 2e       	mov	r11, r24
    53a2:	7b 01       	movw	r14, r22
    53a4:	6a 01       	movw	r12, r20
    53a6:	28 2f       	mov	r18, r24
    53a8:	30 e0       	ldi	r19, 0x00	; 0
    53aa:	8d e1       	ldi	r24, 0x1D	; 29
    53ac:	90 e0       	ldi	r25, 0x00	; 0
    53ae:	28 9f       	mul	r18, r24
    53b0:	e0 01       	movw	r28, r0
    53b2:	29 9f       	mul	r18, r25
    53b4:	d0 0d       	add	r29, r0
    53b6:	38 9f       	mul	r19, r24
    53b8:	d0 0d       	add	r29, r0
    53ba:	11 24       	eor	r1, r1
    53bc:	c8 51       	subi	r28, 0x18	; 24
    53be:	db 4e       	sbci	r29, 0xEB	; 235
    53c0:	8e 01       	movw	r16, r28
    53c2:	04 5e       	subi	r16, 0xE4	; 228
    53c4:	1f 4f       	sbci	r17, 0xFF	; 255
    53c6:	02 c0       	rjmp	.+4      	; 0x53cc <usart_xfprintf_P_arg+0x3e>
    53c8:	0e 94 90 24 	call	0x4920	; 0x4920 <vPortYield>
    53cc:	f8 01       	movw	r30, r16
    53ce:	80 81       	ld	r24, Z
    53d0:	81 30       	cpi	r24, 0x01	; 1
    53d2:	d1 f3       	breq	.-12     	; 0x53c8 <usart_xfprintf_P_arg+0x3a>
    53d4:	81 e0       	ldi	r24, 0x01	; 1
    53d6:	8c 8f       	std	Y+28, r24	; 0x1c
    53d8:	6a 8d       	ldd	r22, Y+26	; 0x1a
    53da:	7b 8d       	ldd	r23, Y+27	; 0x1b
    53dc:	88 8d       	ldd	r24, Y+24	; 0x18
    53de:	99 8d       	ldd	r25, Y+25	; 0x19
    53e0:	a7 01       	movw	r20, r14
    53e2:	96 01       	movw	r18, r12
    53e4:	0e 94 de 07 	call	0xfbc	; 0xfbc <vsnprintf_P>
    53e8:	68 8d       	ldd	r22, Y+24	; 0x18
    53ea:	79 8d       	ldd	r23, Y+25	; 0x19
    53ec:	8b 2d       	mov	r24, r11
    53ee:	0e 94 9f 29 	call	0x533e	; 0x533e <usart_xfprint>
    53f2:	1c 8e       	std	Y+28, r1	; 0x1c
    53f4:	df 91       	pop	r29
    53f6:	cf 91       	pop	r28
    53f8:	1f 91       	pop	r17
    53fa:	0f 91       	pop	r16
    53fc:	ff 90       	pop	r15
    53fe:	ef 90       	pop	r14
    5400:	df 90       	pop	r13
    5402:	cf 90       	pop	r12
    5404:	bf 90       	pop	r11
    5406:	08 95       	ret

00005408 <usart_xfprintf_arg>:
    5408:	bf 92       	push	r11
    540a:	cf 92       	push	r12
    540c:	df 92       	push	r13
    540e:	ef 92       	push	r14
    5410:	ff 92       	push	r15
    5412:	0f 93       	push	r16
    5414:	1f 93       	push	r17
    5416:	cf 93       	push	r28
    5418:	df 93       	push	r29
    541a:	b8 2e       	mov	r11, r24
    541c:	7b 01       	movw	r14, r22
    541e:	6a 01       	movw	r12, r20
    5420:	28 2f       	mov	r18, r24
    5422:	30 e0       	ldi	r19, 0x00	; 0
    5424:	8d e1       	ldi	r24, 0x1D	; 29
    5426:	90 e0       	ldi	r25, 0x00	; 0
    5428:	28 9f       	mul	r18, r24
    542a:	e0 01       	movw	r28, r0
    542c:	29 9f       	mul	r18, r25
    542e:	d0 0d       	add	r29, r0
    5430:	38 9f       	mul	r19, r24
    5432:	d0 0d       	add	r29, r0
    5434:	11 24       	eor	r1, r1
    5436:	c8 51       	subi	r28, 0x18	; 24
    5438:	db 4e       	sbci	r29, 0xEB	; 235
    543a:	8e 01       	movw	r16, r28
    543c:	04 5e       	subi	r16, 0xE4	; 228
    543e:	1f 4f       	sbci	r17, 0xFF	; 255
    5440:	02 c0       	rjmp	.+4      	; 0x5446 <usart_xfprintf_arg+0x3e>
    5442:	0e 94 90 24 	call	0x4920	; 0x4920 <vPortYield>
    5446:	f8 01       	movw	r30, r16
    5448:	80 81       	ld	r24, Z
    544a:	81 30       	cpi	r24, 0x01	; 1
    544c:	d1 f3       	breq	.-12     	; 0x5442 <usart_xfprintf_arg+0x3a>
    544e:	81 e0       	ldi	r24, 0x01	; 1
    5450:	8c 8f       	std	Y+28, r24	; 0x1c
    5452:	6a 8d       	ldd	r22, Y+26	; 0x1a
    5454:	7b 8d       	ldd	r23, Y+27	; 0x1b
    5456:	88 8d       	ldd	r24, Y+24	; 0x18
    5458:	99 8d       	ldd	r25, Y+25	; 0x19
    545a:	a7 01       	movw	r20, r14
    545c:	96 01       	movw	r18, r12
    545e:	0e 94 b4 07 	call	0xf68	; 0xf68 <vsnprintf>
    5462:	68 8d       	ldd	r22, Y+24	; 0x18
    5464:	79 8d       	ldd	r23, Y+25	; 0x19
    5466:	8b 2d       	mov	r24, r11
    5468:	0e 94 9f 29 	call	0x533e	; 0x533e <usart_xfprint>
    546c:	1c 8e       	std	Y+28, r1	; 0x1c
    546e:	df 91       	pop	r29
    5470:	cf 91       	pop	r28
    5472:	1f 91       	pop	r17
    5474:	0f 91       	pop	r16
    5476:	ff 90       	pop	r15
    5478:	ef 90       	pop	r14
    547a:	df 90       	pop	r13
    547c:	cf 90       	pop	r12
    547e:	bf 90       	pop	r11
    5480:	08 95       	ret

00005482 <usart_xprint>:
    5482:	bc 01       	movw	r22, r24
    5484:	80 91 e1 14 	lds	r24, 0x14E1
    5488:	0e 94 9f 29 	call	0x533e	; 0x533e <usart_xfprint>
    548c:	08 95       	ret

0000548e <usart_fprint>:
    548e:	1f 93       	push	r17
    5490:	cf 93       	push	r28
    5492:	df 93       	push	r29
    5494:	db 01       	movw	r26, r22
    5496:	0d 90       	ld	r0, X+
    5498:	00 20       	and	r0, r0
    549a:	e9 f7       	brne	.-6      	; 0x5496 <usart_fprint+0x8>
    549c:	9d 01       	movw	r18, r26
    549e:	21 50       	subi	r18, 0x01	; 1
    54a0:	30 40       	sbci	r19, 0x00	; 0
    54a2:	26 1b       	sub	r18, r22
    54a4:	37 0b       	sbc	r19, r23
    54a6:	40 e0       	ldi	r20, 0x00	; 0
    54a8:	50 e0       	ldi	r21, 0x00	; 0
    54aa:	90 e0       	ldi	r25, 0x00	; 0
    54ac:	dc 01       	movw	r26, r24
    54ae:	aa 0f       	add	r26, r26
    54b0:	bb 1f       	adc	r27, r27
    54b2:	aa 0f       	add	r26, r26
    54b4:	bb 1f       	adc	r27, r27
    54b6:	a8 0f       	add	r26, r24
    54b8:	b9 1f       	adc	r27, r25
    54ba:	aa 0f       	add	r26, r26
    54bc:	bb 1f       	adc	r27, r27
    54be:	ac 5b       	subi	r26, 0xBC	; 188
    54c0:	bd 4f       	sbci	r27, 0xFD	; 253
    54c2:	15 e8       	ldi	r17, 0x85	; 133
    54c4:	ec 01       	movw	r28, r24
    54c6:	f3 e0       	ldi	r31, 0x03	; 3
    54c8:	cc 0f       	add	r28, r28
    54ca:	dd 1f       	adc	r29, r29
    54cc:	fa 95       	dec	r31
    54ce:	e1 f7       	brne	.-8      	; 0x54c8 <usart_fprint+0x3a>
    54d0:	88 0f       	add	r24, r24
    54d2:	99 1f       	adc	r25, r25
    54d4:	c8 0f       	add	r28, r24
    54d6:	d9 1f       	adc	r29, r25
    54d8:	ce 5b       	subi	r28, 0xBE	; 190
    54da:	dd 4f       	sbci	r29, 0xFD	; 253
    54dc:	13 c0       	rjmp	.+38     	; 0x5504 <usart_fprint+0x76>
    54de:	fb 01       	movw	r30, r22
    54e0:	e4 0f       	add	r30, r20
    54e2:	f5 1f       	adc	r31, r21
    54e4:	90 81       	ld	r25, Z
    54e6:	ed 91       	ld	r30, X+
    54e8:	fc 91       	ld	r31, X
    54ea:	11 97       	sbiw	r26, 0x01	; 1
    54ec:	03 c0       	rjmp	.+6      	; 0x54f4 <usart_fprint+0x66>
    54ee:	81 2f       	mov	r24, r17
    54f0:	8a 95       	dec	r24
    54f2:	f1 f7       	brne	.-4      	; 0x54f0 <usart_fprint+0x62>
    54f4:	80 81       	ld	r24, Z
    54f6:	85 ff       	sbrs	r24, 5
    54f8:	fa cf       	rjmp	.-12     	; 0x54ee <usart_fprint+0x60>
    54fa:	4f 5f       	subi	r20, 0xFF	; 255
    54fc:	5f 4f       	sbci	r21, 0xFF	; 255
    54fe:	e8 81       	ld	r30, Y
    5500:	f9 81       	ldd	r31, Y+1	; 0x01
    5502:	90 83       	st	Z, r25
    5504:	42 17       	cp	r20, r18
    5506:	53 07       	cpc	r21, r19
    5508:	50 f3       	brcs	.-44     	; 0x54de <usart_fprint+0x50>
    550a:	df 91       	pop	r29
    550c:	cf 91       	pop	r28
    550e:	1f 91       	pop	r17
    5510:	08 95       	ret

00005512 <usart_fprintf_P_arg>:
    5512:	1f 93       	push	r17
    5514:	cf 93       	push	r28
    5516:	df 93       	push	r29
    5518:	18 2f       	mov	r17, r24
    551a:	fb 01       	movw	r30, r22
    551c:	da 01       	movw	r26, r20
    551e:	90 e0       	ldi	r25, 0x00	; 0
    5520:	2d e1       	ldi	r18, 0x1D	; 29
    5522:	30 e0       	ldi	r19, 0x00	; 0
    5524:	82 9f       	mul	r24, r18
    5526:	e0 01       	movw	r28, r0
    5528:	83 9f       	mul	r24, r19
    552a:	d0 0d       	add	r29, r0
    552c:	92 9f       	mul	r25, r18
    552e:	d0 0d       	add	r29, r0
    5530:	11 24       	eor	r1, r1
    5532:	c8 51       	subi	r28, 0x18	; 24
    5534:	db 4e       	sbci	r29, 0xEB	; 235
    5536:	8c 8d       	ldd	r24, Y+28	; 0x1c
    5538:	81 30       	cpi	r24, 0x01	; 1
    553a:	29 f4       	brne	.+10     	; 0x5546 <usart_fprintf_P_arg+0x34>
    553c:	95 e8       	ldi	r25, 0x85	; 133
    553e:	89 2f       	mov	r24, r25
    5540:	8a 95       	dec	r24
    5542:	f1 f7       	brne	.-4      	; 0x5540 <usart_fprintf_P_arg+0x2e>
    5544:	fc cf       	rjmp	.-8      	; 0x553e <usart_fprintf_P_arg+0x2c>
    5546:	81 e0       	ldi	r24, 0x01	; 1
    5548:	8c 8f       	std	Y+28, r24	; 0x1c
    554a:	6a 8d       	ldd	r22, Y+26	; 0x1a
    554c:	7b 8d       	ldd	r23, Y+27	; 0x1b
    554e:	88 8d       	ldd	r24, Y+24	; 0x18
    5550:	99 8d       	ldd	r25, Y+25	; 0x19
    5552:	af 01       	movw	r20, r30
    5554:	9d 01       	movw	r18, r26
    5556:	0e 94 de 07 	call	0xfbc	; 0xfbc <vsnprintf_P>
    555a:	68 8d       	ldd	r22, Y+24	; 0x18
    555c:	79 8d       	ldd	r23, Y+25	; 0x19
    555e:	81 2f       	mov	r24, r17
    5560:	0e 94 47 2a 	call	0x548e	; 0x548e <usart_fprint>
    5564:	1c 8e       	std	Y+28, r1	; 0x1c
    5566:	df 91       	pop	r29
    5568:	cf 91       	pop	r28
    556a:	1f 91       	pop	r17
    556c:	08 95       	ret

0000556e <usart_fprintf_arg>:
    556e:	cf 93       	push	r28
    5570:	df 93       	push	r29
    5572:	fb 01       	movw	r30, r22
    5574:	da 01       	movw	r26, r20
    5576:	90 e0       	ldi	r25, 0x00	; 0
    5578:	2d e1       	ldi	r18, 0x1D	; 29
    557a:	30 e0       	ldi	r19, 0x00	; 0
    557c:	82 9f       	mul	r24, r18
    557e:	e0 01       	movw	r28, r0
    5580:	83 9f       	mul	r24, r19
    5582:	d0 0d       	add	r29, r0
    5584:	92 9f       	mul	r25, r18
    5586:	d0 0d       	add	r29, r0
    5588:	11 24       	eor	r1, r1
    558a:	c8 51       	subi	r28, 0x18	; 24
    558c:	db 4e       	sbci	r29, 0xEB	; 235
    558e:	8c 8d       	ldd	r24, Y+28	; 0x1c
    5590:	81 30       	cpi	r24, 0x01	; 1
    5592:	29 f4       	brne	.+10     	; 0x559e <usart_fprintf_arg+0x30>
    5594:	95 e8       	ldi	r25, 0x85	; 133
    5596:	89 2f       	mov	r24, r25
    5598:	8a 95       	dec	r24
    559a:	f1 f7       	brne	.-4      	; 0x5598 <usart_fprintf_arg+0x2a>
    559c:	fc cf       	rjmp	.-8      	; 0x5596 <usart_fprintf_arg+0x28>
    559e:	81 e0       	ldi	r24, 0x01	; 1
    55a0:	8c 8f       	std	Y+28, r24	; 0x1c
    55a2:	6a 8d       	ldd	r22, Y+26	; 0x1a
    55a4:	7b 8d       	ldd	r23, Y+27	; 0x1b
    55a6:	88 8d       	ldd	r24, Y+24	; 0x18
    55a8:	99 8d       	ldd	r25, Y+25	; 0x19
    55aa:	af 01       	movw	r20, r30
    55ac:	9d 01       	movw	r18, r26
    55ae:	0e 94 b4 07 	call	0xf68	; 0xf68 <vsnprintf>
    55b2:	68 8d       	ldd	r22, Y+24	; 0x18
    55b4:	79 8d       	ldd	r23, Y+25	; 0x19
    55b6:	80 91 e1 14 	lds	r24, 0x14E1
    55ba:	0e 94 47 2a 	call	0x548e	; 0x548e <usart_fprint>
    55be:	1c 8e       	std	Y+28, r1	; 0x1c
    55c0:	df 91       	pop	r29
    55c2:	cf 91       	pop	r28
    55c4:	08 95       	ret

000055c6 <usart_print>:
    55c6:	bc 01       	movw	r22, r24
    55c8:	80 91 e1 14 	lds	r24, 0x14E1
    55cc:	0e 94 47 2a 	call	0x548e	; 0x548e <usart_fprint>
    55d0:	08 95       	ret

000055d2 <usart_xfprintf_P>:
    55d2:	df 93       	push	r29
    55d4:	cf 93       	push	r28
    55d6:	cd b7       	in	r28, 0x3d	; 61
    55d8:	de b7       	in	r29, 0x3e	; 62
    55da:	9e 01       	movw	r18, r28
    55dc:	26 5f       	subi	r18, 0xF6	; 246
    55de:	3f 4f       	sbci	r19, 0xFF	; 255
    55e0:	8e 81       	ldd	r24, Y+6	; 0x06
    55e2:	68 85       	ldd	r22, Y+8	; 0x08
    55e4:	79 85       	ldd	r23, Y+9	; 0x09
    55e6:	a9 01       	movw	r20, r18
    55e8:	0e 94 c7 29 	call	0x538e	; 0x538e <usart_xfprintf_P_arg>
    55ec:	cf 91       	pop	r28
    55ee:	df 91       	pop	r29
    55f0:	08 95       	ret

000055f2 <usart_xfprintf>:
    55f2:	df 93       	push	r29
    55f4:	cf 93       	push	r28
    55f6:	cd b7       	in	r28, 0x3d	; 61
    55f8:	de b7       	in	r29, 0x3e	; 62
    55fa:	9e 01       	movw	r18, r28
    55fc:	26 5f       	subi	r18, 0xF6	; 246
    55fe:	3f 4f       	sbci	r19, 0xFF	; 255
    5600:	8e 81       	ldd	r24, Y+6	; 0x06
    5602:	68 85       	ldd	r22, Y+8	; 0x08
    5604:	79 85       	ldd	r23, Y+9	; 0x09
    5606:	a9 01       	movw	r20, r18
    5608:	0e 94 04 2a 	call	0x5408	; 0x5408 <usart_xfprintf_arg>
    560c:	cf 91       	pop	r28
    560e:	df 91       	pop	r29
    5610:	08 95       	ret

00005612 <usart_xprintf_P>:
    5612:	df 93       	push	r29
    5614:	cf 93       	push	r28
    5616:	cd b7       	in	r28, 0x3d	; 61
    5618:	de b7       	in	r29, 0x3e	; 62
    561a:	fe 01       	movw	r30, r28
    561c:	36 96       	adiw	r30, 0x06	; 6
    561e:	61 91       	ld	r22, Z+
    5620:	71 91       	ld	r23, Z+
    5622:	80 91 e1 14 	lds	r24, 0x14E1
    5626:	af 01       	movw	r20, r30
    5628:	0e 94 c7 29 	call	0x538e	; 0x538e <usart_xfprintf_P_arg>
    562c:	cf 91       	pop	r28
    562e:	df 91       	pop	r29
    5630:	08 95       	ret

00005632 <usart_xprintf>:
    5632:	df 93       	push	r29
    5634:	cf 93       	push	r28
    5636:	cd b7       	in	r28, 0x3d	; 61
    5638:	de b7       	in	r29, 0x3e	; 62
    563a:	fe 01       	movw	r30, r28
    563c:	36 96       	adiw	r30, 0x06	; 6
    563e:	61 91       	ld	r22, Z+
    5640:	71 91       	ld	r23, Z+
    5642:	80 91 e1 14 	lds	r24, 0x14E1
    5646:	af 01       	movw	r20, r30
    5648:	0e 94 04 2a 	call	0x5408	; 0x5408 <usart_xfprintf_arg>
    564c:	cf 91       	pop	r28
    564e:	df 91       	pop	r29
    5650:	08 95       	ret

00005652 <usart_fprintf_P>:
    5652:	df 93       	push	r29
    5654:	cf 93       	push	r28
    5656:	cd b7       	in	r28, 0x3d	; 61
    5658:	de b7       	in	r29, 0x3e	; 62
    565a:	9e 01       	movw	r18, r28
    565c:	26 5f       	subi	r18, 0xF6	; 246
    565e:	3f 4f       	sbci	r19, 0xFF	; 255
    5660:	8e 81       	ldd	r24, Y+6	; 0x06
    5662:	68 85       	ldd	r22, Y+8	; 0x08
    5664:	79 85       	ldd	r23, Y+9	; 0x09
    5666:	a9 01       	movw	r20, r18
    5668:	0e 94 89 2a 	call	0x5512	; 0x5512 <usart_fprintf_P_arg>
    566c:	cf 91       	pop	r28
    566e:	df 91       	pop	r29
    5670:	08 95       	ret

00005672 <usart_fprintf>:
    5672:	df 93       	push	r29
    5674:	cf 93       	push	r28
    5676:	cd b7       	in	r28, 0x3d	; 61
    5678:	de b7       	in	r29, 0x3e	; 62
    567a:	9e 01       	movw	r18, r28
    567c:	26 5f       	subi	r18, 0xF6	; 246
    567e:	3f 4f       	sbci	r19, 0xFF	; 255
    5680:	8e 81       	ldd	r24, Y+6	; 0x06
    5682:	68 85       	ldd	r22, Y+8	; 0x08
    5684:	79 85       	ldd	r23, Y+9	; 0x09
    5686:	a9 01       	movw	r20, r18
    5688:	0e 94 b7 2a 	call	0x556e	; 0x556e <usart_fprintf_arg>
    568c:	cf 91       	pop	r28
    568e:	df 91       	pop	r29
    5690:	08 95       	ret

00005692 <usart_printf_P>:
    5692:	df 93       	push	r29
    5694:	cf 93       	push	r28
    5696:	cd b7       	in	r28, 0x3d	; 61
    5698:	de b7       	in	r29, 0x3e	; 62
    569a:	fe 01       	movw	r30, r28
    569c:	36 96       	adiw	r30, 0x06	; 6
    569e:	61 91       	ld	r22, Z+
    56a0:	71 91       	ld	r23, Z+
    56a2:	80 91 e1 14 	lds	r24, 0x14E1
    56a6:	af 01       	movw	r20, r30
    56a8:	0e 94 89 2a 	call	0x5512	; 0x5512 <usart_fprintf_P_arg>
    56ac:	cf 91       	pop	r28
    56ae:	df 91       	pop	r29
    56b0:	08 95       	ret

000056b2 <usart_printf>:
    56b2:	df 93       	push	r29
    56b4:	cf 93       	push	r28
    56b6:	cd b7       	in	r28, 0x3d	; 61
    56b8:	de b7       	in	r29, 0x3e	; 62
    56ba:	fe 01       	movw	r30, r28
    56bc:	36 96       	adiw	r30, 0x06	; 6
    56be:	61 91       	ld	r22, Z+
    56c0:	71 91       	ld	r23, Z+
    56c2:	80 91 e1 14 	lds	r24, 0x14E1
    56c6:	af 01       	movw	r20, r30
    56c8:	0e 94 b7 2a 	call	0x556e	; 0x556e <usart_fprintf_arg>
    56cc:	cf 91       	pop	r28
    56ce:	df 91       	pop	r29
    56d0:	08 95       	ret

000056d2 <usartClose>:
    56d2:	ef 92       	push	r14
    56d4:	ff 92       	push	r15
    56d6:	0f 93       	push	r16
    56d8:	1f 93       	push	r17
    56da:	e8 2e       	mov	r14, r24
    56dc:	ff 24       	eor	r15, r15
    56de:	8d e1       	ldi	r24, 0x1D	; 29
    56e0:	90 e0       	ldi	r25, 0x00	; 0
    56e2:	e8 9e       	mul	r14, r24
    56e4:	80 01       	movw	r16, r0
    56e6:	e9 9e       	mul	r14, r25
    56e8:	10 0d       	add	r17, r0
    56ea:	f8 9e       	mul	r15, r24
    56ec:	10 0d       	add	r17, r0
    56ee:	11 24       	eor	r1, r1
    56f0:	08 51       	subi	r16, 0x18	; 24
    56f2:	1b 4e       	sbci	r17, 0xEB	; 235
    56f4:	f8 01       	movw	r30, r16
    56f6:	80 8d       	ldd	r24, Z+24	; 0x18
    56f8:	91 8d       	ldd	r25, Z+25	; 0x19
    56fa:	0e 94 3e 09 	call	0x127c	; 0x127c <vPortFree>
    56fe:	f8 01       	movw	r30, r16
    5700:	86 81       	ldd	r24, Z+6	; 0x06
    5702:	97 81       	ldd	r25, Z+7	; 0x07
    5704:	0e 94 3e 09 	call	0x127c	; 0x127c <vPortFree>
    5708:	f8 01       	movw	r30, r16
    570a:	82 89       	ldd	r24, Z+18	; 0x12
    570c:	93 89       	ldd	r25, Z+19	; 0x13
    570e:	0e 94 3e 09 	call	0x127c	; 0x127c <vPortFree>
    5712:	0f b6       	in	r0, 0x3f	; 63
    5714:	f8 94       	cli
    5716:	0f 92       	push	r0
    5718:	f7 01       	movw	r30, r14
    571a:	b3 e0       	ldi	r27, 0x03	; 3
    571c:	ee 0f       	add	r30, r30
    571e:	ff 1f       	adc	r31, r31
    5720:	ba 95       	dec	r27
    5722:	e1 f7       	brne	.-8      	; 0x571c <usartClose+0x4a>
    5724:	ee 0c       	add	r14, r14
    5726:	ff 1c       	adc	r15, r15
    5728:	ee 0d       	add	r30, r14
    572a:	ff 1d       	adc	r31, r15
    572c:	ee 5b       	subi	r30, 0xBE	; 190
    572e:	fd 4f       	sbci	r31, 0xFD	; 253
    5730:	a4 81       	ldd	r26, Z+4	; 0x04
    5732:	b5 81       	ldd	r27, Z+5	; 0x05
    5734:	8c 91       	ld	r24, X
    5736:	8f 7d       	andi	r24, 0xDF	; 223
    5738:	8c 93       	st	X, r24
    573a:	04 80       	ldd	r0, Z+4	; 0x04
    573c:	f5 81       	ldd	r31, Z+5	; 0x05
    573e:	e0 2d       	mov	r30, r0
    5740:	80 81       	ld	r24, Z
    5742:	8f 77       	andi	r24, 0x7F	; 127
    5744:	80 83       	st	Z, r24
    5746:	0f 90       	pop	r0
    5748:	0f be       	out	0x3f, r0	; 63
    574a:	1f 91       	pop	r17
    574c:	0f 91       	pop	r16
    574e:	ff 90       	pop	r15
    5750:	ef 90       	pop	r14
    5752:	08 95       	ret

00005754 <usartOpen>:
    5754:	7f 92       	push	r7
    5756:	8f 92       	push	r8
    5758:	9f 92       	push	r9
    575a:	af 92       	push	r10
    575c:	bf 92       	push	r11
    575e:	cf 92       	push	r12
    5760:	df 92       	push	r13
    5762:	ef 92       	push	r14
    5764:	ff 92       	push	r15
    5766:	0f 93       	push	r16
    5768:	1f 93       	push	r17
    576a:	cf 93       	push	r28
    576c:	df 93       	push	r29
    576e:	78 2e       	mov	r7, r24
    5770:	4a 01       	movw	r8, r20
    5772:	5b 01       	movw	r10, r22
    5774:	e9 01       	movw	r28, r18
    5776:	c8 01       	movw	r24, r16
    5778:	0e 94 b1 09 	call	0x1362	; 0x1362 <pvPortMalloc>
    577c:	9c 01       	movw	r18, r24
    577e:	00 97       	sbiw	r24, 0x00	; 0
    5780:	c9 f0       	breq	.+50     	; 0x57b4 <usartOpen+0x60>
    5782:	ed e1       	ldi	r30, 0x1D	; 29
    5784:	7e 9e       	mul	r7, r30
    5786:	f0 01       	movw	r30, r0
    5788:	11 24       	eor	r1, r1
    578a:	e8 51       	subi	r30, 0x18	; 24
    578c:	fb 4e       	sbci	r31, 0xEB	; 235
    578e:	0f b6       	in	r0, 0x3f	; 63
    5790:	f8 94       	cli
    5792:	0f 92       	push	r0
    5794:	11 82       	std	Z+1, r1	; 0x01
    5796:	10 82       	st	Z, r1
    5798:	82 83       	std	Z+2, r24	; 0x02
    579a:	33 83       	std	Z+3, r19	; 0x03
    579c:	84 83       	std	Z+4, r24	; 0x04
    579e:	35 83       	std	Z+5, r19	; 0x05
    57a0:	97 83       	std	Z+7, r25	; 0x07
    57a2:	86 83       	std	Z+6, r24	; 0x06
    57a4:	20 0f       	add	r18, r16
    57a6:	31 1f       	adc	r19, r17
    57a8:	31 87       	std	Z+9, r19	; 0x09
    57aa:	20 87       	std	Z+8, r18	; 0x08
    57ac:	13 87       	std	Z+11, r17	; 0x0b
    57ae:	02 87       	std	Z+10, r16	; 0x0a
    57b0:	0f 90       	pop	r0
    57b2:	0f be       	out	0x3f, r0	; 63
    57b4:	ce 01       	movw	r24, r28
    57b6:	0e 94 b1 09 	call	0x1362	; 0x1362 <pvPortMalloc>
    57ba:	9c 01       	movw	r18, r24
    57bc:	00 97       	sbiw	r24, 0x00	; 0
    57be:	c9 f0       	breq	.+50     	; 0x57f2 <usartOpen+0x9e>
    57c0:	ed e1       	ldi	r30, 0x1D	; 29
    57c2:	7e 9e       	mul	r7, r30
    57c4:	f0 01       	movw	r30, r0
    57c6:	11 24       	eor	r1, r1
    57c8:	ec 50       	subi	r30, 0x0C	; 12
    57ca:	fb 4e       	sbci	r31, 0xEB	; 235
    57cc:	0f b6       	in	r0, 0x3f	; 63
    57ce:	f8 94       	cli
    57d0:	0f 92       	push	r0
    57d2:	11 82       	std	Z+1, r1	; 0x01
    57d4:	10 82       	st	Z, r1
    57d6:	82 83       	std	Z+2, r24	; 0x02
    57d8:	33 83       	std	Z+3, r19	; 0x03
    57da:	84 83       	std	Z+4, r24	; 0x04
    57dc:	35 83       	std	Z+5, r19	; 0x05
    57de:	97 83       	std	Z+7, r25	; 0x07
    57e0:	86 83       	std	Z+6, r24	; 0x06
    57e2:	2c 0f       	add	r18, r28
    57e4:	3d 1f       	adc	r19, r29
    57e6:	31 87       	std	Z+9, r19	; 0x09
    57e8:	20 87       	std	Z+8, r18	; 0x08
    57ea:	d3 87       	std	Z+11, r29	; 0x0b
    57ec:	c2 87       	std	Z+10, r28	; 0x0a
    57ee:	0f 90       	pop	r0
    57f0:	0f be       	out	0x3f, r0	; 63
    57f2:	e7 2c       	mov	r14, r7
    57f4:	ff 24       	eor	r15, r15
    57f6:	ce 01       	movw	r24, r28
    57f8:	0e 94 b1 09 	call	0x1362	; 0x1362 <pvPortMalloc>
    57fc:	9c 01       	movw	r18, r24
    57fe:	8d e1       	ldi	r24, 0x1D	; 29
    5800:	90 e0       	ldi	r25, 0x00	; 0
    5802:	e8 9e       	mul	r14, r24
    5804:	f0 01       	movw	r30, r0
    5806:	e9 9e       	mul	r14, r25
    5808:	f0 0d       	add	r31, r0
    580a:	f8 9e       	mul	r15, r24
    580c:	f0 0d       	add	r31, r0
    580e:	11 24       	eor	r1, r1
    5810:	e8 51       	subi	r30, 0x18	; 24
    5812:	fb 4e       	sbci	r31, 0xEB	; 235
    5814:	20 8f       	std	Z+24, r18	; 0x18
    5816:	31 8f       	std	Z+25, r19	; 0x19
    5818:	d3 8f       	std	Z+27, r29	; 0x1b
    581a:	c2 8f       	std	Z+26, r28	; 0x1a
    581c:	14 8e       	std	Z+28, r1	; 0x1c
    581e:	0f b6       	in	r0, 0x3f	; 63
    5820:	f8 94       	cli
    5822:	0f 92       	push	r0
    5824:	87 01       	movw	r16, r14
    5826:	00 0f       	add	r16, r16
    5828:	11 1f       	adc	r17, r17
    582a:	c7 01       	movw	r24, r14
    582c:	43 e0       	ldi	r20, 0x03	; 3
    582e:	88 0f       	add	r24, r24
    5830:	99 1f       	adc	r25, r25
    5832:	4a 95       	dec	r20
    5834:	e1 f7       	brne	.-8      	; 0x582e <usartOpen+0xda>
    5836:	08 0f       	add	r16, r24
    5838:	19 1f       	adc	r17, r25
    583a:	0e 5b       	subi	r16, 0xBE	; 190
    583c:	1d 4f       	sbci	r17, 0xFD	; 253
    583e:	d8 01       	movw	r26, r16
    5840:	18 96       	adiw	r26, 0x08	; 8
    5842:	cd 90       	ld	r12, X+
    5844:	dc 90       	ld	r13, X
    5846:	19 97       	sbiw	r26, 0x09	; 9
    5848:	c5 01       	movw	r24, r10
    584a:	b4 01       	movw	r22, r8
    584c:	60 50       	subi	r22, 0x00	; 0
    584e:	77 4f       	sbci	r23, 0xF7	; 247
    5850:	82 4c       	sbci	r24, 0xC2	; 194
    5852:	9f 4f       	sbci	r25, 0xFF	; 255
    5854:	32 e0       	ldi	r19, 0x02	; 2
    5856:	66 0f       	add	r22, r22
    5858:	77 1f       	adc	r23, r23
    585a:	88 1f       	adc	r24, r24
    585c:	99 1f       	adc	r25, r25
    585e:	3a 95       	dec	r19
    5860:	d1 f7       	brne	.-12     	; 0x5856 <usartOpen+0x102>
    5862:	23 e0       	ldi	r18, 0x03	; 3
    5864:	88 0c       	add	r8, r8
    5866:	99 1c       	adc	r9, r9
    5868:	aa 1c       	adc	r10, r10
    586a:	bb 1c       	adc	r11, r11
    586c:	2a 95       	dec	r18
    586e:	d1 f7       	brne	.-12     	; 0x5864 <usartOpen+0x110>
    5870:	a5 01       	movw	r20, r10
    5872:	94 01       	movw	r18, r8
    5874:	0e 94 6f 2c 	call	0x58de	; 0x58de <__udivmodsi4>
    5878:	21 50       	subi	r18, 0x01	; 1
    587a:	30 40       	sbci	r19, 0x00	; 0
    587c:	f6 01       	movw	r30, r12
    587e:	31 83       	std	Z+1, r19	; 0x01
    5880:	20 83       	st	Z, r18
    5882:	f7 01       	movw	r30, r14
    5884:	ee 0f       	add	r30, r30
    5886:	ff 1f       	adc	r31, r31
    5888:	ee 0f       	add	r30, r30
    588a:	ff 1f       	adc	r31, r31
    588c:	ee 0d       	add	r30, r14
    588e:	ff 1d       	adc	r31, r15
    5890:	ee 0f       	add	r30, r30
    5892:	ff 1f       	adc	r31, r31
    5894:	ec 5b       	subi	r30, 0xBC	; 188
    5896:	fd 4f       	sbci	r31, 0xFD	; 253
    5898:	01 90       	ld	r0, Z+
    589a:	f0 81       	ld	r31, Z
    589c:	e0 2d       	mov	r30, r0
    589e:	82 e0       	ldi	r24, 0x02	; 2
    58a0:	80 83       	st	Z, r24
    58a2:	d8 01       	movw	r26, r16
    58a4:	14 96       	adiw	r26, 0x04	; 4
    58a6:	ed 91       	ld	r30, X+
    58a8:	fc 91       	ld	r31, X
    58aa:	15 97       	sbiw	r26, 0x05	; 5
    58ac:	88 e9       	ldi	r24, 0x98	; 152
    58ae:	80 83       	st	Z, r24
    58b0:	16 96       	adiw	r26, 0x06	; 6
    58b2:	ed 91       	ld	r30, X+
    58b4:	fc 91       	ld	r31, X
    58b6:	17 97       	sbiw	r26, 0x07	; 7
    58b8:	86 e0       	ldi	r24, 0x06	; 6
    58ba:	80 83       	st	Z, r24
    58bc:	0f 90       	pop	r0
    58be:	0f be       	out	0x3f, r0	; 63
    58c0:	87 2d       	mov	r24, r7
    58c2:	df 91       	pop	r29
    58c4:	cf 91       	pop	r28
    58c6:	1f 91       	pop	r17
    58c8:	0f 91       	pop	r16
    58ca:	ff 90       	pop	r15
    58cc:	ef 90       	pop	r14
    58ce:	df 90       	pop	r13
    58d0:	cf 90       	pop	r12
    58d2:	bf 90       	pop	r11
    58d4:	af 90       	pop	r10
    58d6:	9f 90       	pop	r9
    58d8:	8f 90       	pop	r8
    58da:	7f 90       	pop	r7
    58dc:	08 95       	ret

000058de <__udivmodsi4>:
    58de:	a1 e2       	ldi	r26, 0x21	; 33
    58e0:	1a 2e       	mov	r1, r26
    58e2:	aa 1b       	sub	r26, r26
    58e4:	bb 1b       	sub	r27, r27
    58e6:	fd 01       	movw	r30, r26
    58e8:	0d c0       	rjmp	.+26     	; 0x5904 <__udivmodsi4_ep>

000058ea <__udivmodsi4_loop>:
    58ea:	aa 1f       	adc	r26, r26
    58ec:	bb 1f       	adc	r27, r27
    58ee:	ee 1f       	adc	r30, r30
    58f0:	ff 1f       	adc	r31, r31
    58f2:	a2 17       	cp	r26, r18
    58f4:	b3 07       	cpc	r27, r19
    58f6:	e4 07       	cpc	r30, r20
    58f8:	f5 07       	cpc	r31, r21
    58fa:	20 f0       	brcs	.+8      	; 0x5904 <__udivmodsi4_ep>
    58fc:	a2 1b       	sub	r26, r18
    58fe:	b3 0b       	sbc	r27, r19
    5900:	e4 0b       	sbc	r30, r20
    5902:	f5 0b       	sbc	r31, r21

00005904 <__udivmodsi4_ep>:
    5904:	66 1f       	adc	r22, r22
    5906:	77 1f       	adc	r23, r23
    5908:	88 1f       	adc	r24, r24
    590a:	99 1f       	adc	r25, r25
    590c:	1a 94       	dec	r1
    590e:	69 f7       	brne	.-38     	; 0x58ea <__udivmodsi4_loop>
    5910:	60 95       	com	r22
    5912:	70 95       	com	r23
    5914:	80 95       	com	r24
    5916:	90 95       	com	r25
    5918:	9b 01       	movw	r18, r22
    591a:	ac 01       	movw	r20, r24
    591c:	bd 01       	movw	r22, r26
    591e:	cf 01       	movw	r24, r30
    5920:	08 95       	ret

00005922 <__prologue_saves__>:
    5922:	2f 92       	push	r2
    5924:	3f 92       	push	r3
    5926:	4f 92       	push	r4
    5928:	5f 92       	push	r5
    592a:	6f 92       	push	r6
    592c:	7f 92       	push	r7
    592e:	8f 92       	push	r8
    5930:	9f 92       	push	r9
    5932:	af 92       	push	r10
    5934:	bf 92       	push	r11
    5936:	cf 92       	push	r12
    5938:	df 92       	push	r13
    593a:	ef 92       	push	r14
    593c:	ff 92       	push	r15
    593e:	0f 93       	push	r16
    5940:	1f 93       	push	r17
    5942:	cf 93       	push	r28
    5944:	df 93       	push	r29
    5946:	cd b7       	in	r28, 0x3d	; 61
    5948:	de b7       	in	r29, 0x3e	; 62
    594a:	ca 1b       	sub	r28, r26
    594c:	db 0b       	sbc	r29, r27
    594e:	0f b6       	in	r0, 0x3f	; 63
    5950:	f8 94       	cli
    5952:	de bf       	out	0x3e, r29	; 62
    5954:	0f be       	out	0x3f, r0	; 63
    5956:	cd bf       	out	0x3d, r28	; 61
    5958:	19 94       	eijmp

0000595a <__epilogue_restores__>:
    595a:	2a 88       	ldd	r2, Y+18	; 0x12
    595c:	39 88       	ldd	r3, Y+17	; 0x11
    595e:	48 88       	ldd	r4, Y+16	; 0x10
    5960:	5f 84       	ldd	r5, Y+15	; 0x0f
    5962:	6e 84       	ldd	r6, Y+14	; 0x0e
    5964:	7d 84       	ldd	r7, Y+13	; 0x0d
    5966:	8c 84       	ldd	r8, Y+12	; 0x0c
    5968:	9b 84       	ldd	r9, Y+11	; 0x0b
    596a:	aa 84       	ldd	r10, Y+10	; 0x0a
    596c:	b9 84       	ldd	r11, Y+9	; 0x09
    596e:	c8 84       	ldd	r12, Y+8	; 0x08
    5970:	df 80       	ldd	r13, Y+7	; 0x07
    5972:	ee 80       	ldd	r14, Y+6	; 0x06
    5974:	fd 80       	ldd	r15, Y+5	; 0x05
    5976:	0c 81       	ldd	r16, Y+4	; 0x04
    5978:	1b 81       	ldd	r17, Y+3	; 0x03
    597a:	aa 81       	ldd	r26, Y+2	; 0x02
    597c:	b9 81       	ldd	r27, Y+1	; 0x01
    597e:	ce 0f       	add	r28, r30
    5980:	d1 1d       	adc	r29, r1
    5982:	0f b6       	in	r0, 0x3f	; 63
    5984:	f8 94       	cli
    5986:	de bf       	out	0x3e, r29	; 62
    5988:	0f be       	out	0x3f, r0	; 63
    598a:	cd bf       	out	0x3d, r28	; 61
    598c:	ed 01       	movw	r28, r26
    598e:	08 95       	ret

00005990 <_exit>:
    5990:	f8 94       	cli

00005992 <__stop_program>:
    5992:	ff cf       	rjmp	.-2      	; 0x5992 <__stop_program>
