
EmptyProject.elf:     file format elf32-avr

Sections:
Idx Name          Size      VMA       LMA       File off  Algn
  0 .data         00000822  00800200  0000a796  0000a82a  2**0
                  CONTENTS, ALLOC, LOAD, DATA
  1 .text         0000a796  00000000  00000000  00000094  2**1
                  CONTENTS, ALLOC, LOAD, READONLY, CODE
  2 .bss          000013f5  00800a22  00800a22  0000b04c  2**0
                  ALLOC

Disassembly of section .text:

00000000 <__vectors>:
       0:	0c 94 70 03 	jmp	0x6e0	; 0x6e0 <__ctors_end>
       4:	0c 94 92 03 	jmp	0x724	; 0x724 <__bad_interrupt>
       8:	0c 94 92 03 	jmp	0x724	; 0x724 <__bad_interrupt>
       c:	0c 94 92 03 	jmp	0x724	; 0x724 <__bad_interrupt>
      10:	0c 94 92 03 	jmp	0x724	; 0x724 <__bad_interrupt>
      14:	0c 94 92 03 	jmp	0x724	; 0x724 <__bad_interrupt>
      18:	0c 94 92 03 	jmp	0x724	; 0x724 <__bad_interrupt>
      1c:	0c 94 92 03 	jmp	0x724	; 0x724 <__bad_interrupt>
      20:	0c 94 92 03 	jmp	0x724	; 0x724 <__bad_interrupt>
      24:	0c 94 92 03 	jmp	0x724	; 0x724 <__bad_interrupt>
      28:	0c 94 92 03 	jmp	0x724	; 0x724 <__bad_interrupt>
      2c:	0c 94 92 03 	jmp	0x724	; 0x724 <__bad_interrupt>
      30:	0c 94 92 03 	jmp	0x724	; 0x724 <__bad_interrupt>
      34:	0c 94 92 03 	jmp	0x724	; 0x724 <__bad_interrupt>
      38:	0c 94 92 03 	jmp	0x724	; 0x724 <__bad_interrupt>
      3c:	0c 94 92 03 	jmp	0x724	; 0x724 <__bad_interrupt>
      40:	0c 94 92 03 	jmp	0x724	; 0x724 <__bad_interrupt>
      44:	0c 94 92 03 	jmp	0x724	; 0x724 <__bad_interrupt>
      48:	0c 94 92 03 	jmp	0x724	; 0x724 <__bad_interrupt>
      4c:	0c 94 92 03 	jmp	0x724	; 0x724 <__bad_interrupt>
      50:	0c 94 92 03 	jmp	0x724	; 0x724 <__bad_interrupt>
      54:	0c 94 92 03 	jmp	0x724	; 0x724 <__bad_interrupt>
      58:	0c 94 92 03 	jmp	0x724	; 0x724 <__bad_interrupt>
      5c:	0c 94 92 03 	jmp	0x724	; 0x724 <__bad_interrupt>
      60:	0c 94 92 03 	jmp	0x724	; 0x724 <__bad_interrupt>
      64:	0c 94 b7 4e 	jmp	0x9d6e	; 0x9d6e <__vector_25>
      68:	0c 94 b6 4f 	jmp	0x9f6c	; 0x9f6c <__vector_26>
      6c:	0c 94 92 03 	jmp	0x724	; 0x724 <__bad_interrupt>
      70:	0c 94 92 03 	jmp	0x724	; 0x724 <__bad_interrupt>
      74:	0c 94 92 03 	jmp	0x724	; 0x724 <__bad_interrupt>
      78:	0c 94 92 03 	jmp	0x724	; 0x724 <__bad_interrupt>
      7c:	0c 94 92 03 	jmp	0x724	; 0x724 <__bad_interrupt>
      80:	0c 94 27 49 	jmp	0x924e	; 0x924e <__vector_32>
      84:	0c 94 92 03 	jmp	0x724	; 0x724 <__bad_interrupt>
      88:	0c 94 92 03 	jmp	0x724	; 0x724 <__bad_interrupt>
      8c:	0c 94 94 12 	jmp	0x2528	; 0x2528 <__vector_35>
      90:	0c 94 8e 4e 	jmp	0x9d1c	; 0x9d1c <__vector_36>
      94:	0c 94 8d 4f 	jmp	0x9f1a	; 0x9f1a <__vector_37>
      98:	0c 94 92 03 	jmp	0x724	; 0x724 <__bad_interrupt>
      9c:	0c 94 99 26 	jmp	0x4d32	; 0x4d32 <__vector_39>
      a0:	0c 94 92 03 	jmp	0x724	; 0x724 <__bad_interrupt>
      a4:	0c 94 a7 0d 	jmp	0x1b4e	; 0x1b4e <__vector_41>
      a8:	0c 94 92 03 	jmp	0x724	; 0x724 <__bad_interrupt>
      ac:	0c 94 92 03 	jmp	0x724	; 0x724 <__bad_interrupt>
      b0:	0c 94 92 03 	jmp	0x724	; 0x724 <__bad_interrupt>
      b4:	0c 94 5d 0d 	jmp	0x1aba	; 0x1aba <__vector_45>
      b8:	0c 94 32 0e 	jmp	0x1c64	; 0x1c64 <__vector_46>
      bc:	0c 94 92 03 	jmp	0x724	; 0x724 <__bad_interrupt>
      c0:	0c 94 92 03 	jmp	0x724	; 0x724 <__bad_interrupt>
      c4:	0c 94 92 03 	jmp	0x724	; 0x724 <__bad_interrupt>
      c8:	0c 94 82 0d 	jmp	0x1b04	; 0x1b04 <__vector_50>
      cc:	0c 94 65 4e 	jmp	0x9cca	; 0x9cca <__vector_51>
      d0:	0c 94 64 4f 	jmp	0x9ec8	; 0x9ec8 <__vector_52>
      d4:	0c 94 92 03 	jmp	0x724	; 0x724 <__bad_interrupt>
      d8:	0c 94 3c 4e 	jmp	0x9c78	; 0x9c78 <__vector_54>
      dc:	0c 94 3b 4f 	jmp	0x9e76	; 0x9e76 <__vector_55>
      e0:	0c 94 92 03 	jmp	0x724	; 0x724 <__bad_interrupt>
      e4:	a6 1b       	sub	r26, r22
      e6:	92 1b       	sub	r25, r18
      e8:	7e 1b       	sub	r23, r30
      ea:	58 1b       	sub	r21, r24
      ec:	97 18       	sub	r9, r7
      ee:	97 18       	sub	r9, r7
      f0:	97 18       	sub	r9, r7
      f2:	97 18       	sub	r9, r7
      f4:	97 18       	sub	r9, r7
      f6:	cf 1a       	sub	r12, r31
      f8:	ab 1a       	sub	r10, r27
      fa:	97 1a       	sub	r9, r23
      fc:	97 18       	sub	r9, r7
      fe:	97 18       	sub	r9, r7
     100:	97 18       	sub	r9, r7
     102:	33 1a       	sub	r3, r19
     104:	97 18       	sub	r9, r7
     106:	f1 19       	sub	r31, r1
     108:	d3 19       	sub	r29, r3
     10a:	a2 19       	sub	r26, r2
     10c:	61 18       	sub	r6, r1
     10e:	8e 19       	sub	r24, r14
     110:	7a 19       	sub	r23, r10
     112:	66 19       	sub	r22, r6
     114:	52 19       	sub	r21, r2
     116:	3e 19       	sub	r19, r14
     118:	2a 19       	sub	r18, r10
     11a:	ed 18       	sub	r14, r13
     11c:	d9 18       	sub	r13, r9
     11e:	b2 18       	sub	r11, r2
     120:	15 1b       	sub	r17, r21
     122:	01 1b       	sub	r16, r17
     124:	97 18       	sub	r9, r7
     126:	ed 1a       	sub	r14, r29
     128:	0f 1a       	sub	r0, r31
     12a:	51 1a       	sub	r5, r17
     12c:	65 1a       	sub	r6, r21
     12e:	79 1a       	sub	r7, r25
     130:	97 18       	sub	r9, r7
     132:	97 18       	sub	r9, r7
     134:	97 18       	sub	r9, r7
     136:	29 1b       	sub	r18, r25
     138:	f7 26       	eor	r15, r23
     13a:	b0 26       	eor	r11, r16
     13c:	b0 26       	eor	r11, r16
     13e:	b0 26       	eor	r11, r16
     140:	b0 26       	eor	r11, r16
     142:	b0 26       	eor	r11, r16
     144:	b0 26       	eor	r11, r16
     146:	b0 26       	eor	r11, r16
     148:	f7 26       	eor	r15, r23
     14a:	b0 26       	eor	r11, r16
     14c:	b0 26       	eor	r11, r16
     14e:	b0 26       	eor	r11, r16
     150:	b0 26       	eor	r11, r16
     152:	b0 26       	eor	r11, r16
     154:	b0 26       	eor	r11, r16
     156:	b0 26       	eor	r11, r16
     158:	f9 26       	eor	r15, r25
     15a:	b0 26       	eor	r11, r16
     15c:	b0 26       	eor	r11, r16
     15e:	b0 26       	eor	r11, r16
     160:	b0 26       	eor	r11, r16
     162:	b0 26       	eor	r11, r16
     164:	b0 26       	eor	r11, r16
     166:	b0 26       	eor	r11, r16
     168:	31 27       	eor	r19, r17
     16a:	b0 26       	eor	r11, r16
     16c:	b0 26       	eor	r11, r16
     16e:	b0 26       	eor	r11, r16
     170:	b0 26       	eor	r11, r16
     172:	b0 26       	eor	r11, r16
     174:	b0 26       	eor	r11, r16
     176:	b0 26       	eor	r11, r16
     178:	f9 26       	eor	r15, r25
     17a:	b0 26       	eor	r11, r16
     17c:	b0 26       	eor	r11, r16
     17e:	b0 26       	eor	r11, r16
     180:	b0 26       	eor	r11, r16
     182:	b0 26       	eor	r11, r16
     184:	b0 26       	eor	r11, r16
     186:	b0 26       	eor	r11, r16
     188:	31 27       	eor	r19, r17
     18a:	b0 26       	eor	r11, r16
     18c:	b0 26       	eor	r11, r16
     18e:	b0 26       	eor	r11, r16
     190:	b0 26       	eor	r11, r16
     192:	b0 26       	eor	r11, r16
     194:	b0 26       	eor	r11, r16
     196:	b0 26       	eor	r11, r16
     198:	39 27       	eor	r19, r25
     19a:	b0 26       	eor	r11, r16
     19c:	b0 26       	eor	r11, r16
     19e:	b0 26       	eor	r11, r16
     1a0:	b0 26       	eor	r11, r16
     1a2:	b0 26       	eor	r11, r16
     1a4:	b0 26       	eor	r11, r16
     1a6:	b0 26       	eor	r11, r16
     1a8:	69 27       	eor	r22, r25
     1aa:	b0 26       	eor	r11, r16
     1ac:	b0 26       	eor	r11, r16
     1ae:	b0 26       	eor	r11, r16
     1b0:	b0 26       	eor	r11, r16
     1b2:	b0 26       	eor	r11, r16
     1b4:	b0 26       	eor	r11, r16
     1b6:	b0 26       	eor	r11, r16
     1b8:	b0 26       	eor	r11, r16
     1ba:	b0 26       	eor	r11, r16
     1bc:	b0 26       	eor	r11, r16
     1be:	b0 26       	eor	r11, r16
     1c0:	b0 26       	eor	r11, r16
     1c2:	b0 26       	eor	r11, r16
     1c4:	b0 26       	eor	r11, r16
     1c6:	b0 26       	eor	r11, r16
     1c8:	df 26       	eor	r13, r31
     1ca:	b0 26       	eor	r11, r16
     1cc:	b0 26       	eor	r11, r16
     1ce:	b0 26       	eor	r11, r16
     1d0:	b0 26       	eor	r11, r16
     1d2:	b0 26       	eor	r11, r16
     1d4:	b0 26       	eor	r11, r16
     1d6:	b0 26       	eor	r11, r16
     1d8:	20 27       	eor	r18, r16
     1da:	b0 26       	eor	r11, r16
     1dc:	b0 26       	eor	r11, r16
     1de:	b0 26       	eor	r11, r16
     1e0:	b0 26       	eor	r11, r16
     1e2:	b0 26       	eor	r11, r16
     1e4:	b0 26       	eor	r11, r16
     1e6:	b0 26       	eor	r11, r16
     1e8:	66 27       	eor	r22, r22
     1ea:	b0 26       	eor	r11, r16
     1ec:	b0 26       	eor	r11, r16
     1ee:	b0 26       	eor	r11, r16
     1f0:	b0 26       	eor	r11, r16
     1f2:	b0 26       	eor	r11, r16
     1f4:	b0 26       	eor	r11, r16
     1f6:	b0 26       	eor	r11, r16
     1f8:	66 27       	eor	r22, r22
     1fa:	b0 26       	eor	r11, r16
     1fc:	b0 26       	eor	r11, r16
     1fe:	b0 26       	eor	r11, r16
     200:	b0 26       	eor	r11, r16
     202:	b0 26       	eor	r11, r16
     204:	b0 26       	eor	r11, r16
     206:	b0 26       	eor	r11, r16
     208:	51 27       	eor	r21, r17
     20a:	b0 26       	eor	r11, r16
     20c:	b0 26       	eor	r11, r16
     20e:	b0 26       	eor	r11, r16
     210:	b0 26       	eor	r11, r16
     212:	b0 26       	eor	r11, r16
     214:	b0 26       	eor	r11, r16
     216:	b0 26       	eor	r11, r16
     218:	51 27       	eor	r21, r17
     21a:	b0 26       	eor	r11, r16
     21c:	b0 26       	eor	r11, r16
     21e:	b0 26       	eor	r11, r16
     220:	b0 26       	eor	r11, r16
     222:	b0 26       	eor	r11, r16
     224:	b0 26       	eor	r11, r16
     226:	b0 26       	eor	r11, r16
     228:	ca 26       	eor	r12, r26
     22a:	b0 26       	eor	r11, r16
     22c:	b0 26       	eor	r11, r16
     22e:	b0 26       	eor	r11, r16
     230:	b0 26       	eor	r11, r16
     232:	b0 26       	eor	r11, r16
     234:	b0 26       	eor	r11, r16
     236:	b0 26       	eor	r11, r16
     238:	f3 26       	eor	r15, r19
     23a:	b0 26       	eor	r11, r16
     23c:	b0 26       	eor	r11, r16
     23e:	b0 26       	eor	r11, r16
     240:	b0 26       	eor	r11, r16
     242:	b0 26       	eor	r11, r16
     244:	b0 26       	eor	r11, r16
     246:	b0 26       	eor	r11, r16
     248:	ca 26       	eor	r12, r26
     24a:	b0 26       	eor	r11, r16
     24c:	b0 26       	eor	r11, r16
     24e:	b0 26       	eor	r11, r16
     250:	b0 26       	eor	r11, r16
     252:	b0 26       	eor	r11, r16
     254:	b0 26       	eor	r11, r16
     256:	b0 26       	eor	r11, r16
     258:	f3 26       	eor	r15, r19
     25a:	b0 26       	eor	r11, r16
     25c:	b0 26       	eor	r11, r16
     25e:	b0 26       	eor	r11, r16
     260:	b0 26       	eor	r11, r16
     262:	b0 26       	eor	r11, r16
     264:	b0 26       	eor	r11, r16
     266:	b0 26       	eor	r11, r16
     268:	3d 27       	eor	r19, r29
     26a:	b0 26       	eor	r11, r16
     26c:	b0 26       	eor	r11, r16
     26e:	b0 26       	eor	r11, r16
     270:	b0 26       	eor	r11, r16
     272:	b0 26       	eor	r11, r16
     274:	b0 26       	eor	r11, r16
     276:	b0 26       	eor	r11, r16
     278:	0e 27       	eor	r16, r30
     27a:	b0 26       	eor	r11, r16
     27c:	b0 26       	eor	r11, r16
     27e:	b0 26       	eor	r11, r16
     280:	b0 26       	eor	r11, r16
     282:	b0 26       	eor	r11, r16
     284:	b0 26       	eor	r11, r16
     286:	b0 26       	eor	r11, r16
     288:	0e 27       	eor	r16, r30
     28a:	b0 26       	eor	r11, r16
     28c:	b0 26       	eor	r11, r16
     28e:	b0 26       	eor	r11, r16
     290:	b0 26       	eor	r11, r16
     292:	b0 26       	eor	r11, r16
     294:	b0 26       	eor	r11, r16
     296:	b0 26       	eor	r11, r16
     298:	10 27       	eor	r17, r16
     29a:	b0 26       	eor	r11, r16
     29c:	b0 26       	eor	r11, r16
     29e:	b0 26       	eor	r11, r16
     2a0:	b0 26       	eor	r11, r16
     2a2:	b0 26       	eor	r11, r16
     2a4:	b0 26       	eor	r11, r16
     2a6:	b0 26       	eor	r11, r16
     2a8:	43 27       	eor	r20, r19
     2aa:	b0 26       	eor	r11, r16
     2ac:	b0 26       	eor	r11, r16
     2ae:	b0 26       	eor	r11, r16
     2b0:	b0 26       	eor	r11, r16
     2b2:	b0 26       	eor	r11, r16
     2b4:	b0 26       	eor	r11, r16
     2b6:	b0 26       	eor	r11, r16
     2b8:	db 26       	eor	r13, r27

000002ba <__c.2411>:
     2ba:	0d 0a 0a 0a 47 6f 6f 64 62 79 65 2e 2e 2e 20 6e     ....Goodbye... n
     2ca:	6f 20 73 70 61 63 65 20 66 6f 72 20 69 64 6c 65     o space for idle
     2da:	20 74 61 73 6b 21 0d 0a 00                           task!...

000002e3 <__c.2409>:
     2e3:	0d 0a 0a 0a 48 65 6c 6c 6f 20 57 6f 72 6c 64 21     ....Hello World!
     2f3:	0d 0a 00                                            ...

000002f6 <__c.1778>:
     2f6:	6e 61 6e 00                                         nan.

000002fa <__c.1776>:
     2fa:	69 6e 66 00 00 40 7a 10 f3 5a 00 a0 72 4e 18 09     inf..@z..Z..rN..
     30a:	00 10 a5 d4 e8 00 00 e8 76 48 17 00 00 e4 0b 54     ........vH.....T
     31a:	02 00 00 ca 9a 3b 00 00 00 e1 f5 05 00 00 80 96     .....;..........
     32a:	98 00 00 00 40 42 0f 00 00 00 a0 86 01 00 00 00     ....@B..........
     33a:	10 27 00 00 00 00 e8 03 00 00 00 00 64 00 00 00     .'..........d...
     34a:	00 00 0a 00 00 00 00 00 01 00 00 00 00 00 2c 76     ..............,v
     35a:	d8 88 dc 67 4f 08 23 df c1 df ae 59 e1 b1 b7 96     ...gO.#....Y....
     36a:	e5 e3 e4 53 c6 3a e6 51 99 76 96 e8 e6 c2 84 26     ...S.:.Q.v.....&
     37a:	eb 89 8c 9b 62 ed 40 7c 6f fc ef bc 9c 9f 40 f2     ....b.@|o.....@.
     38a:	ba a5 6f a5 f4 90 05 5a 2a f7 5c 93 6b 6c f9 67     ..o....Z*.\.kl.g
     39a:	6d c1 1b fc e0 e4 0d 47 fe f5 20 e6 b5 00 d0 ed     m......G.. .....
     3aa:	90 2e 03 00 94 35 77 05 00 80 84 1e 08 00 00 20     .....5w........ 
     3ba:	4e 0a 00 00 00 c8 0c 33 33 33 33 0f 98 6e 12 83     N......3333..n..
     3ca:	11 41 ef 8d 21 14 89 3b e6 55 16 cf fe e6 db 18     .A..!..;.U......
     3da:	d1 84 4b 38 1b f7 7c 1d 90 1d a4 bb e4 24 20 32     ..K8..|......$ 2
     3ea:	84 72 5e 22 81 00 c9 f1 24 ec a1 e5 3d 27           .r^"....$...='

000003f8 <prvIdleTask>:
     3f8:	a0 e0       	ldi	r26, 0x00	; 0
     3fa:	b0 e0       	ldi	r27, 0x00	; 0
     3fc:	e2 e0       	ldi	r30, 0x02	; 2
     3fe:	f2 e0       	ldi	r31, 0x02	; 2
     400:	0c 94 91 53 	jmp	0xa722	; 0xa722 <__prologue_saves__+0xa>
     404:	e9 e0       	ldi	r30, 0x09	; 9
     406:	ce 2e       	mov	r12, r30
     408:	aa 24       	eor	r10, r10
     40a:	a3 94       	inc	r10
     40c:	88 24       	eor	r8, r8
     40e:	8a 94       	dec	r8
     410:	98 2c       	mov	r9, r8
     412:	77 24       	eor	r7, r7
     414:	73 94       	inc	r7
     416:	05 c0       	rjmp	.+10     	; 0x422 <prvIdleTask+0x2a>
     418:	0f 90       	pop	r0
     41a:	0f be       	out	0x3f, r0	; 63
     41c:	bb 20       	and	r11, r11
     41e:	09 f0       	breq	.+2      	; 0x422 <prvIdleTask+0x2a>
     420:	5f c0       	rjmp	.+190    	; 0x4e0 <prvIdleTask+0xe8>
     422:	80 91 7f 1c 	lds	r24, 0x1C7F
     426:	88 23       	and	r24, r24
     428:	09 f4       	brne	.+2      	; 0x42c <prvIdleTask+0x34>
     42a:	80 c0       	rjmp	.+256    	; 0x52c <prvIdleTask+0x134>
     42c:	80 91 74 1c 	lds	r24, 0x1C74
     430:	8f 5f       	subi	r24, 0xFF	; 255
     432:	80 93 74 1c 	sts	0x1C74, r24
     436:	b0 90 c4 1c 	lds	r11, 0x1CC4
     43a:	0f b6       	in	r0, 0x3f	; 63
     43c:	f8 94       	cli
     43e:	0f 92       	push	r0
     440:	80 91 74 1c 	lds	r24, 0x1C74
     444:	81 50       	subi	r24, 0x01	; 1
     446:	80 93 74 1c 	sts	0x1C74, r24
     44a:	80 91 74 1c 	lds	r24, 0x1C74
     44e:	88 23       	and	r24, r24
     450:	19 f7       	brne	.-58     	; 0x418 <prvIdleTask+0x20>
     452:	80 91 6e 1c 	lds	r24, 0x1C6E
     456:	88 23       	and	r24, r24
     458:	f9 f2       	breq	.-66     	; 0x418 <prvIdleTask+0x20>
     45a:	80 91 bb 1c 	lds	r24, 0x1CBB
     45e:	88 23       	and	r24, r24
     460:	71 f1       	breq	.+92     	; 0x4be <prvIdleTask+0xc6>
     462:	e0 91 c0 1c 	lds	r30, 0x1CC0
     466:	f0 91 c1 1c 	lds	r31, 0x1CC1
     46a:	c6 81       	ldd	r28, Z+6	; 0x06
     46c:	d7 81       	ldd	r29, Z+7	; 0x07
     46e:	ce 01       	movw	r24, r28
     470:	0c 96       	adiw	r24, 0x0c	; 12
     472:	0e 94 f0 49 	call	0x93e0	; 0x93e0 <uxListRemove>
     476:	8e 01       	movw	r16, r28
     478:	0e 5f       	subi	r16, 0xFE	; 254
     47a:	1f 4f       	sbci	r17, 0xFF	; 255
     47c:	c8 01       	movw	r24, r16
     47e:	0e 94 f0 49 	call	0x93e0	; 0x93e0 <uxListRemove>
     482:	9e 89       	ldd	r25, Y+22	; 0x16
     484:	80 91 6f 1c 	lds	r24, 0x1C6F
     488:	89 17       	cp	r24, r25
     48a:	18 f4       	brcc	.+6      	; 0x492 <prvIdleTask+0x9a>
     48c:	90 93 6f 1c 	sts	0x1C6F, r25
     490:	9e 89       	ldd	r25, Y+22	; 0x16
     492:	9c 9d       	mul	r25, r12
     494:	c0 01       	movw	r24, r0
     496:	11 24       	eor	r1, r1
     498:	8f 57       	subi	r24, 0x7F	; 127
     49a:	93 4e       	sbci	r25, 0xE3	; 227
     49c:	b8 01       	movw	r22, r16
     49e:	0e 94 9f 49 	call	0x933e	; 0x933e <vListInsertEnd>
     4a2:	e0 91 6c 1c 	lds	r30, 0x1C6C
     4a6:	f0 91 6d 1c 	lds	r31, 0x1C6D
     4aa:	9e 89       	ldd	r25, Y+22	; 0x16
     4ac:	86 89       	ldd	r24, Z+22	; 0x16
     4ae:	98 17       	cp	r25, r24
     4b0:	a0 f2       	brcs	.-88     	; 0x45a <prvIdleTask+0x62>
     4b2:	a0 92 70 1c 	sts	0x1C70, r10
     4b6:	80 91 bb 1c 	lds	r24, 0x1CBB
     4ba:	88 23       	and	r24, r24
     4bc:	91 f6       	brne	.-92     	; 0x462 <prvIdleTask+0x6a>
     4be:	80 91 7d 1c 	lds	r24, 0x1C7D
     4c2:	88 23       	and	r24, r24
     4c4:	09 f0       	breq	.+2      	; 0x4c8 <prvIdleTask+0xd0>
     4c6:	4d c0       	rjmp	.+154    	; 0x562 <prvIdleTask+0x16a>
     4c8:	80 91 70 1c 	lds	r24, 0x1C70
     4cc:	81 30       	cpi	r24, 0x01	; 1
     4ce:	09 f0       	breq	.+2      	; 0x4d2 <prvIdleTask+0xda>
     4d0:	a3 cf       	rjmp	.-186    	; 0x418 <prvIdleTask+0x20>
     4d2:	0e 94 2a 49 	call	0x9254	; 0x9254 <vPortYield>
     4d6:	0f 90       	pop	r0
     4d8:	0f be       	out	0x3f, r0	; 63
     4da:	bb 20       	and	r11, r11
     4dc:	09 f4       	brne	.+2      	; 0x4e0 <prvIdleTask+0xe8>
     4de:	a1 cf       	rjmp	.-190    	; 0x422 <prvIdleTask+0x2a>
     4e0:	0f b6       	in	r0, 0x3f	; 63
     4e2:	f8 94       	cli
     4e4:	0f 92       	push	r0
     4e6:	e0 91 c9 1c 	lds	r30, 0x1CC9
     4ea:	f0 91 ca 1c 	lds	r31, 0x1CCA
     4ee:	06 81       	ldd	r16, Z+6	; 0x06
     4f0:	17 81       	ldd	r17, Z+7	; 0x07
     4f2:	c8 01       	movw	r24, r16
     4f4:	02 96       	adiw	r24, 0x02	; 2
     4f6:	0e 94 f0 49 	call	0x93e0	; 0x93e0 <uxListRemove>
     4fa:	80 91 6e 1c 	lds	r24, 0x1C6E
     4fe:	81 50       	subi	r24, 0x01	; 1
     500:	80 93 6e 1c 	sts	0x1C6E, r24
     504:	80 91 7f 1c 	lds	r24, 0x1C7F
     508:	81 50       	subi	r24, 0x01	; 1
     50a:	80 93 7f 1c 	sts	0x1C7F, r24
     50e:	0f 90       	pop	r0
     510:	0f be       	out	0x3f, r0	; 63
     512:	f8 01       	movw	r30, r16
     514:	87 89       	ldd	r24, Z+23	; 0x17
     516:	90 8d       	ldd	r25, Z+24	; 0x18
     518:	0e 94 d5 27 	call	0x4faa	; 0x4faa <vPortFree>
     51c:	c8 01       	movw	r24, r16
     51e:	0e 94 d5 27 	call	0x4faa	; 0x4faa <vPortFree>
     522:	80 91 7f 1c 	lds	r24, 0x1C7F
     526:	88 23       	and	r24, r24
     528:	09 f0       	breq	.+2      	; 0x52c <prvIdleTask+0x134>
     52a:	80 cf       	rjmp	.-256    	; 0x42c <prvIdleTask+0x34>
     52c:	80 91 81 1c 	lds	r24, 0x1C81
     530:	82 30       	cpi	r24, 0x02	; 2
     532:	08 f4       	brcc	.+2      	; 0x536 <prvIdleTask+0x13e>
     534:	76 cf       	rjmp	.-276    	; 0x422 <prvIdleTask+0x2a>
     536:	0e 94 2a 49 	call	0x9254	; 0x9254 <vPortYield>
     53a:	73 cf       	rjmp	.-282    	; 0x422 <prvIdleTask+0x2a>
     53c:	80 91 7d 1c 	lds	r24, 0x1C7D
     540:	8f 5f       	subi	r24, 0xFF	; 255
     542:	80 93 7d 1c 	sts	0x1C7D, r24
     546:	dd 24       	eor	r13, r13
     548:	80 91 70 1c 	lds	r24, 0x1C70
     54c:	88 23       	and	r24, r24
     54e:	09 f0       	breq	.+2      	; 0x552 <prvIdleTask+0x15a>
     550:	95 c0       	rjmp	.+298    	; 0x67c <prvIdleTask+0x284>
     552:	dd 20       	and	r13, r13
     554:	09 f0       	breq	.+2      	; 0x558 <prvIdleTask+0x160>
     556:	92 c0       	rjmp	.+292    	; 0x67c <prvIdleTask+0x284>
     558:	80 91 7d 1c 	lds	r24, 0x1C7D
     55c:	81 50       	subi	r24, 0x01	; 1
     55e:	80 93 7d 1c 	sts	0x1C7D, r24
     562:	80 91 7d 1c 	lds	r24, 0x1C7D
     566:	88 23       	and	r24, r24
     568:	09 f4       	brne	.+2      	; 0x56c <prvIdleTask+0x174>
     56a:	ae cf       	rjmp	.-164    	; 0x4c8 <prvIdleTask+0xd0>
     56c:	80 91 74 1c 	lds	r24, 0x1C74
     570:	88 23       	and	r24, r24
     572:	21 f7       	brne	.-56     	; 0x53c <prvIdleTask+0x144>
     574:	80 91 71 1c 	lds	r24, 0x1C71
     578:	90 91 72 1c 	lds	r25, 0x1C72
     57c:	01 96       	adiw	r24, 0x01	; 1
     57e:	90 93 72 1c 	sts	0x1C72, r25
     582:	80 93 71 1c 	sts	0x1C71, r24
     586:	e0 90 71 1c 	lds	r14, 0x1C71
     58a:	f0 90 72 1c 	lds	r15, 0x1C72
     58e:	e1 14       	cp	r14, r1
     590:	f1 04       	cpc	r15, r1
     592:	09 f5       	brne	.+66     	; 0x5d6 <prvIdleTask+0x1de>
     594:	20 91 b7 1c 	lds	r18, 0x1CB7
     598:	30 91 b8 1c 	lds	r19, 0x1CB8
     59c:	80 91 b9 1c 	lds	r24, 0x1CB9
     5a0:	90 91 ba 1c 	lds	r25, 0x1CBA
     5a4:	90 93 b8 1c 	sts	0x1CB8, r25
     5a8:	80 93 b7 1c 	sts	0x1CB7, r24
     5ac:	30 93 ba 1c 	sts	0x1CBA, r19
     5b0:	20 93 b9 1c 	sts	0x1CB9, r18
     5b4:	80 91 73 1c 	lds	r24, 0x1C73
     5b8:	8f 5f       	subi	r24, 0xFF	; 255
     5ba:	80 93 73 1c 	sts	0x1C73, r24
     5be:	e0 91 b7 1c 	lds	r30, 0x1CB7
     5c2:	f0 91 b8 1c 	lds	r31, 0x1CB8
     5c6:	80 81       	ld	r24, Z
     5c8:	88 23       	and	r24, r24
     5ca:	09 f0       	breq	.+2      	; 0x5ce <prvIdleTask+0x1d6>
     5cc:	73 c0       	rjmp	.+230    	; 0x6b4 <prvIdleTask+0x2bc>
     5ce:	90 92 ad 09 	sts	0x09AD, r9
     5d2:	80 92 ac 09 	sts	0x09AC, r8
     5d6:	80 91 ac 09 	lds	r24, 0x09AC
     5da:	90 91 ad 09 	lds	r25, 0x09AD
     5de:	e8 16       	cp	r14, r24
     5e0:	f9 06       	cpc	r15, r25
     5e2:	08 f4       	brcc	.+2      	; 0x5e6 <prvIdleTask+0x1ee>
     5e4:	4e c0       	rjmp	.+156    	; 0x682 <prvIdleTask+0x28a>
     5e6:	dd 24       	eor	r13, r13
     5e8:	e0 91 b7 1c 	lds	r30, 0x1CB7
     5ec:	f0 91 b8 1c 	lds	r31, 0x1CB8
     5f0:	80 81       	ld	r24, Z
     5f2:	88 23       	and	r24, r24
     5f4:	f1 f1       	breq	.+124    	; 0x672 <prvIdleTask+0x27a>
     5f6:	e0 91 b7 1c 	lds	r30, 0x1CB7
     5fa:	f0 91 b8 1c 	lds	r31, 0x1CB8
     5fe:	05 80       	ldd	r0, Z+5	; 0x05
     600:	f6 81       	ldd	r31, Z+6	; 0x06
     602:	e0 2d       	mov	r30, r0
     604:	c6 81       	ldd	r28, Z+6	; 0x06
     606:	d7 81       	ldd	r29, Z+7	; 0x07
     608:	8a 81       	ldd	r24, Y+2	; 0x02
     60a:	9b 81       	ldd	r25, Y+3	; 0x03
     60c:	e8 16       	cp	r14, r24
     60e:	f9 06       	cpc	r15, r25
     610:	08 f4       	brcc	.+2      	; 0x614 <prvIdleTask+0x21c>
     612:	61 c0       	rjmp	.+194    	; 0x6d6 <prvIdleTask+0x2de>
     614:	8e 01       	movw	r16, r28
     616:	0e 5f       	subi	r16, 0xFE	; 254
     618:	1f 4f       	sbci	r17, 0xFF	; 255
     61a:	c8 01       	movw	r24, r16
     61c:	0e 94 f0 49 	call	0x93e0	; 0x93e0 <uxListRemove>
     620:	8c 89       	ldd	r24, Y+20	; 0x14
     622:	9d 89       	ldd	r25, Y+21	; 0x15
     624:	89 2b       	or	r24, r25
     626:	21 f0       	breq	.+8      	; 0x630 <prvIdleTask+0x238>
     628:	ce 01       	movw	r24, r28
     62a:	0c 96       	adiw	r24, 0x0c	; 12
     62c:	0e 94 f0 49 	call	0x93e0	; 0x93e0 <uxListRemove>
     630:	9e 89       	ldd	r25, Y+22	; 0x16
     632:	80 91 6f 1c 	lds	r24, 0x1C6F
     636:	89 17       	cp	r24, r25
     638:	18 f4       	brcc	.+6      	; 0x640 <prvIdleTask+0x248>
     63a:	90 93 6f 1c 	sts	0x1C6F, r25
     63e:	9e 89       	ldd	r25, Y+22	; 0x16
     640:	9c 9d       	mul	r25, r12
     642:	c0 01       	movw	r24, r0
     644:	11 24       	eor	r1, r1
     646:	8f 57       	subi	r24, 0x7F	; 127
     648:	93 4e       	sbci	r25, 0xE3	; 227
     64a:	b8 01       	movw	r22, r16
     64c:	0e 94 9f 49 	call	0x933e	; 0x933e <vListInsertEnd>
     650:	e0 91 6c 1c 	lds	r30, 0x1C6C
     654:	f0 91 6d 1c 	lds	r31, 0x1C6D
     658:	9e 89       	ldd	r25, Y+22	; 0x16
     65a:	86 89       	ldd	r24, Z+22	; 0x16
     65c:	98 17       	cp	r25, r24
     65e:	20 f2       	brcs	.-120    	; 0x5e8 <prvIdleTask+0x1f0>
     660:	dd 24       	eor	r13, r13
     662:	d3 94       	inc	r13
     664:	e0 91 b7 1c 	lds	r30, 0x1CB7
     668:	f0 91 b8 1c 	lds	r31, 0x1CB8
     66c:	80 81       	ld	r24, Z
     66e:	88 23       	and	r24, r24
     670:	11 f6       	brne	.-124    	; 0x5f6 <prvIdleTask+0x1fe>
     672:	90 92 ad 09 	sts	0x09AD, r9
     676:	80 92 ac 09 	sts	0x09AC, r8
     67a:	04 c0       	rjmp	.+8      	; 0x684 <prvIdleTask+0x28c>
     67c:	70 92 70 1c 	sts	0x1C70, r7
     680:	6b cf       	rjmp	.-298    	; 0x558 <prvIdleTask+0x160>
     682:	dd 24       	eor	r13, r13
     684:	e0 91 6c 1c 	lds	r30, 0x1C6C
     688:	f0 91 6d 1c 	lds	r31, 0x1C6D
     68c:	86 89       	ldd	r24, Z+22	; 0x16
     68e:	90 e0       	ldi	r25, 0x00	; 0
     690:	fc 01       	movw	r30, r24
     692:	ee 0f       	add	r30, r30
     694:	ff 1f       	adc	r31, r31
     696:	ee 0f       	add	r30, r30
     698:	ff 1f       	adc	r31, r31
     69a:	ee 0f       	add	r30, r30
     69c:	ff 1f       	adc	r31, r31
     69e:	e8 0f       	add	r30, r24
     6a0:	f9 1f       	adc	r31, r25
     6a2:	ef 57       	subi	r30, 0x7F	; 127
     6a4:	f3 4e       	sbci	r31, 0xE3	; 227
     6a6:	80 81       	ld	r24, Z
     6a8:	82 30       	cpi	r24, 0x02	; 2
     6aa:	08 f4       	brcc	.+2      	; 0x6ae <prvIdleTask+0x2b6>
     6ac:	4d cf       	rjmp	.-358    	; 0x548 <prvIdleTask+0x150>
     6ae:	dd 24       	eor	r13, r13
     6b0:	d3 94       	inc	r13
     6b2:	4a cf       	rjmp	.-364    	; 0x548 <prvIdleTask+0x150>
     6b4:	e0 91 b7 1c 	lds	r30, 0x1CB7
     6b8:	f0 91 b8 1c 	lds	r31, 0x1CB8
     6bc:	05 80       	ldd	r0, Z+5	; 0x05
     6be:	f6 81       	ldd	r31, Z+6	; 0x06
     6c0:	e0 2d       	mov	r30, r0
     6c2:	06 80       	ldd	r0, Z+6	; 0x06
     6c4:	f7 81       	ldd	r31, Z+7	; 0x07
     6c6:	e0 2d       	mov	r30, r0
     6c8:	82 81       	ldd	r24, Z+2	; 0x02
     6ca:	93 81       	ldd	r25, Z+3	; 0x03
     6cc:	90 93 ad 09 	sts	0x09AD, r25
     6d0:	80 93 ac 09 	sts	0x09AC, r24
     6d4:	80 cf       	rjmp	.-256    	; 0x5d6 <prvIdleTask+0x1de>
     6d6:	90 93 ad 09 	sts	0x09AD, r25
     6da:	80 93 ac 09 	sts	0x09AC, r24
     6de:	d2 cf       	rjmp	.-92     	; 0x684 <prvIdleTask+0x28c>

000006e0 <__ctors_end>:
     6e0:	11 24       	eor	r1, r1
     6e2:	1f be       	out	0x3f, r1	; 63
     6e4:	cf ef       	ldi	r28, 0xFF	; 255
     6e6:	d1 e2       	ldi	r29, 0x21	; 33
     6e8:	de bf       	out	0x3e, r29	; 62
     6ea:	cd bf       	out	0x3d, r28	; 61
     6ec:	00 e0       	ldi	r16, 0x00	; 0
     6ee:	0c bf       	out	0x3c, r16	; 60

000006f0 <__do_copy_data>:
     6f0:	1a e0       	ldi	r17, 0x0A	; 10
     6f2:	a0 e0       	ldi	r26, 0x00	; 0
     6f4:	b2 e0       	ldi	r27, 0x02	; 2
     6f6:	e6 e9       	ldi	r30, 0x96	; 150
     6f8:	f7 ea       	ldi	r31, 0xA7	; 167
     6fa:	00 e0       	ldi	r16, 0x00	; 0
     6fc:	0b bf       	out	0x3b, r16	; 59
     6fe:	02 c0       	rjmp	.+4      	; 0x704 <__do_copy_data+0x14>
     700:	07 90       	elpm	r0, Z+
     702:	0d 92       	st	X+, r0
     704:	a2 32       	cpi	r26, 0x22	; 34
     706:	b1 07       	cpc	r27, r17
     708:	d9 f7       	brne	.-10     	; 0x700 <__do_copy_data+0x10>
     70a:	1b be       	out	0x3b, r1	; 59

0000070c <__do_clear_bss>:
     70c:	1e e1       	ldi	r17, 0x1E	; 30
     70e:	a2 e2       	ldi	r26, 0x22	; 34
     710:	ba e0       	ldi	r27, 0x0A	; 10
     712:	01 c0       	rjmp	.+2      	; 0x716 <.do_clear_bss_start>

00000714 <.do_clear_bss_loop>:
     714:	1d 92       	st	X+, r1

00000716 <.do_clear_bss_start>:
     716:	a7 31       	cpi	r26, 0x17	; 23
     718:	b1 07       	cpc	r27, r17
     71a:	e1 f7       	brne	.-8      	; 0x714 <.do_clear_bss_loop>
     71c:	0e 94 2c 0c 	call	0x1858	; 0x1858 <main>
     720:	0c 94 c9 53 	jmp	0xa792	; 0xa792 <_exit>

00000724 <__bad_interrupt>:
     724:	0c 94 00 00 	jmp	0	; 0x0 <__vectors>

00000728 <system_tick>:
     728:	8f 93       	push	r24
     72a:	8f b7       	in	r24, 0x3f	; 63
     72c:	8f 93       	push	r24
     72e:	f8 94       	cli
     730:	80 91 9f 1d 	lds	r24, 0x1D9F
     734:	8f 5f       	subi	r24, 0xFF	; 255
     736:	80 93 9f 1d 	sts	0x1D9F, r24
     73a:	80 91 a0 1d 	lds	r24, 0x1DA0
     73e:	8f 4f       	sbci	r24, 0xFF	; 255
     740:	80 93 a0 1d 	sts	0x1DA0, r24
     744:	80 91 a1 1d 	lds	r24, 0x1DA1
     748:	8f 4f       	sbci	r24, 0xFF	; 255
     74a:	80 93 a1 1d 	sts	0x1DA1, r24
     74e:	80 91 a2 1d 	lds	r24, 0x1DA2
     752:	8f 4f       	sbci	r24, 0xFF	; 255
     754:	80 93 a2 1d 	sts	0x1DA2, r24
     758:	8f 91       	pop	r24
     75a:	8f bf       	out	0x3f, r24	; 63
     75c:	8f 91       	pop	r24
     75e:	08 95       	ret

00000760 <vfprintf>:
     760:	a1 e1       	ldi	r26, 0x11	; 17
     762:	b0 e0       	ldi	r27, 0x00	; 0
     764:	e6 eb       	ldi	r30, 0xB6	; 182
     766:	f3 e0       	ldi	r31, 0x03	; 3
     768:	0c 94 8c 53 	jmp	0xa718	; 0xa718 <__prologue_saves__>
     76c:	3c 01       	movw	r6, r24
     76e:	7f 87       	std	Y+15, r23	; 0x0f
     770:	6e 87       	std	Y+14, r22	; 0x0e
     772:	6a 01       	movw	r12, r20
     774:	fc 01       	movw	r30, r24
     776:	17 82       	std	Z+7, r1	; 0x07
     778:	16 82       	std	Z+6, r1	; 0x06
     77a:	83 81       	ldd	r24, Z+3	; 0x03
     77c:	81 fd       	sbrc	r24, 1
     77e:	03 c0       	rjmp	.+6      	; 0x786 <vfprintf+0x26>
     780:	6f ef       	ldi	r22, 0xFF	; 255
     782:	7f ef       	ldi	r23, 0xFF	; 255
     784:	71 c3       	rjmp	.+1762   	; 0xe68 <vfprintf+0x708>
     786:	9e 01       	movw	r18, r28
     788:	2f 5f       	subi	r18, 0xFF	; 255
     78a:	3f 4f       	sbci	r19, 0xFF	; 255
     78c:	39 8b       	std	Y+17, r19	; 0x11
     78e:	28 8b       	std	Y+16, r18	; 0x10
     790:	f3 01       	movw	r30, r6
     792:	23 81       	ldd	r18, Z+3	; 0x03
     794:	ee 85       	ldd	r30, Y+14	; 0x0e
     796:	ff 85       	ldd	r31, Y+15	; 0x0f
     798:	23 fd       	sbrc	r18, 3
     79a:	85 91       	lpm	r24, Z+
     79c:	23 ff       	sbrs	r18, 3
     79e:	81 91       	ld	r24, Z+
     7a0:	ff 87       	std	Y+15, r31	; 0x0f
     7a2:	ee 87       	std	Y+14, r30	; 0x0e
     7a4:	88 23       	and	r24, r24
     7a6:	09 f4       	brne	.+2      	; 0x7aa <vfprintf+0x4a>
     7a8:	5c c3       	rjmp	.+1720   	; 0xe62 <vfprintf+0x702>
     7aa:	85 32       	cpi	r24, 0x25	; 37
     7ac:	51 f4       	brne	.+20     	; 0x7c2 <vfprintf+0x62>
     7ae:	ee 85       	ldd	r30, Y+14	; 0x0e
     7b0:	ff 85       	ldd	r31, Y+15	; 0x0f
     7b2:	23 fd       	sbrc	r18, 3
     7b4:	85 91       	lpm	r24, Z+
     7b6:	23 ff       	sbrs	r18, 3
     7b8:	81 91       	ld	r24, Z+
     7ba:	ff 87       	std	Y+15, r31	; 0x0f
     7bc:	ee 87       	std	Y+14, r30	; 0x0e
     7be:	85 32       	cpi	r24, 0x25	; 37
     7c0:	29 f4       	brne	.+10     	; 0x7cc <vfprintf+0x6c>
     7c2:	90 e0       	ldi	r25, 0x00	; 0
     7c4:	b3 01       	movw	r22, r6
     7c6:	0e 94 99 08 	call	0x1132	; 0x1132 <fputc>
     7ca:	e2 cf       	rjmp	.-60     	; 0x790 <vfprintf+0x30>
     7cc:	98 2f       	mov	r25, r24
     7ce:	10 e0       	ldi	r17, 0x00	; 0
     7d0:	88 24       	eor	r8, r8
     7d2:	99 24       	eor	r9, r9
     7d4:	10 32       	cpi	r17, 0x20	; 32
     7d6:	b0 f4       	brcc	.+44     	; 0x804 <vfprintf+0xa4>
     7d8:	9b 32       	cpi	r25, 0x2B	; 43
     7da:	69 f0       	breq	.+26     	; 0x7f6 <vfprintf+0x96>
     7dc:	9c 32       	cpi	r25, 0x2C	; 44
     7de:	28 f4       	brcc	.+10     	; 0x7ea <vfprintf+0x8a>
     7e0:	90 32       	cpi	r25, 0x20	; 32
     7e2:	51 f0       	breq	.+20     	; 0x7f8 <vfprintf+0x98>
     7e4:	93 32       	cpi	r25, 0x23	; 35
     7e6:	71 f4       	brne	.+28     	; 0x804 <vfprintf+0xa4>
     7e8:	0b c0       	rjmp	.+22     	; 0x800 <vfprintf+0xa0>
     7ea:	9d 32       	cpi	r25, 0x2D	; 45
     7ec:	39 f0       	breq	.+14     	; 0x7fc <vfprintf+0x9c>
     7ee:	90 33       	cpi	r25, 0x30	; 48
     7f0:	49 f4       	brne	.+18     	; 0x804 <vfprintf+0xa4>
     7f2:	11 60       	ori	r17, 0x01	; 1
     7f4:	28 c0       	rjmp	.+80     	; 0x846 <vfprintf+0xe6>
     7f6:	12 60       	ori	r17, 0x02	; 2
     7f8:	14 60       	ori	r17, 0x04	; 4
     7fa:	25 c0       	rjmp	.+74     	; 0x846 <vfprintf+0xe6>
     7fc:	18 60       	ori	r17, 0x08	; 8
     7fe:	23 c0       	rjmp	.+70     	; 0x846 <vfprintf+0xe6>
     800:	10 61       	ori	r17, 0x10	; 16
     802:	21 c0       	rjmp	.+66     	; 0x846 <vfprintf+0xe6>
     804:	17 fd       	sbrc	r17, 7
     806:	2a c0       	rjmp	.+84     	; 0x85c <vfprintf+0xfc>
     808:	89 2f       	mov	r24, r25
     80a:	80 53       	subi	r24, 0x30	; 48
     80c:	8a 30       	cpi	r24, 0x0A	; 10
     80e:	78 f4       	brcc	.+30     	; 0x82e <vfprintf+0xce>
     810:	16 ff       	sbrs	r17, 6
     812:	06 c0       	rjmp	.+12     	; 0x820 <vfprintf+0xc0>
     814:	fa e0       	ldi	r31, 0x0A	; 10
     816:	9f 9e       	mul	r9, r31
     818:	90 2c       	mov	r9, r0
     81a:	11 24       	eor	r1, r1
     81c:	98 0e       	add	r9, r24
     81e:	13 c0       	rjmp	.+38     	; 0x846 <vfprintf+0xe6>
     820:	3a e0       	ldi	r19, 0x0A	; 10
     822:	83 9e       	mul	r8, r19
     824:	80 2c       	mov	r8, r0
     826:	11 24       	eor	r1, r1
     828:	88 0e       	add	r8, r24
     82a:	10 62       	ori	r17, 0x20	; 32
     82c:	0c c0       	rjmp	.+24     	; 0x846 <vfprintf+0xe6>
     82e:	9e 32       	cpi	r25, 0x2E	; 46
     830:	21 f4       	brne	.+8      	; 0x83a <vfprintf+0xda>
     832:	16 fd       	sbrc	r17, 6
     834:	16 c3       	rjmp	.+1580   	; 0xe62 <vfprintf+0x702>
     836:	10 64       	ori	r17, 0x40	; 64
     838:	06 c0       	rjmp	.+12     	; 0x846 <vfprintf+0xe6>
     83a:	9c 36       	cpi	r25, 0x6C	; 108
     83c:	11 f4       	brne	.+4      	; 0x842 <vfprintf+0xe2>
     83e:	10 68       	ori	r17, 0x80	; 128
     840:	02 c0       	rjmp	.+4      	; 0x846 <vfprintf+0xe6>
     842:	98 36       	cpi	r25, 0x68	; 104
     844:	59 f4       	brne	.+22     	; 0x85c <vfprintf+0xfc>
     846:	ee 85       	ldd	r30, Y+14	; 0x0e
     848:	ff 85       	ldd	r31, Y+15	; 0x0f
     84a:	23 fd       	sbrc	r18, 3
     84c:	95 91       	lpm	r25, Z+
     84e:	23 ff       	sbrs	r18, 3
     850:	91 91       	ld	r25, Z+
     852:	ff 87       	std	Y+15, r31	; 0x0f
     854:	ee 87       	std	Y+14, r30	; 0x0e
     856:	99 23       	and	r25, r25
     858:	09 f0       	breq	.+2      	; 0x85c <vfprintf+0xfc>
     85a:	bc cf       	rjmp	.-136    	; 0x7d4 <vfprintf+0x74>
     85c:	89 2f       	mov	r24, r25
     85e:	85 54       	subi	r24, 0x45	; 69
     860:	83 30       	cpi	r24, 0x03	; 3
     862:	20 f4       	brcc	.+8      	; 0x86c <vfprintf+0x10c>
     864:	81 2f       	mov	r24, r17
     866:	80 61       	ori	r24, 0x10	; 16
     868:	90 5e       	subi	r25, 0xE0	; 224
     86a:	07 c0       	rjmp	.+14     	; 0x87a <vfprintf+0x11a>
     86c:	89 2f       	mov	r24, r25
     86e:	85 56       	subi	r24, 0x65	; 101
     870:	83 30       	cpi	r24, 0x03	; 3
     872:	08 f0       	brcs	.+2      	; 0x876 <vfprintf+0x116>
     874:	a1 c1       	rjmp	.+834    	; 0xbb8 <vfprintf+0x458>
     876:	81 2f       	mov	r24, r17
     878:	8f 7e       	andi	r24, 0xEF	; 239
     87a:	86 fd       	sbrc	r24, 6
     87c:	02 c0       	rjmp	.+4      	; 0x882 <vfprintf+0x122>
     87e:	76 e0       	ldi	r23, 0x06	; 6
     880:	97 2e       	mov	r9, r23
     882:	6f e3       	ldi	r22, 0x3F	; 63
     884:	f6 2e       	mov	r15, r22
     886:	f8 22       	and	r15, r24
     888:	95 36       	cpi	r25, 0x65	; 101
     88a:	19 f4       	brne	.+6      	; 0x892 <vfprintf+0x132>
     88c:	f0 e4       	ldi	r31, 0x40	; 64
     88e:	ff 2a       	or	r15, r31
     890:	07 c0       	rjmp	.+14     	; 0x8a0 <vfprintf+0x140>
     892:	96 36       	cpi	r25, 0x66	; 102
     894:	19 f4       	brne	.+6      	; 0x89c <vfprintf+0x13c>
     896:	20 e8       	ldi	r18, 0x80	; 128
     898:	f2 2a       	or	r15, r18
     89a:	02 c0       	rjmp	.+4      	; 0x8a0 <vfprintf+0x140>
     89c:	91 10       	cpse	r9, r1
     89e:	9a 94       	dec	r9
     8a0:	f7 fe       	sbrs	r15, 7
     8a2:	0b c0       	rjmp	.+22     	; 0x8ba <vfprintf+0x15a>
     8a4:	3b e3       	ldi	r19, 0x3B	; 59
     8a6:	39 15       	cp	r19, r9
     8a8:	20 f4       	brcc	.+8      	; 0x8b2 <vfprintf+0x152>
     8aa:	27 e0       	ldi	r18, 0x07	; 7
     8ac:	5c e3       	ldi	r21, 0x3C	; 60
     8ae:	b5 2e       	mov	r11, r21
     8b0:	0e c0       	rjmp	.+28     	; 0x8ce <vfprintf+0x16e>
     8b2:	b9 2c       	mov	r11, r9
     8b4:	b3 94       	inc	r11
     8b6:	27 e0       	ldi	r18, 0x07	; 7
     8b8:	0a c0       	rjmp	.+20     	; 0x8ce <vfprintf+0x16e>
     8ba:	47 e0       	ldi	r20, 0x07	; 7
     8bc:	49 15       	cp	r20, r9
     8be:	28 f4       	brcc	.+10     	; 0x8ca <vfprintf+0x16a>
     8c0:	27 e0       	ldi	r18, 0x07	; 7
     8c2:	bb 24       	eor	r11, r11
     8c4:	47 e0       	ldi	r20, 0x07	; 7
     8c6:	94 2e       	mov	r9, r20
     8c8:	02 c0       	rjmp	.+4      	; 0x8ce <vfprintf+0x16e>
     8ca:	29 2d       	mov	r18, r9
     8cc:	bb 24       	eor	r11, r11
     8ce:	c6 01       	movw	r24, r12
     8d0:	04 96       	adiw	r24, 0x04	; 4
     8d2:	9d 87       	std	Y+13, r25	; 0x0d
     8d4:	8c 87       	std	Y+12, r24	; 0x0c
     8d6:	f6 01       	movw	r30, r12
     8d8:	60 81       	ld	r22, Z
     8da:	71 81       	ldd	r23, Z+1	; 0x01
     8dc:	82 81       	ldd	r24, Z+2	; 0x02
     8de:	93 81       	ldd	r25, Z+3	; 0x03
     8e0:	ae 01       	movw	r20, r28
     8e2:	4f 5f       	subi	r20, 0xFF	; 255
     8e4:	5f 4f       	sbci	r21, 0xFF	; 255
     8e6:	0b 2d       	mov	r16, r11
     8e8:	0e 94 39 07 	call	0xe72	; 0xe72 <__ftoa_engine>
     8ec:	6c 01       	movw	r12, r24
     8ee:	09 81       	ldd	r16, Y+1	; 0x01
     8f0:	20 2e       	mov	r2, r16
     8f2:	33 24       	eor	r3, r3
     8f4:	00 ff       	sbrs	r16, 0
     8f6:	04 c0       	rjmp	.+8      	; 0x900 <vfprintf+0x1a0>
     8f8:	03 fd       	sbrc	r16, 3
     8fa:	02 c0       	rjmp	.+4      	; 0x900 <vfprintf+0x1a0>
     8fc:	1d e2       	ldi	r17, 0x2D	; 45
     8fe:	09 c0       	rjmp	.+18     	; 0x912 <vfprintf+0x1b2>
     900:	f1 fe       	sbrs	r15, 1
     902:	02 c0       	rjmp	.+4      	; 0x908 <vfprintf+0x1a8>
     904:	1b e2       	ldi	r17, 0x2B	; 43
     906:	05 c0       	rjmp	.+10     	; 0x912 <vfprintf+0x1b2>
     908:	f2 fc       	sbrc	r15, 2
     90a:	02 c0       	rjmp	.+4      	; 0x910 <vfprintf+0x1b0>
     90c:	10 e0       	ldi	r17, 0x00	; 0
     90e:	01 c0       	rjmp	.+2      	; 0x912 <vfprintf+0x1b2>
     910:	10 e2       	ldi	r17, 0x20	; 32
     912:	c1 01       	movw	r24, r2
     914:	8c 70       	andi	r24, 0x0C	; 12
     916:	90 70       	andi	r25, 0x00	; 0
     918:	89 2b       	or	r24, r25
     91a:	b9 f1       	breq	.+110    	; 0x98a <vfprintf+0x22a>
     91c:	11 23       	and	r17, r17
     91e:	11 f4       	brne	.+4      	; 0x924 <vfprintf+0x1c4>
     920:	83 e0       	ldi	r24, 0x03	; 3
     922:	01 c0       	rjmp	.+2      	; 0x926 <vfprintf+0x1c6>
     924:	84 e0       	ldi	r24, 0x04	; 4
     926:	88 15       	cp	r24, r8
     928:	10 f0       	brcs	.+4      	; 0x92e <vfprintf+0x1ce>
     92a:	88 24       	eor	r8, r8
     92c:	0a c0       	rjmp	.+20     	; 0x942 <vfprintf+0x1e2>
     92e:	88 1a       	sub	r8, r24
     930:	f3 fc       	sbrc	r15, 3
     932:	07 c0       	rjmp	.+14     	; 0x942 <vfprintf+0x1e2>
     934:	80 e2       	ldi	r24, 0x20	; 32
     936:	90 e0       	ldi	r25, 0x00	; 0
     938:	b3 01       	movw	r22, r6
     93a:	0e 94 99 08 	call	0x1132	; 0x1132 <fputc>
     93e:	8a 94       	dec	r8
     940:	c9 f7       	brne	.-14     	; 0x934 <vfprintf+0x1d4>
     942:	11 23       	and	r17, r17
     944:	29 f0       	breq	.+10     	; 0x950 <vfprintf+0x1f0>
     946:	81 2f       	mov	r24, r17
     948:	90 e0       	ldi	r25, 0x00	; 0
     94a:	b3 01       	movw	r22, r6
     94c:	0e 94 99 08 	call	0x1132	; 0x1132 <fputc>
     950:	23 fe       	sbrs	r2, 3
     952:	03 c0       	rjmp	.+6      	; 0x95a <vfprintf+0x1fa>
     954:	06 ef       	ldi	r16, 0xF6	; 246
     956:	12 e0       	ldi	r17, 0x02	; 2
     958:	0e c0       	rjmp	.+28     	; 0x976 <vfprintf+0x216>
     95a:	0a ef       	ldi	r16, 0xFA	; 250
     95c:	12 e0       	ldi	r17, 0x02	; 2
     95e:	0b c0       	rjmp	.+22     	; 0x976 <vfprintf+0x216>
     960:	e1 14       	cp	r14, r1
     962:	f1 04       	cpc	r15, r1
     964:	09 f0       	breq	.+2      	; 0x968 <vfprintf+0x208>
     966:	80 52       	subi	r24, 0x20	; 32
     968:	90 e0       	ldi	r25, 0x00	; 0
     96a:	b3 01       	movw	r22, r6
     96c:	0e 94 99 08 	call	0x1132	; 0x1132 <fputc>
     970:	0f 5f       	subi	r16, 0xFF	; 255
     972:	1f 4f       	sbci	r17, 0xFF	; 255
     974:	05 c0       	rjmp	.+10     	; 0x980 <vfprintf+0x220>
     976:	ef 2c       	mov	r14, r15
     978:	ff 24       	eor	r15, r15
     97a:	f0 e1       	ldi	r31, 0x10	; 16
     97c:	ef 22       	and	r14, r31
     97e:	ff 24       	eor	r15, r15
     980:	f8 01       	movw	r30, r16
     982:	84 91       	lpm	r24, Z+
     984:	88 23       	and	r24, r24
     986:	61 f7       	brne	.-40     	; 0x960 <vfprintf+0x200>
     988:	14 c1       	rjmp	.+552    	; 0xbb2 <vfprintf+0x452>
     98a:	f7 fe       	sbrs	r15, 7
     98c:	12 c0       	rjmp	.+36     	; 0x9b2 <vfprintf+0x252>
     98e:	bc 0c       	add	r11, r12
     990:	24 fe       	sbrs	r2, 4
     992:	04 c0       	rjmp	.+8      	; 0x99c <vfprintf+0x23c>
     994:	8a 81       	ldd	r24, Y+2	; 0x02
     996:	81 33       	cpi	r24, 0x31	; 49
     998:	09 f4       	brne	.+2      	; 0x99c <vfprintf+0x23c>
     99a:	ba 94       	dec	r11
     99c:	1b 14       	cp	r1, r11
     99e:	1c f0       	brlt	.+6      	; 0x9a6 <vfprintf+0x246>
     9a0:	bb 24       	eor	r11, r11
     9a2:	b3 94       	inc	r11
     9a4:	2d c0       	rjmp	.+90     	; 0xa00 <vfprintf+0x2a0>
     9a6:	f8 e0       	ldi	r31, 0x08	; 8
     9a8:	fb 15       	cp	r31, r11
     9aa:	50 f5       	brcc	.+84     	; 0xa00 <vfprintf+0x2a0>
     9ac:	38 e0       	ldi	r19, 0x08	; 8
     9ae:	b3 2e       	mov	r11, r19
     9b0:	27 c0       	rjmp	.+78     	; 0xa00 <vfprintf+0x2a0>
     9b2:	f6 fc       	sbrc	r15, 6
     9b4:	25 c0       	rjmp	.+74     	; 0xa00 <vfprintf+0x2a0>
     9b6:	89 2d       	mov	r24, r9
     9b8:	90 e0       	ldi	r25, 0x00	; 0
     9ba:	8c 15       	cp	r24, r12
     9bc:	9d 05       	cpc	r25, r13
     9be:	4c f0       	brlt	.+18     	; 0x9d2 <vfprintf+0x272>
     9c0:	2c ef       	ldi	r18, 0xFC	; 252
     9c2:	c2 16       	cp	r12, r18
     9c4:	2f ef       	ldi	r18, 0xFF	; 255
     9c6:	d2 06       	cpc	r13, r18
     9c8:	24 f0       	brlt	.+8      	; 0x9d2 <vfprintf+0x272>
     9ca:	30 e8       	ldi	r19, 0x80	; 128
     9cc:	f3 2a       	or	r15, r19
     9ce:	01 c0       	rjmp	.+2      	; 0x9d2 <vfprintf+0x272>
     9d0:	9a 94       	dec	r9
     9d2:	99 20       	and	r9, r9
     9d4:	49 f0       	breq	.+18     	; 0x9e8 <vfprintf+0x288>
     9d6:	e2 e0       	ldi	r30, 0x02	; 2
     9d8:	f0 e0       	ldi	r31, 0x00	; 0
     9da:	ec 0f       	add	r30, r28
     9dc:	fd 1f       	adc	r31, r29
     9de:	e9 0d       	add	r30, r9
     9e0:	f1 1d       	adc	r31, r1
     9e2:	80 81       	ld	r24, Z
     9e4:	80 33       	cpi	r24, 0x30	; 48
     9e6:	a1 f3       	breq	.-24     	; 0x9d0 <vfprintf+0x270>
     9e8:	f7 fe       	sbrs	r15, 7
     9ea:	0a c0       	rjmp	.+20     	; 0xa00 <vfprintf+0x2a0>
     9ec:	b9 2c       	mov	r11, r9
     9ee:	b3 94       	inc	r11
     9f0:	89 2d       	mov	r24, r9
     9f2:	90 e0       	ldi	r25, 0x00	; 0
     9f4:	c8 16       	cp	r12, r24
     9f6:	d9 06       	cpc	r13, r25
     9f8:	14 f0       	brlt	.+4      	; 0x9fe <vfprintf+0x29e>
     9fa:	99 24       	eor	r9, r9
     9fc:	01 c0       	rjmp	.+2      	; 0xa00 <vfprintf+0x2a0>
     9fe:	9c 18       	sub	r9, r12
     a00:	f7 fc       	sbrc	r15, 7
     a02:	03 c0       	rjmp	.+6      	; 0xa0a <vfprintf+0x2aa>
     a04:	25 e0       	ldi	r18, 0x05	; 5
     a06:	30 e0       	ldi	r19, 0x00	; 0
     a08:	09 c0       	rjmp	.+18     	; 0xa1c <vfprintf+0x2bc>
     a0a:	1c 14       	cp	r1, r12
     a0c:	1d 04       	cpc	r1, r13
     a0e:	1c f0       	brlt	.+6      	; 0xa16 <vfprintf+0x2b6>
     a10:	21 e0       	ldi	r18, 0x01	; 1
     a12:	30 e0       	ldi	r19, 0x00	; 0
     a14:	03 c0       	rjmp	.+6      	; 0xa1c <vfprintf+0x2bc>
     a16:	96 01       	movw	r18, r12
     a18:	2f 5f       	subi	r18, 0xFF	; 255
     a1a:	3f 4f       	sbci	r19, 0xFF	; 255
     a1c:	11 23       	and	r17, r17
     a1e:	11 f0       	breq	.+4      	; 0xa24 <vfprintf+0x2c4>
     a20:	2f 5f       	subi	r18, 0xFF	; 255
     a22:	3f 4f       	sbci	r19, 0xFF	; 255
     a24:	99 20       	and	r9, r9
     a26:	29 f0       	breq	.+10     	; 0xa32 <vfprintf+0x2d2>
     a28:	89 2d       	mov	r24, r9
     a2a:	90 e0       	ldi	r25, 0x00	; 0
     a2c:	01 96       	adiw	r24, 0x01	; 1
     a2e:	28 0f       	add	r18, r24
     a30:	39 1f       	adc	r19, r25
     a32:	88 2d       	mov	r24, r8
     a34:	90 e0       	ldi	r25, 0x00	; 0
     a36:	28 17       	cp	r18, r24
     a38:	39 07       	cpc	r19, r25
     a3a:	14 f0       	brlt	.+4      	; 0xa40 <vfprintf+0x2e0>
     a3c:	88 24       	eor	r8, r8
     a3e:	01 c0       	rjmp	.+2      	; 0xa42 <vfprintf+0x2e2>
     a40:	82 1a       	sub	r8, r18
     a42:	4f 2c       	mov	r4, r15
     a44:	55 24       	eor	r5, r5
     a46:	c2 01       	movw	r24, r4
     a48:	89 70       	andi	r24, 0x09	; 9
     a4a:	90 70       	andi	r25, 0x00	; 0
     a4c:	89 2b       	or	r24, r25
     a4e:	39 f0       	breq	.+14     	; 0xa5e <vfprintf+0x2fe>
     a50:	08 c0       	rjmp	.+16     	; 0xa62 <vfprintf+0x302>
     a52:	80 e2       	ldi	r24, 0x20	; 32
     a54:	90 e0       	ldi	r25, 0x00	; 0
     a56:	b3 01       	movw	r22, r6
     a58:	0e 94 99 08 	call	0x1132	; 0x1132 <fputc>
     a5c:	8a 94       	dec	r8
     a5e:	88 20       	and	r8, r8
     a60:	c1 f7       	brne	.-16     	; 0xa52 <vfprintf+0x2f2>
     a62:	11 23       	and	r17, r17
     a64:	29 f0       	breq	.+10     	; 0xa70 <vfprintf+0x310>
     a66:	81 2f       	mov	r24, r17
     a68:	90 e0       	ldi	r25, 0x00	; 0
     a6a:	b3 01       	movw	r22, r6
     a6c:	0e 94 99 08 	call	0x1132	; 0x1132 <fputc>
     a70:	43 fe       	sbrs	r4, 3
     a72:	07 c0       	rjmp	.+14     	; 0xa82 <vfprintf+0x322>
     a74:	08 c0       	rjmp	.+16     	; 0xa86 <vfprintf+0x326>
     a76:	80 e3       	ldi	r24, 0x30	; 48
     a78:	90 e0       	ldi	r25, 0x00	; 0
     a7a:	b3 01       	movw	r22, r6
     a7c:	0e 94 99 08 	call	0x1132	; 0x1132 <fputc>
     a80:	8a 94       	dec	r8
     a82:	88 20       	and	r8, r8
     a84:	c1 f7       	brne	.-16     	; 0xa76 <vfprintf+0x316>
     a86:	f7 fe       	sbrs	r15, 7
     a88:	46 c0       	rjmp	.+140    	; 0xb16 <vfprintf+0x3b6>
     a8a:	86 01       	movw	r16, r12
     a8c:	d7 fe       	sbrs	r13, 7
     a8e:	02 c0       	rjmp	.+4      	; 0xa94 <vfprintf+0x334>
     a90:	00 e0       	ldi	r16, 0x00	; 0
     a92:	10 e0       	ldi	r17, 0x00	; 0
     a94:	76 01       	movw	r14, r12
     a96:	08 94       	sec
     a98:	e1 1c       	adc	r14, r1
     a9a:	f1 1c       	adc	r15, r1
     a9c:	e0 1a       	sub	r14, r16
     a9e:	f1 0a       	sbc	r15, r17
     aa0:	41 e0       	ldi	r20, 0x01	; 1
     aa2:	50 e0       	ldi	r21, 0x00	; 0
     aa4:	4c 0f       	add	r20, r28
     aa6:	5d 1f       	adc	r21, r29
     aa8:	e4 0e       	add	r14, r20
     aaa:	f5 1e       	adc	r15, r21
     aac:	26 01       	movw	r4, r12
     aae:	4b 18       	sub	r4, r11
     ab0:	51 08       	sbc	r5, r1
     ab2:	89 2d       	mov	r24, r9
     ab4:	90 e0       	ldi	r25, 0x00	; 0
     ab6:	aa 24       	eor	r10, r10
     ab8:	bb 24       	eor	r11, r11
     aba:	a8 1a       	sub	r10, r24
     abc:	b9 0a       	sbc	r11, r25
     abe:	5f ef       	ldi	r21, 0xFF	; 255
     ac0:	0f 3f       	cpi	r16, 0xFF	; 255
     ac2:	15 07       	cpc	r17, r21
     ac4:	29 f4       	brne	.+10     	; 0xad0 <vfprintf+0x370>
     ac6:	8e e2       	ldi	r24, 0x2E	; 46
     ac8:	90 e0       	ldi	r25, 0x00	; 0
     aca:	b3 01       	movw	r22, r6
     acc:	0e 94 99 08 	call	0x1132	; 0x1132 <fputc>
     ad0:	c0 16       	cp	r12, r16
     ad2:	d1 06       	cpc	r13, r17
     ad4:	34 f0       	brlt	.+12     	; 0xae2 <vfprintf+0x382>
     ad6:	40 16       	cp	r4, r16
     ad8:	51 06       	cpc	r5, r17
     ada:	1c f4       	brge	.+6      	; 0xae2 <vfprintf+0x382>
     adc:	f7 01       	movw	r30, r14
     ade:	80 81       	ld	r24, Z
     ae0:	01 c0       	rjmp	.+2      	; 0xae4 <vfprintf+0x384>
     ae2:	80 e3       	ldi	r24, 0x30	; 48
     ae4:	01 50       	subi	r16, 0x01	; 1
     ae6:	10 40       	sbci	r17, 0x00	; 0
     ae8:	08 94       	sec
     aea:	e1 1c       	adc	r14, r1
     aec:	f1 1c       	adc	r15, r1
     aee:	0a 15       	cp	r16, r10
     af0:	1b 05       	cpc	r17, r11
     af2:	2c f0       	brlt	.+10     	; 0xafe <vfprintf+0x39e>
     af4:	90 e0       	ldi	r25, 0x00	; 0
     af6:	b3 01       	movw	r22, r6
     af8:	0e 94 99 08 	call	0x1132	; 0x1132 <fputc>
     afc:	e0 cf       	rjmp	.-64     	; 0xabe <vfprintf+0x35e>
     afe:	0c 15       	cp	r16, r12
     b00:	1d 05       	cpc	r17, r13
     b02:	39 f4       	brne	.+14     	; 0xb12 <vfprintf+0x3b2>
     b04:	9a 81       	ldd	r25, Y+2	; 0x02
     b06:	96 33       	cpi	r25, 0x36	; 54
     b08:	18 f4       	brcc	.+6      	; 0xb10 <vfprintf+0x3b0>
     b0a:	95 33       	cpi	r25, 0x35	; 53
     b0c:	11 f4       	brne	.+4      	; 0xb12 <vfprintf+0x3b2>
     b0e:	24 fe       	sbrs	r2, 4
     b10:	81 e3       	ldi	r24, 0x31	; 49
     b12:	90 e0       	ldi	r25, 0x00	; 0
     b14:	4b c0       	rjmp	.+150    	; 0xbac <vfprintf+0x44c>
     b16:	8a 81       	ldd	r24, Y+2	; 0x02
     b18:	81 33       	cpi	r24, 0x31	; 49
     b1a:	09 f0       	breq	.+2      	; 0xb1e <vfprintf+0x3be>
     b1c:	0f 7e       	andi	r16, 0xEF	; 239
     b1e:	90 e0       	ldi	r25, 0x00	; 0
     b20:	b3 01       	movw	r22, r6
     b22:	0e 94 99 08 	call	0x1132	; 0x1132 <fputc>
     b26:	99 20       	and	r9, r9
     b28:	a1 f0       	breq	.+40     	; 0xb52 <vfprintf+0x3f2>
     b2a:	8e e2       	ldi	r24, 0x2E	; 46
     b2c:	90 e0       	ldi	r25, 0x00	; 0
     b2e:	b3 01       	movw	r22, r6
     b30:	0e 94 99 08 	call	0x1132	; 0x1132 <fputc>
     b34:	12 e0       	ldi	r17, 0x02	; 2
     b36:	e1 e0       	ldi	r30, 0x01	; 1
     b38:	f0 e0       	ldi	r31, 0x00	; 0
     b3a:	ec 0f       	add	r30, r28
     b3c:	fd 1f       	adc	r31, r29
     b3e:	e1 0f       	add	r30, r17
     b40:	f1 1d       	adc	r31, r1
     b42:	1f 5f       	subi	r17, 0xFF	; 255
     b44:	80 81       	ld	r24, Z
     b46:	90 e0       	ldi	r25, 0x00	; 0
     b48:	b3 01       	movw	r22, r6
     b4a:	0e 94 99 08 	call	0x1132	; 0x1132 <fputc>
     b4e:	9a 94       	dec	r9
     b50:	91 f7       	brne	.-28     	; 0xb36 <vfprintf+0x3d6>
     b52:	44 fc       	sbrc	r4, 4
     b54:	03 c0       	rjmp	.+6      	; 0xb5c <vfprintf+0x3fc>
     b56:	85 e6       	ldi	r24, 0x65	; 101
     b58:	90 e0       	ldi	r25, 0x00	; 0
     b5a:	02 c0       	rjmp	.+4      	; 0xb60 <vfprintf+0x400>
     b5c:	85 e4       	ldi	r24, 0x45	; 69
     b5e:	90 e0       	ldi	r25, 0x00	; 0
     b60:	b3 01       	movw	r22, r6
     b62:	0e 94 99 08 	call	0x1132	; 0x1132 <fputc>
     b66:	d7 fc       	sbrc	r13, 7
     b68:	05 c0       	rjmp	.+10     	; 0xb74 <vfprintf+0x414>
     b6a:	c1 14       	cp	r12, r1
     b6c:	d1 04       	cpc	r13, r1
     b6e:	41 f4       	brne	.+16     	; 0xb80 <vfprintf+0x420>
     b70:	04 ff       	sbrs	r16, 4
     b72:	06 c0       	rjmp	.+12     	; 0xb80 <vfprintf+0x420>
     b74:	d0 94       	com	r13
     b76:	c1 94       	neg	r12
     b78:	d1 08       	sbc	r13, r1
     b7a:	d3 94       	inc	r13
     b7c:	8d e2       	ldi	r24, 0x2D	; 45
     b7e:	01 c0       	rjmp	.+2      	; 0xb82 <vfprintf+0x422>
     b80:	8b e2       	ldi	r24, 0x2B	; 43
     b82:	90 e0       	ldi	r25, 0x00	; 0
     b84:	b3 01       	movw	r22, r6
     b86:	0e 94 99 08 	call	0x1132	; 0x1132 <fputc>
     b8a:	80 e3       	ldi	r24, 0x30	; 48
     b8c:	05 c0       	rjmp	.+10     	; 0xb98 <vfprintf+0x438>
     b8e:	8f 5f       	subi	r24, 0xFF	; 255
     b90:	26 ef       	ldi	r18, 0xF6	; 246
     b92:	3f ef       	ldi	r19, 0xFF	; 255
     b94:	c2 0e       	add	r12, r18
     b96:	d3 1e       	adc	r13, r19
     b98:	3a e0       	ldi	r19, 0x0A	; 10
     b9a:	c3 16       	cp	r12, r19
     b9c:	d1 04       	cpc	r13, r1
     b9e:	bc f7       	brge	.-18     	; 0xb8e <vfprintf+0x42e>
     ba0:	90 e0       	ldi	r25, 0x00	; 0
     ba2:	b3 01       	movw	r22, r6
     ba4:	0e 94 99 08 	call	0x1132	; 0x1132 <fputc>
     ba8:	c6 01       	movw	r24, r12
     baa:	c0 96       	adiw	r24, 0x30	; 48
     bac:	b3 01       	movw	r22, r6
     bae:	0e 94 99 08 	call	0x1132	; 0x1132 <fputc>
     bb2:	cc 84       	ldd	r12, Y+12	; 0x0c
     bb4:	dd 84       	ldd	r13, Y+13	; 0x0d
     bb6:	52 c1       	rjmp	.+676    	; 0xe5c <vfprintf+0x6fc>
     bb8:	93 36       	cpi	r25, 0x63	; 99
     bba:	31 f0       	breq	.+12     	; 0xbc8 <vfprintf+0x468>
     bbc:	93 37       	cpi	r25, 0x73	; 115
     bbe:	99 f0       	breq	.+38     	; 0xbe6 <vfprintf+0x486>
     bc0:	93 35       	cpi	r25, 0x53	; 83
     bc2:	09 f0       	breq	.+2      	; 0xbc6 <vfprintf+0x466>
     bc4:	59 c0       	rjmp	.+178    	; 0xc78 <vfprintf+0x518>
     bc6:	23 c0       	rjmp	.+70     	; 0xc0e <vfprintf+0x4ae>
     bc8:	f6 01       	movw	r30, r12
     bca:	80 81       	ld	r24, Z
     bcc:	89 83       	std	Y+1, r24	; 0x01
     bce:	5e 01       	movw	r10, r28
     bd0:	08 94       	sec
     bd2:	a1 1c       	adc	r10, r1
     bd4:	b1 1c       	adc	r11, r1
     bd6:	22 e0       	ldi	r18, 0x02	; 2
     bd8:	30 e0       	ldi	r19, 0x00	; 0
     bda:	c2 0e       	add	r12, r18
     bdc:	d3 1e       	adc	r13, r19
     bde:	21 e0       	ldi	r18, 0x01	; 1
     be0:	e2 2e       	mov	r14, r18
     be2:	f1 2c       	mov	r15, r1
     be4:	12 c0       	rjmp	.+36     	; 0xc0a <vfprintf+0x4aa>
     be6:	f6 01       	movw	r30, r12
     be8:	a0 80       	ld	r10, Z
     bea:	b1 80       	ldd	r11, Z+1	; 0x01
     bec:	16 fd       	sbrc	r17, 6
     bee:	03 c0       	rjmp	.+6      	; 0xbf6 <vfprintf+0x496>
     bf0:	6f ef       	ldi	r22, 0xFF	; 255
     bf2:	7f ef       	ldi	r23, 0xFF	; 255
     bf4:	02 c0       	rjmp	.+4      	; 0xbfa <vfprintf+0x49a>
     bf6:	69 2d       	mov	r22, r9
     bf8:	70 e0       	ldi	r23, 0x00	; 0
     bfa:	22 e0       	ldi	r18, 0x02	; 2
     bfc:	30 e0       	ldi	r19, 0x00	; 0
     bfe:	c2 0e       	add	r12, r18
     c00:	d3 1e       	adc	r13, r19
     c02:	c5 01       	movw	r24, r10
     c04:	0e 94 74 08 	call	0x10e8	; 0x10e8 <strnlen>
     c08:	7c 01       	movw	r14, r24
     c0a:	1f 77       	andi	r17, 0x7F	; 127
     c0c:	13 c0       	rjmp	.+38     	; 0xc34 <vfprintf+0x4d4>
     c0e:	f6 01       	movw	r30, r12
     c10:	a0 80       	ld	r10, Z
     c12:	b1 80       	ldd	r11, Z+1	; 0x01
     c14:	16 fd       	sbrc	r17, 6
     c16:	03 c0       	rjmp	.+6      	; 0xc1e <vfprintf+0x4be>
     c18:	6f ef       	ldi	r22, 0xFF	; 255
     c1a:	7f ef       	ldi	r23, 0xFF	; 255
     c1c:	02 c0       	rjmp	.+4      	; 0xc22 <vfprintf+0x4c2>
     c1e:	69 2d       	mov	r22, r9
     c20:	70 e0       	ldi	r23, 0x00	; 0
     c22:	22 e0       	ldi	r18, 0x02	; 2
     c24:	30 e0       	ldi	r19, 0x00	; 0
     c26:	c2 0e       	add	r12, r18
     c28:	d3 1e       	adc	r13, r19
     c2a:	c5 01       	movw	r24, r10
     c2c:	0e 94 1a 08 	call	0x1034	; 0x1034 <strnlen_P>
     c30:	7c 01       	movw	r14, r24
     c32:	10 68       	ori	r17, 0x80	; 128
     c34:	13 ff       	sbrs	r17, 3
     c36:	07 c0       	rjmp	.+14     	; 0xc46 <vfprintf+0x4e6>
     c38:	1b c0       	rjmp	.+54     	; 0xc70 <vfprintf+0x510>
     c3a:	80 e2       	ldi	r24, 0x20	; 32
     c3c:	90 e0       	ldi	r25, 0x00	; 0
     c3e:	b3 01       	movw	r22, r6
     c40:	0e 94 99 08 	call	0x1132	; 0x1132 <fputc>
     c44:	8a 94       	dec	r8
     c46:	88 2d       	mov	r24, r8
     c48:	90 e0       	ldi	r25, 0x00	; 0
     c4a:	e8 16       	cp	r14, r24
     c4c:	f9 06       	cpc	r15, r25
     c4e:	a8 f3       	brcs	.-22     	; 0xc3a <vfprintf+0x4da>
     c50:	0f c0       	rjmp	.+30     	; 0xc70 <vfprintf+0x510>
     c52:	f5 01       	movw	r30, r10
     c54:	17 fd       	sbrc	r17, 7
     c56:	85 91       	lpm	r24, Z+
     c58:	17 ff       	sbrs	r17, 7
     c5a:	81 91       	ld	r24, Z+
     c5c:	5f 01       	movw	r10, r30
     c5e:	90 e0       	ldi	r25, 0x00	; 0
     c60:	b3 01       	movw	r22, r6
     c62:	0e 94 99 08 	call	0x1132	; 0x1132 <fputc>
     c66:	81 10       	cpse	r8, r1
     c68:	8a 94       	dec	r8
     c6a:	08 94       	sec
     c6c:	e1 08       	sbc	r14, r1
     c6e:	f1 08       	sbc	r15, r1
     c70:	e1 14       	cp	r14, r1
     c72:	f1 04       	cpc	r15, r1
     c74:	71 f7       	brne	.-36     	; 0xc52 <vfprintf+0x4f2>
     c76:	f2 c0       	rjmp	.+484    	; 0xe5c <vfprintf+0x6fc>
     c78:	94 36       	cpi	r25, 0x64	; 100
     c7a:	11 f0       	breq	.+4      	; 0xc80 <vfprintf+0x520>
     c7c:	99 36       	cpi	r25, 0x69	; 105
     c7e:	89 f5       	brne	.+98     	; 0xce2 <vfprintf+0x582>
     c80:	17 ff       	sbrs	r17, 7
     c82:	08 c0       	rjmp	.+16     	; 0xc94 <vfprintf+0x534>
     c84:	f6 01       	movw	r30, r12
     c86:	20 81       	ld	r18, Z
     c88:	31 81       	ldd	r19, Z+1	; 0x01
     c8a:	42 81       	ldd	r20, Z+2	; 0x02
     c8c:	53 81       	ldd	r21, Z+3	; 0x03
     c8e:	84 e0       	ldi	r24, 0x04	; 4
     c90:	90 e0       	ldi	r25, 0x00	; 0
     c92:	0a c0       	rjmp	.+20     	; 0xca8 <vfprintf+0x548>
     c94:	f6 01       	movw	r30, r12
     c96:	80 81       	ld	r24, Z
     c98:	91 81       	ldd	r25, Z+1	; 0x01
     c9a:	9c 01       	movw	r18, r24
     c9c:	44 27       	eor	r20, r20
     c9e:	37 fd       	sbrc	r19, 7
     ca0:	40 95       	com	r20
     ca2:	54 2f       	mov	r21, r20
     ca4:	82 e0       	ldi	r24, 0x02	; 2
     ca6:	90 e0       	ldi	r25, 0x00	; 0
     ca8:	c8 0e       	add	r12, r24
     caa:	d9 1e       	adc	r13, r25
     cac:	9f e6       	ldi	r25, 0x6F	; 111
     cae:	f9 2e       	mov	r15, r25
     cb0:	f1 22       	and	r15, r17
     cb2:	57 ff       	sbrs	r21, 7
     cb4:	09 c0       	rjmp	.+18     	; 0xcc8 <vfprintf+0x568>
     cb6:	50 95       	com	r21
     cb8:	40 95       	com	r20
     cba:	30 95       	com	r19
     cbc:	21 95       	neg	r18
     cbe:	3f 4f       	sbci	r19, 0xFF	; 255
     cc0:	4f 4f       	sbci	r20, 0xFF	; 255
     cc2:	5f 4f       	sbci	r21, 0xFF	; 255
     cc4:	90 e8       	ldi	r25, 0x80	; 128
     cc6:	f9 2a       	or	r15, r25
     cc8:	ca 01       	movw	r24, r20
     cca:	b9 01       	movw	r22, r18
     ccc:	ae 01       	movw	r20, r28
     cce:	4f 5f       	subi	r20, 0xFF	; 255
     cd0:	5f 4f       	sbci	r21, 0xFF	; 255
     cd2:	2a e0       	ldi	r18, 0x0A	; 10
     cd4:	30 e0       	ldi	r19, 0x00	; 0
     cd6:	0e 94 3d 09 	call	0x127a	; 0x127a <__ultoa_invert>
     cda:	e8 2e       	mov	r14, r24
     cdc:	e8 89       	ldd	r30, Y+16	; 0x10
     cde:	ee 1a       	sub	r14, r30
     ce0:	41 c0       	rjmp	.+130    	; 0xd64 <vfprintf+0x604>
     ce2:	95 37       	cpi	r25, 0x75	; 117
     ce4:	21 f4       	brne	.+8      	; 0xcee <vfprintf+0x58e>
     ce6:	1f 7e       	andi	r17, 0xEF	; 239
     ce8:	2a e0       	ldi	r18, 0x0A	; 10
     cea:	30 e0       	ldi	r19, 0x00	; 0
     cec:	1c c0       	rjmp	.+56     	; 0xd26 <vfprintf+0x5c6>
     cee:	19 7f       	andi	r17, 0xF9	; 249
     cf0:	9f 36       	cpi	r25, 0x6F	; 111
     cf2:	61 f0       	breq	.+24     	; 0xd0c <vfprintf+0x5ac>
     cf4:	90 37       	cpi	r25, 0x70	; 112
     cf6:	20 f4       	brcc	.+8      	; 0xd00 <vfprintf+0x5a0>
     cf8:	98 35       	cpi	r25, 0x58	; 88
     cfa:	09 f0       	breq	.+2      	; 0xcfe <vfprintf+0x59e>
     cfc:	b2 c0       	rjmp	.+356    	; 0xe62 <vfprintf+0x702>
     cfe:	0f c0       	rjmp	.+30     	; 0xd1e <vfprintf+0x5be>
     d00:	90 37       	cpi	r25, 0x70	; 112
     d02:	39 f0       	breq	.+14     	; 0xd12 <vfprintf+0x5b2>
     d04:	98 37       	cpi	r25, 0x78	; 120
     d06:	09 f0       	breq	.+2      	; 0xd0a <vfprintf+0x5aa>
     d08:	ac c0       	rjmp	.+344    	; 0xe62 <vfprintf+0x702>
     d0a:	04 c0       	rjmp	.+8      	; 0xd14 <vfprintf+0x5b4>
     d0c:	28 e0       	ldi	r18, 0x08	; 8
     d0e:	30 e0       	ldi	r19, 0x00	; 0
     d10:	0a c0       	rjmp	.+20     	; 0xd26 <vfprintf+0x5c6>
     d12:	10 61       	ori	r17, 0x10	; 16
     d14:	14 fd       	sbrc	r17, 4
     d16:	14 60       	ori	r17, 0x04	; 4
     d18:	20 e1       	ldi	r18, 0x10	; 16
     d1a:	30 e0       	ldi	r19, 0x00	; 0
     d1c:	04 c0       	rjmp	.+8      	; 0xd26 <vfprintf+0x5c6>
     d1e:	14 fd       	sbrc	r17, 4
     d20:	16 60       	ori	r17, 0x06	; 6
     d22:	20 e1       	ldi	r18, 0x10	; 16
     d24:	32 e0       	ldi	r19, 0x02	; 2
     d26:	17 ff       	sbrs	r17, 7
     d28:	08 c0       	rjmp	.+16     	; 0xd3a <vfprintf+0x5da>
     d2a:	f6 01       	movw	r30, r12
     d2c:	60 81       	ld	r22, Z
     d2e:	71 81       	ldd	r23, Z+1	; 0x01
     d30:	82 81       	ldd	r24, Z+2	; 0x02
     d32:	93 81       	ldd	r25, Z+3	; 0x03
     d34:	44 e0       	ldi	r20, 0x04	; 4
     d36:	50 e0       	ldi	r21, 0x00	; 0
     d38:	08 c0       	rjmp	.+16     	; 0xd4a <vfprintf+0x5ea>
     d3a:	f6 01       	movw	r30, r12
     d3c:	80 81       	ld	r24, Z
     d3e:	91 81       	ldd	r25, Z+1	; 0x01
     d40:	bc 01       	movw	r22, r24
     d42:	80 e0       	ldi	r24, 0x00	; 0
     d44:	90 e0       	ldi	r25, 0x00	; 0
     d46:	42 e0       	ldi	r20, 0x02	; 2
     d48:	50 e0       	ldi	r21, 0x00	; 0
     d4a:	c4 0e       	add	r12, r20
     d4c:	d5 1e       	adc	r13, r21
     d4e:	ae 01       	movw	r20, r28
     d50:	4f 5f       	subi	r20, 0xFF	; 255
     d52:	5f 4f       	sbci	r21, 0xFF	; 255
     d54:	0e 94 3d 09 	call	0x127a	; 0x127a <__ultoa_invert>
     d58:	e8 2e       	mov	r14, r24
     d5a:	58 89       	ldd	r21, Y+16	; 0x10
     d5c:	e5 1a       	sub	r14, r21
     d5e:	8f e7       	ldi	r24, 0x7F	; 127
     d60:	f8 2e       	mov	r15, r24
     d62:	f1 22       	and	r15, r17
     d64:	f6 fe       	sbrs	r15, 6
     d66:	0b c0       	rjmp	.+22     	; 0xd7e <vfprintf+0x61e>
     d68:	8e ef       	ldi	r24, 0xFE	; 254
     d6a:	f8 22       	and	r15, r24
     d6c:	e9 14       	cp	r14, r9
     d6e:	38 f4       	brcc	.+14     	; 0xd7e <vfprintf+0x61e>
     d70:	f4 fe       	sbrs	r15, 4
     d72:	07 c0       	rjmp	.+14     	; 0xd82 <vfprintf+0x622>
     d74:	f2 fc       	sbrc	r15, 2
     d76:	05 c0       	rjmp	.+10     	; 0xd82 <vfprintf+0x622>
     d78:	9f ee       	ldi	r25, 0xEF	; 239
     d7a:	f9 22       	and	r15, r25
     d7c:	02 c0       	rjmp	.+4      	; 0xd82 <vfprintf+0x622>
     d7e:	1e 2d       	mov	r17, r14
     d80:	01 c0       	rjmp	.+2      	; 0xd84 <vfprintf+0x624>
     d82:	19 2d       	mov	r17, r9
     d84:	f4 fe       	sbrs	r15, 4
     d86:	0d c0       	rjmp	.+26     	; 0xda2 <vfprintf+0x642>
     d88:	fe 01       	movw	r30, r28
     d8a:	ee 0d       	add	r30, r14
     d8c:	f1 1d       	adc	r31, r1
     d8e:	80 81       	ld	r24, Z
     d90:	80 33       	cpi	r24, 0x30	; 48
     d92:	19 f4       	brne	.+6      	; 0xd9a <vfprintf+0x63a>
     d94:	e9 ee       	ldi	r30, 0xE9	; 233
     d96:	fe 22       	and	r15, r30
     d98:	08 c0       	rjmp	.+16     	; 0xdaa <vfprintf+0x64a>
     d9a:	1f 5f       	subi	r17, 0xFF	; 255
     d9c:	f2 fe       	sbrs	r15, 2
     d9e:	05 c0       	rjmp	.+10     	; 0xdaa <vfprintf+0x64a>
     da0:	03 c0       	rjmp	.+6      	; 0xda8 <vfprintf+0x648>
     da2:	8f 2d       	mov	r24, r15
     da4:	86 78       	andi	r24, 0x86	; 134
     da6:	09 f0       	breq	.+2      	; 0xdaa <vfprintf+0x64a>
     da8:	1f 5f       	subi	r17, 0xFF	; 255
     daa:	0f 2d       	mov	r16, r15
     dac:	f3 fc       	sbrc	r15, 3
     dae:	14 c0       	rjmp	.+40     	; 0xdd8 <vfprintf+0x678>
     db0:	f0 fe       	sbrs	r15, 0
     db2:	0f c0       	rjmp	.+30     	; 0xdd2 <vfprintf+0x672>
     db4:	18 15       	cp	r17, r8
     db6:	10 f0       	brcs	.+4      	; 0xdbc <vfprintf+0x65c>
     db8:	9e 2c       	mov	r9, r14
     dba:	0b c0       	rjmp	.+22     	; 0xdd2 <vfprintf+0x672>
     dbc:	9e 2c       	mov	r9, r14
     dbe:	98 0c       	add	r9, r8
     dc0:	91 1a       	sub	r9, r17
     dc2:	18 2d       	mov	r17, r8
     dc4:	06 c0       	rjmp	.+12     	; 0xdd2 <vfprintf+0x672>
     dc6:	80 e2       	ldi	r24, 0x20	; 32
     dc8:	90 e0       	ldi	r25, 0x00	; 0
     dca:	b3 01       	movw	r22, r6
     dcc:	0e 94 99 08 	call	0x1132	; 0x1132 <fputc>
     dd0:	1f 5f       	subi	r17, 0xFF	; 255
     dd2:	18 15       	cp	r17, r8
     dd4:	c0 f3       	brcs	.-16     	; 0xdc6 <vfprintf+0x666>
     dd6:	04 c0       	rjmp	.+8      	; 0xde0 <vfprintf+0x680>
     dd8:	18 15       	cp	r17, r8
     dda:	10 f4       	brcc	.+4      	; 0xde0 <vfprintf+0x680>
     ddc:	81 1a       	sub	r8, r17
     dde:	01 c0       	rjmp	.+2      	; 0xde2 <vfprintf+0x682>
     de0:	88 24       	eor	r8, r8
     de2:	04 ff       	sbrs	r16, 4
     de4:	0f c0       	rjmp	.+30     	; 0xe04 <vfprintf+0x6a4>
     de6:	80 e3       	ldi	r24, 0x30	; 48
     de8:	90 e0       	ldi	r25, 0x00	; 0
     dea:	b3 01       	movw	r22, r6
     dec:	0e 94 99 08 	call	0x1132	; 0x1132 <fputc>
     df0:	02 ff       	sbrs	r16, 2
     df2:	1d c0       	rjmp	.+58     	; 0xe2e <vfprintf+0x6ce>
     df4:	01 fd       	sbrc	r16, 1
     df6:	03 c0       	rjmp	.+6      	; 0xdfe <vfprintf+0x69e>
     df8:	88 e7       	ldi	r24, 0x78	; 120
     dfa:	90 e0       	ldi	r25, 0x00	; 0
     dfc:	0e c0       	rjmp	.+28     	; 0xe1a <vfprintf+0x6ba>
     dfe:	88 e5       	ldi	r24, 0x58	; 88
     e00:	90 e0       	ldi	r25, 0x00	; 0
     e02:	0b c0       	rjmp	.+22     	; 0xe1a <vfprintf+0x6ba>
     e04:	80 2f       	mov	r24, r16
     e06:	86 78       	andi	r24, 0x86	; 134
     e08:	91 f0       	breq	.+36     	; 0xe2e <vfprintf+0x6ce>
     e0a:	01 ff       	sbrs	r16, 1
     e0c:	02 c0       	rjmp	.+4      	; 0xe12 <vfprintf+0x6b2>
     e0e:	8b e2       	ldi	r24, 0x2B	; 43
     e10:	01 c0       	rjmp	.+2      	; 0xe14 <vfprintf+0x6b4>
     e12:	80 e2       	ldi	r24, 0x20	; 32
     e14:	f7 fc       	sbrc	r15, 7
     e16:	8d e2       	ldi	r24, 0x2D	; 45
     e18:	90 e0       	ldi	r25, 0x00	; 0
     e1a:	b3 01       	movw	r22, r6
     e1c:	0e 94 99 08 	call	0x1132	; 0x1132 <fputc>
     e20:	06 c0       	rjmp	.+12     	; 0xe2e <vfprintf+0x6ce>
     e22:	80 e3       	ldi	r24, 0x30	; 48
     e24:	90 e0       	ldi	r25, 0x00	; 0
     e26:	b3 01       	movw	r22, r6
     e28:	0e 94 99 08 	call	0x1132	; 0x1132 <fputc>
     e2c:	9a 94       	dec	r9
     e2e:	e9 14       	cp	r14, r9
     e30:	c0 f3       	brcs	.-16     	; 0xe22 <vfprintf+0x6c2>
     e32:	ea 94       	dec	r14
     e34:	e1 e0       	ldi	r30, 0x01	; 1
     e36:	f0 e0       	ldi	r31, 0x00	; 0
     e38:	ec 0f       	add	r30, r28
     e3a:	fd 1f       	adc	r31, r29
     e3c:	ee 0d       	add	r30, r14
     e3e:	f1 1d       	adc	r31, r1
     e40:	80 81       	ld	r24, Z
     e42:	90 e0       	ldi	r25, 0x00	; 0
     e44:	b3 01       	movw	r22, r6
     e46:	0e 94 99 08 	call	0x1132	; 0x1132 <fputc>
     e4a:	ee 20       	and	r14, r14
     e4c:	91 f7       	brne	.-28     	; 0xe32 <vfprintf+0x6d2>
     e4e:	06 c0       	rjmp	.+12     	; 0xe5c <vfprintf+0x6fc>
     e50:	80 e2       	ldi	r24, 0x20	; 32
     e52:	90 e0       	ldi	r25, 0x00	; 0
     e54:	b3 01       	movw	r22, r6
     e56:	0e 94 99 08 	call	0x1132	; 0x1132 <fputc>
     e5a:	8a 94       	dec	r8
     e5c:	88 20       	and	r8, r8
     e5e:	c1 f7       	brne	.-16     	; 0xe50 <vfprintf+0x6f0>
     e60:	97 cc       	rjmp	.-1746   	; 0x790 <vfprintf+0x30>
     e62:	f3 01       	movw	r30, r6
     e64:	66 81       	ldd	r22, Z+6	; 0x06
     e66:	77 81       	ldd	r23, Z+7	; 0x07
     e68:	cb 01       	movw	r24, r22
     e6a:	61 96       	adiw	r28, 0x11	; 17
     e6c:	e2 e1       	ldi	r30, 0x12	; 18
     e6e:	0c 94 a8 53 	jmp	0xa750	; 0xa750 <__epilogue_restores__>

00000e72 <__ftoa_engine>:
     e72:	28 30       	cpi	r18, 0x08	; 8
     e74:	08 f0       	brcs	.+2      	; 0xe78 <__ftoa_engine+0x6>
     e76:	27 e0       	ldi	r18, 0x07	; 7
     e78:	33 27       	eor	r19, r19
     e7a:	da 01       	movw	r26, r20
     e7c:	99 0f       	add	r25, r25
     e7e:	31 1d       	adc	r19, r1
     e80:	87 fd       	sbrc	r24, 7
     e82:	91 60       	ori	r25, 0x01	; 1
     e84:	00 96       	adiw	r24, 0x00	; 0
     e86:	61 05       	cpc	r22, r1
     e88:	71 05       	cpc	r23, r1
     e8a:	39 f4       	brne	.+14     	; 0xe9a <__ftoa_engine+0x28>
     e8c:	32 60       	ori	r19, 0x02	; 2
     e8e:	2e 5f       	subi	r18, 0xFE	; 254
     e90:	3d 93       	st	X+, r19
     e92:	30 e3       	ldi	r19, 0x30	; 48
     e94:	2a 95       	dec	r18
     e96:	e1 f7       	brne	.-8      	; 0xe90 <__ftoa_engine+0x1e>
     e98:	08 95       	ret
     e9a:	9f 3f       	cpi	r25, 0xFF	; 255
     e9c:	30 f0       	brcs	.+12     	; 0xeaa <__ftoa_engine+0x38>
     e9e:	80 38       	cpi	r24, 0x80	; 128
     ea0:	71 05       	cpc	r23, r1
     ea2:	61 05       	cpc	r22, r1
     ea4:	09 f0       	breq	.+2      	; 0xea8 <__ftoa_engine+0x36>
     ea6:	3c 5f       	subi	r19, 0xFC	; 252
     ea8:	3c 5f       	subi	r19, 0xFC	; 252
     eaa:	3d 93       	st	X+, r19
     eac:	91 30       	cpi	r25, 0x01	; 1
     eae:	08 f0       	brcs	.+2      	; 0xeb2 <__ftoa_engine+0x40>
     eb0:	80 68       	ori	r24, 0x80	; 128
     eb2:	91 1d       	adc	r25, r1
     eb4:	df 93       	push	r29
     eb6:	cf 93       	push	r28
     eb8:	1f 93       	push	r17
     eba:	0f 93       	push	r16
     ebc:	ff 92       	push	r15
     ebe:	ef 92       	push	r14
     ec0:	19 2f       	mov	r17, r25
     ec2:	98 7f       	andi	r25, 0xF8	; 248
     ec4:	96 95       	lsr	r25
     ec6:	e9 2f       	mov	r30, r25
     ec8:	96 95       	lsr	r25
     eca:	96 95       	lsr	r25
     ecc:	e9 0f       	add	r30, r25
     ece:	ff 27       	eor	r31, r31
     ed0:	e8 5a       	subi	r30, 0xA8	; 168
     ed2:	fc 4f       	sbci	r31, 0xFC	; 252
     ed4:	99 27       	eor	r25, r25
     ed6:	33 27       	eor	r19, r19
     ed8:	ee 24       	eor	r14, r14
     eda:	ff 24       	eor	r15, r15
     edc:	a7 01       	movw	r20, r14
     ede:	e7 01       	movw	r28, r14
     ee0:	05 90       	lpm	r0, Z+
     ee2:	08 94       	sec
     ee4:	07 94       	ror	r0
     ee6:	28 f4       	brcc	.+10     	; 0xef2 <__ftoa_engine+0x80>
     ee8:	36 0f       	add	r19, r22
     eea:	e7 1e       	adc	r14, r23
     eec:	f8 1e       	adc	r15, r24
     eee:	49 1f       	adc	r20, r25
     ef0:	51 1d       	adc	r21, r1
     ef2:	66 0f       	add	r22, r22
     ef4:	77 1f       	adc	r23, r23
     ef6:	88 1f       	adc	r24, r24
     ef8:	99 1f       	adc	r25, r25
     efa:	06 94       	lsr	r0
     efc:	a1 f7       	brne	.-24     	; 0xee6 <__ftoa_engine+0x74>
     efe:	05 90       	lpm	r0, Z+
     f00:	07 94       	ror	r0
     f02:	28 f4       	brcc	.+10     	; 0xf0e <__ftoa_engine+0x9c>
     f04:	e7 0e       	add	r14, r23
     f06:	f8 1e       	adc	r15, r24
     f08:	49 1f       	adc	r20, r25
     f0a:	56 1f       	adc	r21, r22
     f0c:	c1 1d       	adc	r28, r1
     f0e:	77 0f       	add	r23, r23
     f10:	88 1f       	adc	r24, r24
     f12:	99 1f       	adc	r25, r25
     f14:	66 1f       	adc	r22, r22
     f16:	06 94       	lsr	r0
     f18:	a1 f7       	brne	.-24     	; 0xf02 <__ftoa_engine+0x90>
     f1a:	05 90       	lpm	r0, Z+
     f1c:	07 94       	ror	r0
     f1e:	28 f4       	brcc	.+10     	; 0xf2a <__ftoa_engine+0xb8>
     f20:	f8 0e       	add	r15, r24
     f22:	49 1f       	adc	r20, r25
     f24:	56 1f       	adc	r21, r22
     f26:	c7 1f       	adc	r28, r23
     f28:	d1 1d       	adc	r29, r1
     f2a:	88 0f       	add	r24, r24
     f2c:	99 1f       	adc	r25, r25
     f2e:	66 1f       	adc	r22, r22
     f30:	77 1f       	adc	r23, r23
     f32:	06 94       	lsr	r0
     f34:	a1 f7       	brne	.-24     	; 0xf1e <__ftoa_engine+0xac>
     f36:	05 90       	lpm	r0, Z+
     f38:	07 94       	ror	r0
     f3a:	20 f4       	brcc	.+8      	; 0xf44 <__ftoa_engine+0xd2>
     f3c:	49 0f       	add	r20, r25
     f3e:	56 1f       	adc	r21, r22
     f40:	c7 1f       	adc	r28, r23
     f42:	d8 1f       	adc	r29, r24
     f44:	99 0f       	add	r25, r25
     f46:	66 1f       	adc	r22, r22
     f48:	77 1f       	adc	r23, r23
     f4a:	88 1f       	adc	r24, r24
     f4c:	06 94       	lsr	r0
     f4e:	a9 f7       	brne	.-22     	; 0xf3a <__ftoa_engine+0xc8>
     f50:	84 91       	lpm	r24, Z+
     f52:	10 95       	com	r17
     f54:	17 70       	andi	r17, 0x07	; 7
     f56:	41 f0       	breq	.+16     	; 0xf68 <__ftoa_engine+0xf6>
     f58:	d6 95       	lsr	r29
     f5a:	c7 95       	ror	r28
     f5c:	57 95       	ror	r21
     f5e:	47 95       	ror	r20
     f60:	f7 94       	ror	r15
     f62:	e7 94       	ror	r14
     f64:	1a 95       	dec	r17
     f66:	c1 f7       	brne	.-16     	; 0xf58 <__ftoa_engine+0xe6>
     f68:	ee ef       	ldi	r30, 0xFE	; 254
     f6a:	f2 e0       	ldi	r31, 0x02	; 2
     f6c:	68 94       	set
     f6e:	15 90       	lpm	r1, Z+
     f70:	15 91       	lpm	r17, Z+
     f72:	35 91       	lpm	r19, Z+
     f74:	65 91       	lpm	r22, Z+
     f76:	95 91       	lpm	r25, Z+
     f78:	05 90       	lpm	r0, Z+
     f7a:	7f e2       	ldi	r23, 0x2F	; 47
     f7c:	73 95       	inc	r23
     f7e:	e1 18       	sub	r14, r1
     f80:	f1 0a       	sbc	r15, r17
     f82:	43 0b       	sbc	r20, r19
     f84:	56 0b       	sbc	r21, r22
     f86:	c9 0b       	sbc	r28, r25
     f88:	d0 09       	sbc	r29, r0
     f8a:	c0 f7       	brcc	.-16     	; 0xf7c <__ftoa_engine+0x10a>
     f8c:	e1 0c       	add	r14, r1
     f8e:	f1 1e       	adc	r15, r17
     f90:	43 1f       	adc	r20, r19
     f92:	56 1f       	adc	r21, r22
     f94:	c9 1f       	adc	r28, r25
     f96:	d0 1d       	adc	r29, r0
     f98:	7e f4       	brtc	.+30     	; 0xfb8 <__ftoa_engine+0x146>
     f9a:	70 33       	cpi	r23, 0x30	; 48
     f9c:	11 f4       	brne	.+4      	; 0xfa2 <__ftoa_engine+0x130>
     f9e:	8a 95       	dec	r24
     fa0:	e6 cf       	rjmp	.-52     	; 0xf6e <__ftoa_engine+0xfc>
     fa2:	e8 94       	clt
     fa4:	01 50       	subi	r16, 0x01	; 1
     fa6:	30 f0       	brcs	.+12     	; 0xfb4 <__ftoa_engine+0x142>
     fa8:	08 0f       	add	r16, r24
     faa:	0a f4       	brpl	.+2      	; 0xfae <__ftoa_engine+0x13c>
     fac:	00 27       	eor	r16, r16
     fae:	02 17       	cp	r16, r18
     fb0:	08 f4       	brcc	.+2      	; 0xfb4 <__ftoa_engine+0x142>
     fb2:	20 2f       	mov	r18, r16
     fb4:	23 95       	inc	r18
     fb6:	02 2f       	mov	r16, r18
     fb8:	7a 33       	cpi	r23, 0x3A	; 58
     fba:	28 f0       	brcs	.+10     	; 0xfc6 <__ftoa_engine+0x154>
     fbc:	79 e3       	ldi	r23, 0x39	; 57
     fbe:	7d 93       	st	X+, r23
     fc0:	2a 95       	dec	r18
     fc2:	e9 f7       	brne	.-6      	; 0xfbe <__ftoa_engine+0x14c>
     fc4:	10 c0       	rjmp	.+32     	; 0xfe6 <__ftoa_engine+0x174>
     fc6:	7d 93       	st	X+, r23
     fc8:	2a 95       	dec	r18
     fca:	89 f6       	brne	.-94     	; 0xf6e <__ftoa_engine+0xfc>
     fcc:	06 94       	lsr	r0
     fce:	97 95       	ror	r25
     fd0:	67 95       	ror	r22
     fd2:	37 95       	ror	r19
     fd4:	17 95       	ror	r17
     fd6:	17 94       	ror	r1
     fd8:	e1 18       	sub	r14, r1
     fda:	f1 0a       	sbc	r15, r17
     fdc:	43 0b       	sbc	r20, r19
     fde:	56 0b       	sbc	r21, r22
     fe0:	c9 0b       	sbc	r28, r25
     fe2:	d0 09       	sbc	r29, r0
     fe4:	98 f0       	brcs	.+38     	; 0x100c <__ftoa_engine+0x19a>
     fe6:	23 95       	inc	r18
     fe8:	7e 91       	ld	r23, -X
     fea:	73 95       	inc	r23
     fec:	7a 33       	cpi	r23, 0x3A	; 58
     fee:	08 f0       	brcs	.+2      	; 0xff2 <__ftoa_engine+0x180>
     ff0:	70 e3       	ldi	r23, 0x30	; 48
     ff2:	7c 93       	st	X, r23
     ff4:	20 13       	cpse	r18, r16
     ff6:	b8 f7       	brcc	.-18     	; 0xfe6 <__ftoa_engine+0x174>
     ff8:	7e 91       	ld	r23, -X
     ffa:	70 61       	ori	r23, 0x10	; 16
     ffc:	7d 93       	st	X+, r23
     ffe:	30 f0       	brcs	.+12     	; 0x100c <__ftoa_engine+0x19a>
    1000:	83 95       	inc	r24
    1002:	71 e3       	ldi	r23, 0x31	; 49
    1004:	7d 93       	st	X+, r23
    1006:	70 e3       	ldi	r23, 0x30	; 48
    1008:	2a 95       	dec	r18
    100a:	e1 f7       	brne	.-8      	; 0x1004 <__ftoa_engine+0x192>
    100c:	11 24       	eor	r1, r1
    100e:	ef 90       	pop	r14
    1010:	ff 90       	pop	r15
    1012:	0f 91       	pop	r16
    1014:	1f 91       	pop	r17
    1016:	cf 91       	pop	r28
    1018:	df 91       	pop	r29
    101a:	99 27       	eor	r25, r25
    101c:	87 fd       	sbrc	r24, 7
    101e:	90 95       	com	r25
    1020:	08 95       	ret

00001022 <strlen_P>:
    1022:	fc 01       	movw	r30, r24
    1024:	05 90       	lpm	r0, Z+
    1026:	00 20       	and	r0, r0
    1028:	e9 f7       	brne	.-6      	; 0x1024 <strlen_P+0x2>
    102a:	80 95       	com	r24
    102c:	90 95       	com	r25
    102e:	8e 0f       	add	r24, r30
    1030:	9f 1f       	adc	r25, r31
    1032:	08 95       	ret

00001034 <strnlen_P>:
    1034:	fc 01       	movw	r30, r24
    1036:	05 90       	lpm	r0, Z+
    1038:	61 50       	subi	r22, 0x01	; 1
    103a:	70 40       	sbci	r23, 0x00	; 0
    103c:	01 10       	cpse	r0, r1
    103e:	d8 f7       	brcc	.-10     	; 0x1036 <strnlen_P+0x2>
    1040:	80 95       	com	r24
    1042:	90 95       	com	r25
    1044:	8e 0f       	add	r24, r30
    1046:	9f 1f       	adc	r25, r31
    1048:	08 95       	ret

0000104a <memcpy>:
    104a:	fb 01       	movw	r30, r22
    104c:	dc 01       	movw	r26, r24
    104e:	02 c0       	rjmp	.+4      	; 0x1054 <memcpy+0xa>
    1050:	01 90       	ld	r0, Z+
    1052:	0d 92       	st	X+, r0
    1054:	41 50       	subi	r20, 0x01	; 1
    1056:	50 40       	sbci	r21, 0x00	; 0
    1058:	d8 f7       	brcc	.-10     	; 0x1050 <memcpy+0x6>
    105a:	08 95       	ret

0000105c <memset>:
    105c:	dc 01       	movw	r26, r24
    105e:	01 c0       	rjmp	.+2      	; 0x1062 <memset+0x6>
    1060:	6d 93       	st	X+, r22
    1062:	41 50       	subi	r20, 0x01	; 1
    1064:	50 40       	sbci	r21, 0x00	; 0
    1066:	e0 f7       	brcc	.-8      	; 0x1060 <memset+0x4>
    1068:	08 95       	ret

0000106a <strcat>:
    106a:	fb 01       	movw	r30, r22
    106c:	dc 01       	movw	r26, r24
    106e:	0d 90       	ld	r0, X+
    1070:	00 20       	and	r0, r0
    1072:	e9 f7       	brne	.-6      	; 0x106e <strcat+0x4>
    1074:	11 97       	sbiw	r26, 0x01	; 1
    1076:	01 90       	ld	r0, Z+
    1078:	0d 92       	st	X+, r0
    107a:	00 20       	and	r0, r0
    107c:	e1 f7       	brne	.-8      	; 0x1076 <strcat+0xc>
    107e:	08 95       	ret

00001080 <strcpy>:
    1080:	fb 01       	movw	r30, r22
    1082:	dc 01       	movw	r26, r24
    1084:	01 90       	ld	r0, Z+
    1086:	0d 92       	st	X+, r0
    1088:	00 20       	and	r0, r0
    108a:	e1 f7       	brne	.-8      	; 0x1084 <strcpy+0x4>
    108c:	08 95       	ret

0000108e <strncat>:
    108e:	fb 01       	movw	r30, r22
    1090:	dc 01       	movw	r26, r24
    1092:	0d 90       	ld	r0, X+
    1094:	00 20       	and	r0, r0
    1096:	e9 f7       	brne	.-6      	; 0x1092 <strncat+0x4>
    1098:	11 97       	sbiw	r26, 0x01	; 1
    109a:	41 50       	subi	r20, 0x01	; 1
    109c:	50 40       	sbci	r21, 0x00	; 0
    109e:	28 f0       	brcs	.+10     	; 0x10aa <strncat+0x1c>
    10a0:	01 90       	ld	r0, Z+
    10a2:	00 20       	and	r0, r0
    10a4:	0d 92       	st	X+, r0
    10a6:	c9 f7       	brne	.-14     	; 0x109a <strncat+0xc>
    10a8:	08 95       	ret
    10aa:	1c 92       	st	X, r1
    10ac:	08 95       	ret

000010ae <strncmp>:
    10ae:	fb 01       	movw	r30, r22
    10b0:	dc 01       	movw	r26, r24
    10b2:	41 50       	subi	r20, 0x01	; 1
    10b4:	50 40       	sbci	r21, 0x00	; 0
    10b6:	30 f0       	brcs	.+12     	; 0x10c4 <strncmp+0x16>
    10b8:	8d 91       	ld	r24, X+
    10ba:	01 90       	ld	r0, Z+
    10bc:	80 19       	sub	r24, r0
    10be:	19 f4       	brne	.+6      	; 0x10c6 <strncmp+0x18>
    10c0:	00 20       	and	r0, r0
    10c2:	b9 f7       	brne	.-18     	; 0x10b2 <strncmp+0x4>
    10c4:	88 1b       	sub	r24, r24
    10c6:	99 0b       	sbc	r25, r25
    10c8:	08 95       	ret

000010ca <strncpy>:
    10ca:	fb 01       	movw	r30, r22
    10cc:	dc 01       	movw	r26, r24
    10ce:	41 50       	subi	r20, 0x01	; 1
    10d0:	50 40       	sbci	r21, 0x00	; 0
    10d2:	48 f0       	brcs	.+18     	; 0x10e6 <strncpy+0x1c>
    10d4:	01 90       	ld	r0, Z+
    10d6:	0d 92       	st	X+, r0
    10d8:	00 20       	and	r0, r0
    10da:	c9 f7       	brne	.-14     	; 0x10ce <strncpy+0x4>
    10dc:	01 c0       	rjmp	.+2      	; 0x10e0 <strncpy+0x16>
    10de:	1d 92       	st	X+, r1
    10e0:	41 50       	subi	r20, 0x01	; 1
    10e2:	50 40       	sbci	r21, 0x00	; 0
    10e4:	e0 f7       	brcc	.-8      	; 0x10de <strncpy+0x14>
    10e6:	08 95       	ret

000010e8 <strnlen>:
    10e8:	fc 01       	movw	r30, r24
    10ea:	61 50       	subi	r22, 0x01	; 1
    10ec:	70 40       	sbci	r23, 0x00	; 0
    10ee:	01 90       	ld	r0, Z+
    10f0:	01 10       	cpse	r0, r1
    10f2:	d8 f7       	brcc	.-10     	; 0x10ea <strnlen+0x2>
    10f4:	80 95       	com	r24
    10f6:	90 95       	com	r25
    10f8:	8e 0f       	add	r24, r30
    10fa:	9f 1f       	adc	r25, r31
    10fc:	08 95       	ret

000010fe <strstr>:
    10fe:	fb 01       	movw	r30, r22
    1100:	51 91       	ld	r21, Z+
    1102:	55 23       	and	r21, r21
    1104:	a9 f0       	breq	.+42     	; 0x1130 <strstr+0x32>
    1106:	bf 01       	movw	r22, r30
    1108:	dc 01       	movw	r26, r24
    110a:	4d 91       	ld	r20, X+
    110c:	45 17       	cp	r20, r21
    110e:	41 11       	cpse	r20, r1
    1110:	e1 f7       	brne	.-8      	; 0x110a <strstr+0xc>
    1112:	59 f4       	brne	.+22     	; 0x112a <strstr+0x2c>
    1114:	cd 01       	movw	r24, r26
    1116:	01 90       	ld	r0, Z+
    1118:	00 20       	and	r0, r0
    111a:	49 f0       	breq	.+18     	; 0x112e <strstr+0x30>
    111c:	4d 91       	ld	r20, X+
    111e:	40 15       	cp	r20, r0
    1120:	41 11       	cpse	r20, r1
    1122:	c9 f3       	breq	.-14     	; 0x1116 <strstr+0x18>
    1124:	fb 01       	movw	r30, r22
    1126:	41 11       	cpse	r20, r1
    1128:	ef cf       	rjmp	.-34     	; 0x1108 <strstr+0xa>
    112a:	81 e0       	ldi	r24, 0x01	; 1
    112c:	90 e0       	ldi	r25, 0x00	; 0
    112e:	01 97       	sbiw	r24, 0x01	; 1
    1130:	08 95       	ret

00001132 <fputc>:
    1132:	0f 93       	push	r16
    1134:	1f 93       	push	r17
    1136:	cf 93       	push	r28
    1138:	df 93       	push	r29
    113a:	8c 01       	movw	r16, r24
    113c:	eb 01       	movw	r28, r22
    113e:	8b 81       	ldd	r24, Y+3	; 0x03
    1140:	81 ff       	sbrs	r24, 1
    1142:	1b c0       	rjmp	.+54     	; 0x117a <fputc+0x48>
    1144:	82 ff       	sbrs	r24, 2
    1146:	0d c0       	rjmp	.+26     	; 0x1162 <fputc+0x30>
    1148:	2e 81       	ldd	r18, Y+6	; 0x06
    114a:	3f 81       	ldd	r19, Y+7	; 0x07
    114c:	8c 81       	ldd	r24, Y+4	; 0x04
    114e:	9d 81       	ldd	r25, Y+5	; 0x05
    1150:	28 17       	cp	r18, r24
    1152:	39 07       	cpc	r19, r25
    1154:	64 f4       	brge	.+24     	; 0x116e <fputc+0x3c>
    1156:	e8 81       	ld	r30, Y
    1158:	f9 81       	ldd	r31, Y+1	; 0x01
    115a:	01 93       	st	Z+, r16
    115c:	f9 83       	std	Y+1, r31	; 0x01
    115e:	e8 83       	st	Y, r30
    1160:	06 c0       	rjmp	.+12     	; 0x116e <fputc+0x3c>
    1162:	e8 85       	ldd	r30, Y+8	; 0x08
    1164:	f9 85       	ldd	r31, Y+9	; 0x09
    1166:	80 2f       	mov	r24, r16
    1168:	19 95       	eicall
    116a:	89 2b       	or	r24, r25
    116c:	31 f4       	brne	.+12     	; 0x117a <fputc+0x48>
    116e:	8e 81       	ldd	r24, Y+6	; 0x06
    1170:	9f 81       	ldd	r25, Y+7	; 0x07
    1172:	01 96       	adiw	r24, 0x01	; 1
    1174:	9f 83       	std	Y+7, r25	; 0x07
    1176:	8e 83       	std	Y+6, r24	; 0x06
    1178:	02 c0       	rjmp	.+4      	; 0x117e <fputc+0x4c>
    117a:	0f ef       	ldi	r16, 0xFF	; 255
    117c:	1f ef       	ldi	r17, 0xFF	; 255
    117e:	c8 01       	movw	r24, r16
    1180:	df 91       	pop	r29
    1182:	cf 91       	pop	r28
    1184:	1f 91       	pop	r17
    1186:	0f 91       	pop	r16
    1188:	08 95       	ret

0000118a <sprintf>:
    118a:	ae e0       	ldi	r26, 0x0E	; 14
    118c:	b0 e0       	ldi	r27, 0x00	; 0
    118e:	eb ec       	ldi	r30, 0xCB	; 203
    1190:	f8 e0       	ldi	r31, 0x08	; 8
    1192:	0c 94 9a 53 	jmp	0xa734	; 0xa734 <__prologue_saves__+0x1c>
    1196:	0e 89       	ldd	r16, Y+22	; 0x16
    1198:	1f 89       	ldd	r17, Y+23	; 0x17
    119a:	86 e0       	ldi	r24, 0x06	; 6
    119c:	8c 83       	std	Y+4, r24	; 0x04
    119e:	1a 83       	std	Y+2, r17	; 0x02
    11a0:	09 83       	std	Y+1, r16	; 0x01
    11a2:	8f ef       	ldi	r24, 0xFF	; 255
    11a4:	9f e7       	ldi	r25, 0x7F	; 127
    11a6:	9e 83       	std	Y+6, r25	; 0x06
    11a8:	8d 83       	std	Y+5, r24	; 0x05
    11aa:	9e 01       	movw	r18, r28
    11ac:	26 5e       	subi	r18, 0xE6	; 230
    11ae:	3f 4f       	sbci	r19, 0xFF	; 255
    11b0:	ce 01       	movw	r24, r28
    11b2:	01 96       	adiw	r24, 0x01	; 1
    11b4:	68 8d       	ldd	r22, Y+24	; 0x18
    11b6:	79 8d       	ldd	r23, Y+25	; 0x19
    11b8:	a9 01       	movw	r20, r18
    11ba:	0e 94 b0 03 	call	0x760	; 0x760 <vfprintf>
    11be:	2f 81       	ldd	r18, Y+7	; 0x07
    11c0:	38 85       	ldd	r19, Y+8	; 0x08
    11c2:	02 0f       	add	r16, r18
    11c4:	13 1f       	adc	r17, r19
    11c6:	f8 01       	movw	r30, r16
    11c8:	10 82       	st	Z, r1
    11ca:	2e 96       	adiw	r28, 0x0e	; 14
    11cc:	e4 e0       	ldi	r30, 0x04	; 4
    11ce:	0c 94 b6 53 	jmp	0xa76c	; 0xa76c <__epilogue_restores__+0x1c>

000011d2 <vsnprintf>:
    11d2:	ae e0       	ldi	r26, 0x0E	; 14
    11d4:	b0 e0       	ldi	r27, 0x00	; 0
    11d6:	ef ee       	ldi	r30, 0xEF	; 239
    11d8:	f8 e0       	ldi	r31, 0x08	; 8
    11da:	0c 94 9a 53 	jmp	0xa734	; 0xa734 <__prologue_saves__+0x1c>
    11de:	8c 01       	movw	r16, r24
    11e0:	77 ff       	sbrs	r23, 7
    11e2:	02 c0       	rjmp	.+4      	; 0x11e8 <vsnprintf+0x16>
    11e4:	60 e0       	ldi	r22, 0x00	; 0
    11e6:	70 e8       	ldi	r23, 0x80	; 128
    11e8:	61 50       	subi	r22, 0x01	; 1
    11ea:	70 40       	sbci	r23, 0x00	; 0
    11ec:	7e 83       	std	Y+6, r23	; 0x06
    11ee:	6d 83       	std	Y+5, r22	; 0x05
    11f0:	1a 83       	std	Y+2, r17	; 0x02
    11f2:	09 83       	std	Y+1, r16	; 0x01
    11f4:	86 e0       	ldi	r24, 0x06	; 6
    11f6:	8c 83       	std	Y+4, r24	; 0x04
    11f8:	ce 01       	movw	r24, r28
    11fa:	01 96       	adiw	r24, 0x01	; 1
    11fc:	ba 01       	movw	r22, r20
    11fe:	a9 01       	movw	r20, r18
    1200:	0e 94 b0 03 	call	0x760	; 0x760 <vfprintf>
    1204:	2d 81       	ldd	r18, Y+5	; 0x05
    1206:	3e 81       	ldd	r19, Y+6	; 0x06
    1208:	37 fd       	sbrc	r19, 7
    120a:	09 c0       	rjmp	.+18     	; 0x121e <vsnprintf+0x4c>
    120c:	ef 81       	ldd	r30, Y+7	; 0x07
    120e:	f8 85       	ldd	r31, Y+8	; 0x08
    1210:	2e 17       	cp	r18, r30
    1212:	3f 07       	cpc	r19, r31
    1214:	0c f4       	brge	.+2      	; 0x1218 <vsnprintf+0x46>
    1216:	f9 01       	movw	r30, r18
    1218:	e0 0f       	add	r30, r16
    121a:	f1 1f       	adc	r31, r17
    121c:	10 82       	st	Z, r1
    121e:	2e 96       	adiw	r28, 0x0e	; 14
    1220:	e4 e0       	ldi	r30, 0x04	; 4
    1222:	0c 94 b6 53 	jmp	0xa76c	; 0xa76c <__epilogue_restores__+0x1c>

00001226 <vsnprintf_P>:
    1226:	ae e0       	ldi	r26, 0x0E	; 14
    1228:	b0 e0       	ldi	r27, 0x00	; 0
    122a:	e9 e1       	ldi	r30, 0x19	; 25
    122c:	f9 e0       	ldi	r31, 0x09	; 9
    122e:	0c 94 9a 53 	jmp	0xa734	; 0xa734 <__prologue_saves__+0x1c>
    1232:	8c 01       	movw	r16, r24
    1234:	77 ff       	sbrs	r23, 7
    1236:	02 c0       	rjmp	.+4      	; 0x123c <vsnprintf_P+0x16>
    1238:	60 e0       	ldi	r22, 0x00	; 0
    123a:	70 e8       	ldi	r23, 0x80	; 128
    123c:	61 50       	subi	r22, 0x01	; 1
    123e:	70 40       	sbci	r23, 0x00	; 0
    1240:	7e 83       	std	Y+6, r23	; 0x06
    1242:	6d 83       	std	Y+5, r22	; 0x05
    1244:	1a 83       	std	Y+2, r17	; 0x02
    1246:	09 83       	std	Y+1, r16	; 0x01
    1248:	8e e0       	ldi	r24, 0x0E	; 14
    124a:	8c 83       	std	Y+4, r24	; 0x04
    124c:	ce 01       	movw	r24, r28
    124e:	01 96       	adiw	r24, 0x01	; 1
    1250:	ba 01       	movw	r22, r20
    1252:	a9 01       	movw	r20, r18
    1254:	0e 94 b0 03 	call	0x760	; 0x760 <vfprintf>
    1258:	2d 81       	ldd	r18, Y+5	; 0x05
    125a:	3e 81       	ldd	r19, Y+6	; 0x06
    125c:	37 fd       	sbrc	r19, 7
    125e:	09 c0       	rjmp	.+18     	; 0x1272 <vsnprintf_P+0x4c>
    1260:	ef 81       	ldd	r30, Y+7	; 0x07
    1262:	f8 85       	ldd	r31, Y+8	; 0x08
    1264:	2e 17       	cp	r18, r30
    1266:	3f 07       	cpc	r19, r31
    1268:	0c f4       	brge	.+2      	; 0x126c <vsnprintf_P+0x46>
    126a:	f9 01       	movw	r30, r18
    126c:	e0 0f       	add	r30, r16
    126e:	f1 1f       	adc	r31, r17
    1270:	10 82       	st	Z, r1
    1272:	2e 96       	adiw	r28, 0x0e	; 14
    1274:	e4 e0       	ldi	r30, 0x04	; 4
    1276:	0c 94 b6 53 	jmp	0xa76c	; 0xa76c <__epilogue_restores__+0x1c>

0000127a <__ultoa_invert>:
    127a:	fa 01       	movw	r30, r20
    127c:	aa 27       	eor	r26, r26
    127e:	28 30       	cpi	r18, 0x08	; 8
    1280:	51 f1       	breq	.+84     	; 0x12d6 <__ultoa_invert+0x5c>
    1282:	20 31       	cpi	r18, 0x10	; 16
    1284:	81 f1       	breq	.+96     	; 0x12e6 <__ultoa_invert+0x6c>
    1286:	e8 94       	clt
    1288:	6f 93       	push	r22
    128a:	6e 7f       	andi	r22, 0xFE	; 254
    128c:	6e 5f       	subi	r22, 0xFE	; 254
    128e:	7f 4f       	sbci	r23, 0xFF	; 255
    1290:	8f 4f       	sbci	r24, 0xFF	; 255
    1292:	9f 4f       	sbci	r25, 0xFF	; 255
    1294:	af 4f       	sbci	r26, 0xFF	; 255
    1296:	b1 e0       	ldi	r27, 0x01	; 1
    1298:	3e d0       	rcall	.+124    	; 0x1316 <__ultoa_invert+0x9c>
    129a:	b4 e0       	ldi	r27, 0x04	; 4
    129c:	3c d0       	rcall	.+120    	; 0x1316 <__ultoa_invert+0x9c>
    129e:	67 0f       	add	r22, r23
    12a0:	78 1f       	adc	r23, r24
    12a2:	89 1f       	adc	r24, r25
    12a4:	9a 1f       	adc	r25, r26
    12a6:	a1 1d       	adc	r26, r1
    12a8:	68 0f       	add	r22, r24
    12aa:	79 1f       	adc	r23, r25
    12ac:	8a 1f       	adc	r24, r26
    12ae:	91 1d       	adc	r25, r1
    12b0:	a1 1d       	adc	r26, r1
    12b2:	6a 0f       	add	r22, r26
    12b4:	71 1d       	adc	r23, r1
    12b6:	81 1d       	adc	r24, r1
    12b8:	91 1d       	adc	r25, r1
    12ba:	a1 1d       	adc	r26, r1
    12bc:	20 d0       	rcall	.+64     	; 0x12fe <__ultoa_invert+0x84>
    12be:	09 f4       	brne	.+2      	; 0x12c2 <__ultoa_invert+0x48>
    12c0:	68 94       	set
    12c2:	3f 91       	pop	r19
    12c4:	2a e0       	ldi	r18, 0x0A	; 10
    12c6:	26 9f       	mul	r18, r22
    12c8:	11 24       	eor	r1, r1
    12ca:	30 19       	sub	r19, r0
    12cc:	30 5d       	subi	r19, 0xD0	; 208
    12ce:	31 93       	st	Z+, r19
    12d0:	de f6       	brtc	.-74     	; 0x1288 <__ultoa_invert+0xe>
    12d2:	cf 01       	movw	r24, r30
    12d4:	08 95       	ret
    12d6:	46 2f       	mov	r20, r22
    12d8:	47 70       	andi	r20, 0x07	; 7
    12da:	40 5d       	subi	r20, 0xD0	; 208
    12dc:	41 93       	st	Z+, r20
    12de:	b3 e0       	ldi	r27, 0x03	; 3
    12e0:	0f d0       	rcall	.+30     	; 0x1300 <__ultoa_invert+0x86>
    12e2:	c9 f7       	brne	.-14     	; 0x12d6 <__ultoa_invert+0x5c>
    12e4:	f6 cf       	rjmp	.-20     	; 0x12d2 <__ultoa_invert+0x58>
    12e6:	46 2f       	mov	r20, r22
    12e8:	4f 70       	andi	r20, 0x0F	; 15
    12ea:	40 5d       	subi	r20, 0xD0	; 208
    12ec:	4a 33       	cpi	r20, 0x3A	; 58
    12ee:	18 f0       	brcs	.+6      	; 0x12f6 <__ultoa_invert+0x7c>
    12f0:	49 5d       	subi	r20, 0xD9	; 217
    12f2:	31 fd       	sbrc	r19, 1
    12f4:	40 52       	subi	r20, 0x20	; 32
    12f6:	41 93       	st	Z+, r20
    12f8:	02 d0       	rcall	.+4      	; 0x12fe <__ultoa_invert+0x84>
    12fa:	a9 f7       	brne	.-22     	; 0x12e6 <__ultoa_invert+0x6c>
    12fc:	ea cf       	rjmp	.-44     	; 0x12d2 <__ultoa_invert+0x58>
    12fe:	b4 e0       	ldi	r27, 0x04	; 4
    1300:	a6 95       	lsr	r26
    1302:	97 95       	ror	r25
    1304:	87 95       	ror	r24
    1306:	77 95       	ror	r23
    1308:	67 95       	ror	r22
    130a:	ba 95       	dec	r27
    130c:	c9 f7       	brne	.-14     	; 0x1300 <__ultoa_invert+0x86>
    130e:	00 97       	sbiw	r24, 0x00	; 0
    1310:	61 05       	cpc	r22, r1
    1312:	71 05       	cpc	r23, r1
    1314:	08 95       	ret
    1316:	9b 01       	movw	r18, r22
    1318:	ac 01       	movw	r20, r24
    131a:	0a 2e       	mov	r0, r26
    131c:	06 94       	lsr	r0
    131e:	57 95       	ror	r21
    1320:	47 95       	ror	r20
    1322:	37 95       	ror	r19
    1324:	27 95       	ror	r18
    1326:	ba 95       	dec	r27
    1328:	c9 f7       	brne	.-14     	; 0x131c <__ultoa_invert+0xa2>
    132a:	62 0f       	add	r22, r18
    132c:	73 1f       	adc	r23, r19
    132e:	84 1f       	adc	r24, r20
    1330:	95 1f       	adc	r25, r21
    1332:	a0 1d       	adc	r26, r0
    1334:	08 95       	ret

00001336 <initAttachedMode>:
    1336:	83 e0       	ldi	r24, 0x03	; 3
    1338:	90 e0       	ldi	r25, 0x00	; 0
    133a:	90 93 de 1c 	sts	0x1CDE, r25
    133e:	80 93 dd 1c 	sts	0x1CDD, r24
    1342:	90 93 dc 1c 	sts	0x1CDC, r25
    1346:	80 93 db 1c 	sts	0x1CDB, r24
    134a:	08 95       	ret

0000134c <updateWheelsAttachedMode>:
    134c:	08 95       	ret

0000134e <trackHeat>:
    134e:	cf 93       	push	r28
    1350:	df 93       	push	r29
    1352:	0e 94 d8 11 	call	0x23b0	; 0x23b0 <getAverageLeft>
    1356:	ec 01       	movw	r28, r24
    1358:	0e 94 dd 11 	call	0x23ba	; 0x23ba <getAverageRight>
    135c:	bc 01       	movw	r22, r24
    135e:	8c 17       	cp	r24, r28
    1360:	9d 07       	cpc	r25, r29
    1362:	74 f4       	brge	.+28     	; 0x1380 <trackHeat+0x32>
    1364:	ce 01       	movw	r24, r28
    1366:	86 1b       	sub	r24, r22
    1368:	97 0b       	sbc	r25, r23
    136a:	03 97       	sbiw	r24, 0x03	; 3
    136c:	64 f5       	brge	.+88     	; 0x13c6 <trackHeat+0x78>
    136e:	84 e0       	ldi	r24, 0x04	; 4
    1370:	90 e0       	ldi	r25, 0x00	; 0
    1372:	60 e0       	ldi	r22, 0x00	; 0
    1374:	70 e0       	ldi	r23, 0x00	; 0
    1376:	0e 94 51 10 	call	0x20a2	; 0x20a2 <moveCenterServo>
    137a:	df 91       	pop	r29
    137c:	cf 91       	pop	r28
    137e:	08 95       	ret
    1380:	c8 17       	cp	r28, r24
    1382:	d9 07       	cpc	r29, r25
    1384:	a4 f7       	brge	.-24     	; 0x136e <trackHeat+0x20>
    1386:	8c 1b       	sub	r24, r28
    1388:	9d 0b       	sbc	r25, r29
    138a:	03 97       	sbiw	r24, 0x03	; 3
    138c:	84 f3       	brlt	.-32     	; 0x136e <trackHeat+0x20>
    138e:	cb 01       	movw	r24, r22
    1390:	be 01       	movw	r22, r28
    1392:	0e 94 57 53 	call	0xa6ae	; 0xa6ae <__divmodhi4>
    1396:	66 0f       	add	r22, r22
    1398:	77 1f       	adc	r23, r23
    139a:	66 0f       	add	r22, r22
    139c:	77 1f       	adc	r23, r23
    139e:	cb 01       	movw	r24, r22
    13a0:	88 0f       	add	r24, r24
    13a2:	99 1f       	adc	r25, r25
    13a4:	88 0f       	add	r24, r24
    13a6:	99 1f       	adc	r25, r25
    13a8:	68 0f       	add	r22, r24
    13aa:	79 1f       	adc	r23, r25
    13ac:	83 e0       	ldi	r24, 0x03	; 3
    13ae:	90 e0       	ldi	r25, 0x00	; 0
    13b0:	0e 94 51 10 	call	0x20a2	; 0x20a2 <moveCenterServo>
    13b4:	83 e0       	ldi	r24, 0x03	; 3
    13b6:	90 e0       	ldi	r25, 0x00	; 0
    13b8:	90 93 dc 1c 	sts	0x1CDC, r25
    13bc:	80 93 db 1c 	sts	0x1CDB, r24
    13c0:	df 91       	pop	r29
    13c2:	cf 91       	pop	r28
    13c4:	08 95       	ret
    13c6:	ce 01       	movw	r24, r28
    13c8:	0e 94 57 53 	call	0xa6ae	; 0xa6ae <__divmodhi4>
    13cc:	66 0f       	add	r22, r22
    13ce:	77 1f       	adc	r23, r23
    13d0:	66 0f       	add	r22, r22
    13d2:	77 1f       	adc	r23, r23
    13d4:	cb 01       	movw	r24, r22
    13d6:	88 0f       	add	r24, r24
    13d8:	99 1f       	adc	r25, r25
    13da:	88 0f       	add	r24, r24
    13dc:	99 1f       	adc	r25, r25
    13de:	68 0f       	add	r22, r24
    13e0:	79 1f       	adc	r23, r25
    13e2:	82 e0       	ldi	r24, 0x02	; 2
    13e4:	90 e0       	ldi	r25, 0x00	; 0
    13e6:	0e 94 51 10 	call	0x20a2	; 0x20a2 <moveCenterServo>
    13ea:	82 e0       	ldi	r24, 0x02	; 2
    13ec:	90 e0       	ldi	r25, 0x00	; 0
    13ee:	90 93 dc 1c 	sts	0x1CDC, r25
    13f2:	80 93 db 1c 	sts	0x1CDB, r24
    13f6:	df 91       	pop	r29
    13f8:	cf 91       	pop	r28
    13fa:	08 95       	ret

000013fc <readHeat>:
    13fc:	0e 94 d8 11 	call	0x23b0	; 0x23b0 <getAverageLeft>
    1400:	4f 97       	sbiw	r24, 0x1f	; 31
    1402:	1c f0       	brlt	.+6      	; 0x140a <readHeat+0xe>
    1404:	21 e0       	ldi	r18, 0x01	; 1
    1406:	82 2f       	mov	r24, r18
    1408:	08 95       	ret
    140a:	0e 94 dd 11 	call	0x23ba	; 0x23ba <getAverageRight>
    140e:	20 e0       	ldi	r18, 0x00	; 0
    1410:	4f 97       	sbiw	r24, 0x1f	; 31
    1412:	c4 f7       	brge	.-16     	; 0x1404 <readHeat+0x8>
    1414:	82 2f       	mov	r24, r18
    1416:	08 95       	ret

00001418 <updateCenterServoAttachedMode>:
    1418:	0e 94 fe 09 	call	0x13fc	; 0x13fc <readHeat>
    141c:	88 23       	and	r24, r24
    141e:	49 f5       	brne	.+82     	; 0x1472 <updateCenterServoAttachedMode+0x5a>
    1420:	82 e0       	ldi	r24, 0x02	; 2
    1422:	90 e0       	ldi	r25, 0x00	; 0
    1424:	0e 94 1b 0d 	call	0x1a36	; 0x1a36 <motion_servo_get_pulse_width>
    1428:	24 e0       	ldi	r18, 0x04	; 4
    142a:	81 3b       	cpi	r24, 0xB1	; 177
    142c:	92 07       	cpc	r25, r18
    142e:	98 f4       	brcc	.+38     	; 0x1456 <updateCenterServoAttachedMode+0x3e>
    1430:	82 e0       	ldi	r24, 0x02	; 2
    1432:	90 e0       	ldi	r25, 0x00	; 0
    1434:	90 93 de 1c 	sts	0x1CDE, r25
    1438:	80 93 dd 1c 	sts	0x1CDD, r24
    143c:	90 93 dc 1c 	sts	0x1CDC, r25
    1440:	80 93 db 1c 	sts	0x1CDB, r24
    1444:	80 91 dd 1c 	lds	r24, 0x1CDD
    1448:	90 91 de 1c 	lds	r25, 0x1CDE
    144c:	62 e3       	ldi	r22, 0x32	; 50
    144e:	70 e0       	ldi	r23, 0x00	; 0
    1450:	0e 94 51 10 	call	0x20a2	; 0x20a2 <moveCenterServo>
    1454:	08 95       	ret
    1456:	8c 55       	subi	r24, 0x5C	; 92
    1458:	92 41       	sbci	r25, 0x12	; 18
    145a:	70 f0       	brcs	.+28     	; 0x1478 <updateCenterServoAttachedMode+0x60>
    145c:	83 e0       	ldi	r24, 0x03	; 3
    145e:	90 e0       	ldi	r25, 0x00	; 0
    1460:	90 93 de 1c 	sts	0x1CDE, r25
    1464:	80 93 dd 1c 	sts	0x1CDD, r24
    1468:	90 93 dc 1c 	sts	0x1CDC, r25
    146c:	80 93 db 1c 	sts	0x1CDB, r24
    1470:	e9 cf       	rjmp	.-46     	; 0x1444 <updateCenterServoAttachedMode+0x2c>
    1472:	0e 94 a7 09 	call	0x134e	; 0x134e <trackHeat>
    1476:	08 95       	ret
    1478:	80 91 db 1c 	lds	r24, 0x1CDB
    147c:	90 91 dc 1c 	lds	r25, 0x1CDC
    1480:	90 93 de 1c 	sts	0x1CDE, r25
    1484:	80 93 dd 1c 	sts	0x1CDD, r24
    1488:	dd cf       	rjmp	.-70     	; 0x1444 <updateCenterServoAttachedMode+0x2c>

0000148a <updateLED>:
    148a:	80 91 e1 1c 	lds	r24, 0x1CE1
    148e:	90 91 e2 1c 	lds	r25, 0x1CE2
    1492:	00 97       	sbiw	r24, 0x00	; 0
    1494:	61 f0       	breq	.+24     	; 0x14ae <updateLED+0x24>
    1496:	81 30       	cpi	r24, 0x01	; 1
    1498:	91 05       	cpc	r25, r1
    149a:	a9 f0       	breq	.+42     	; 0x14c6 <updateLED+0x3c>
    149c:	02 97       	sbiw	r24, 0x02	; 2
    149e:	02 97       	sbiw	r24, 0x02	; 2
    14a0:	60 f0       	brcs	.+24     	; 0x14ba <updateLED+0x30>
    14a2:	81 e0       	ldi	r24, 0x01	; 1
    14a4:	61 e0       	ldi	r22, 0x01	; 1
    14a6:	41 e0       	ldi	r20, 0x01	; 1
    14a8:	0e 94 11 0c 	call	0x1822	; 0x1822 <setColor>
    14ac:	08 95       	ret
    14ae:	80 e0       	ldi	r24, 0x00	; 0
    14b0:	61 e0       	ldi	r22, 0x01	; 1
    14b2:	40 e0       	ldi	r20, 0x00	; 0
    14b4:	0e 94 11 0c 	call	0x1822	; 0x1822 <setColor>
    14b8:	08 95       	ret
    14ba:	80 e0       	ldi	r24, 0x00	; 0
    14bc:	60 e0       	ldi	r22, 0x00	; 0
    14be:	41 e0       	ldi	r20, 0x01	; 1
    14c0:	0e 94 11 0c 	call	0x1822	; 0x1822 <setColor>
    14c4:	08 95       	ret
    14c6:	81 e0       	ldi	r24, 0x01	; 1
    14c8:	60 e0       	ldi	r22, 0x00	; 0
    14ca:	40 e0       	ldi	r20, 0x00	; 0
    14cc:	0e 94 11 0c 	call	0x1822	; 0x1822 <setColor>
    14d0:	08 95       	ret

000014d2 <updateLCD>:
    14d2:	a0 e2       	ldi	r26, 0x20	; 32
    14d4:	b0 e0       	ldi	r27, 0x00	; 0
    14d6:	ef e6       	ldi	r30, 0x6F	; 111
    14d8:	fa e0       	ldi	r31, 0x0A	; 10
    14da:	0c 94 94 53 	jmp	0xa728	; 0xa728 <__prologue_saves__+0x10>
    14de:	80 91 e4 1c 	lds	r24, 0x1CE4
    14e2:	88 23       	and	r24, r24
    14e4:	09 f0       	breq	.+2      	; 0x14e8 <updateLCD+0x16>
    14e6:	82 c0       	rjmp	.+260    	; 0x15ec <updateLCD+0x11a>
    14e8:	0e 94 e2 11 	call	0x23c4	; 0x23c4 <readTemperatureValues>
    14ec:	19 82       	std	Y+1, r1	; 0x01
    14ee:	1a 82       	std	Y+2, r1	; 0x02
    14f0:	1b 82       	std	Y+3, r1	; 0x03
    14f2:	1c 82       	std	Y+4, r1	; 0x04
    14f4:	8c e0       	ldi	r24, 0x0C	; 12
    14f6:	fe 01       	movw	r30, r28
    14f8:	35 96       	adiw	r30, 0x05	; 5
    14fa:	df 01       	movw	r26, r30
    14fc:	28 2f       	mov	r18, r24
    14fe:	1d 92       	st	X+, r1
    1500:	2a 95       	dec	r18
    1502:	e9 f7       	brne	.-6      	; 0x14fe <updateLCD+0x2c>
    1504:	19 8a       	std	Y+17, r1	; 0x11
    1506:	1a 8a       	std	Y+18, r1	; 0x12
    1508:	1b 8a       	std	Y+19, r1	; 0x13
    150a:	1c 8a       	std	Y+20, r1	; 0x14
    150c:	fe 01       	movw	r30, r28
    150e:	75 96       	adiw	r30, 0x15	; 21
    1510:	df 01       	movw	r26, r30
    1512:	1d 92       	st	X+, r1
    1514:	8a 95       	dec	r24
    1516:	e9 f7       	brne	.-6      	; 0x1512 <updateLCD+0x40>
    1518:	0e 94 85 0f 	call	0x1f0a	; 0x1f0a <getAverageSpeed>
    151c:	7b 01       	movw	r14, r22
    151e:	8c 01       	movw	r16, r24
    1520:	0e 94 9e 0f 	call	0x1f3c	; 0x1f3c <getTotalDistance>
    1524:	2d b7       	in	r18, 0x3d	; 61
    1526:	3e b7       	in	r19, 0x3e	; 62
    1528:	2c 50       	subi	r18, 0x0C	; 12
    152a:	30 40       	sbci	r19, 0x00	; 0
    152c:	0f b6       	in	r0, 0x3f	; 63
    152e:	f8 94       	cli
    1530:	3e bf       	out	0x3e, r19	; 62
    1532:	0f be       	out	0x3f, r0	; 63
    1534:	2d bf       	out	0x3d, r18	; 61
    1536:	ed b7       	in	r30, 0x3d	; 61
    1538:	fe b7       	in	r31, 0x3e	; 62
    153a:	31 96       	adiw	r30, 0x01	; 1
    153c:	21 e1       	ldi	r18, 0x11	; 17
    153e:	a2 2e       	mov	r10, r18
    1540:	b1 2c       	mov	r11, r1
    1542:	ac 0e       	add	r10, r28
    1544:	bd 1e       	adc	r11, r29
    1546:	ad b7       	in	r26, 0x3d	; 61
    1548:	be b7       	in	r27, 0x3e	; 62
    154a:	12 96       	adiw	r26, 0x02	; 2
    154c:	bc 92       	st	X, r11
    154e:	ae 92       	st	-X, r10
    1550:	11 97       	sbiw	r26, 0x01	; 1
    1552:	20 e0       	ldi	r18, 0x00	; 0
    1554:	32 e0       	ldi	r19, 0x02	; 2
    1556:	33 83       	std	Z+3, r19	; 0x03
    1558:	22 83       	std	Z+2, r18	; 0x02
    155a:	e4 82       	std	Z+4, r14	; 0x04
    155c:	f5 82       	std	Z+5, r15	; 0x05
    155e:	06 83       	std	Z+6, r16	; 0x06
    1560:	17 83       	std	Z+7, r17	; 0x07
    1562:	60 87       	std	Z+8, r22	; 0x08
    1564:	71 87       	std	Z+9, r23	; 0x09
    1566:	82 87       	std	Z+10, r24	; 0x0a
    1568:	93 87       	std	Z+11, r25	; 0x0b
    156a:	0e 94 c5 08 	call	0x118a	; 0x118a <sprintf>
    156e:	2d b7       	in	r18, 0x3d	; 61
    1570:	3e b7       	in	r19, 0x3e	; 62
    1572:	24 5f       	subi	r18, 0xF4	; 244
    1574:	3f 4f       	sbci	r19, 0xFF	; 255
    1576:	0f b6       	in	r0, 0x3f	; 63
    1578:	f8 94       	cli
    157a:	3e bf       	out	0x3e, r19	; 62
    157c:	0f be       	out	0x3f, r0	; 63
    157e:	2d bf       	out	0x3d, r18	; 61
    1580:	0e 94 d3 11 	call	0x23a6	; 0x23a6 <getAmbient>
    1584:	6c 01       	movw	r12, r24
    1586:	0e 94 d8 11 	call	0x23b0	; 0x23b0 <getAverageLeft>
    158a:	7c 01       	movw	r14, r24
    158c:	0e 94 dd 11 	call	0x23ba	; 0x23ba <getAverageRight>
    1590:	ad b7       	in	r26, 0x3d	; 61
    1592:	be b7       	in	r27, 0x3e	; 62
    1594:	1a 97       	sbiw	r26, 0x0a	; 10
    1596:	0f b6       	in	r0, 0x3f	; 63
    1598:	f8 94       	cli
    159a:	be bf       	out	0x3e, r27	; 62
    159c:	0f be       	out	0x3f, r0	; 63
    159e:	ad bf       	out	0x3d, r26	; 61
    15a0:	ed b7       	in	r30, 0x3d	; 61
    15a2:	fe b7       	in	r31, 0x3e	; 62
    15a4:	31 96       	adiw	r30, 0x01	; 1
    15a6:	8e 01       	movw	r16, r28
    15a8:	0f 5f       	subi	r16, 0xFF	; 255
    15aa:	1f 4f       	sbci	r17, 0xFF	; 255
    15ac:	12 96       	adiw	r26, 0x02	; 2
    15ae:	1c 93       	st	X, r17
    15b0:	0e 93       	st	-X, r16
    15b2:	11 97       	sbiw	r26, 0x01	; 1
    15b4:	20 e1       	ldi	r18, 0x10	; 16
    15b6:	32 e0       	ldi	r19, 0x02	; 2
    15b8:	33 83       	std	Z+3, r19	; 0x03
    15ba:	22 83       	std	Z+2, r18	; 0x02
    15bc:	d5 82       	std	Z+5, r13	; 0x05
    15be:	c4 82       	std	Z+4, r12	; 0x04
    15c0:	f7 82       	std	Z+7, r15	; 0x07
    15c2:	e6 82       	std	Z+6, r14	; 0x06
    15c4:	91 87       	std	Z+9, r25	; 0x09
    15c6:	80 87       	std	Z+8, r24	; 0x08
    15c8:	0e 94 c5 08 	call	0x118a	; 0x118a <sprintf>
    15cc:	2d b7       	in	r18, 0x3d	; 61
    15ce:	3e b7       	in	r19, 0x3e	; 62
    15d0:	26 5f       	subi	r18, 0xF6	; 246
    15d2:	3f 4f       	sbci	r19, 0xFF	; 255
    15d4:	0f b6       	in	r0, 0x3f	; 63
    15d6:	f8 94       	cli
    15d8:	3e bf       	out	0x3e, r19	; 62
    15da:	0f be       	out	0x3f, r0	; 63
    15dc:	2d bf       	out	0x3d, r18	; 61
    15de:	c8 01       	movw	r24, r16
    15e0:	b5 01       	movw	r22, r10
    15e2:	0e 94 c6 0b 	call	0x178c	; 0x178c <LCDPrint>
    15e6:	81 e0       	ldi	r24, 0x01	; 1
    15e8:	80 93 e4 1c 	sts	0x1CE4, r24
    15ec:	a0 96       	adiw	r28, 0x20	; 32
    15ee:	ea e0       	ldi	r30, 0x0A	; 10
    15f0:	0c 94 b0 53 	jmp	0xa760	; 0xa760 <__epilogue_restores__+0x10>

000015f4 <updateCenterServo>:
    15f4:	80 91 e8 1c 	lds	r24, 0x1CE8
    15f8:	88 23       	and	r24, r24
    15fa:	89 f4       	brne	.+34     	; 0x161e <updateCenterServo+0x2a>
    15fc:	80 91 df 1c 	lds	r24, 0x1CDF
    1600:	90 91 e0 1c 	lds	r25, 0x1CE0
    1604:	00 97       	sbiw	r24, 0x00	; 0
    1606:	61 f0       	breq	.+24     	; 0x1620 <updateCenterServo+0x2c>
    1608:	01 97       	sbiw	r24, 0x01	; 1
    160a:	31 f0       	breq	.+12     	; 0x1618 <updateCenterServo+0x24>
    160c:	85 e0       	ldi	r24, 0x05	; 5
    160e:	90 e0       	ldi	r25, 0x00	; 0
    1610:	60 e0       	ldi	r22, 0x00	; 0
    1612:	70 e0       	ldi	r23, 0x00	; 0
    1614:	0e 94 51 10 	call	0x20a2	; 0x20a2 <moveCenterServo>
    1618:	81 e0       	ldi	r24, 0x01	; 1
    161a:	80 93 e8 1c 	sts	0x1CE8, r24
    161e:	08 95       	ret
    1620:	0e 94 0c 0a 	call	0x1418	; 0x1418 <updateCenterServoAttachedMode>
    1624:	81 e0       	ldi	r24, 0x01	; 1
    1626:	80 93 e8 1c 	sts	0x1CE8, r24
    162a:	f9 cf       	rjmp	.-14     	; 0x161e <updateCenterServo+0x2a>

0000162c <updateWheelSpeed>:
    162c:	80 91 e7 1c 	lds	r24, 0x1CE7
    1630:	81 11       	cpse	r24, r1
    1632:	08 95       	ret
    1634:	0e 94 10 10 	call	0x2020	; 0x2020 <getSpeed>
    1638:	81 e0       	ldi	r24, 0x01	; 1
    163a:	80 93 e7 1c 	sts	0x1CE7, r24
    163e:	08 95       	ret

00001640 <TaskMoveAndScan>:
    1640:	0e 94 16 0b 	call	0x162c	; 0x162c <updateWheelSpeed>
    1644:	0e 94 fa 0a 	call	0x15f4	; 0x15f4 <updateCenterServo>
    1648:	0e 94 69 0a 	call	0x14d2	; 0x14d2 <updateLCD>
    164c:	0e 94 45 0a 	call	0x148a	; 0x148a <updateLED>
    1650:	f7 cf       	rjmp	.-18     	; 0x1640 <TaskMoveAndScan>

00001652 <updateWheels>:
    1652:	80 91 e3 1c 	lds	r24, 0x1CE3
    1656:	88 23       	and	r24, r24
    1658:	a9 f4       	brne	.+42     	; 0x1684 <updateWheels+0x32>
    165a:	80 91 e1 1c 	lds	r24, 0x1CE1
    165e:	90 91 e2 1c 	lds	r25, 0x1CE2
    1662:	00 97       	sbiw	r24, 0x00	; 0
    1664:	81 f0       	breq	.+32     	; 0x1686 <updateWheels+0x34>
    1666:	81 30       	cpi	r24, 0x01	; 1
    1668:	91 05       	cpc	r25, r1
    166a:	b9 f0       	breq	.+46     	; 0x169a <updateWheels+0x48>
    166c:	82 30       	cpi	r24, 0x02	; 2
    166e:	91 05       	cpc	r25, r1
    1670:	c9 f0       	breq	.+50     	; 0x16a4 <updateWheels+0x52>
    1672:	03 97       	sbiw	r24, 0x03	; 3
    1674:	69 f0       	breq	.+26     	; 0x1690 <updateWheels+0x3e>
    1676:	84 e0       	ldi	r24, 0x04	; 4
    1678:	90 e0       	ldi	r25, 0x00	; 0
    167a:	0e 94 a2 10 	call	0x2144	; 0x2144 <moveWheels>
    167e:	81 e0       	ldi	r24, 0x01	; 1
    1680:	80 93 e3 1c 	sts	0x1CE3, r24
    1684:	08 95       	ret
    1686:	80 e0       	ldi	r24, 0x00	; 0
    1688:	90 e0       	ldi	r25, 0x00	; 0
    168a:	0e 94 a2 10 	call	0x2144	; 0x2144 <moveWheels>
    168e:	f7 cf       	rjmp	.-18     	; 0x167e <updateWheels+0x2c>
    1690:	82 e0       	ldi	r24, 0x02	; 2
    1692:	90 e0       	ldi	r25, 0x00	; 0
    1694:	0e 94 a2 10 	call	0x2144	; 0x2144 <moveWheels>
    1698:	f2 cf       	rjmp	.-28     	; 0x167e <updateWheels+0x2c>
    169a:	81 e0       	ldi	r24, 0x01	; 1
    169c:	90 e0       	ldi	r25, 0x00	; 0
    169e:	0e 94 a2 10 	call	0x2144	; 0x2144 <moveWheels>
    16a2:	ed cf       	rjmp	.-38     	; 0x167e <updateWheels+0x2c>
    16a4:	83 e0       	ldi	r24, 0x03	; 3
    16a6:	90 e0       	ldi	r25, 0x00	; 0
    16a8:	0e 94 a2 10 	call	0x2144	; 0x2144 <moveWheels>
    16ac:	e8 cf       	rjmp	.-48     	; 0x167e <updateWheels+0x2c>

000016ae <updateState>:
    16ae:	84 e6       	ldi	r24, 0x64	; 100
    16b0:	90 e0       	ldi	r25, 0x00	; 0
    16b2:	0e 94 82 12 	call	0x2504	; 0x2504 <isTimerRepeatMultiple>
    16b6:	88 23       	and	r24, r24
    16b8:	61 f0       	breq	.+24     	; 0x16d2 <updateState+0x24>
    16ba:	80 91 e1 1c 	lds	r24, 0x1CE1
    16be:	90 91 e2 1c 	lds	r25, 0x1CE2
    16c2:	84 30       	cpi	r24, 0x04	; 4
    16c4:	91 05       	cpc	r25, r1
    16c6:	29 f0       	breq	.+10     	; 0x16d2 <updateState+0x24>
    16c8:	01 96       	adiw	r24, 0x01	; 1
    16ca:	90 93 e2 1c 	sts	0x1CE2, r25
    16ce:	80 93 e1 1c 	sts	0x1CE1, r24
    16d2:	81 e0       	ldi	r24, 0x01	; 1
    16d4:	90 e0       	ldi	r25, 0x00	; 0
    16d6:	0e 94 82 12 	call	0x2504	; 0x2504 <isTimerRepeatMultiple>
    16da:	88 23       	and	r24, r24
    16dc:	11 f0       	breq	.+4      	; 0x16e2 <updateState+0x34>
    16de:	10 92 e7 1c 	sts	0x1CE7, r1
    16e2:	82 e0       	ldi	r24, 0x02	; 2
    16e4:	90 e0       	ldi	r25, 0x00	; 0
    16e6:	0e 94 82 12 	call	0x2504	; 0x2504 <isTimerRepeatMultiple>
    16ea:	88 23       	and	r24, r24
    16ec:	11 f0       	breq	.+4      	; 0x16f2 <updateState+0x44>
    16ee:	10 92 e3 1c 	sts	0x1CE3, r1
    16f2:	8c e0       	ldi	r24, 0x0C	; 12
    16f4:	90 e0       	ldi	r25, 0x00	; 0
    16f6:	0e 94 82 12 	call	0x2504	; 0x2504 <isTimerRepeatMultiple>
    16fa:	88 23       	and	r24, r24
    16fc:	11 f0       	breq	.+4      	; 0x1702 <updateState+0x54>
    16fe:	10 92 e4 1c 	sts	0x1CE4, r1
    1702:	82 e0       	ldi	r24, 0x02	; 2
    1704:	90 e0       	ldi	r25, 0x00	; 0
    1706:	0e 94 82 12 	call	0x2504	; 0x2504 <isTimerRepeatMultiple>
    170a:	88 23       	and	r24, r24
    170c:	11 f0       	breq	.+4      	; 0x1712 <updateState+0x64>
    170e:	10 92 e8 1c 	sts	0x1CE8, r1
    1712:	08 95       	ret

00001714 <timerCallback>:
    1714:	0e 94 57 0b 	call	0x16ae	; 0x16ae <updateState>
    1718:	08 95       	ret

0000171a <initBehaviour>:
    171a:	0e 94 02 0c 	call	0x1804	; 0x1804 <initLED>
    171e:	0e 94 5a 12 	call	0x24b4	; 0x24b4 <initTPA81>
    1722:	0e 94 e7 0b 	call	0x17ce	; 0x17ce <LCDInit>
    1726:	0e 94 9c 11 	call	0x2338	; 0x2338 <servoInit>
    172a:	8a e8       	ldi	r24, 0x8A	; 138
    172c:	9b e0       	ldi	r25, 0x0B	; 11
    172e:	0e 94 5e 12 	call	0x24bc	; 0x24bc <initTimer>
    1732:	0e 94 9b 09 	call	0x1336	; 0x1336 <initAttachedMode>
    1736:	10 92 e2 1c 	sts	0x1CE2, r1
    173a:	10 92 e1 1c 	sts	0x1CE1, r1
    173e:	10 92 e7 1c 	sts	0x1CE7, r1
    1742:	10 92 e4 1c 	sts	0x1CE4, r1
    1746:	10 92 e8 1c 	sts	0x1CE8, r1
    174a:	10 92 e3 1c 	sts	0x1CE3, r1
    174e:	83 e0       	ldi	r24, 0x03	; 3
    1750:	90 e0       	ldi	r25, 0x00	; 0
    1752:	90 93 e6 1c 	sts	0x1CE6, r25
    1756:	80 93 e5 1c 	sts	0x1CE5, r24
    175a:	85 e0       	ldi	r24, 0x05	; 5
    175c:	90 e0       	ldi	r25, 0x00	; 0
    175e:	60 e0       	ldi	r22, 0x00	; 0
    1760:	70 e0       	ldi	r23, 0x00	; 0
    1762:	0e 94 51 10 	call	0x20a2	; 0x20a2 <moveCenterServo>
    1766:	10 92 e0 1c 	sts	0x1CE0, r1
    176a:	10 92 df 1c 	sts	0x1CDF, r1
    176e:	08 95       	ret

00001770 <sendLCDCommand>:
    1770:	1f 93       	push	r17
    1772:	18 2f       	mov	r17, r24
    1774:	81 e0       	ldi	r24, 0x01	; 1
    1776:	90 e0       	ldi	r25, 0x00	; 0
    1778:	6e ef       	ldi	r22, 0xFE	; 254
    177a:	0e 94 45 4c 	call	0x988a	; 0x988a <usartWrite>
    177e:	81 e0       	ldi	r24, 0x01	; 1
    1780:	90 e0       	ldi	r25, 0x00	; 0
    1782:	61 2f       	mov	r22, r17
    1784:	0e 94 45 4c 	call	0x988a	; 0x988a <usartWrite>
    1788:	1f 91       	pop	r17
    178a:	08 95       	ret

0000178c <LCDPrint>:
    178c:	ef 92       	push	r14
    178e:	ff 92       	push	r15
    1790:	0f 93       	push	r16
    1792:	1f 93       	push	r17
    1794:	8c 01       	movw	r16, r24
    1796:	7b 01       	movw	r14, r22
    1798:	81 e0       	ldi	r24, 0x01	; 1
    179a:	90 e0       	ldi	r25, 0x00	; 0
    179c:	0e 94 b8 0b 	call	0x1770	; 0x1770 <sendLCDCommand>
    17a0:	80 e8       	ldi	r24, 0x80	; 128
    17a2:	90 e0       	ldi	r25, 0x00	; 0
    17a4:	0e 94 b8 0b 	call	0x1770	; 0x1770 <sendLCDCommand>
    17a8:	81 e0       	ldi	r24, 0x01	; 1
    17aa:	90 e0       	ldi	r25, 0x00	; 0
    17ac:	b8 01       	movw	r22, r16
    17ae:	0e 94 fc 50 	call	0xa1f8	; 0xa1f8 <usart_fprint>
    17b2:	80 ec       	ldi	r24, 0xC0	; 192
    17b4:	90 e0       	ldi	r25, 0x00	; 0
    17b6:	0e 94 b8 0b 	call	0x1770	; 0x1770 <sendLCDCommand>
    17ba:	81 e0       	ldi	r24, 0x01	; 1
    17bc:	90 e0       	ldi	r25, 0x00	; 0
    17be:	b7 01       	movw	r22, r14
    17c0:	0e 94 fc 50 	call	0xa1f8	; 0xa1f8 <usart_fprint>
    17c4:	1f 91       	pop	r17
    17c6:	0f 91       	pop	r16
    17c8:	ff 90       	pop	r15
    17ca:	ef 90       	pop	r14
    17cc:	08 95       	ret

000017ce <LCDInit>:
    17ce:	0f 93       	push	r16
    17d0:	1f 93       	push	r17
    17d2:	81 e0       	ldi	r24, 0x01	; 1
    17d4:	90 e0       	ldi	r25, 0x00	; 0
    17d6:	40 e8       	ldi	r20, 0x80	; 128
    17d8:	55 e2       	ldi	r21, 0x25	; 37
    17da:	60 e0       	ldi	r22, 0x00	; 0
    17dc:	70 e0       	ldi	r23, 0x00	; 0
    17de:	2f ef       	ldi	r18, 0xFF	; 255
    17e0:	30 e0       	ldi	r19, 0x00	; 0
    17e2:	00 e4       	ldi	r16, 0x40	; 64
    17e4:	10 e0       	ldi	r17, 0x00	; 0
    17e6:	0e 94 5f 52 	call	0xa4be	; 0xa4be <usartOpen>
    17ea:	53 9a       	sbi	0x0a, 3	; 10
    17ec:	5b 9a       	sbi	0x0b, 3	; 11
    17ee:	8c e0       	ldi	r24, 0x0C	; 12
    17f0:	90 e0       	ldi	r25, 0x00	; 0
    17f2:	0e 94 b8 0b 	call	0x1770	; 0x1770 <sendLCDCommand>
    17f6:	81 e0       	ldi	r24, 0x01	; 1
    17f8:	90 e0       	ldi	r25, 0x00	; 0
    17fa:	0e 94 b8 0b 	call	0x1770	; 0x1770 <sendLCDCommand>
    17fe:	1f 91       	pop	r17
    1800:	0f 91       	pop	r16
    1802:	08 95       	ret

00001804 <initLED>:
    1804:	e1 e0       	ldi	r30, 0x01	; 1
    1806:	f1 e0       	ldi	r31, 0x01	; 1
    1808:	80 81       	ld	r24, Z
    180a:	88 60       	ori	r24, 0x08	; 8
    180c:	80 83       	st	Z, r24
    180e:	6b 9a       	sbi	0x0d, 3	; 13
    1810:	6d 9a       	sbi	0x0d, 5	; 13
    1812:	e2 e0       	ldi	r30, 0x02	; 2
    1814:	f1 e0       	ldi	r31, 0x01	; 1
    1816:	80 81       	ld	r24, Z
    1818:	88 60       	ori	r24, 0x08	; 8
    181a:	80 83       	st	Z, r24
    181c:	73 9a       	sbi	0x0e, 3	; 14
    181e:	75 9a       	sbi	0x0e, 5	; 14
    1820:	08 95       	ret

00001822 <setColor>:
    1822:	88 23       	and	r24, r24
    1824:	61 f0       	breq	.+24     	; 0x183e <setColor+0x1c>
    1826:	80 91 02 01 	lds	r24, 0x0102
    182a:	87 7f       	andi	r24, 0xF7	; 247
    182c:	80 93 02 01 	sts	0x0102, r24
    1830:	66 23       	and	r22, r22
    1832:	61 f0       	breq	.+24     	; 0x184c <setColor+0x2a>
    1834:	73 98       	cbi	0x0e, 3	; 14
    1836:	44 23       	and	r20, r20
    1838:	61 f4       	brne	.+24     	; 0x1852 <setColor+0x30>
    183a:	75 9a       	sbi	0x0e, 5	; 14
    183c:	08 95       	ret
    183e:	80 91 02 01 	lds	r24, 0x0102
    1842:	88 60       	ori	r24, 0x08	; 8
    1844:	80 93 02 01 	sts	0x0102, r24
    1848:	66 23       	and	r22, r22
    184a:	a1 f7       	brne	.-24     	; 0x1834 <setColor+0x12>
    184c:	73 9a       	sbi	0x0e, 3	; 14
    184e:	44 23       	and	r20, r20
    1850:	a1 f3       	breq	.-24     	; 0x183a <setColor+0x18>
    1852:	75 98       	cbi	0x0e, 5	; 14
    1854:	08 95       	ret

00001856 <vApplicationStackOverflowHook>:
    1856:	ff cf       	rjmp	.-2      	; 0x1856 <vApplicationStackOverflowHook>

00001858 <main>:
    1858:	0f 93       	push	r16
    185a:	1f 93       	push	r17
    185c:	80 e0       	ldi	r24, 0x00	; 0
    185e:	90 e0       	ldi	r25, 0x00	; 0
    1860:	40 e0       	ldi	r20, 0x00	; 0
    1862:	52 ec       	ldi	r21, 0xC2	; 194
    1864:	61 e0       	ldi	r22, 0x01	; 1
    1866:	70 e0       	ldi	r23, 0x00	; 0
    1868:	2f ef       	ldi	r18, 0xFF	; 255
    186a:	30 e0       	ldi	r19, 0x00	; 0
    186c:	00 e4       	ldi	r16, 0x40	; 64
    186e:	10 e0       	ldi	r17, 0x00	; 0
    1870:	0e 94 5f 52 	call	0xa4be	; 0xa4be <usartOpen>
    1874:	90 93 ea 1c 	sts	0x1CEA, r25
    1878:	80 93 e9 1c 	sts	0x1CE9, r24
    187c:	83 ee       	ldi	r24, 0xE3	; 227
    187e:	92 e0       	ldi	r25, 0x02	; 2
    1880:	0e 94 4e 50 	call	0xa09c	; 0xa09c <usart_print_P>
    1884:	0e 94 8d 0b 	call	0x171a	; 0x171a <initBehaviour>
    1888:	0e 94 20 0b 	call	0x1640	; 0x1640 <TaskMoveAndScan>
    188c:	8a eb       	ldi	r24, 0xBA	; 186
    188e:	92 e0       	ldi	r25, 0x02	; 2
    1890:	0e 94 4e 50 	call	0xa09c	; 0xa09c <usart_print_P>
    1894:	80 e0       	ldi	r24, 0x00	; 0
    1896:	90 e0       	ldi	r25, 0x00	; 0
    1898:	1f 91       	pop	r17
    189a:	0f 91       	pop	r16
    189c:	08 95       	ret

0000189e <motion_servo_start>:
    189e:	9c 01       	movw	r18, r24
    18a0:	dc 01       	movw	r26, r24
    18a2:	aa 0f       	add	r26, r26
    18a4:	bb 1f       	adc	r27, r27
    18a6:	ac 01       	movw	r20, r24
    18a8:	44 0f       	add	r20, r20
    18aa:	55 1f       	adc	r21, r21
    18ac:	44 0f       	add	r20, r20
    18ae:	55 1f       	adc	r21, r21
    18b0:	44 0f       	add	r20, r20
    18b2:	55 1f       	adc	r21, r21
    18b4:	fd 01       	movw	r30, r26
    18b6:	e4 0f       	add	r30, r20
    18b8:	f5 1f       	adc	r31, r21
    18ba:	ec 5f       	subi	r30, 0xFC	; 252
    18bc:	f5 4f       	sbci	r31, 0xF5	; 245
    18be:	01 90       	ld	r0, Z+
    18c0:	f0 81       	ld	r31, Z
    18c2:	e0 2d       	mov	r30, r0
    18c4:	80 81       	ld	r24, Z
    18c6:	91 81       	ldd	r25, Z+1	; 0x01
    18c8:	8c 54       	subi	r24, 0x4C	; 76
    18ca:	94 40       	sbci	r25, 0x04	; 4
    18cc:	85 57       	subi	r24, 0x75	; 117
    18ce:	9e 40       	sbci	r25, 0x0E	; 14
    18d0:	20 f0       	brcs	.+8      	; 0x18da <motion_servo_start+0x3c>
    18d2:	80 e5       	ldi	r24, 0x50	; 80
    18d4:	9a e0       	ldi	r25, 0x0A	; 10
    18d6:	91 83       	std	Z+1, r25	; 0x01
    18d8:	80 83       	st	Z, r24
    18da:	f9 01       	movw	r30, r18
    18dc:	ee 0f       	add	r30, r30
    18de:	ff 1f       	adc	r31, r31
    18e0:	ee 0f       	add	r30, r30
    18e2:	ff 1f       	adc	r31, r31
    18e4:	e2 0f       	add	r30, r18
    18e6:	f3 1f       	adc	r31, r19
    18e8:	ee 0f       	add	r30, r30
    18ea:	ff 1f       	adc	r31, r31
    18ec:	ea 5f       	subi	r30, 0xFA	; 250
    18ee:	f5 4f       	sbci	r31, 0xF5	; 245
    18f0:	01 90       	ld	r0, Z+
    18f2:	f0 81       	ld	r31, Z
    18f4:	e0 2d       	mov	r30, r0
    18f6:	a4 0f       	add	r26, r20
    18f8:	b5 1f       	adc	r27, r21
    18fa:	ac 5f       	subi	r26, 0xFC	; 252
    18fc:	b5 4f       	sbci	r27, 0xF5	; 245
    18fe:	14 96       	adiw	r26, 0x04	; 4
    1900:	4d 91       	ld	r20, X+
    1902:	5c 91       	ld	r21, X
    1904:	15 97       	sbiw	r26, 0x05	; 5
    1906:	20 81       	ld	r18, Z
    1908:	81 e0       	ldi	r24, 0x01	; 1
    190a:	90 e0       	ldi	r25, 0x00	; 0
    190c:	16 96       	adiw	r26, 0x06	; 6
    190e:	0c 90       	ld	r0, X
    1910:	16 97       	sbiw	r26, 0x06	; 6
    1912:	02 c0       	rjmp	.+4      	; 0x1918 <motion_servo_start+0x7a>
    1914:	88 0f       	add	r24, r24
    1916:	99 1f       	adc	r25, r25
    1918:	0a 94       	dec	r0
    191a:	e2 f7       	brpl	.-8      	; 0x1914 <motion_servo_start+0x76>
    191c:	28 2b       	or	r18, r24
    191e:	20 83       	st	Z, r18
    1920:	fa 01       	movw	r30, r20
    1922:	20 81       	ld	r18, Z
    1924:	80 95       	com	r24
    1926:	82 23       	and	r24, r18
    1928:	80 83       	st	Z, r24
    192a:	18 96       	adiw	r26, 0x08	; 8
    192c:	ed 91       	ld	r30, X+
    192e:	fc 91       	ld	r31, X
    1930:	19 97       	sbiw	r26, 0x09	; 9
    1932:	00 84       	ldd	r0, Z+8	; 0x08
    1934:	f1 85       	ldd	r31, Z+9	; 0x09
    1936:	e0 2d       	mov	r30, r0
    1938:	20 81       	ld	r18, Z
    193a:	17 96       	adiw	r26, 0x07	; 7
    193c:	ac 91       	ld	r26, X
    193e:	a1 30       	cpi	r26, 0x01	; 1
    1940:	69 f0       	breq	.+26     	; 0x195c <motion_servo_start+0xbe>
    1942:	a1 30       	cpi	r26, 0x01	; 1
    1944:	30 f4       	brcc	.+12     	; 0x1952 <motion_servo_start+0xb4>
    1946:	80 e8       	ldi	r24, 0x80	; 128
    1948:	9f eb       	ldi	r25, 0xBF	; 191
    194a:	82 2b       	or	r24, r18
    194c:	89 23       	and	r24, r25
    194e:	80 83       	st	Z, r24
    1950:	08 95       	ret
    1952:	a2 30       	cpi	r26, 0x02	; 2
    1954:	e9 f7       	brne	.-6      	; 0x1950 <motion_servo_start+0xb2>
    1956:	88 e0       	ldi	r24, 0x08	; 8
    1958:	9b ef       	ldi	r25, 0xFB	; 251
    195a:	f7 cf       	rjmp	.-18     	; 0x194a <motion_servo_start+0xac>
    195c:	80 e2       	ldi	r24, 0x20	; 32
    195e:	9f ee       	ldi	r25, 0xEF	; 239
    1960:	f4 cf       	rjmp	.-24     	; 0x194a <motion_servo_start+0xac>

00001962 <motion_servo_stop>:
    1962:	cf 93       	push	r28
    1964:	df 93       	push	r29
    1966:	fc 01       	movw	r30, r24
    1968:	ee 0f       	add	r30, r30
    196a:	ff 1f       	adc	r31, r31
    196c:	ee 0f       	add	r30, r30
    196e:	ff 1f       	adc	r31, r31
    1970:	e8 0f       	add	r30, r24
    1972:	f9 1f       	adc	r31, r25
    1974:	ee 0f       	add	r30, r30
    1976:	ff 1f       	adc	r31, r31
    1978:	ea 5f       	subi	r30, 0xFA	; 250
    197a:	f5 4f       	sbci	r31, 0xF5	; 245
    197c:	40 81       	ld	r20, Z
    197e:	51 81       	ldd	r21, Z+1	; 0x01
    1980:	dc 01       	movw	r26, r24
    1982:	aa 0f       	add	r26, r26
    1984:	bb 1f       	adc	r27, r27
    1986:	aa 0f       	add	r26, r26
    1988:	bb 1f       	adc	r27, r27
    198a:	aa 0f       	add	r26, r26
    198c:	bb 1f       	adc	r27, r27
    198e:	88 0f       	add	r24, r24
    1990:	99 1f       	adc	r25, r25
    1992:	a8 0f       	add	r26, r24
    1994:	b9 1f       	adc	r27, r25
    1996:	ac 5f       	subi	r26, 0xFC	; 252
    1998:	b5 4f       	sbci	r27, 0xF5	; 245
    199a:	14 96       	adiw	r26, 0x04	; 4
    199c:	ed 91       	ld	r30, X+
    199e:	fc 91       	ld	r31, X
    19a0:	15 97       	sbiw	r26, 0x05	; 5
    19a2:	ea 01       	movw	r28, r20
    19a4:	28 81       	ld	r18, Y
    19a6:	81 e0       	ldi	r24, 0x01	; 1
    19a8:	90 e0       	ldi	r25, 0x00	; 0
    19aa:	16 96       	adiw	r26, 0x06	; 6
    19ac:	0c 90       	ld	r0, X
    19ae:	16 97       	sbiw	r26, 0x06	; 6
    19b0:	02 c0       	rjmp	.+4      	; 0x19b6 <motion_servo_stop+0x54>
    19b2:	88 0f       	add	r24, r24
    19b4:	99 1f       	adc	r25, r25
    19b6:	0a 94       	dec	r0
    19b8:	e2 f7       	brpl	.-8      	; 0x19b2 <motion_servo_stop+0x50>
    19ba:	28 2b       	or	r18, r24
    19bc:	28 83       	st	Y, r18
    19be:	20 81       	ld	r18, Z
    19c0:	80 95       	com	r24
    19c2:	82 23       	and	r24, r18
    19c4:	80 83       	st	Z, r24
    19c6:	18 96       	adiw	r26, 0x08	; 8
    19c8:	ed 91       	ld	r30, X+
    19ca:	fc 91       	ld	r31, X
    19cc:	19 97       	sbiw	r26, 0x09	; 9
    19ce:	00 84       	ldd	r0, Z+8	; 0x08
    19d0:	f1 85       	ldd	r31, Z+9	; 0x09
    19d2:	e0 2d       	mov	r30, r0
    19d4:	90 81       	ld	r25, Z
    19d6:	17 96       	adiw	r26, 0x07	; 7
    19d8:	8c 91       	ld	r24, X
    19da:	81 30       	cpi	r24, 0x01	; 1
    19dc:	69 f0       	breq	.+26     	; 0x19f8 <motion_servo_stop+0x96>
    19de:	81 30       	cpi	r24, 0x01	; 1
    19e0:	30 f4       	brcc	.+12     	; 0x19ee <motion_servo_stop+0x8c>
    19e2:	8f e3       	ldi	r24, 0x3F	; 63
    19e4:	89 23       	and	r24, r25
    19e6:	80 83       	st	Z, r24
    19e8:	df 91       	pop	r29
    19ea:	cf 91       	pop	r28
    19ec:	08 95       	ret
    19ee:	82 30       	cpi	r24, 0x02	; 2
    19f0:	29 f0       	breq	.+10     	; 0x19fc <motion_servo_stop+0x9a>
    19f2:	df 91       	pop	r29
    19f4:	cf 91       	pop	r28
    19f6:	08 95       	ret
    19f8:	8f ec       	ldi	r24, 0xCF	; 207
    19fa:	f4 cf       	rjmp	.-24     	; 0x19e4 <motion_servo_stop+0x82>
    19fc:	83 ef       	ldi	r24, 0xF3	; 243
    19fe:	f2 cf       	rjmp	.-28     	; 0x19e4 <motion_servo_stop+0x82>

00001a00 <motion_servo_set_pulse_width>:
    1a00:	9c 01       	movw	r18, r24
    1a02:	cb 01       	movw	r24, r22
    1a04:	8c 54       	subi	r24, 0x4C	; 76
    1a06:	94 40       	sbci	r25, 0x04	; 4
    1a08:	85 57       	subi	r24, 0x75	; 117
    1a0a:	9e 40       	sbci	r25, 0x0E	; 14
    1a0c:	98 f4       	brcc	.+38     	; 0x1a34 <motion_servo_set_pulse_width+0x34>
    1a0e:	c9 01       	movw	r24, r18
    1a10:	f9 01       	movw	r30, r18
    1a12:	ee 0f       	add	r30, r30
    1a14:	ff 1f       	adc	r31, r31
    1a16:	ee 0f       	add	r30, r30
    1a18:	ff 1f       	adc	r31, r31
    1a1a:	ee 0f       	add	r30, r30
    1a1c:	ff 1f       	adc	r31, r31
    1a1e:	88 0f       	add	r24, r24
    1a20:	99 1f       	adc	r25, r25
    1a22:	e8 0f       	add	r30, r24
    1a24:	f9 1f       	adc	r31, r25
    1a26:	ec 5f       	subi	r30, 0xFC	; 252
    1a28:	f5 4f       	sbci	r31, 0xF5	; 245
    1a2a:	01 90       	ld	r0, Z+
    1a2c:	f0 81       	ld	r31, Z
    1a2e:	e0 2d       	mov	r30, r0
    1a30:	71 83       	std	Z+1, r23	; 0x01
    1a32:	60 83       	st	Z, r22
    1a34:	08 95       	ret

00001a36 <motion_servo_get_pulse_width>:
    1a36:	9c 01       	movw	r18, r24
    1a38:	fc 01       	movw	r30, r24
    1a3a:	ee 0f       	add	r30, r30
    1a3c:	ff 1f       	adc	r31, r31
    1a3e:	ee 0f       	add	r30, r30
    1a40:	ff 1f       	adc	r31, r31
    1a42:	ee 0f       	add	r30, r30
    1a44:	ff 1f       	adc	r31, r31
    1a46:	22 0f       	add	r18, r18
    1a48:	33 1f       	adc	r19, r19
    1a4a:	e2 0f       	add	r30, r18
    1a4c:	f3 1f       	adc	r31, r19
    1a4e:	ec 5f       	subi	r30, 0xFC	; 252
    1a50:	f5 4f       	sbci	r31, 0xF5	; 245
    1a52:	01 90       	ld	r0, Z+
    1a54:	f0 81       	ld	r31, Z
    1a56:	e0 2d       	mov	r30, r0
    1a58:	20 81       	ld	r18, Z
    1a5a:	31 81       	ldd	r19, Z+1	; 0x01
    1a5c:	c9 01       	movw	r24, r18
    1a5e:	08 95       	ret

00001a60 <motion_enc_read>:
    1a60:	cf 93       	push	r28
    1a62:	df 93       	push	r29
    1a64:	dc 01       	movw	r26, r24
    1a66:	eb 01       	movw	r28, r22
    1a68:	f8 94       	cli
    1a6a:	fc 01       	movw	r30, r24
    1a6c:	ee 0f       	add	r30, r30
    1a6e:	ff 1f       	adc	r31, r31
    1a70:	ea 5c       	subi	r30, 0xCA	; 202
    1a72:	f5 4f       	sbci	r31, 0xF5	; 245
    1a74:	80 81       	ld	r24, Z
    1a76:	91 81       	ldd	r25, Z+1	; 0x01
    1a78:	01 97       	sbiw	r24, 0x01	; 1
    1a7a:	39 f0       	breq	.+14     	; 0x1a8a <motion_enc_read+0x2a>
    1a7c:	20 e0       	ldi	r18, 0x00	; 0
    1a7e:	30 e0       	ldi	r19, 0x00	; 0
    1a80:	78 94       	sei
    1a82:	c9 01       	movw	r24, r18
    1a84:	df 91       	pop	r29
    1a86:	cf 91       	pop	r28
    1a88:	08 95       	ret
    1a8a:	aa 0f       	add	r26, r26
    1a8c:	bb 1f       	adc	r27, r27
    1a8e:	aa 0f       	add	r26, r26
    1a90:	bb 1f       	adc	r27, r27
    1a92:	a2 5d       	subi	r26, 0xD2	; 210
    1a94:	b5 4f       	sbci	r27, 0xF5	; 245
    1a96:	8d 91       	ld	r24, X+
    1a98:	9d 91       	ld	r25, X+
    1a9a:	0d 90       	ld	r0, X+
    1a9c:	bc 91       	ld	r27, X
    1a9e:	a0 2d       	mov	r26, r0
    1aa0:	88 83       	st	Y, r24
    1aa2:	99 83       	std	Y+1, r25	; 0x01
    1aa4:	aa 83       	std	Y+2, r26	; 0x02
    1aa6:	bb 83       	std	Y+3, r27	; 0x03
    1aa8:	11 82       	std	Z+1, r1	; 0x01
    1aaa:	10 82       	st	Z, r1
    1aac:	21 e0       	ldi	r18, 0x01	; 1
    1aae:	30 e0       	ldi	r19, 0x00	; 0
    1ab0:	78 94       	sei
    1ab2:	c9 01       	movw	r24, r18
    1ab4:	df 91       	pop	r29
    1ab6:	cf 91       	pop	r28
    1ab8:	08 95       	ret

00001aba <__vector_45>:
    1aba:	1f 92       	push	r1
    1abc:	0f 92       	push	r0
    1abe:	0f b6       	in	r0, 0x3f	; 63
    1ac0:	0f 92       	push	r0
    1ac2:	11 24       	eor	r1, r1
    1ac4:	8f 93       	push	r24
    1ac6:	9f 93       	push	r25
    1ac8:	af 93       	push	r26
    1aca:	bf 93       	push	r27
    1acc:	80 91 22 0a 	lds	r24, 0x0A22
    1ad0:	90 91 23 0a 	lds	r25, 0x0A23
    1ad4:	a0 91 24 0a 	lds	r26, 0x0A24
    1ad8:	b0 91 25 0a 	lds	r27, 0x0A25
    1adc:	01 96       	adiw	r24, 0x01	; 1
    1ade:	a1 1d       	adc	r26, r1
    1ae0:	b1 1d       	adc	r27, r1
    1ae2:	80 93 22 0a 	sts	0x0A22, r24
    1ae6:	90 93 23 0a 	sts	0x0A23, r25
    1aea:	a0 93 24 0a 	sts	0x0A24, r26
    1aee:	b0 93 25 0a 	sts	0x0A25, r27
    1af2:	bf 91       	pop	r27
    1af4:	af 91       	pop	r26
    1af6:	9f 91       	pop	r25
    1af8:	8f 91       	pop	r24
    1afa:	0f 90       	pop	r0
    1afc:	0f be       	out	0x3f, r0	; 63
    1afe:	0f 90       	pop	r0
    1b00:	1f 90       	pop	r1
    1b02:	18 95       	reti

00001b04 <__vector_50>:
    1b04:	1f 92       	push	r1
    1b06:	0f 92       	push	r0
    1b08:	0f b6       	in	r0, 0x3f	; 63
    1b0a:	0f 92       	push	r0
    1b0c:	11 24       	eor	r1, r1
    1b0e:	8f 93       	push	r24
    1b10:	9f 93       	push	r25
    1b12:	af 93       	push	r26
    1b14:	bf 93       	push	r27
    1b16:	80 91 26 0a 	lds	r24, 0x0A26
    1b1a:	90 91 27 0a 	lds	r25, 0x0A27
    1b1e:	a0 91 28 0a 	lds	r26, 0x0A28
    1b22:	b0 91 29 0a 	lds	r27, 0x0A29
    1b26:	01 96       	adiw	r24, 0x01	; 1
    1b28:	a1 1d       	adc	r26, r1
    1b2a:	b1 1d       	adc	r27, r1
    1b2c:	80 93 26 0a 	sts	0x0A26, r24
    1b30:	90 93 27 0a 	sts	0x0A27, r25
    1b34:	a0 93 28 0a 	sts	0x0A28, r26
    1b38:	b0 93 29 0a 	sts	0x0A29, r27
    1b3c:	bf 91       	pop	r27
    1b3e:	af 91       	pop	r26
    1b40:	9f 91       	pop	r25
    1b42:	8f 91       	pop	r24
    1b44:	0f 90       	pop	r0
    1b46:	0f be       	out	0x3f, r0	; 63
    1b48:	0f 90       	pop	r0
    1b4a:	1f 90       	pop	r1
    1b4c:	18 95       	reti

00001b4e <__vector_41>:
    1b4e:	1f 92       	push	r1
    1b50:	0f 92       	push	r0
    1b52:	0f b6       	in	r0, 0x3f	; 63
    1b54:	0f 92       	push	r0
    1b56:	0b b6       	in	r0, 0x3b	; 59
    1b58:	0f 92       	push	r0
    1b5a:	11 24       	eor	r1, r1
    1b5c:	ef 92       	push	r14
    1b5e:	ff 92       	push	r15
    1b60:	0f 93       	push	r16
    1b62:	1f 93       	push	r17
    1b64:	2f 93       	push	r18
    1b66:	3f 93       	push	r19
    1b68:	4f 93       	push	r20
    1b6a:	5f 93       	push	r21
    1b6c:	6f 93       	push	r22
    1b6e:	7f 93       	push	r23
    1b70:	8f 93       	push	r24
    1b72:	9f 93       	push	r25
    1b74:	af 93       	push	r26
    1b76:	bf 93       	push	r27
    1b78:	cf 93       	push	r28
    1b7a:	df 93       	push	r29
    1b7c:	ef 93       	push	r30
    1b7e:	ff 93       	push	r31
    1b80:	e0 91 e4 09 	lds	r30, 0x09E4
    1b84:	f0 91 e5 09 	lds	r31, 0x09E5
    1b88:	80 81       	ld	r24, Z
    1b8a:	80 62       	ori	r24, 0x20	; 32
    1b8c:	80 83       	st	Z, r24
    1b8e:	e0 91 ea 09 	lds	r30, 0x09EA
    1b92:	f0 91 eb 09 	lds	r31, 0x09EB
    1b96:	c0 81       	ld	r28, Z
    1b98:	d1 81       	ldd	r29, Z+1	; 0x01
    1b9a:	20 91 22 0a 	lds	r18, 0x0A22
    1b9e:	30 91 23 0a 	lds	r19, 0x0A23
    1ba2:	40 91 24 0a 	lds	r20, 0x0A24
    1ba6:	50 91 25 0a 	lds	r21, 0x0A25
    1baa:	10 92 22 0a 	sts	0x0A22, r1
    1bae:	10 92 23 0a 	sts	0x0A23, r1
    1bb2:	10 92 24 0a 	sts	0x0A24, r1
    1bb6:	10 92 25 0a 	sts	0x0A25, r1
    1bba:	21 15       	cp	r18, r1
    1bbc:	31 05       	cpc	r19, r1
    1bbe:	41 05       	cpc	r20, r1
    1bc0:	51 05       	cpc	r21, r1
    1bc2:	09 f4       	brne	.+2      	; 0x1bc6 <__vector_41+0x78>
    1bc4:	44 c0       	rjmp	.+136    	; 0x1c4e <__vector_41+0x100>
    1bc6:	80 91 2a 0a 	lds	r24, 0x0A2A
    1bca:	90 91 2b 0a 	lds	r25, 0x0A2B
    1bce:	7e 01       	movw	r14, r28
    1bd0:	00 e0       	ldi	r16, 0x00	; 0
    1bd2:	10 e0       	ldi	r17, 0x00	; 0
    1bd4:	a0 e0       	ldi	r26, 0x00	; 0
    1bd6:	b0 e0       	ldi	r27, 0x00	; 0
    1bd8:	e8 1a       	sub	r14, r24
    1bda:	f9 0a       	sbc	r15, r25
    1bdc:	0a 0b       	sbc	r16, r26
    1bde:	1b 0b       	sbc	r17, r27
    1be0:	ca 01       	movw	r24, r20
    1be2:	b9 01       	movw	r22, r18
    1be4:	2f e3       	ldi	r18, 0x3F	; 63
    1be6:	3c e9       	ldi	r19, 0x9C	; 156
    1be8:	40 e0       	ldi	r20, 0x00	; 0
    1bea:	50 e0       	ldi	r21, 0x00	; 0
    1bec:	0e 94 24 53 	call	0xa648	; 0xa648 <__mulsi3>
    1bf0:	e6 0e       	add	r14, r22
    1bf2:	f7 1e       	adc	r15, r23
    1bf4:	08 1f       	adc	r16, r24
    1bf6:	19 1f       	adc	r17, r25
    1bf8:	e0 92 2e 0a 	sts	0x0A2E, r14
    1bfc:	f0 92 2f 0a 	sts	0x0A2F, r15
    1c00:	00 93 30 0a 	sts	0x0A30, r16
    1c04:	10 93 31 0a 	sts	0x0A31, r17
    1c08:	81 e0       	ldi	r24, 0x01	; 1
    1c0a:	90 e0       	ldi	r25, 0x00	; 0
    1c0c:	90 93 37 0a 	sts	0x0A37, r25
    1c10:	80 93 36 0a 	sts	0x0A36, r24
    1c14:	d0 93 2b 0a 	sts	0x0A2B, r29
    1c18:	c0 93 2a 0a 	sts	0x0A2A, r28
    1c1c:	ff 91       	pop	r31
    1c1e:	ef 91       	pop	r30
    1c20:	df 91       	pop	r29
    1c22:	cf 91       	pop	r28
    1c24:	bf 91       	pop	r27
    1c26:	af 91       	pop	r26
    1c28:	9f 91       	pop	r25
    1c2a:	8f 91       	pop	r24
    1c2c:	7f 91       	pop	r23
    1c2e:	6f 91       	pop	r22
    1c30:	5f 91       	pop	r21
    1c32:	4f 91       	pop	r20
    1c34:	3f 91       	pop	r19
    1c36:	2f 91       	pop	r18
    1c38:	1f 91       	pop	r17
    1c3a:	0f 91       	pop	r16
    1c3c:	ff 90       	pop	r15
    1c3e:	ef 90       	pop	r14
    1c40:	0f 90       	pop	r0
    1c42:	0b be       	out	0x3b, r0	; 59
    1c44:	0f 90       	pop	r0
    1c46:	0f be       	out	0x3f, r0	; 63
    1c48:	0f 90       	pop	r0
    1c4a:	1f 90       	pop	r1
    1c4c:	18 95       	reti
    1c4e:	80 91 2a 0a 	lds	r24, 0x0A2A
    1c52:	90 91 2b 0a 	lds	r25, 0x0A2B
    1c56:	9e 01       	movw	r18, r28
    1c58:	28 1b       	sub	r18, r24
    1c5a:	39 0b       	sbc	r19, r25
    1c5c:	79 01       	movw	r14, r18
    1c5e:	00 e0       	ldi	r16, 0x00	; 0
    1c60:	10 e0       	ldi	r17, 0x00	; 0
    1c62:	ca cf       	rjmp	.-108    	; 0x1bf8 <__vector_41+0xaa>

00001c64 <__vector_46>:
    1c64:	1f 92       	push	r1
    1c66:	0f 92       	push	r0
    1c68:	0f b6       	in	r0, 0x3f	; 63
    1c6a:	0f 92       	push	r0
    1c6c:	0b b6       	in	r0, 0x3b	; 59
    1c6e:	0f 92       	push	r0
    1c70:	11 24       	eor	r1, r1
    1c72:	ef 92       	push	r14
    1c74:	ff 92       	push	r15
    1c76:	0f 93       	push	r16
    1c78:	1f 93       	push	r17
    1c7a:	2f 93       	push	r18
    1c7c:	3f 93       	push	r19
    1c7e:	4f 93       	push	r20
    1c80:	5f 93       	push	r21
    1c82:	6f 93       	push	r22
    1c84:	7f 93       	push	r23
    1c86:	8f 93       	push	r24
    1c88:	9f 93       	push	r25
    1c8a:	af 93       	push	r26
    1c8c:	bf 93       	push	r27
    1c8e:	cf 93       	push	r28
    1c90:	df 93       	push	r29
    1c92:	ef 93       	push	r30
    1c94:	ff 93       	push	r31
    1c96:	a0 91 e2 09 	lds	r26, 0x09E2
    1c9a:	b0 91 e3 09 	lds	r27, 0x09E3
    1c9e:	ed 91       	ld	r30, X+
    1ca0:	fc 91       	ld	r31, X
    1ca2:	11 97       	sbiw	r26, 0x01	; 1
    1ca4:	80 81       	ld	r24, Z
    1ca6:	80 62       	ori	r24, 0x20	; 32
    1ca8:	80 83       	st	Z, r24
    1caa:	16 96       	adiw	r26, 0x06	; 6
    1cac:	ed 91       	ld	r30, X+
    1cae:	fc 91       	ld	r31, X
    1cb0:	17 97       	sbiw	r26, 0x07	; 7
    1cb2:	c0 81       	ld	r28, Z
    1cb4:	d1 81       	ldd	r29, Z+1	; 0x01
    1cb6:	20 91 26 0a 	lds	r18, 0x0A26
    1cba:	30 91 27 0a 	lds	r19, 0x0A27
    1cbe:	40 91 28 0a 	lds	r20, 0x0A28
    1cc2:	50 91 29 0a 	lds	r21, 0x0A29
    1cc6:	10 92 26 0a 	sts	0x0A26, r1
    1cca:	10 92 27 0a 	sts	0x0A27, r1
    1cce:	10 92 28 0a 	sts	0x0A28, r1
    1cd2:	10 92 29 0a 	sts	0x0A29, r1
    1cd6:	21 15       	cp	r18, r1
    1cd8:	31 05       	cpc	r19, r1
    1cda:	41 05       	cpc	r20, r1
    1cdc:	51 05       	cpc	r21, r1
    1cde:	09 f4       	brne	.+2      	; 0x1ce2 <__vector_46+0x7e>
    1ce0:	44 c0       	rjmp	.+136    	; 0x1d6a <__vector_46+0x106>
    1ce2:	80 91 2c 0a 	lds	r24, 0x0A2C
    1ce6:	90 91 2d 0a 	lds	r25, 0x0A2D
    1cea:	7e 01       	movw	r14, r28
    1cec:	00 e0       	ldi	r16, 0x00	; 0
    1cee:	10 e0       	ldi	r17, 0x00	; 0
    1cf0:	a0 e0       	ldi	r26, 0x00	; 0
    1cf2:	b0 e0       	ldi	r27, 0x00	; 0
    1cf4:	e8 1a       	sub	r14, r24
    1cf6:	f9 0a       	sbc	r15, r25
    1cf8:	0a 0b       	sbc	r16, r26
    1cfa:	1b 0b       	sbc	r17, r27
    1cfc:	ca 01       	movw	r24, r20
    1cfe:	b9 01       	movw	r22, r18
    1d00:	2f e3       	ldi	r18, 0x3F	; 63
    1d02:	3c e9       	ldi	r19, 0x9C	; 156
    1d04:	40 e0       	ldi	r20, 0x00	; 0
    1d06:	50 e0       	ldi	r21, 0x00	; 0
    1d08:	0e 94 24 53 	call	0xa648	; 0xa648 <__mulsi3>
    1d0c:	e6 0e       	add	r14, r22
    1d0e:	f7 1e       	adc	r15, r23
    1d10:	08 1f       	adc	r16, r24
    1d12:	19 1f       	adc	r17, r25
    1d14:	e0 92 32 0a 	sts	0x0A32, r14
    1d18:	f0 92 33 0a 	sts	0x0A33, r15
    1d1c:	00 93 34 0a 	sts	0x0A34, r16
    1d20:	10 93 35 0a 	sts	0x0A35, r17
    1d24:	81 e0       	ldi	r24, 0x01	; 1
    1d26:	90 e0       	ldi	r25, 0x00	; 0
    1d28:	90 93 39 0a 	sts	0x0A39, r25
    1d2c:	80 93 38 0a 	sts	0x0A38, r24
    1d30:	d0 93 2d 0a 	sts	0x0A2D, r29
    1d34:	c0 93 2c 0a 	sts	0x0A2C, r28
    1d38:	ff 91       	pop	r31
    1d3a:	ef 91       	pop	r30
    1d3c:	df 91       	pop	r29
    1d3e:	cf 91       	pop	r28
    1d40:	bf 91       	pop	r27
    1d42:	af 91       	pop	r26
    1d44:	9f 91       	pop	r25
    1d46:	8f 91       	pop	r24
    1d48:	7f 91       	pop	r23
    1d4a:	6f 91       	pop	r22
    1d4c:	5f 91       	pop	r21
    1d4e:	4f 91       	pop	r20
    1d50:	3f 91       	pop	r19
    1d52:	2f 91       	pop	r18
    1d54:	1f 91       	pop	r17
    1d56:	0f 91       	pop	r16
    1d58:	ff 90       	pop	r15
    1d5a:	ef 90       	pop	r14
    1d5c:	0f 90       	pop	r0
    1d5e:	0b be       	out	0x3b, r0	; 59
    1d60:	0f 90       	pop	r0
    1d62:	0f be       	out	0x3f, r0	; 63
    1d64:	0f 90       	pop	r0
    1d66:	1f 90       	pop	r1
    1d68:	18 95       	reti
    1d6a:	80 91 2c 0a 	lds	r24, 0x0A2C
    1d6e:	90 91 2d 0a 	lds	r25, 0x0A2D
    1d72:	9e 01       	movw	r18, r28
    1d74:	28 1b       	sub	r18, r24
    1d76:	39 0b       	sbc	r19, r25
    1d78:	79 01       	movw	r14, r18
    1d7a:	00 e0       	ldi	r16, 0x00	; 0
    1d7c:	10 e0       	ldi	r17, 0x00	; 0
    1d7e:	ca cf       	rjmp	.-108    	; 0x1d14 <__vector_46+0xb0>

00001d80 <motion_init>:
    1d80:	80 91 a0 00 	lds	r24, 0x00A0
    1d84:	8f 73       	andi	r24, 0x3F	; 63
    1d86:	80 93 a0 00 	sts	0x00A0, r24
    1d8a:	80 91 a0 00 	lds	r24, 0x00A0
    1d8e:	8f 7c       	andi	r24, 0xCF	; 207
    1d90:	80 93 a0 00 	sts	0x00A0, r24
    1d94:	80 91 a0 00 	lds	r24, 0x00A0
    1d98:	83 7f       	andi	r24, 0xF3	; 243
    1d9a:	80 93 a0 00 	sts	0x00A0, r24
    1d9e:	80 91 a0 00 	lds	r24, 0x00A0
    1da2:	90 91 a1 00 	lds	r25, 0x00A1
    1da6:	83 60       	ori	r24, 0x03	; 3
    1da8:	98 61       	ori	r25, 0x18	; 24
    1daa:	80 93 a0 00 	sts	0x00A0, r24
    1dae:	90 93 a1 00 	sts	0x00A1, r25
    1db2:	80 91 a1 00 	lds	r24, 0x00A1
    1db6:	82 60       	ori	r24, 0x02	; 2
    1db8:	8a 7f       	andi	r24, 0xFA	; 250
    1dba:	80 93 a1 00 	sts	0x00A1, r24
    1dbe:	2e e3       	ldi	r18, 0x3E	; 62
    1dc0:	3c e9       	ldi	r19, 0x9C	; 156
    1dc2:	30 93 a9 00 	sts	0x00A9, r19
    1dc6:	20 93 a8 00 	sts	0x00A8, r18
    1dca:	80 91 20 01 	lds	r24, 0x0120
    1dce:	8f 73       	andi	r24, 0x3F	; 63
    1dd0:	80 93 20 01 	sts	0x0120, r24
    1dd4:	80 91 20 01 	lds	r24, 0x0120
    1dd8:	8f 7c       	andi	r24, 0xCF	; 207
    1dda:	80 93 20 01 	sts	0x0120, r24
    1dde:	80 91 20 01 	lds	r24, 0x0120
    1de2:	83 7f       	andi	r24, 0xF3	; 243
    1de4:	80 93 20 01 	sts	0x0120, r24
    1de8:	80 91 20 01 	lds	r24, 0x0120
    1dec:	90 91 21 01 	lds	r25, 0x0121
    1df0:	83 60       	ori	r24, 0x03	; 3
    1df2:	98 61       	ori	r25, 0x18	; 24
    1df4:	80 93 20 01 	sts	0x0120, r24
    1df8:	90 93 21 01 	sts	0x0121, r25
    1dfc:	80 91 21 01 	lds	r24, 0x0121
    1e00:	82 60       	ori	r24, 0x02	; 2
    1e02:	8a 7f       	andi	r24, 0xFA	; 250
    1e04:	80 93 21 01 	sts	0x0121, r24
    1e08:	30 93 29 01 	sts	0x0129, r19
    1e0c:	20 93 28 01 	sts	0x0128, r18
    1e10:	10 92 2b 0a 	sts	0x0A2B, r1
    1e14:	10 92 2a 0a 	sts	0x0A2A, r1
    1e18:	10 92 22 0a 	sts	0x0A22, r1
    1e1c:	10 92 23 0a 	sts	0x0A23, r1
    1e20:	10 92 24 0a 	sts	0x0A24, r1
    1e24:	10 92 25 0a 	sts	0x0A25, r1
    1e28:	80 91 0a 01 	lds	r24, 0x010A
    1e2c:	8e 7f       	andi	r24, 0xFE	; 254
    1e2e:	80 93 0a 01 	sts	0x010A, r24
    1e32:	80 91 0b 01 	lds	r24, 0x010B
    1e36:	8e 7f       	andi	r24, 0xFE	; 254
    1e38:	80 93 0b 01 	sts	0x010B, r24
    1e3c:	e0 91 e6 09 	lds	r30, 0x09E6
    1e40:	f0 91 e7 09 	lds	r31, 0x09E7
    1e44:	80 81       	ld	r24, Z
    1e46:	80 62       	ori	r24, 0x20	; 32
    1e48:	80 83       	st	Z, r24
    1e4a:	80 81       	ld	r24, Z
    1e4c:	81 60       	ori	r24, 0x01	; 1
    1e4e:	80 83       	st	Z, r24
    1e50:	e0 91 ee 09 	lds	r30, 0x09EE
    1e54:	f0 91 ef 09 	lds	r31, 0x09EF
    1e58:	80 81       	ld	r24, Z
    1e5a:	80 64       	ori	r24, 0x40	; 64
    1e5c:	80 83       	st	Z, r24
    1e5e:	10 92 2d 0a 	sts	0x0A2D, r1
    1e62:	10 92 2c 0a 	sts	0x0A2C, r1
    1e66:	10 92 26 0a 	sts	0x0A26, r1
    1e6a:	10 92 27 0a 	sts	0x0A27, r1
    1e6e:	10 92 28 0a 	sts	0x0A28, r1
    1e72:	10 92 29 0a 	sts	0x0A29, r1
    1e76:	80 91 0a 01 	lds	r24, 0x010A
    1e7a:	8d 7f       	andi	r24, 0xFD	; 253
    1e7c:	80 93 0a 01 	sts	0x010A, r24
    1e80:	80 91 0b 01 	lds	r24, 0x010B
    1e84:	8d 7f       	andi	r24, 0xFD	; 253
    1e86:	80 93 0b 01 	sts	0x010B, r24
    1e8a:	a0 91 e2 09 	lds	r26, 0x09E2
    1e8e:	b0 91 e3 09 	lds	r27, 0x09E3
    1e92:	12 96       	adiw	r26, 0x02	; 2
    1e94:	ed 91       	ld	r30, X+
    1e96:	fc 91       	ld	r31, X
    1e98:	13 97       	sbiw	r26, 0x03	; 3
    1e9a:	80 81       	ld	r24, Z
    1e9c:	80 62       	ori	r24, 0x20	; 32
    1e9e:	80 83       	st	Z, r24
    1ea0:	12 96       	adiw	r26, 0x02	; 2
    1ea2:	ed 91       	ld	r30, X+
    1ea4:	fc 91       	ld	r31, X
    1ea6:	13 97       	sbiw	r26, 0x03	; 3
    1ea8:	80 81       	ld	r24, Z
    1eaa:	81 60       	ori	r24, 0x01	; 1
    1eac:	80 83       	st	Z, r24
    1eae:	1a 96       	adiw	r26, 0x0a	; 10
    1eb0:	ed 91       	ld	r30, X+
    1eb2:	fc 91       	ld	r31, X
    1eb4:	1b 97       	sbiw	r26, 0x0b	; 11
    1eb6:	80 81       	ld	r24, Z
    1eb8:	80 64       	ori	r24, 0x40	; 64
    1eba:	80 83       	st	Z, r24
    1ebc:	08 95       	ret

00001ebe <getPulseWidth>:
    1ebe:	88 23       	and	r24, r24
    1ec0:	91 f4       	brne	.+36     	; 0x1ee6 <getPulseWidth+0x28>
    1ec2:	cb 01       	movw	r24, r22
    1ec4:	ba 01       	movw	r22, r20
    1ec6:	20 e0       	ldi	r18, 0x00	; 0
    1ec8:	30 e8       	ldi	r19, 0x80	; 128
    1eca:	40 ec       	ldi	r20, 0xC0	; 192
    1ecc:	54 ec       	ldi	r21, 0xC4	; 196
    1ece:	0e 94 df 4b 	call	0x97be	; 0x97be <__mulsf3>
    1ed2:	20 e0       	ldi	r18, 0x00	; 0
    1ed4:	30 e0       	ldi	r19, 0x00	; 0
    1ed6:	45 e2       	ldi	r20, 0x25	; 37
    1ed8:	55 e4       	ldi	r21, 0x45	; 69
    1eda:	0e 94 28 4a 	call	0x9450	; 0x9450 <__addsf3>
    1ede:	0e 94 f8 4a 	call	0x95f0	; 0x95f0 <__fixsfsi>
    1ee2:	cb 01       	movw	r24, r22
    1ee4:	08 95       	ret
    1ee6:	cb 01       	movw	r24, r22
    1ee8:	ba 01       	movw	r22, r20
    1eea:	20 e0       	ldi	r18, 0x00	; 0
    1eec:	30 e0       	ldi	r19, 0x00	; 0
    1eee:	47 e0       	ldi	r20, 0x07	; 7
    1ef0:	55 e4       	ldi	r21, 0x45	; 69
    1ef2:	0e 94 df 4b 	call	0x97be	; 0x97be <__mulsf3>
    1ef6:	20 e0       	ldi	r18, 0x00	; 0
    1ef8:	30 e0       	ldi	r19, 0x00	; 0
    1efa:	45 e2       	ldi	r20, 0x25	; 37
    1efc:	55 e4       	ldi	r21, 0x45	; 69
    1efe:	0e 94 28 4a 	call	0x9450	; 0x9450 <__addsf3>
    1f02:	0e 94 f8 4a 	call	0x95f0	; 0x95f0 <__fixsfsi>
    1f06:	cb 01       	movw	r24, r22
    1f08:	08 95       	ret

00001f0a <getAverageSpeed>:
    1f0a:	60 91 fb 1c 	lds	r22, 0x1CFB
    1f0e:	70 91 fc 1c 	lds	r23, 0x1CFC
    1f12:	80 91 fd 1c 	lds	r24, 0x1CFD
    1f16:	90 91 fe 1c 	lds	r25, 0x1CFE
    1f1a:	20 91 ff 1c 	lds	r18, 0x1CFF
    1f1e:	30 91 00 1d 	lds	r19, 0x1D00
    1f22:	40 91 01 1d 	lds	r20, 0x1D01
    1f26:	50 91 02 1d 	lds	r21, 0x1D02
    1f2a:	0e 94 28 4a 	call	0x9450	; 0x9450 <__addsf3>
    1f2e:	20 e0       	ldi	r18, 0x00	; 0
    1f30:	30 e0       	ldi	r19, 0x00	; 0
    1f32:	40 e0       	ldi	r20, 0x00	; 0
    1f34:	5f e3       	ldi	r21, 0x3F	; 63
    1f36:	0e 94 df 4b 	call	0x97be	; 0x97be <__mulsf3>
    1f3a:	08 95       	ret

00001f3c <getTotalDistance>:
    1f3c:	60 91 eb 1c 	lds	r22, 0x1CEB
    1f40:	70 91 ec 1c 	lds	r23, 0x1CEC
    1f44:	80 91 ed 1c 	lds	r24, 0x1CED
    1f48:	90 91 ee 1c 	lds	r25, 0x1CEE
    1f4c:	20 91 ef 1c 	lds	r18, 0x1CEF
    1f50:	30 91 f0 1c 	lds	r19, 0x1CF0
    1f54:	40 91 f1 1c 	lds	r20, 0x1CF1
    1f58:	50 91 f2 1c 	lds	r21, 0x1CF2
    1f5c:	0e 94 28 4a 	call	0x9450	; 0x9450 <__addsf3>
    1f60:	20 e0       	ldi	r18, 0x00	; 0
    1f62:	30 e0       	ldi	r19, 0x00	; 0
    1f64:	40 e0       	ldi	r20, 0x00	; 0
    1f66:	5f e3       	ldi	r21, 0x3F	; 63
    1f68:	0e 94 df 4b 	call	0x97be	; 0x97be <__mulsf3>
    1f6c:	08 95       	ret

00001f6e <getSpeedById>:
    1f6e:	cf 92       	push	r12
    1f70:	df 92       	push	r13
    1f72:	ef 92       	push	r14
    1f74:	ff 92       	push	r15
    1f76:	0f 93       	push	r16
    1f78:	1f 93       	push	r17
    1f7a:	8c 01       	movw	r16, r24
    1f7c:	f4 2e       	mov	r15, r20
    1f7e:	e5 2e       	mov	r14, r21
    1f80:	d6 2e       	mov	r13, r22
    1f82:	c7 2e       	mov	r12, r23
    1f84:	60 e0       	ldi	r22, 0x00	; 0
    1f86:	70 e0       	ldi	r23, 0x00	; 0
    1f88:	0e 94 30 0d 	call	0x1a60	; 0x1a60 <motion_enc_read>
    1f8c:	01 97       	sbiw	r24, 0x01	; 1
    1f8e:	69 f1       	breq	.+90     	; 0x1fea <getSpeedById+0x7c>
    1f90:	2f 2d       	mov	r18, r15
    1f92:	3e 2d       	mov	r19, r14
    1f94:	4d 2d       	mov	r20, r13
    1f96:	5c 2d       	mov	r21, r12
    1f98:	c9 01       	movw	r24, r18
    1f9a:	da 01       	movw	r26, r20
    1f9c:	6c 01       	movw	r12, r24
    1f9e:	7d 01       	movw	r14, r26
    1fa0:	00 0f       	add	r16, r16
    1fa2:	11 1f       	adc	r17, r17
    1fa4:	00 0f       	add	r16, r16
    1fa6:	11 1f       	adc	r17, r17
    1fa8:	05 51       	subi	r16, 0x15	; 21
    1faa:	13 4e       	sbci	r17, 0xE3	; 227
    1fac:	c7 01       	movw	r24, r14
    1fae:	b6 01       	movw	r22, r12
    1fb0:	20 e0       	ldi	r18, 0x00	; 0
    1fb2:	30 e0       	ldi	r19, 0x00	; 0
    1fb4:	48 ec       	ldi	r20, 0xC8	; 200
    1fb6:	52 e4       	ldi	r21, 0x42	; 66
    1fb8:	0e 94 90 4a 	call	0x9520	; 0x9520 <__divsf3>
    1fbc:	9b 01       	movw	r18, r22
    1fbe:	ac 01       	movw	r20, r24
    1fc0:	f8 01       	movw	r30, r16
    1fc2:	60 81       	ld	r22, Z
    1fc4:	71 81       	ldd	r23, Z+1	; 0x01
    1fc6:	82 81       	ldd	r24, Z+2	; 0x02
    1fc8:	93 81       	ldd	r25, Z+3	; 0x03
    1fca:	0e 94 28 4a 	call	0x9450	; 0x9450 <__addsf3>
    1fce:	f8 01       	movw	r30, r16
    1fd0:	60 83       	st	Z, r22
    1fd2:	71 83       	std	Z+1, r23	; 0x01
    1fd4:	82 83       	std	Z+2, r24	; 0x02
    1fd6:	93 83       	std	Z+3, r25	; 0x03
    1fd8:	b6 01       	movw	r22, r12
    1fda:	c7 01       	movw	r24, r14
    1fdc:	1f 91       	pop	r17
    1fde:	0f 91       	pop	r16
    1fe0:	ff 90       	pop	r15
    1fe2:	ef 90       	pop	r14
    1fe4:	df 90       	pop	r13
    1fe6:	cf 90       	pop	r12
    1fe8:	08 95       	ret
    1fea:	60 91 00 00 	lds	r22, 0x0000
    1fee:	70 91 01 00 	lds	r23, 0x0001
    1ff2:	80 91 02 00 	lds	r24, 0x0002
    1ff6:	90 91 03 00 	lds	r25, 0x0003
    1ffa:	0e 94 29 4b 	call	0x9652	; 0x9652 <__floatunsisf>
    1ffe:	2d eb       	ldi	r18, 0xBD	; 189
    2000:	37 e3       	ldi	r19, 0x37	; 55
    2002:	46 e0       	ldi	r20, 0x06	; 6
    2004:	55 e3       	ldi	r21, 0x35	; 53
    2006:	0e 94 df 4b 	call	0x97be	; 0x97be <__mulsf3>
    200a:	9b 01       	movw	r18, r22
    200c:	ac 01       	movw	r20, r24
    200e:	6c e7       	ldi	r22, 0x7C	; 124
    2010:	72 ef       	ldi	r23, 0xF2	; 242
    2012:	80 eb       	ldi	r24, 0xB0	; 176
    2014:	9b e3       	ldi	r25, 0x3B	; 59
    2016:	0e 94 90 4a 	call	0x9520	; 0x9520 <__divsf3>
    201a:	6b 01       	movw	r12, r22
    201c:	7c 01       	movw	r14, r24
    201e:	c0 cf       	rjmp	.-128    	; 0x1fa0 <getSpeedById+0x32>

00002020 <getSpeed>:
    2020:	40 91 f3 1c 	lds	r20, 0x1CF3
    2024:	50 91 f4 1c 	lds	r21, 0x1CF4
    2028:	60 91 f5 1c 	lds	r22, 0x1CF5
    202c:	70 91 f6 1c 	lds	r23, 0x1CF6
    2030:	80 e0       	ldi	r24, 0x00	; 0
    2032:	90 e0       	ldi	r25, 0x00	; 0
    2034:	0e 94 b7 0f 	call	0x1f6e	; 0x1f6e <getSpeedById>
    2038:	60 93 fb 1c 	sts	0x1CFB, r22
    203c:	70 93 fc 1c 	sts	0x1CFC, r23
    2040:	80 93 fd 1c 	sts	0x1CFD, r24
    2044:	90 93 fe 1c 	sts	0x1CFE, r25
    2048:	40 91 f7 1c 	lds	r20, 0x1CF7
    204c:	50 91 f8 1c 	lds	r21, 0x1CF8
    2050:	60 91 f9 1c 	lds	r22, 0x1CF9
    2054:	70 91 fa 1c 	lds	r23, 0x1CFA
    2058:	81 e0       	ldi	r24, 0x01	; 1
    205a:	90 e0       	ldi	r25, 0x00	; 0
    205c:	0e 94 b7 0f 	call	0x1f6e	; 0x1f6e <getSpeedById>
    2060:	60 93 ff 1c 	sts	0x1CFF, r22
    2064:	70 93 00 1d 	sts	0x1D00, r23
    2068:	80 93 01 1d 	sts	0x1D01, r24
    206c:	90 93 02 1d 	sts	0x1D02, r25
    2070:	20 91 fb 1c 	lds	r18, 0x1CFB
    2074:	30 91 fc 1c 	lds	r19, 0x1CFC
    2078:	40 91 fd 1c 	lds	r20, 0x1CFD
    207c:	50 91 fe 1c 	lds	r21, 0x1CFE
    2080:	20 93 f3 1c 	sts	0x1CF3, r18
    2084:	30 93 f4 1c 	sts	0x1CF4, r19
    2088:	40 93 f5 1c 	sts	0x1CF5, r20
    208c:	50 93 f6 1c 	sts	0x1CF6, r21
    2090:	60 93 f7 1c 	sts	0x1CF7, r22
    2094:	70 93 f8 1c 	sts	0x1CF8, r23
    2098:	80 93 f9 1c 	sts	0x1CF9, r24
    209c:	90 93 fa 1c 	sts	0x1CFA, r25
    20a0:	08 95       	ret

000020a2 <moveCenterServo>:
    20a2:	0f 93       	push	r16
    20a4:	1f 93       	push	r17
    20a6:	cf 93       	push	r28
    20a8:	df 93       	push	r29
    20aa:	ec 01       	movw	r28, r24
    20ac:	8b 01       	movw	r16, r22
    20ae:	82 e0       	ldi	r24, 0x02	; 2
    20b0:	90 e0       	ldi	r25, 0x00	; 0
    20b2:	0e 94 1b 0d 	call	0x1a36	; 0x1a36 <motion_servo_get_pulse_width>
    20b6:	bc 01       	movw	r22, r24
    20b8:	c3 30       	cpi	r28, 0x03	; 3
    20ba:	d1 05       	cpc	r29, r1
    20bc:	69 f0       	breq	.+26     	; 0x20d8 <moveCenterServo+0x36>
    20be:	c2 30       	cpi	r28, 0x02	; 2
    20c0:	d1 05       	cpc	r29, r1
    20c2:	c9 f0       	breq	.+50     	; 0x20f6 <moveCenterServo+0x54>
    20c4:	c5 30       	cpi	r28, 0x05	; 5
    20c6:	d1 05       	cpc	r29, r1
    20c8:	71 f1       	breq	.+92     	; 0x2126 <moveCenterServo+0x84>
    20ca:	24 97       	sbiw	r28, 0x04	; 4
    20cc:	19 f1       	breq	.+70     	; 0x2114 <moveCenterServo+0x72>
    20ce:	df 91       	pop	r29
    20d0:	cf 91       	pop	r28
    20d2:	1f 91       	pop	r17
    20d4:	0f 91       	pop	r16
    20d6:	08 95       	ret
    20d8:	60 1b       	sub	r22, r16
    20da:	71 0b       	sbc	r23, r17
    20dc:	82 e0       	ldi	r24, 0x02	; 2
    20de:	90 e0       	ldi	r25, 0x00	; 0
    20e0:	0e 94 00 0d 	call	0x1a00	; 0x1a00 <motion_servo_set_pulse_width>
    20e4:	82 e0       	ldi	r24, 0x02	; 2
    20e6:	90 e0       	ldi	r25, 0x00	; 0
    20e8:	0e 94 4f 0c 	call	0x189e	; 0x189e <motion_servo_start>
    20ec:	df 91       	pop	r29
    20ee:	cf 91       	pop	r28
    20f0:	1f 91       	pop	r17
    20f2:	0f 91       	pop	r16
    20f4:	08 95       	ret
    20f6:	60 0f       	add	r22, r16
    20f8:	71 1f       	adc	r23, r17
    20fa:	82 e0       	ldi	r24, 0x02	; 2
    20fc:	90 e0       	ldi	r25, 0x00	; 0
    20fe:	0e 94 00 0d 	call	0x1a00	; 0x1a00 <motion_servo_set_pulse_width>
    2102:	82 e0       	ldi	r24, 0x02	; 2
    2104:	90 e0       	ldi	r25, 0x00	; 0
    2106:	0e 94 4f 0c 	call	0x189e	; 0x189e <motion_servo_start>
    210a:	df 91       	pop	r29
    210c:	cf 91       	pop	r28
    210e:	1f 91       	pop	r17
    2110:	0f 91       	pop	r16
    2112:	08 95       	ret
    2114:	82 e0       	ldi	r24, 0x02	; 2
    2116:	90 e0       	ldi	r25, 0x00	; 0
    2118:	0e 94 b1 0c 	call	0x1962	; 0x1962 <motion_servo_stop>
    211c:	df 91       	pop	r29
    211e:	cf 91       	pop	r28
    2120:	1f 91       	pop	r17
    2122:	0f 91       	pop	r16
    2124:	08 95       	ret
    2126:	82 e0       	ldi	r24, 0x02	; 2
    2128:	90 e0       	ldi	r25, 0x00	; 0
    212a:	66 e8       	ldi	r22, 0x86	; 134
    212c:	7b e0       	ldi	r23, 0x0B	; 11
    212e:	0e 94 00 0d 	call	0x1a00	; 0x1a00 <motion_servo_set_pulse_width>
    2132:	82 e0       	ldi	r24, 0x02	; 2
    2134:	90 e0       	ldi	r25, 0x00	; 0
    2136:	0e 94 4f 0c 	call	0x189e	; 0x189e <motion_servo_start>
    213a:	df 91       	pop	r29
    213c:	cf 91       	pop	r28
    213e:	1f 91       	pop	r17
    2140:	0f 91       	pop	r16
    2142:	08 95       	ret

00002144 <moveWheels>:
    2144:	a0 e0       	ldi	r26, 0x00	; 0
    2146:	b0 e0       	ldi	r27, 0x00	; 0
    2148:	e8 ea       	ldi	r30, 0xA8	; 168
    214a:	f0 e1       	ldi	r31, 0x10	; 16
    214c:	0c 94 94 53 	jmp	0xa728	; 0xa728 <__prologue_saves__+0x10>
    2150:	ec 01       	movw	r28, r24
    2152:	a0 90 f7 1c 	lds	r10, 0x1CF7
    2156:	b0 90 f8 1c 	lds	r11, 0x1CF8
    215a:	c0 90 f9 1c 	lds	r12, 0x1CF9
    215e:	d0 90 fa 1c 	lds	r13, 0x1CFA
    2162:	e0 90 f3 1c 	lds	r14, 0x1CF3
    2166:	f0 90 f4 1c 	lds	r15, 0x1CF4
    216a:	00 91 f5 1c 	lds	r16, 0x1CF5
    216e:	10 91 f6 1c 	lds	r17, 0x1CF6
    2172:	c6 01       	movw	r24, r12
    2174:	b5 01       	movw	r22, r10
    2176:	a8 01       	movw	r20, r16
    2178:	97 01       	movw	r18, r14
    217a:	0e 94 db 4b 	call	0x97b6	; 0x97b6 <__gesf2>
    217e:	18 16       	cp	r1, r24
    2180:	0c f0       	brlt	.+2      	; 0x2184 <moveWheels+0x40>
    2182:	54 c0       	rjmp	.+168    	; 0x222c <__stack+0x2d>
    2184:	c6 01       	movw	r24, r12
    2186:	b5 01       	movw	r22, r10
    2188:	20 e0       	ldi	r18, 0x00	; 0
    218a:	30 e0       	ldi	r19, 0x00	; 0
    218c:	40 e0       	ldi	r20, 0x00	; 0
    218e:	50 e0       	ldi	r21, 0x00	; 0
    2190:	0e 94 8c 4a 	call	0x9518	; 0x9518 <__cmpsf2>
    2194:	88 23       	and	r24, r24
    2196:	09 f4       	brne	.+2      	; 0x219a <moveWheels+0x56>
    2198:	49 c0       	rjmp	.+146    	; 0x222c <__stack+0x2d>
    219a:	c8 01       	movw	r24, r16
    219c:	b7 01       	movw	r22, r14
    219e:	a6 01       	movw	r20, r12
    21a0:	95 01       	movw	r18, r10
    21a2:	0e 94 90 4a 	call	0x9520	; 0x9520 <__divsf3>
    21a6:	7b 01       	movw	r14, r22
    21a8:	8c 01       	movw	r16, r24
    21aa:	60 e0       	ldi	r22, 0x00	; 0
    21ac:	70 e0       	ldi	r23, 0x00	; 0
    21ae:	80 e8       	ldi	r24, 0x80	; 128
    21b0:	9f e3       	ldi	r25, 0x3F	; 63
    21b2:	20 97       	sbiw	r28, 0x00	; 0
    21b4:	09 f0       	breq	.+2      	; 0x21b8 <moveWheels+0x74>
    21b6:	4b c0       	rjmp	.+150    	; 0x224e <__stack+0x4f>
    21b8:	20 e0       	ldi	r18, 0x00	; 0
    21ba:	30 e0       	ldi	r19, 0x00	; 0
    21bc:	47 e0       	ldi	r20, 0x07	; 7
    21be:	55 e4       	ldi	r21, 0x45	; 69
    21c0:	0e 94 df 4b 	call	0x97be	; 0x97be <__mulsf3>
    21c4:	20 e0       	ldi	r18, 0x00	; 0
    21c6:	30 e0       	ldi	r19, 0x00	; 0
    21c8:	45 e2       	ldi	r20, 0x25	; 37
    21ca:	55 e4       	ldi	r21, 0x45	; 69
    21cc:	0e 94 28 4a 	call	0x9450	; 0x9450 <__addsf3>
    21d0:	0e 94 f8 4a 	call	0x95f0	; 0x95f0 <__fixsfsi>
    21d4:	9b 01       	movw	r18, r22
    21d6:	ac 01       	movw	r20, r24
    21d8:	80 e0       	ldi	r24, 0x00	; 0
    21da:	90 e0       	ldi	r25, 0x00	; 0
    21dc:	b9 01       	movw	r22, r18
    21de:	0e 94 00 0d 	call	0x1a00	; 0x1a00 <motion_servo_set_pulse_width>
    21e2:	80 e0       	ldi	r24, 0x00	; 0
    21e4:	90 e0       	ldi	r25, 0x00	; 0
    21e6:	0e 94 4f 0c 	call	0x189e	; 0x189e <motion_servo_start>
    21ea:	c8 01       	movw	r24, r16
    21ec:	b7 01       	movw	r22, r14
    21ee:	20 e0       	ldi	r18, 0x00	; 0
    21f0:	30 e8       	ldi	r19, 0x80	; 128
    21f2:	40 ec       	ldi	r20, 0xC0	; 192
    21f4:	54 ec       	ldi	r21, 0xC4	; 196
    21f6:	0e 94 df 4b 	call	0x97be	; 0x97be <__mulsf3>
    21fa:	20 e0       	ldi	r18, 0x00	; 0
    21fc:	30 e0       	ldi	r19, 0x00	; 0
    21fe:	45 e2       	ldi	r20, 0x25	; 37
    2200:	55 e4       	ldi	r21, 0x45	; 69
    2202:	0e 94 28 4a 	call	0x9450	; 0x9450 <__addsf3>
    2206:	0e 94 f8 4a 	call	0x95f0	; 0x95f0 <__fixsfsi>
    220a:	9b 01       	movw	r18, r22
    220c:	ac 01       	movw	r20, r24
    220e:	81 e0       	ldi	r24, 0x01	; 1
    2210:	90 e0       	ldi	r25, 0x00	; 0
    2212:	b9 01       	movw	r22, r18
    2214:	0e 94 00 0d 	call	0x1a00	; 0x1a00 <motion_servo_set_pulse_width>
    2218:	81 e0       	ldi	r24, 0x01	; 1
    221a:	90 e0       	ldi	r25, 0x00	; 0
    221c:	0e 94 4f 0c 	call	0x189e	; 0x189e <motion_servo_start>
    2220:	cd b7       	in	r28, 0x3d	; 61
    2222:	de b7       	in	r29, 0x3e	; 62
    2224:	ea e0       	ldi	r30, 0x0A	; 10
    2226:	0c 94 b0 53 	jmp	0xa760	; 0xa760 <__epilogue_restores__+0x10>
    222a:	86 c0       	rjmp	.+268    	; 0x2338 <servoInit>
    222c:	c6 01       	movw	r24, r12
    222e:	b5 01       	movw	r22, r10
    2230:	a8 01       	movw	r20, r16
    2232:	97 01       	movw	r18, r14
    2234:	0e 94 8c 4a 	call	0x9518	; 0x9518 <__cmpsf2>
    2238:	88 23       	and	r24, r24
    223a:	e4 f0       	brlt	.+56     	; 0x2274 <__stack+0x75>
    223c:	60 e0       	ldi	r22, 0x00	; 0
    223e:	70 e0       	ldi	r23, 0x00	; 0
    2240:	80 e8       	ldi	r24, 0x80	; 128
    2242:	9f e3       	ldi	r25, 0x3F	; 63
    2244:	7b 01       	movw	r14, r22
    2246:	8c 01       	movw	r16, r24
    2248:	20 97       	sbiw	r28, 0x00	; 0
    224a:	09 f4       	brne	.+2      	; 0x224e <__stack+0x4f>
    224c:	b5 cf       	rjmp	.-150    	; 0x21b8 <moveWheels+0x74>
    224e:	c1 30       	cpi	r28, 0x01	; 1
    2250:	d1 05       	cpc	r29, r1
    2252:	81 f1       	breq	.+96     	; 0x22b4 <__stack+0xb5>
    2254:	c3 30       	cpi	r28, 0x03	; 3
    2256:	d1 05       	cpc	r29, r1
    2258:	09 f4       	brne	.+2      	; 0x225c <__stack+0x5d>
    225a:	4c c0       	rjmp	.+152    	; 0x22f4 <__stack+0xf5>
    225c:	c2 30       	cpi	r28, 0x02	; 2
    225e:	d1 05       	cpc	r29, r1
    2260:	21 f1       	breq	.+72     	; 0x22aa <__stack+0xab>
    2262:	24 97       	sbiw	r28, 0x04	; 4
    2264:	09 f4       	brne	.+2      	; 0x2268 <__stack+0x69>
    2266:	4b c0       	rjmp	.+150    	; 0x22fe <__stack+0xff>
    2268:	cd b7       	in	r28, 0x3d	; 61
    226a:	de b7       	in	r29, 0x3e	; 62
    226c:	ea e0       	ldi	r30, 0x0A	; 10
    226e:	0c 94 b0 53 	jmp	0xa760	; 0xa760 <__epilogue_restores__+0x10>
    2272:	62 c0       	rjmp	.+196    	; 0x2338 <servoInit>
    2274:	c8 01       	movw	r24, r16
    2276:	b7 01       	movw	r22, r14
    2278:	20 e0       	ldi	r18, 0x00	; 0
    227a:	30 e0       	ldi	r19, 0x00	; 0
    227c:	40 e0       	ldi	r20, 0x00	; 0
    227e:	50 e0       	ldi	r21, 0x00	; 0
    2280:	0e 94 8c 4a 	call	0x9518	; 0x9518 <__cmpsf2>
    2284:	88 23       	and	r24, r24
    2286:	d1 f2       	breq	.-76     	; 0x223c <__stack+0x3d>
    2288:	c6 01       	movw	r24, r12
    228a:	b5 01       	movw	r22, r10
    228c:	a8 01       	movw	r20, r16
    228e:	97 01       	movw	r18, r14
    2290:	0e 94 90 4a 	call	0x9520	; 0x9520 <__divsf3>
    2294:	0f 2e       	mov	r0, r31
    2296:	f0 e0       	ldi	r31, 0x00	; 0
    2298:	ef 2e       	mov	r14, r31
    229a:	f0 e0       	ldi	r31, 0x00	; 0
    229c:	ff 2e       	mov	r15, r31
    229e:	f0 e8       	ldi	r31, 0x80	; 128
    22a0:	0f 2f       	mov	r16, r31
    22a2:	ff e3       	ldi	r31, 0x3F	; 63
    22a4:	1f 2f       	mov	r17, r31
    22a6:	f0 2d       	mov	r31, r0
    22a8:	cf cf       	rjmp	.-98     	; 0x2248 <__stack+0x49>
    22aa:	20 e0       	ldi	r18, 0x00	; 0
    22ac:	30 e8       	ldi	r19, 0x80	; 128
    22ae:	40 ec       	ldi	r20, 0xC0	; 192
    22b0:	54 ec       	ldi	r21, 0xC4	; 196
    22b2:	86 cf       	rjmp	.-244    	; 0x21c0 <moveWheels+0x7c>
    22b4:	20 e0       	ldi	r18, 0x00	; 0
    22b6:	30 e8       	ldi	r19, 0x80	; 128
    22b8:	40 ec       	ldi	r20, 0xC0	; 192
    22ba:	54 ec       	ldi	r21, 0xC4	; 196
    22bc:	0e 94 df 4b 	call	0x97be	; 0x97be <__mulsf3>
    22c0:	20 e0       	ldi	r18, 0x00	; 0
    22c2:	30 e0       	ldi	r19, 0x00	; 0
    22c4:	45 e2       	ldi	r20, 0x25	; 37
    22c6:	55 e4       	ldi	r21, 0x45	; 69
    22c8:	0e 94 28 4a 	call	0x9450	; 0x9450 <__addsf3>
    22cc:	0e 94 f8 4a 	call	0x95f0	; 0x95f0 <__fixsfsi>
    22d0:	9b 01       	movw	r18, r22
    22d2:	ac 01       	movw	r20, r24
    22d4:	80 e0       	ldi	r24, 0x00	; 0
    22d6:	90 e0       	ldi	r25, 0x00	; 0
    22d8:	b9 01       	movw	r22, r18
    22da:	0e 94 00 0d 	call	0x1a00	; 0x1a00 <motion_servo_set_pulse_width>
    22de:	80 e0       	ldi	r24, 0x00	; 0
    22e0:	90 e0       	ldi	r25, 0x00	; 0
    22e2:	0e 94 4f 0c 	call	0x189e	; 0x189e <motion_servo_start>
    22e6:	c8 01       	movw	r24, r16
    22e8:	b7 01       	movw	r22, r14
    22ea:	20 e0       	ldi	r18, 0x00	; 0
    22ec:	30 e0       	ldi	r19, 0x00	; 0
    22ee:	47 e0       	ldi	r20, 0x07	; 7
    22f0:	55 e4       	ldi	r21, 0x45	; 69
    22f2:	81 cf       	rjmp	.-254    	; 0x21f6 <moveWheels+0xb2>
    22f4:	20 e0       	ldi	r18, 0x00	; 0
    22f6:	30 e0       	ldi	r19, 0x00	; 0
    22f8:	47 e0       	ldi	r20, 0x07	; 7
    22fa:	55 e4       	ldi	r21, 0x45	; 69
    22fc:	df cf       	rjmp	.-66     	; 0x22bc <__stack+0xbd>
    22fe:	81 e0       	ldi	r24, 0x01	; 1
    2300:	90 e0       	ldi	r25, 0x00	; 0
    2302:	0e 94 b1 0c 	call	0x1962	; 0x1962 <motion_servo_stop>
    2306:	80 e0       	ldi	r24, 0x00	; 0
    2308:	90 e0       	ldi	r25, 0x00	; 0
    230a:	0e 94 b1 0c 	call	0x1962	; 0x1962 <motion_servo_stop>
    230e:	80 e0       	ldi	r24, 0x00	; 0
    2310:	90 e0       	ldi	r25, 0x00	; 0
    2312:	a0 e0       	ldi	r26, 0x00	; 0
    2314:	b0 e0       	ldi	r27, 0x00	; 0
    2316:	80 93 f7 1c 	sts	0x1CF7, r24
    231a:	90 93 f8 1c 	sts	0x1CF8, r25
    231e:	a0 93 f9 1c 	sts	0x1CF9, r26
    2322:	b0 93 fa 1c 	sts	0x1CFA, r27
    2326:	80 93 f3 1c 	sts	0x1CF3, r24
    232a:	90 93 f4 1c 	sts	0x1CF4, r25
    232e:	a0 93 f5 1c 	sts	0x1CF5, r26
    2332:	b0 93 f6 1c 	sts	0x1CF6, r27
    2336:	98 cf       	rjmp	.-208    	; 0x2268 <__stack+0x69>

00002338 <servoInit>:
    2338:	0e 94 c0 0e 	call	0x1d80	; 0x1d80 <motion_init>
    233c:	80 e0       	ldi	r24, 0x00	; 0
    233e:	90 e0       	ldi	r25, 0x00	; 0
    2340:	a0 e0       	ldi	r26, 0x00	; 0
    2342:	b0 e0       	ldi	r27, 0x00	; 0
    2344:	80 93 ff 1c 	sts	0x1CFF, r24
    2348:	90 93 00 1d 	sts	0x1D00, r25
    234c:	a0 93 01 1d 	sts	0x1D01, r26
    2350:	b0 93 02 1d 	sts	0x1D02, r27
    2354:	80 93 fb 1c 	sts	0x1CFB, r24
    2358:	90 93 fc 1c 	sts	0x1CFC, r25
    235c:	a0 93 fd 1c 	sts	0x1CFD, r26
    2360:	b0 93 fe 1c 	sts	0x1CFE, r27
    2364:	80 93 f7 1c 	sts	0x1CF7, r24
    2368:	90 93 f8 1c 	sts	0x1CF8, r25
    236c:	a0 93 f9 1c 	sts	0x1CF9, r26
    2370:	b0 93 fa 1c 	sts	0x1CFA, r27
    2374:	80 93 f3 1c 	sts	0x1CF3, r24
    2378:	90 93 f4 1c 	sts	0x1CF4, r25
    237c:	a0 93 f5 1c 	sts	0x1CF5, r26
    2380:	b0 93 f6 1c 	sts	0x1CF6, r27
    2384:	80 93 eb 1c 	sts	0x1CEB, r24
    2388:	90 93 ec 1c 	sts	0x1CEC, r25
    238c:	a0 93 ed 1c 	sts	0x1CED, r26
    2390:	b0 93 ee 1c 	sts	0x1CEE, r27
    2394:	80 93 ef 1c 	sts	0x1CEF, r24
    2398:	90 93 f0 1c 	sts	0x1CF0, r25
    239c:	a0 93 f1 1c 	sts	0x1CF1, r26
    23a0:	b0 93 f2 1c 	sts	0x1CF2, r27
    23a4:	08 95       	ret

000023a6 <getAmbient>:
    23a6:	80 91 17 1d 	lds	r24, 0x1D17
    23aa:	90 91 18 1d 	lds	r25, 0x1D18
    23ae:	08 95       	ret

000023b0 <getAverageLeft>:
    23b0:	80 91 15 1d 	lds	r24, 0x1D15
    23b4:	90 91 16 1d 	lds	r25, 0x1D16
    23b8:	08 95       	ret

000023ba <getAverageRight>:
    23ba:	80 91 13 1d 	lds	r24, 0x1D13
    23be:	90 91 14 1d 	lds	r25, 0x1D14
    23c2:	08 95       	ret

000023c4 <readTemperatureValues>:
    23c4:	a4 e0       	ldi	r26, 0x04	; 4
    23c6:	b0 e0       	ldi	r27, 0x00	; 0
    23c8:	e8 ee       	ldi	r30, 0xE8	; 232
    23ca:	f1 e1       	ldi	r31, 0x11	; 17
    23cc:	0c 94 8c 53 	jmp	0xa718	; 0xa718 <__prologue_saves__>
    23d0:	03 e0       	ldi	r16, 0x03	; 3
    23d2:	1d e1       	ldi	r17, 0x1D	; 29
    23d4:	cc 24       	eor	r12, r12
    23d6:	dd 24       	eor	r13, r13
    23d8:	aa 24       	eor	r10, r10
    23da:	bb 24       	eor	r11, r11
    23dc:	88 24       	eor	r8, r8
    23de:	99 24       	eor	r9, r9
    23e0:	5e ef       	ldi	r21, 0xFE	; 254
    23e2:	e5 2e       	mov	r14, r21
    23e4:	5f ef       	ldi	r21, 0xFF	; 255
    23e6:	f5 2e       	mov	r15, r21
    23e8:	2e 01       	movw	r4, r28
    23ea:	08 94       	sec
    23ec:	41 1c       	adc	r4, r1
    23ee:	51 1c       	adc	r5, r1
    23f0:	43 e0       	ldi	r20, 0x03	; 3
    23f2:	64 2e       	mov	r6, r20
    23f4:	71 2c       	mov	r7, r1
    23f6:	6c 0e       	add	r6, r28
    23f8:	7d 1e       	adc	r7, r29
    23fa:	31 ed       	ldi	r19, 0xD1	; 209
    23fc:	23 2e       	mov	r2, r19
    23fe:	33 24       	eor	r3, r3
    2400:	33 94       	inc	r3
    2402:	0b c0       	rjmp	.+22     	; 0x241a <readTemperatureValues+0x56>
    2404:	a8 0e       	add	r10, r24
    2406:	b9 1e       	adc	r11, r25
    2408:	0e 5f       	subi	r16, 0xFE	; 254
    240a:	1f 4f       	sbci	r17, 0xFF	; 255
    240c:	08 94       	sec
    240e:	e1 1c       	adc	r14, r1
    2410:	f1 1c       	adc	r15, r1
    2412:	2d e1       	ldi	r18, 0x1D	; 29
    2414:	03 31       	cpi	r16, 0x13	; 19
    2416:	12 07       	cpc	r17, r18
    2418:	f9 f0       	breq	.+62     	; 0x2458 <readTemperatureValues+0x94>
    241a:	20 ed       	ldi	r18, 0xD0	; 208
    241c:	29 83       	std	Y+1, r18	; 0x01
    241e:	8e 2d       	mov	r24, r14
    2420:	8c 5f       	subi	r24, 0xFC	; 252
    2422:	8a 83       	std	Y+2, r24	; 0x02
    2424:	2b 82       	std	Y+3, r2	; 0x03
    2426:	3c 82       	std	Y+4, r3	; 0x04
    2428:	c2 01       	movw	r24, r4
    242a:	62 e0       	ldi	r22, 0x02	; 2
    242c:	0e 94 1e 26 	call	0x4c3c	; 0x4c3c <I2C_Master_Start_Transceiver_With_Data>
    2430:	c3 01       	movw	r24, r6
    2432:	62 e0       	ldi	r22, 0x02	; 2
    2434:	0e 94 1e 26 	call	0x4c3c	; 0x4c3c <I2C_Master_Start_Transceiver_With_Data>
    2438:	c8 01       	movw	r24, r16
    243a:	62 e0       	ldi	r22, 0x02	; 2
    243c:	0e 94 69 26 	call	0x4cd2	; 0x4cd2 <I2C_Master_Get_Data_From_Transceiver>
    2440:	f8 01       	movw	r30, r16
    2442:	81 81       	ldd	r24, Z+1	; 0x01
    2444:	90 e0       	ldi	r25, 0x00	; 0
    2446:	c8 0e       	add	r12, r24
    2448:	d9 1e       	adc	r13, r25
    244a:	f4 e0       	ldi	r31, 0x04	; 4
    244c:	ef 16       	cp	r14, r31
    244e:	f1 04       	cpc	r15, r1
    2450:	c8 f2       	brcs	.-78     	; 0x2404 <readTemperatureValues+0x40>
    2452:	88 0e       	add	r8, r24
    2454:	99 1e       	adc	r9, r25
    2456:	d8 cf       	rjmp	.-80     	; 0x2408 <readTemperatureValues+0x44>
    2458:	d5 94       	asr	r13
    245a:	c7 94       	ror	r12
    245c:	d5 94       	asr	r13
    245e:	c7 94       	ror	r12
    2460:	d5 94       	asr	r13
    2462:	c7 94       	ror	r12
    2464:	d0 92 18 1d 	sts	0x1D18, r13
    2468:	c0 92 17 1d 	sts	0x1D17, r12
    246c:	b5 94       	asr	r11
    246e:	a7 94       	ror	r10
    2470:	b5 94       	asr	r11
    2472:	a7 94       	ror	r10
    2474:	b0 92 16 1d 	sts	0x1D16, r11
    2478:	a0 92 15 1d 	sts	0x1D15, r10
    247c:	95 94       	asr	r9
    247e:	87 94       	ror	r8
    2480:	95 94       	asr	r9
    2482:	87 94       	ror	r8
    2484:	90 92 14 1d 	sts	0x1D14, r9
    2488:	80 92 13 1d 	sts	0x1D13, r8
    248c:	24 96       	adiw	r28, 0x04	; 4
    248e:	e2 e1       	ldi	r30, 0x12	; 18
    2490:	0c 94 a8 53 	jmp	0xa750	; 0xa750 <__epilogue_restores__>

00002494 <getTemperatureValues>:
    2494:	0e 94 e2 11 	call	0x23c4	; 0x23c4 <readTemperatureValues>
    2498:	e4 e0       	ldi	r30, 0x04	; 4
    249a:	fd e1       	ldi	r31, 0x1D	; 29
    249c:	aa e3       	ldi	r26, 0x3A	; 58
    249e:	ba e0       	ldi	r27, 0x0A	; 10
    24a0:	80 81       	ld	r24, Z
    24a2:	8d 93       	st	X+, r24
    24a4:	32 96       	adiw	r30, 0x02	; 2
    24a6:	8d e1       	ldi	r24, 0x1D	; 29
    24a8:	e4 31       	cpi	r30, 0x14	; 20
    24aa:	f8 07       	cpc	r31, r24
    24ac:	c9 f7       	brne	.-14     	; 0x24a0 <getTemperatureValues+0xc>
    24ae:	8a e3       	ldi	r24, 0x3A	; 58
    24b0:	9a e0       	ldi	r25, 0x0A	; 10
    24b2:	08 95       	ret

000024b4 <initTPA81>:
    24b4:	80 ec       	ldi	r24, 0xC0	; 192
    24b6:	0e 94 72 27 	call	0x4ee4	; 0x4ee4 <I2C_Master_Initialise>
    24ba:	08 95       	ret

000024bc <initTimer>:
    24bc:	10 92 1a 1d 	sts	0x1D1A, r1
    24c0:	10 92 19 1d 	sts	0x1D19, r1
    24c4:	90 93 1c 1d 	sts	0x1D1C, r25
    24c8:	80 93 1b 1d 	sts	0x1D1B, r24
    24cc:	a1 e7       	ldi	r26, 0x71	; 113
    24ce:	b0 e0       	ldi	r27, 0x00	; 0
    24d0:	8c 91       	ld	r24, X
    24d2:	8e 7f       	andi	r24, 0xFE	; 254
    24d4:	8c 93       	st	X, r24
    24d6:	10 92 90 00 	sts	0x0090, r1
    24da:	e1 e9       	ldi	r30, 0x91	; 145
    24dc:	f0 e0       	ldi	r31, 0x00	; 0
    24de:	10 82       	st	Z, r1
    24e0:	8f e8       	ldi	r24, 0x8F	; 143
    24e2:	9d ef       	ldi	r25, 0xFD	; 253
    24e4:	90 93 95 00 	sts	0x0095, r25
    24e8:	80 93 94 00 	sts	0x0094, r24
    24ec:	80 81       	ld	r24, Z
    24ee:	84 60       	ori	r24, 0x04	; 4
    24f0:	80 83       	st	Z, r24
    24f2:	8c 91       	ld	r24, X
    24f4:	81 60       	ori	r24, 0x01	; 1
    24f6:	8c 93       	st	X, r24
    24f8:	08 95       	ret

000024fa <getTime>:
    24fa:	80 91 19 1d 	lds	r24, 0x1D19
    24fe:	90 91 1a 1d 	lds	r25, 0x1D1A
    2502:	08 95       	ret

00002504 <isTimerRepeatMultiple>:
    2504:	bc 01       	movw	r22, r24
    2506:	20 91 19 1d 	lds	r18, 0x1D19
    250a:	30 91 1a 1d 	lds	r19, 0x1D1A
    250e:	c9 01       	movw	r24, r18
    2510:	0e 94 57 53 	call	0xa6ae	; 0xa6ae <__divmodhi4>
    2514:	89 2b       	or	r24, r25
    2516:	11 f0       	breq	.+4      	; 0x251c <isTimerRepeatMultiple+0x18>
    2518:	80 e0       	ldi	r24, 0x00	; 0
    251a:	08 95       	ret
    251c:	80 e0       	ldi	r24, 0x00	; 0
    251e:	23 2b       	or	r18, r19
    2520:	09 f4       	brne	.+2      	; 0x2524 <isTimerRepeatMultiple+0x20>
    2522:	08 95       	ret
    2524:	81 e0       	ldi	r24, 0x01	; 1
    2526:	08 95       	ret

00002528 <__vector_35>:
    2528:	1f 92       	push	r1
    252a:	0f 92       	push	r0
    252c:	0f b6       	in	r0, 0x3f	; 63
    252e:	0f 92       	push	r0
    2530:	0b b6       	in	r0, 0x3b	; 59
    2532:	0f 92       	push	r0
    2534:	11 24       	eor	r1, r1
    2536:	2f 93       	push	r18
    2538:	3f 93       	push	r19
    253a:	4f 93       	push	r20
    253c:	5f 93       	push	r21
    253e:	6f 93       	push	r22
    2540:	7f 93       	push	r23
    2542:	8f 93       	push	r24
    2544:	9f 93       	push	r25
    2546:	af 93       	push	r26
    2548:	bf 93       	push	r27
    254a:	ef 93       	push	r30
    254c:	ff 93       	push	r31
    254e:	80 91 19 1d 	lds	r24, 0x1D19
    2552:	90 91 1a 1d 	lds	r25, 0x1D1A
    2556:	01 96       	adiw	r24, 0x01	; 1
    2558:	90 93 1a 1d 	sts	0x1D1A, r25
    255c:	80 93 19 1d 	sts	0x1D19, r24
    2560:	8f e8       	ldi	r24, 0x8F	; 143
    2562:	9d ef       	ldi	r25, 0xFD	; 253
    2564:	90 93 95 00 	sts	0x0095, r25
    2568:	80 93 94 00 	sts	0x0094, r24
    256c:	e0 91 1b 1d 	lds	r30, 0x1D1B
    2570:	f0 91 1c 1d 	lds	r31, 0x1D1C
    2574:	19 95       	eicall
    2576:	ff 91       	pop	r31
    2578:	ef 91       	pop	r30
    257a:	bf 91       	pop	r27
    257c:	af 91       	pop	r26
    257e:	9f 91       	pop	r25
    2580:	8f 91       	pop	r24
    2582:	7f 91       	pop	r23
    2584:	6f 91       	pop	r22
    2586:	5f 91       	pop	r21
    2588:	4f 91       	pop	r20
    258a:	3f 91       	pop	r19
    258c:	2f 91       	pop	r18
    258e:	0f 90       	pop	r0
    2590:	0b be       	out	0x3b, r0	; 59
    2592:	0f 90       	pop	r0
    2594:	0f be       	out	0x3f, r0	; 63
    2596:	0f 90       	pop	r0
    2598:	1f 90       	pop	r1
    259a:	18 95       	reti

0000259c <getClientResponse>:
    259c:	0e 94 c1 23 	call	0x4782	; 0x4782 <process_client_request>
    25a0:	0e 94 d7 13 	call	0x27ae	; 0x27ae <get_next_client_response>
    25a4:	08 95       	ret

000025a6 <createWebPage>:
    25a6:	ef 92       	push	r14
    25a8:	ff 92       	push	r15
    25aa:	0f 93       	push	r16
    25ac:	1f 93       	push	r17
    25ae:	82 e0       	ldi	r24, 0x02	; 2
    25b0:	90 e0       	ldi	r25, 0x00	; 0
    25b2:	40 e8       	ldi	r20, 0x80	; 128
    25b4:	55 e2       	ldi	r21, 0x25	; 37
    25b6:	60 e0       	ldi	r22, 0x00	; 0
    25b8:	70 e0       	ldi	r23, 0x00	; 0
    25ba:	20 e0       	ldi	r18, 0x00	; 0
    25bc:	30 e0       	ldi	r19, 0x00	; 0
    25be:	e1 2c       	mov	r14, r1
    25c0:	e2 ec       	ldi	r30, 0xC2	; 194
    25c2:	fe 2e       	mov	r15, r30
    25c4:	e1 e0       	ldi	r30, 0x01	; 1
    25c6:	0e 2f       	mov	r16, r30
    25c8:	11 2d       	mov	r17, r1
    25ca:	0e 94 c4 20 	call	0x4188	; 0x4188 <gs_initialize_module>
    25ce:	8f e1       	ldi	r24, 0x1F	; 31
    25d0:	92 e0       	ldi	r25, 0x02	; 2
    25d2:	0e 94 14 21 	call	0x4228	; 0x4228 <gs_set_wireless_ssid>
    25d6:	0e 94 b5 1e 	call	0x3d6a	; 0x3d6a <gs_activate_wireless_connection>
    25da:	82 e3       	ldi	r24, 0x32	; 50
    25dc:	92 e0       	ldi	r25, 0x02	; 2
    25de:	63 e4       	ldi	r22, 0x43	; 67
    25e0:	72 e0       	ldi	r23, 0x02	; 2
    25e2:	41 e0       	ldi	r20, 0x01	; 1
    25e4:	50 e0       	ldi	r21, 0x00	; 0
    25e6:	0e 94 16 22 	call	0x442c	; 0x442c <configure_web_page>
    25ea:	80 e3       	ldi	r24, 0x30	; 48
    25ec:	67 e5       	ldi	r22, 0x57	; 87
    25ee:	72 e0       	ldi	r23, 0x02	; 2
    25f0:	0e 94 8d 21 	call	0x431a	; 0x431a <add_element_choice>
    25f4:	81 e3       	ldi	r24, 0x31	; 49
    25f6:	60 e6       	ldi	r22, 0x60	; 96
    25f8:	72 e0       	ldi	r23, 0x02	; 2
    25fa:	0e 94 8d 21 	call	0x431a	; 0x431a <add_element_choice>
    25fe:	82 e3       	ldi	r24, 0x32	; 50
    2600:	6a e6       	ldi	r22, 0x6A	; 106
    2602:	72 e0       	ldi	r23, 0x02	; 2
    2604:	0e 94 8d 21 	call	0x431a	; 0x431a <add_element_choice>
    2608:	83 e3       	ldi	r24, 0x33	; 51
    260a:	64 e7       	ldi	r22, 0x74	; 116
    260c:	72 e0       	ldi	r23, 0x02	; 2
    260e:	0e 94 8d 21 	call	0x431a	; 0x431a <add_element_choice>
    2612:	0e 94 52 1e 	call	0x3ca4	; 0x3ca4 <start_web_server>
    2616:	1f 91       	pop	r17
    2618:	0f 91       	pop	r16
    261a:	ff 90       	pop	r15
    261c:	ef 90       	pop	r14
    261e:	08 95       	ret

00002620 <gs_set_usart>:
    2620:	ef 92       	push	r14
    2622:	ff 92       	push	r15
    2624:	0f 93       	push	r16
    2626:	1f 93       	push	r17
    2628:	90 93 4a 1d 	sts	0x1D4A, r25
    262c:	80 93 49 1d 	sts	0x1D49, r24
    2630:	40 93 4b 1d 	sts	0x1D4B, r20
    2634:	50 93 4c 1d 	sts	0x1D4C, r21
    2638:	60 93 4d 1d 	sts	0x1D4D, r22
    263c:	70 93 4e 1d 	sts	0x1D4E, r23
    2640:	30 93 44 1d 	sts	0x1D44, r19
    2644:	20 93 43 1d 	sts	0x1D43, r18
    2648:	e0 92 45 1d 	sts	0x1D45, r14
    264c:	f0 92 46 1d 	sts	0x1D46, r15
    2650:	00 93 47 1d 	sts	0x1D47, r16
    2654:	10 93 48 1d 	sts	0x1D48, r17
    2658:	1f 91       	pop	r17
    265a:	0f 91       	pop	r16
    265c:	ff 90       	pop	r15
    265e:	ef 90       	pop	r14
    2660:	08 95       	ret

00002662 <gs_get_socket_status>:
    2662:	84 30       	cpi	r24, 0x04	; 4
    2664:	80 f4       	brcc	.+32     	; 0x2686 <gs_get_socket_status+0x24>
    2666:	90 e0       	ldi	r25, 0x00	; 0
    2668:	fc 01       	movw	r30, r24
    266a:	ee 0f       	add	r30, r30
    266c:	ff 1f       	adc	r31, r31
    266e:	ee 0f       	add	r30, r30
    2670:	ff 1f       	adc	r31, r31
    2672:	ee 0f       	add	r30, r30
    2674:	ff 1f       	adc	r31, r31
    2676:	e8 0f       	add	r30, r24
    2678:	f9 1f       	adc	r31, r25
    267a:	ed 5b       	subi	r30, 0xBD	; 189
    267c:	f2 4e       	sbci	r31, 0xE2	; 226
    267e:	24 a5       	ldd	r18, Z+44	; 0x2c
    2680:	35 a5       	ldd	r19, Z+45	; 0x2d
    2682:	c9 01       	movw	r24, r18
    2684:	08 95       	ret
    2686:	2f ef       	ldi	r18, 0xFF	; 255
    2688:	30 e0       	ldi	r19, 0x00	; 0
    268a:	c9 01       	movw	r24, r18
    268c:	08 95       	ret

0000268e <gs_activate_socket>:
    268e:	28 2f       	mov	r18, r24
    2690:	84 30       	cpi	r24, 0x04	; 4
    2692:	d0 f4       	brcc	.+52     	; 0x26c8 <gs_activate_socket+0x3a>
    2694:	90 e0       	ldi	r25, 0x00	; 0
    2696:	fc 01       	movw	r30, r24
    2698:	ee 0f       	add	r30, r30
    269a:	ff 1f       	adc	r31, r31
    269c:	ee 0f       	add	r30, r30
    269e:	ff 1f       	adc	r31, r31
    26a0:	ee 0f       	add	r30, r30
    26a2:	ff 1f       	adc	r31, r31
    26a4:	e8 0f       	add	r30, r24
    26a6:	f9 1f       	adc	r31, r25
    26a8:	ed 5b       	subi	r30, 0xBD	; 189
    26aa:	f2 4e       	sbci	r31, 0xE2	; 226
    26ac:	84 a5       	ldd	r24, Z+44	; 0x2c
    26ae:	95 a5       	ldd	r25, Z+45	; 0x2d
    26b0:	01 97       	sbiw	r24, 0x01	; 1
    26b2:	03 97       	sbiw	r24, 0x03	; 3
    26b4:	48 f4       	brcc	.+18     	; 0x26c8 <gs_activate_socket+0x3a>
    26b6:	20 93 94 1d 	sts	0x1D94, r18
    26ba:	84 a9       	ldd	r24, Z+52	; 0x34
    26bc:	80 93 95 1d 	sts	0x1D95, r24
    26c0:	21 e0       	ldi	r18, 0x01	; 1
    26c2:	30 e0       	ldi	r19, 0x00	; 0
    26c4:	c9 01       	movw	r24, r18
    26c6:	08 95       	ret
    26c8:	20 e0       	ldi	r18, 0x00	; 0
    26ca:	30 e0       	ldi	r19, 0x00	; 0
    26cc:	c9 01       	movw	r24, r18
    26ce:	08 95       	ret

000026d0 <gs_get_active_socket>:
    26d0:	80 91 94 1d 	lds	r24, 0x1D94
    26d4:	08 95       	ret

000026d6 <gs_get_socket_protocol>:
    26d6:	90 e0       	ldi	r25, 0x00	; 0
    26d8:	fc 01       	movw	r30, r24
    26da:	ee 0f       	add	r30, r30
    26dc:	ff 1f       	adc	r31, r31
    26de:	ee 0f       	add	r30, r30
    26e0:	ff 1f       	adc	r31, r31
    26e2:	ee 0f       	add	r30, r30
    26e4:	ff 1f       	adc	r31, r31
    26e6:	e8 0f       	add	r30, r24
    26e8:	f9 1f       	adc	r31, r25
    26ea:	ed 5b       	subi	r30, 0xBD	; 189
    26ec:	f2 4e       	sbci	r31, 0xE2	; 226
    26ee:	86 a5       	ldd	r24, Z+46	; 0x2e
    26f0:	97 a5       	ldd	r25, Z+47	; 0x2f
    26f2:	08 95       	ret

000026f4 <gs_get_socket_port>:
    26f4:	90 e0       	ldi	r25, 0x00	; 0
    26f6:	fc 01       	movw	r30, r24
    26f8:	ee 0f       	add	r30, r30
    26fa:	ff 1f       	adc	r31, r31
    26fc:	ee 0f       	add	r30, r30
    26fe:	ff 1f       	adc	r31, r31
    2700:	ee 0f       	add	r30, r30
    2702:	ff 1f       	adc	r31, r31
    2704:	e8 0f       	add	r30, r24
    2706:	f9 1f       	adc	r31, r25
    2708:	ed 5b       	subi	r30, 0xBD	; 189
    270a:	f2 4e       	sbci	r31, 0xE2	; 226
    270c:	82 a9       	ldd	r24, Z+50	; 0x32
    270e:	93 a9       	ldd	r25, Z+51	; 0x33
    2710:	08 95       	ret

00002712 <gs_get_data_on_socket_status>:
    2712:	20 e0       	ldi	r18, 0x00	; 0
    2714:	30 e0       	ldi	r19, 0x00	; 0
    2716:	90 91 93 1d 	lds	r25, 0x1D93
    271a:	98 17       	cp	r25, r24
    271c:	11 f0       	breq	.+4      	; 0x2722 <gs_get_data_on_socket_status+0x10>
    271e:	c9 01       	movw	r24, r18
    2720:	08 95       	ret
    2722:	21 e0       	ldi	r18, 0x01	; 1
    2724:	30 e0       	ldi	r19, 0x00	; 0
    2726:	c9 01       	movw	r24, r18
    2728:	08 95       	ret

0000272a <gs_configure_socket>:
    272a:	80 93 94 1d 	sts	0x1D94, r24
    272e:	90 e0       	ldi	r25, 0x00	; 0
    2730:	fc 01       	movw	r30, r24
    2732:	ee 0f       	add	r30, r30
    2734:	ff 1f       	adc	r31, r31
    2736:	ee 0f       	add	r30, r30
    2738:	ff 1f       	adc	r31, r31
    273a:	ee 0f       	add	r30, r30
    273c:	ff 1f       	adc	r31, r31
    273e:	e8 0f       	add	r30, r24
    2740:	f9 1f       	adc	r31, r25
    2742:	ed 5b       	subi	r30, 0xBD	; 189
    2744:	f2 4e       	sbci	r31, 0xE2	; 226
    2746:	77 a7       	std	Z+47, r23	; 0x2f
    2748:	66 a7       	std	Z+46, r22	; 0x2e
    274a:	53 ab       	std	Z+51, r21	; 0x33
    274c:	42 ab       	std	Z+50, r20	; 0x32
    274e:	81 e0       	ldi	r24, 0x01	; 1
    2750:	90 e0       	ldi	r25, 0x00	; 0
    2752:	95 a7       	std	Z+45, r25	; 0x2d
    2754:	84 a7       	std	Z+44, r24	; 0x2c
    2756:	08 95       	ret

00002758 <gs_get_socket_having_active_connection_and_data>:
    2758:	30 91 93 1d 	lds	r19, 0x1D93
    275c:	ef e6       	ldi	r30, 0x6F	; 111
    275e:	fd e1       	ldi	r31, 0x1D	; 29
    2760:	20 e0       	ldi	r18, 0x00	; 0
    2762:	80 81       	ld	r24, Z
    2764:	91 81       	ldd	r25, Z+1	; 0x01
    2766:	03 97       	sbiw	r24, 0x03	; 3
    2768:	31 f0       	breq	.+12     	; 0x2776 <gs_get_socket_having_active_connection_and_data+0x1e>
    276a:	2f 5f       	subi	r18, 0xFF	; 255
    276c:	39 96       	adiw	r30, 0x09	; 9
    276e:	24 30       	cpi	r18, 0x04	; 4
    2770:	c1 f7       	brne	.-16     	; 0x2762 <gs_get_socket_having_active_connection_and_data+0xa>
    2772:	8f ef       	ldi	r24, 0xFF	; 255
    2774:	08 95       	ret
    2776:	33 30       	cpi	r19, 0x03	; 3
    2778:	c1 f7       	brne	.-16     	; 0x276a <gs_get_socket_having_active_connection_and_data+0x12>
    277a:	82 2f       	mov	r24, r18
    277c:	08 95       	ret

0000277e <gs_get_socket_connection_status>:
    277e:	20 e0       	ldi	r18, 0x00	; 0
    2780:	30 e0       	ldi	r19, 0x00	; 0
    2782:	90 e0       	ldi	r25, 0x00	; 0
    2784:	fc 01       	movw	r30, r24
    2786:	ee 0f       	add	r30, r30
    2788:	ff 1f       	adc	r31, r31
    278a:	ee 0f       	add	r30, r30
    278c:	ff 1f       	adc	r31, r31
    278e:	ee 0f       	add	r30, r30
    2790:	ff 1f       	adc	r31, r31
    2792:	e8 0f       	add	r30, r24
    2794:	f9 1f       	adc	r31, r25
    2796:	ed 5b       	subi	r30, 0xBD	; 189
    2798:	f2 4e       	sbci	r31, 0xE2	; 226
    279a:	84 a5       	ldd	r24, Z+44	; 0x2c
    279c:	95 a5       	ldd	r25, Z+45	; 0x2d
    279e:	03 97       	sbiw	r24, 0x03	; 3
    27a0:	11 f0       	breq	.+4      	; 0x27a6 <gs_get_socket_connection_status+0x28>
    27a2:	c9 01       	movw	r24, r18
    27a4:	08 95       	ret
    27a6:	21 e0       	ldi	r18, 0x01	; 1
    27a8:	30 e0       	ldi	r19, 0x00	; 0
    27aa:	c9 01       	movw	r24, r18
    27ac:	08 95       	ret

000027ae <get_next_client_response>:
    27ae:	80 91 43 0a 	lds	r24, 0x0A43
    27b2:	e0 91 9a 1d 	lds	r30, 0x1D9A
    27b6:	f0 91 9b 1d 	lds	r31, 0x1D9B
    27ba:	e8 0f       	add	r30, r24
    27bc:	f1 1d       	adc	r31, r1
    27be:	90 81       	ld	r25, Z
    27c0:	80 e2       	ldi	r24, 0x20	; 32
    27c2:	80 83       	st	Z, r24
    27c4:	80 91 43 0a 	lds	r24, 0x0A43
    27c8:	8f 5f       	subi	r24, 0xFF	; 255
    27ca:	80 93 43 0a 	sts	0x0A43, r24
    27ce:	8a 30       	cpi	r24, 0x0A	; 10
    27d0:	10 f0       	brcs	.+4      	; 0x27d6 <get_next_client_response+0x28>
    27d2:	10 92 43 0a 	sts	0x0A43, r1
    27d6:	89 2f       	mov	r24, r25
    27d8:	08 95       	ret

000027da <hex_to_int>:
    27da:	98 2f       	mov	r25, r24
    27dc:	80 53       	subi	r24, 0x30	; 48
    27de:	8a 30       	cpi	r24, 0x0A	; 10
    27e0:	48 f0       	brcs	.+18     	; 0x27f4 <hex_to_int+0x1a>
    27e2:	81 51       	subi	r24, 0x11	; 17
    27e4:	86 30       	cpi	r24, 0x06	; 6
    27e6:	38 f0       	brcs	.+14     	; 0x27f6 <hex_to_int+0x1c>
    27e8:	89 2f       	mov	r24, r25
    27ea:	81 56       	subi	r24, 0x61	; 97
    27ec:	86 30       	cpi	r24, 0x06	; 6
    27ee:	28 f4       	brcc	.+10     	; 0x27fa <hex_to_int+0x20>
    27f0:	89 2f       	mov	r24, r25
    27f2:	87 55       	subi	r24, 0x57	; 87
    27f4:	08 95       	ret
    27f6:	86 5f       	subi	r24, 0xF6	; 246
    27f8:	08 95       	ret
    27fa:	80 e0       	ldi	r24, 0x00	; 0
    27fc:	08 95       	ret

000027fe <int_to_hex>:
    27fe:	98 2f       	mov	r25, r24
    2800:	8a 30       	cpi	r24, 0x0A	; 10
    2802:	40 f0       	brcs	.+16     	; 0x2814 <int_to_hex+0x16>
    2804:	8a 50       	subi	r24, 0x0A	; 10
    2806:	86 30       	cpi	r24, 0x06	; 6
    2808:	18 f4       	brcc	.+6      	; 0x2810 <int_to_hex+0x12>
    280a:	89 2f       	mov	r24, r25
    280c:	89 5c       	subi	r24, 0xC9	; 201
    280e:	08 95       	ret
    2810:	80 e3       	ldi	r24, 0x30	; 48
    2812:	08 95       	ret
    2814:	80 5d       	subi	r24, 0xD0	; 208
    2816:	08 95       	ret

00002818 <initialize_web_server>:
    2818:	80 e5       	ldi	r24, 0x50	; 80
    281a:	90 e0       	ldi	r25, 0x00	; 0
    281c:	90 93 9d 1d 	sts	0x1D9D, r25
    2820:	80 93 9c 1d 	sts	0x1D9C, r24
    2824:	86 e0       	ldi	r24, 0x06	; 6
    2826:	80 93 9e 1d 	sts	0x1D9E, r24
    282a:	80 e0       	ldi	r24, 0x00	; 0
    282c:	90 e0       	ldi	r25, 0x00	; 0
    282e:	65 e8       	ldi	r22, 0x85	; 133
    2830:	72 e0       	ldi	r23, 0x02	; 2
    2832:	0e 94 54 50 	call	0xa0a8	; 0xa0a8 <usart_xfprint>
    2836:	08 95       	ret

00002838 <gs_send_activation_status_to_serial_terminal>:
    2838:	a2 e8       	ldi	r26, 0x82	; 130
    283a:	b0 e0       	ldi	r27, 0x00	; 0
    283c:	e2 e2       	ldi	r30, 0x22	; 34
    283e:	f4 e1       	ldi	r31, 0x14	; 20
    2840:	0c 94 9a 53 	jmp	0xa734	; 0xa734 <__prologue_saves__+0x1c>
    2844:	9c 01       	movw	r18, r24
    2846:	1b aa       	std	Y+51, r1	; 0x33
    2848:	1c aa       	std	Y+52, r1	; 0x34
    284a:	1d aa       	std	Y+53, r1	; 0x35
    284c:	1e aa       	std	Y+54, r1	; 0x36
    284e:	fe 01       	movw	r30, r28
    2850:	f7 96       	adiw	r30, 0x37	; 55
    2852:	8c e4       	ldi	r24, 0x4C	; 76
    2854:	df 01       	movw	r26, r30
    2856:	1d 92       	st	X+, r1
    2858:	8a 95       	dec	r24
    285a:	e9 f7       	brne	.-6      	; 0x2856 <gs_send_activation_status_to_serial_terminal+0x1e>
    285c:	80 91 00 03 	lds	r24, 0x0300
    2860:	90 91 01 03 	lds	r25, 0x0301
    2864:	9a 83       	std	Y+2, r25	; 0x02
    2866:	89 83       	std	Y+1, r24	; 0x01
    2868:	fe 01       	movw	r30, r28
    286a:	33 96       	adiw	r30, 0x03	; 3
    286c:	80 e3       	ldi	r24, 0x30	; 48
    286e:	df 01       	movw	r26, r30
    2870:	1d 92       	st	X+, r1
    2872:	8a 95       	dec	r24
    2874:	e9 f7       	brne	.-6      	; 0x2870 <gs_send_activation_status_to_serial_terminal+0x38>
    2876:	21 30       	cpi	r18, 0x01	; 1
    2878:	31 05       	cpc	r19, r1
    287a:	09 f4       	brne	.+2      	; 0x287e <gs_send_activation_status_to_serial_terminal+0x46>
    287c:	48 c0       	rjmp	.+144    	; 0x290e <gs_send_activation_status_to_serial_terminal+0xd6>
    287e:	21 30       	cpi	r18, 0x01	; 1
    2880:	31 05       	cpc	r19, r1
    2882:	c8 f1       	brcs	.+114    	; 0x28f6 <gs_send_activation_status_to_serial_terminal+0xbe>
    2884:	22 30       	cpi	r18, 0x02	; 2
    2886:	31 05       	cpc	r19, r1
    2888:	09 f4       	brne	.+2      	; 0x288c <gs_send_activation_status_to_serial_terminal+0x54>
    288a:	4d c0       	rjmp	.+154    	; 0x2926 <gs_send_activation_status_to_serial_terminal+0xee>
    288c:	9e 01       	movw	r18, r28
    288e:	2f 5f       	subi	r18, 0xFF	; 255
    2890:	3f 4f       	sbci	r19, 0xFF	; 255
    2892:	d9 01       	movw	r26, r18
    2894:	e5 ea       	ldi	r30, 0xA5	; 165
    2896:	f2 e0       	ldi	r31, 0x02	; 2
    2898:	84 e1       	ldi	r24, 0x14	; 20
    289a:	01 90       	ld	r0, Z+
    289c:	0d 92       	st	X+, r0
    289e:	81 50       	subi	r24, 0x01	; 1
    28a0:	e1 f7       	brne	.-8      	; 0x289a <gs_send_activation_status_to_serial_terminal+0x62>
    28a2:	00 d0       	rcall	.+0      	; 0x28a4 <gs_send_activation_status_to_serial_terminal+0x6c>
    28a4:	00 d0       	rcall	.+0      	; 0x28a6 <gs_send_activation_status_to_serial_terminal+0x6e>
    28a6:	ed b7       	in	r30, 0x3d	; 61
    28a8:	fe b7       	in	r31, 0x3e	; 62
    28aa:	31 96       	adiw	r30, 0x01	; 1
    28ac:	8e 01       	movw	r16, r28
    28ae:	0d 5c       	subi	r16, 0xCD	; 205
    28b0:	1f 4f       	sbci	r17, 0xFF	; 255
    28b2:	ad b7       	in	r26, 0x3d	; 61
    28b4:	be b7       	in	r27, 0x3e	; 62
    28b6:	12 96       	adiw	r26, 0x02	; 2
    28b8:	1c 93       	st	X, r17
    28ba:	0e 93       	st	-X, r16
    28bc:	11 97       	sbiw	r26, 0x01	; 1
    28be:	88 ee       	ldi	r24, 0xE8	; 232
    28c0:	92 e0       	ldi	r25, 0x02	; 2
    28c2:	93 83       	std	Z+3, r25	; 0x03
    28c4:	82 83       	std	Z+2, r24	; 0x02
    28c6:	35 83       	std	Z+5, r19	; 0x05
    28c8:	24 83       	std	Z+4, r18	; 0x04
    28ca:	0e 94 c5 08 	call	0x118a	; 0x118a <sprintf>
    28ce:	8d b7       	in	r24, 0x3d	; 61
    28d0:	9e b7       	in	r25, 0x3e	; 62
    28d2:	06 96       	adiw	r24, 0x06	; 6
    28d4:	0f b6       	in	r0, 0x3f	; 63
    28d6:	f8 94       	cli
    28d8:	9e bf       	out	0x3e, r25	; 62
    28da:	0f be       	out	0x3f, r0	; 63
    28dc:	8d bf       	out	0x3d, r24	; 61
    28de:	80 91 43 1d 	lds	r24, 0x1D43
    28e2:	90 91 44 1d 	lds	r25, 0x1D44
    28e6:	b8 01       	movw	r22, r16
    28e8:	0e 94 54 50 	call	0xa0a8	; 0xa0a8 <usart_xfprint>
    28ec:	ce 57       	subi	r28, 0x7E	; 126
    28ee:	df 4f       	sbci	r29, 0xFF	; 255
    28f0:	e4 e0       	ldi	r30, 0x04	; 4
    28f2:	0c 94 b6 53 	jmp	0xa76c	; 0xa76c <__epilogue_restores__+0x1c>
    28f6:	9e 01       	movw	r18, r28
    28f8:	2f 5f       	subi	r18, 0xFF	; 255
    28fa:	3f 4f       	sbci	r19, 0xFF	; 255
    28fc:	d9 01       	movw	r26, r18
    28fe:	e5 ea       	ldi	r30, 0xA5	; 165
    2900:	f2 e0       	ldi	r31, 0x02	; 2
    2902:	84 e1       	ldi	r24, 0x14	; 20
    2904:	01 90       	ld	r0, Z+
    2906:	0d 92       	st	X+, r0
    2908:	81 50       	subi	r24, 0x01	; 1
    290a:	e1 f7       	brne	.-8      	; 0x2904 <gs_send_activation_status_to_serial_terminal+0xcc>
    290c:	ca cf       	rjmp	.-108    	; 0x28a2 <gs_send_activation_status_to_serial_terminal+0x6a>
    290e:	9e 01       	movw	r18, r28
    2910:	2f 5f       	subi	r18, 0xFF	; 255
    2912:	3f 4f       	sbci	r19, 0xFF	; 255
    2914:	d9 01       	movw	r26, r18
    2916:	e9 eb       	ldi	r30, 0xB9	; 185
    2918:	f2 e0       	ldi	r31, 0x02	; 2
    291a:	88 e1       	ldi	r24, 0x18	; 24
    291c:	01 90       	ld	r0, Z+
    291e:	0d 92       	st	X+, r0
    2920:	81 50       	subi	r24, 0x01	; 1
    2922:	e1 f7       	brne	.-8      	; 0x291c <gs_send_activation_status_to_serial_terminal+0xe4>
    2924:	be cf       	rjmp	.-132    	; 0x28a2 <gs_send_activation_status_to_serial_terminal+0x6a>
    2926:	9e 01       	movw	r18, r28
    2928:	2f 5f       	subi	r18, 0xFF	; 255
    292a:	3f 4f       	sbci	r19, 0xFF	; 255
    292c:	d9 01       	movw	r26, r18
    292e:	e1 ed       	ldi	r30, 0xD1	; 209
    2930:	f2 e0       	ldi	r31, 0x02	; 2
    2932:	87 e1       	ldi	r24, 0x17	; 23
    2934:	01 90       	ld	r0, Z+
    2936:	0d 92       	st	X+, r0
    2938:	81 50       	subi	r24, 0x01	; 1
    293a:	e1 f7       	brne	.-8      	; 0x2934 <gs_send_activation_status_to_serial_terminal+0xfc>
    293c:	b2 cf       	rjmp	.-156    	; 0x28a2 <gs_send_activation_status_to_serial_terminal+0x6a>

0000293e <gs_send_command_response_to_serial_terminal>:
    293e:	a2 e8       	ldi	r26, 0x82	; 130
    2940:	b0 e0       	ldi	r27, 0x00	; 0
    2942:	e5 ea       	ldi	r30, 0xA5	; 165
    2944:	f4 e1       	ldi	r31, 0x14	; 20
    2946:	0c 94 9a 53 	jmp	0xa734	; 0xa734 <__prologue_saves__+0x1c>
    294a:	48 2f       	mov	r20, r24
    294c:	1b aa       	std	Y+51, r1	; 0x33
    294e:	1c aa       	std	Y+52, r1	; 0x34
    2950:	1d aa       	std	Y+53, r1	; 0x35
    2952:	1e aa       	std	Y+54, r1	; 0x36
    2954:	fe 01       	movw	r30, r28
    2956:	f7 96       	adiw	r30, 0x37	; 55
    2958:	8c e4       	ldi	r24, 0x4C	; 76
    295a:	df 01       	movw	r26, r30
    295c:	1d 92       	st	X+, r1
    295e:	8a 95       	dec	r24
    2960:	e9 f7       	brne	.-6      	; 0x295c <gs_send_command_response_to_serial_terminal+0x1e>
    2962:	80 91 00 03 	lds	r24, 0x0300
    2966:	90 91 01 03 	lds	r25, 0x0301
    296a:	9a 83       	std	Y+2, r25	; 0x02
    296c:	89 83       	std	Y+1, r24	; 0x01
    296e:	fe 01       	movw	r30, r28
    2970:	33 96       	adiw	r30, 0x03	; 3
    2972:	80 e3       	ldi	r24, 0x30	; 48
    2974:	df 01       	movw	r26, r30
    2976:	1d 92       	st	X+, r1
    2978:	8a 95       	dec	r24
    297a:	e9 f7       	brne	.-6      	; 0x2976 <gs_send_command_response_to_serial_terminal+0x38>
    297c:	61 30       	cpi	r22, 0x01	; 1
    297e:	71 05       	cpc	r23, r1
    2980:	09 f4       	brne	.+2      	; 0x2984 <gs_send_command_response_to_serial_terminal+0x46>
    2982:	5b c0       	rjmp	.+182    	; 0x2a3a <gs_send_command_response_to_serial_terminal+0xfc>
    2984:	61 30       	cpi	r22, 0x01	; 1
    2986:	71 05       	cpc	r23, r1
    2988:	08 f4       	brcc	.+2      	; 0x298c <gs_send_command_response_to_serial_terminal+0x4e>
    298a:	4b c0       	rjmp	.+150    	; 0x2a22 <gs_send_command_response_to_serial_terminal+0xe4>
    298c:	62 30       	cpi	r22, 0x02	; 2
    298e:	71 05       	cpc	r23, r1
    2990:	09 f4       	brne	.+2      	; 0x2994 <gs_send_command_response_to_serial_terminal+0x56>
    2992:	5f c0       	rjmp	.+190    	; 0x2a52 <gs_send_command_response_to_serial_terminal+0x114>
    2994:	9e 01       	movw	r18, r28
    2996:	2f 5f       	subi	r18, 0xFF	; 255
    2998:	3f 4f       	sbci	r19, 0xFF	; 255
    299a:	d9 01       	movw	r26, r18
    299c:	e2 e4       	ldi	r30, 0x42	; 66
    299e:	f3 e0       	ldi	r31, 0x03	; 3
    29a0:	86 e1       	ldi	r24, 0x16	; 22
    29a2:	01 90       	ld	r0, Z+
    29a4:	0d 92       	st	X+, r0
    29a6:	81 50       	subi	r24, 0x01	; 1
    29a8:	e1 f7       	brne	.-8      	; 0x29a2 <gs_send_command_response_to_serial_terminal+0x64>
    29aa:	ed b7       	in	r30, 0x3d	; 61
    29ac:	fe b7       	in	r31, 0x3e	; 62
    29ae:	38 97       	sbiw	r30, 0x08	; 8
    29b0:	0f b6       	in	r0, 0x3f	; 63
    29b2:	f8 94       	cli
    29b4:	fe bf       	out	0x3e, r31	; 62
    29b6:	0f be       	out	0x3f, r0	; 63
    29b8:	ed bf       	out	0x3d, r30	; 61
    29ba:	ad b7       	in	r26, 0x3d	; 61
    29bc:	be b7       	in	r27, 0x3e	; 62
    29be:	11 96       	adiw	r26, 0x01	; 1
    29c0:	8e 01       	movw	r16, r28
    29c2:	0d 5c       	subi	r16, 0xCD	; 205
    29c4:	1f 4f       	sbci	r17, 0xFF	; 255
    29c6:	12 83       	std	Z+2, r17	; 0x02
    29c8:	01 83       	std	Z+1, r16	; 0x01
    29ca:	88 e5       	ldi	r24, 0x58	; 88
    29cc:	93 e0       	ldi	r25, 0x03	; 3
    29ce:	13 96       	adiw	r26, 0x03	; 3
    29d0:	9c 93       	st	X, r25
    29d2:	8e 93       	st	-X, r24
    29d4:	12 97       	sbiw	r26, 0x02	; 2
    29d6:	e4 2f       	mov	r30, r20
    29d8:	f0 e0       	ldi	r31, 0x00	; 0
    29da:	ee 0f       	add	r30, r30
    29dc:	ff 1f       	adc	r31, r31
    29de:	ef 5a       	subi	r30, 0xAF	; 175
    29e0:	f6 4f       	sbci	r31, 0xF6	; 246
    29e2:	80 81       	ld	r24, Z
    29e4:	91 81       	ldd	r25, Z+1	; 0x01
    29e6:	15 96       	adiw	r26, 0x05	; 5
    29e8:	9c 93       	st	X, r25
    29ea:	8e 93       	st	-X, r24
    29ec:	14 97       	sbiw	r26, 0x04	; 4
    29ee:	17 96       	adiw	r26, 0x07	; 7
    29f0:	3c 93       	st	X, r19
    29f2:	2e 93       	st	-X, r18
    29f4:	16 97       	sbiw	r26, 0x06	; 6
    29f6:	0e 94 c5 08 	call	0x118a	; 0x118a <sprintf>
    29fa:	8d b7       	in	r24, 0x3d	; 61
    29fc:	9e b7       	in	r25, 0x3e	; 62
    29fe:	08 96       	adiw	r24, 0x08	; 8
    2a00:	0f b6       	in	r0, 0x3f	; 63
    2a02:	f8 94       	cli
    2a04:	9e bf       	out	0x3e, r25	; 62
    2a06:	0f be       	out	0x3f, r0	; 63
    2a08:	8d bf       	out	0x3d, r24	; 61
    2a0a:	80 91 43 1d 	lds	r24, 0x1D43
    2a0e:	90 91 44 1d 	lds	r25, 0x1D44
    2a12:	b8 01       	movw	r22, r16
    2a14:	0e 94 54 50 	call	0xa0a8	; 0xa0a8 <usart_xfprint>
    2a18:	ce 57       	subi	r28, 0x7E	; 126
    2a1a:	df 4f       	sbci	r29, 0xFF	; 255
    2a1c:	e4 e0       	ldi	r30, 0x04	; 4
    2a1e:	0c 94 b6 53 	jmp	0xa76c	; 0xa76c <__epilogue_restores__+0x1c>
    2a22:	9e 01       	movw	r18, r28
    2a24:	2f 5f       	subi	r18, 0xFF	; 255
    2a26:	3f 4f       	sbci	r19, 0xFF	; 255
    2a28:	d9 01       	movw	r26, r18
    2a2a:	e2 e3       	ldi	r30, 0x32	; 50
    2a2c:	f3 e0       	ldi	r31, 0x03	; 3
    2a2e:	87 e0       	ldi	r24, 0x07	; 7
    2a30:	01 90       	ld	r0, Z+
    2a32:	0d 92       	st	X+, r0
    2a34:	81 50       	subi	r24, 0x01	; 1
    2a36:	e1 f7       	brne	.-8      	; 0x2a30 <gs_send_command_response_to_serial_terminal+0xf2>
    2a38:	b8 cf       	rjmp	.-144    	; 0x29aa <gs_send_command_response_to_serial_terminal+0x6c>
    2a3a:	9e 01       	movw	r18, r28
    2a3c:	2f 5f       	subi	r18, 0xFF	; 255
    2a3e:	3f 4f       	sbci	r19, 0xFF	; 255
    2a40:	d9 01       	movw	r26, r18
    2a42:	e9 e3       	ldi	r30, 0x39	; 57
    2a44:	f3 e0       	ldi	r31, 0x03	; 3
    2a46:	89 e0       	ldi	r24, 0x09	; 9
    2a48:	01 90       	ld	r0, Z+
    2a4a:	0d 92       	st	X+, r0
    2a4c:	81 50       	subi	r24, 0x01	; 1
    2a4e:	e1 f7       	brne	.-8      	; 0x2a48 <gs_send_command_response_to_serial_terminal+0x10a>
    2a50:	ac cf       	rjmp	.-168    	; 0x29aa <gs_send_command_response_to_serial_terminal+0x6c>
    2a52:	9e 01       	movw	r18, r28
    2a54:	2f 5f       	subi	r18, 0xFF	; 255
    2a56:	3f 4f       	sbci	r19, 0xFF	; 255
    2a58:	d9 01       	movw	r26, r18
    2a5a:	e2 e4       	ldi	r30, 0x42	; 66
    2a5c:	f3 e0       	ldi	r31, 0x03	; 3
    2a5e:	86 e1       	ldi	r24, 0x16	; 22
    2a60:	01 90       	ld	r0, Z+
    2a62:	0d 92       	st	X+, r0
    2a64:	81 50       	subi	r24, 0x01	; 1
    2a66:	e1 f7       	brne	.-8      	; 0x2a60 <gs_send_command_response_to_serial_terminal+0x122>
    2a68:	a0 cf       	rjmp	.-192    	; 0x29aa <gs_send_command_response_to_serial_terminal+0x6c>

00002a6a <gs_reset_socket>:
    2a6a:	a0 e8       	ldi	r26, 0x80	; 128
    2a6c:	b0 e0       	ldi	r27, 0x00	; 0
    2a6e:	eb e3       	ldi	r30, 0x3B	; 59
    2a70:	f5 e1       	ldi	r31, 0x15	; 21
    2a72:	0c 94 92 53 	jmp	0xa724	; 0xa724 <__prologue_saves__+0xc>
    2a76:	28 2f       	mov	r18, r24
    2a78:	84 30       	cpi	r24, 0x04	; 4
    2a7a:	08 f0       	brcs	.+2      	; 0x2a7e <gs_reset_socket+0x14>
    2a7c:	9f c0       	rjmp	.+318    	; 0x2bbc <gs_reset_socket+0x152>
    2a7e:	a8 2e       	mov	r10, r24
    2a80:	bb 24       	eor	r11, r11
    2a82:	45 01       	movw	r8, r10
    2a84:	88 0c       	add	r8, r8
    2a86:	99 1c       	adc	r9, r9
    2a88:	88 0c       	add	r8, r8
    2a8a:	99 1c       	adc	r9, r9
    2a8c:	88 0c       	add	r8, r8
    2a8e:	99 1c       	adc	r9, r9
    2a90:	64 01       	movw	r12, r8
    2a92:	ca 0c       	add	r12, r10
    2a94:	db 1c       	adc	r13, r11
    2a96:	83 e4       	ldi	r24, 0x43	; 67
    2a98:	9d e1       	ldi	r25, 0x1D	; 29
    2a9a:	c8 0e       	add	r12, r24
    2a9c:	d9 1e       	adc	r13, r25
    2a9e:	d6 01       	movw	r26, r12
    2aa0:	9c 96       	adiw	r26, 0x2c	; 44
    2aa2:	8d 91       	ld	r24, X+
    2aa4:	9c 91       	ld	r25, X
    2aa6:	9d 97       	sbiw	r26, 0x2d	; 45
    2aa8:	01 97       	sbiw	r24, 0x01	; 1
    2aaa:	03 97       	sbiw	r24, 0x03	; 3
    2aac:	08 f0       	brcs	.+2      	; 0x2ab0 <gs_reset_socket+0x46>
    2aae:	86 c0       	rjmp	.+268    	; 0x2bbc <gs_reset_socket+0x152>
    2ab0:	20 93 94 1d 	sts	0x1D94, r18
    2ab4:	d4 96       	adiw	r26, 0x34	; 52
    2ab6:	8c 91       	ld	r24, X
    2ab8:	80 93 95 1d 	sts	0x1D95, r24
    2abc:	9b e1       	ldi	r25, 0x1B	; 27
    2abe:	e9 2e       	mov	r14, r25
    2ac0:	f1 2c       	mov	r15, r1
    2ac2:	fa 82       	std	Y+2, r15	; 0x02
    2ac4:	e9 82       	std	Y+1, r14	; 0x01
    2ac6:	80 91 49 1d 	lds	r24, 0x1D49
    2aca:	90 91 4a 1d 	lds	r25, 0x1D4A
    2ace:	8e 01       	movw	r16, r28
    2ad0:	0f 5f       	subi	r16, 0xFF	; 255
    2ad2:	1f 4f       	sbci	r17, 0xFF	; 255
    2ad4:	b8 01       	movw	r22, r16
    2ad6:	0e 94 54 50 	call	0xa0a8	; 0xa0a8 <usart_xfprint>
    2ada:	83 e5       	ldi	r24, 0x53	; 83
    2adc:	90 e0       	ldi	r25, 0x00	; 0
    2ade:	9a 83       	std	Y+2, r25	; 0x02
    2ae0:	89 83       	std	Y+1, r24	; 0x01
    2ae2:	80 91 49 1d 	lds	r24, 0x1D49
    2ae6:	90 91 4a 1d 	lds	r25, 0x1D4A
    2aea:	b8 01       	movw	r22, r16
    2aec:	0e 94 54 50 	call	0xa0a8	; 0xa0a8 <usart_xfprint>
    2af0:	00 d0       	rcall	.+0      	; 0x2af2 <gs_reset_socket+0x88>
    2af2:	00 d0       	rcall	.+0      	; 0x2af4 <gs_reset_socket+0x8a>
    2af4:	ed b7       	in	r30, 0x3d	; 61
    2af6:	fe b7       	in	r31, 0x3e	; 62
    2af8:	31 96       	adiw	r30, 0x01	; 1
    2afa:	ad b7       	in	r26, 0x3d	; 61
    2afc:	be b7       	in	r27, 0x3e	; 62
    2afe:	12 96       	adiw	r26, 0x02	; 2
    2b00:	1c 93       	st	X, r17
    2b02:	0e 93       	st	-X, r16
    2b04:	11 97       	sbiw	r26, 0x01	; 1
    2b06:	89 e6       	ldi	r24, 0x69	; 105
    2b08:	93 e0       	ldi	r25, 0x03	; 3
    2b0a:	93 83       	std	Z+3, r25	; 0x03
    2b0c:	82 83       	std	Z+2, r24	; 0x02
    2b0e:	d6 01       	movw	r26, r12
    2b10:	d4 96       	adiw	r26, 0x34	; 52
    2b12:	8c 91       	ld	r24, X
    2b14:	84 83       	std	Z+4, r24	; 0x04
    2b16:	15 82       	std	Z+5, r1	; 0x05
    2b18:	0e 94 c5 08 	call	0x118a	; 0x118a <sprintf>
    2b1c:	ed b7       	in	r30, 0x3d	; 61
    2b1e:	fe b7       	in	r31, 0x3e	; 62
    2b20:	36 96       	adiw	r30, 0x06	; 6
    2b22:	0f b6       	in	r0, 0x3f	; 63
    2b24:	f8 94       	cli
    2b26:	fe bf       	out	0x3e, r31	; 62
    2b28:	0f be       	out	0x3f, r0	; 63
    2b2a:	ed bf       	out	0x3d, r30	; 61
    2b2c:	80 91 49 1d 	lds	r24, 0x1D49
    2b30:	90 91 4a 1d 	lds	r25, 0x1D4A
    2b34:	b8 01       	movw	r22, r16
    2b36:	0e 94 54 50 	call	0xa0a8	; 0xa0a8 <usart_xfprint>
    2b3a:	fa 82       	std	Y+2, r15	; 0x02
    2b3c:	e9 82       	std	Y+1, r14	; 0x01
    2b3e:	80 91 49 1d 	lds	r24, 0x1D49
    2b42:	90 91 4a 1d 	lds	r25, 0x1D4A
    2b46:	b8 01       	movw	r22, r16
    2b48:	0e 94 54 50 	call	0xa0a8	; 0xa0a8 <usart_xfprint>
    2b4c:	83 e4       	ldi	r24, 0x43	; 67
    2b4e:	90 e0       	ldi	r25, 0x00	; 0
    2b50:	9a 83       	std	Y+2, r25	; 0x02
    2b52:	89 83       	std	Y+1, r24	; 0x01
    2b54:	80 91 49 1d 	lds	r24, 0x1D49
    2b58:	90 91 4a 1d 	lds	r25, 0x1D4A
    2b5c:	b8 01       	movw	r22, r16
    2b5e:	0e 94 54 50 	call	0xa0a8	; 0xa0a8 <usart_xfprint>
    2b62:	d6 01       	movw	r26, r12
    2b64:	d0 96       	adiw	r26, 0x30	; 48
    2b66:	2c 91       	ld	r18, X
    2b68:	d0 97       	sbiw	r26, 0x30	; 48
    2b6a:	d1 96       	adiw	r26, 0x31	; 49
    2b6c:	3c 91       	ld	r19, X
    2b6e:	c9 01       	movw	r24, r18
    2b70:	dc 01       	movw	r26, r24
    2b72:	ec e6       	ldi	r30, 0x6C	; 108
    2b74:	f3 e0       	ldi	r31, 0x03	; 3
    2b76:	88 e0       	ldi	r24, 0x08	; 8
    2b78:	01 90       	ld	r0, Z+
    2b7a:	0d 92       	st	X+, r0
    2b7c:	81 50       	subi	r24, 0x01	; 1
    2b7e:	e1 f7       	brne	.-8      	; 0x2b78 <gs_reset_socket+0x10e>
    2b80:	f4 01       	movw	r30, r8
    2b82:	ea 0d       	add	r30, r10
    2b84:	fb 1d       	adc	r31, r11
    2b86:	ed 5b       	subi	r30, 0xBD	; 189
    2b88:	f2 4e       	sbci	r31, 0xE2	; 226
    2b8a:	82 e0       	ldi	r24, 0x02	; 2
    2b8c:	90 e0       	ldi	r25, 0x00	; 0
    2b8e:	95 a7       	std	Z+45, r25	; 0x2d
    2b90:	84 a7       	std	Z+44, r24	; 0x2c
    2b92:	86 e0       	ldi	r24, 0x06	; 6
    2b94:	90 e0       	ldi	r25, 0x00	; 0
    2b96:	97 a7       	std	Z+47, r25	; 0x2f
    2b98:	86 a7       	std	Z+46, r24	; 0x2e
    2b9a:	13 aa       	std	Z+51, r1	; 0x33
    2b9c:	12 aa       	std	Z+50, r1	; 0x32
    2b9e:	80 91 6e 1d 	lds	r24, 0x1D6E
    2ba2:	84 ab       	std	Z+52, r24	; 0x34
    2ba4:	80 93 95 1d 	sts	0x1D95, r24
    2ba8:	8f ef       	ldi	r24, 0xFF	; 255
    2baa:	80 93 93 1d 	sts	0x1D93, r24
    2bae:	10 92 97 1d 	sts	0x1D97, r1
    2bb2:	10 92 96 1d 	sts	0x1D96, r1
    2bb6:	21 e0       	ldi	r18, 0x01	; 1
    2bb8:	30 e0       	ldi	r19, 0x00	; 0
    2bba:	02 c0       	rjmp	.+4      	; 0x2bc0 <gs_reset_socket+0x156>
    2bbc:	20 e0       	ldi	r18, 0x00	; 0
    2bbe:	30 e0       	ldi	r19, 0x00	; 0
    2bc0:	c9 01       	movw	r24, r18
    2bc2:	c0 58       	subi	r28, 0x80	; 128
    2bc4:	df 4f       	sbci	r29, 0xFF	; 255
    2bc6:	ec e0       	ldi	r30, 0x0C	; 12
    2bc8:	0c 94 ae 53 	jmp	0xa75c	; 0xa75c <__epilogue_restores__+0xc>

00002bcc <gs_parse_command_response_tcp>:
    2bcc:	a3 e8       	ldi	r26, 0x83	; 131
    2bce:	b0 e0       	ldi	r27, 0x00	; 0
    2bd0:	ec ee       	ldi	r30, 0xEC	; 236
    2bd2:	f5 e1       	ldi	r31, 0x15	; 21
    2bd4:	0c 94 93 53 	jmp	0xa726	; 0xa726 <__prologue_saves__+0xe>
    2bd8:	7c 01       	movw	r14, r24
    2bda:	5b 01       	movw	r10, r22
    2bdc:	90 90 94 1d 	lds	r9, 0x1D94
    2be0:	6e 01       	movw	r12, r28
    2be2:	08 94       	sec
    2be4:	c1 1c       	adc	r12, r1
    2be6:	d1 1c       	adc	r13, r1
    2be8:	c6 01       	movw	r24, r12
    2bea:	60 e2       	ldi	r22, 0x20	; 32
    2bec:	70 e0       	ldi	r23, 0x00	; 0
    2bee:	40 e8       	ldi	r20, 0x80	; 128
    2bf0:	50 e0       	ldi	r21, 0x00	; 0
    2bf2:	0e 94 2e 08 	call	0x105c	; 0x105c <memset>
    2bf6:	f7 01       	movw	r30, r14
    2bf8:	80 81       	ld	r24, Z
    2bfa:	88 23       	and	r24, r24
    2bfc:	09 f4       	brne	.+2      	; 0x2c00 <gs_parse_command_response_tcp+0x34>
    2bfe:	6e c0       	rjmp	.+220    	; 0x2cdc <gs_parse_command_response_tcp+0x110>
    2c00:	20 e0       	ldi	r18, 0x00	; 0
    2c02:	30 e0       	ldi	r19, 0x00	; 0
    2c04:	00 e0       	ldi	r16, 0x00	; 0
    2c06:	10 e0       	ldi	r17, 0x00	; 0
    2c08:	15 c0       	rjmp	.+42     	; 0x2c34 <gs_parse_command_response_tcp+0x68>
    2c0a:	8a 30       	cpi	r24, 0x0A	; 10
    2c0c:	c9 f0       	breq	.+50     	; 0x2c40 <gs_parse_command_response_tcp+0x74>
    2c0e:	f6 01       	movw	r30, r12
    2c10:	e2 0f       	add	r30, r18
    2c12:	f3 1f       	adc	r31, r19
    2c14:	80 83       	st	Z, r24
    2c16:	2f 5f       	subi	r18, 0xFF	; 255
    2c18:	3f 4f       	sbci	r19, 0xFF	; 255
    2c1a:	0f 5f       	subi	r16, 0xFF	; 255
    2c1c:	1f 4f       	sbci	r17, 0xFF	; 255
    2c1e:	f7 01       	movw	r30, r14
    2c20:	01 90       	ld	r0, Z+
    2c22:	00 20       	and	r0, r0
    2c24:	e9 f7       	brne	.-6      	; 0x2c20 <gs_parse_command_response_tcp+0x54>
    2c26:	31 97       	sbiw	r30, 0x01	; 1
    2c28:	ee 19       	sub	r30, r14
    2c2a:	ff 09       	sbc	r31, r15
    2c2c:	e0 17       	cp	r30, r16
    2c2e:	f1 07       	cpc	r31, r17
    2c30:	08 f4       	brcc	.+2      	; 0x2c34 <gs_parse_command_response_tcp+0x68>
    2c32:	54 c0       	rjmp	.+168    	; 0x2cdc <gs_parse_command_response_tcp+0x110>
    2c34:	f7 01       	movw	r30, r14
    2c36:	e0 0f       	add	r30, r16
    2c38:	f1 1f       	adc	r31, r17
    2c3a:	80 81       	ld	r24, Z
    2c3c:	8d 30       	cpi	r24, 0x0D	; 13
    2c3e:	29 f7       	brne	.-54     	; 0x2c0a <gs_parse_command_response_tcp+0x3e>
    2c40:	21 15       	cp	r18, r1
    2c42:	31 05       	cpc	r19, r1
    2c44:	51 f3       	breq	.-44     	; 0x2c1a <gs_parse_command_response_tcp+0x4e>
    2c46:	2c 0d       	add	r18, r12
    2c48:	3d 1d       	adc	r19, r13
    2c4a:	f9 01       	movw	r30, r18
    2c4c:	10 82       	st	Z, r1
    2c4e:	c6 01       	movw	r24, r12
    2c50:	64 e7       	ldi	r22, 0x74	; 116
    2c52:	73 e0       	ldi	r23, 0x03	; 3
    2c54:	47 e0       	ldi	r20, 0x07	; 7
    2c56:	50 e0       	ldi	r21, 0x00	; 0
    2c58:	0e 94 57 08 	call	0x10ae	; 0x10ae <strncmp>
    2c5c:	00 97       	sbiw	r24, 0x00	; 0
    2c5e:	09 f4       	brne	.+2      	; 0x2c62 <gs_parse_command_response_tcp+0x96>
    2c60:	45 c0       	rjmp	.+138    	; 0x2cec <gs_parse_command_response_tcp+0x120>
    2c62:	c6 01       	movw	r24, r12
    2c64:	6c e7       	ldi	r22, 0x7C	; 124
    2c66:	73 e0       	ldi	r23, 0x03	; 3
    2c68:	4a e0       	ldi	r20, 0x0A	; 10
    2c6a:	50 e0       	ldi	r21, 0x00	; 0
    2c6c:	0e 94 57 08 	call	0x10ae	; 0x10ae <strncmp>
    2c70:	00 97       	sbiw	r24, 0x00	; 0
    2c72:	09 f4       	brne	.+2      	; 0x2c76 <gs_parse_command_response_tcp+0xaa>
    2c74:	84 c0       	rjmp	.+264    	; 0x2d7e <gs_parse_command_response_tcp+0x1b2>
    2c76:	c6 01       	movw	r24, r12
    2c78:	67 e8       	ldi	r22, 0x87	; 135
    2c7a:	73 e0       	ldi	r23, 0x03	; 3
    2c7c:	44 e1       	ldi	r20, 0x14	; 20
    2c7e:	50 e0       	ldi	r21, 0x00	; 0
    2c80:	0e 94 57 08 	call	0x10ae	; 0x10ae <strncmp>
    2c84:	00 97       	sbiw	r24, 0x00	; 0
    2c86:	09 f4       	brne	.+2      	; 0x2c8a <gs_parse_command_response_tcp+0xbe>
    2c88:	a2 c0       	rjmp	.+324    	; 0x2dce <gs_parse_command_response_tcp+0x202>
    2c8a:	c6 01       	movw	r24, r12
    2c8c:	6c e9       	ldi	r22, 0x9C	; 156
    2c8e:	73 e0       	ldi	r23, 0x03	; 3
    2c90:	42 e0       	ldi	r20, 0x02	; 2
    2c92:	50 e0       	ldi	r21, 0x00	; 0
    2c94:	0e 94 57 08 	call	0x10ae	; 0x10ae <strncmp>
    2c98:	00 97       	sbiw	r24, 0x00	; 0
    2c9a:	09 f4       	brne	.+2      	; 0x2c9e <gs_parse_command_response_tcp+0xd2>
    2c9c:	a1 c0       	rjmp	.+322    	; 0x2de0 <gs_parse_command_response_tcp+0x214>
    2c9e:	c6 01       	movw	r24, r12
    2ca0:	6f e9       	ldi	r22, 0x9F	; 159
    2ca2:	73 e0       	ldi	r23, 0x03	; 3
    2ca4:	45 e0       	ldi	r20, 0x05	; 5
    2ca6:	50 e0       	ldi	r21, 0x00	; 0
    2ca8:	0e 94 57 08 	call	0x10ae	; 0x10ae <strncmp>
    2cac:	00 97       	sbiw	r24, 0x00	; 0
    2cae:	09 f4       	brne	.+2      	; 0x2cb2 <gs_parse_command_response_tcp+0xe6>
    2cb0:	9e c0       	rjmp	.+316    	; 0x2dee <gs_parse_command_response_tcp+0x222>
    2cb2:	c6 01       	movw	r24, r12
    2cb4:	65 ea       	ldi	r22, 0xA5	; 165
    2cb6:	73 e0       	ldi	r23, 0x03	; 3
    2cb8:	4b e0       	ldi	r20, 0x0B	; 11
    2cba:	50 e0       	ldi	r21, 0x00	; 0
    2cbc:	0e 94 57 08 	call	0x10ae	; 0x10ae <strncmp>
    2cc0:	00 97       	sbiw	r24, 0x00	; 0
    2cc2:	09 f4       	brne	.+2      	; 0x2cc6 <gs_parse_command_response_tcp+0xfa>
    2cc4:	ac c0       	rjmp	.+344    	; 0x2e1e <gs_parse_command_response_tcp+0x252>
    2cc6:	c6 01       	movw	r24, r12
    2cc8:	60 e2       	ldi	r22, 0x20	; 32
    2cca:	70 e0       	ldi	r23, 0x00	; 0
    2ccc:	40 e8       	ldi	r20, 0x80	; 128
    2cce:	50 e0       	ldi	r21, 0x00	; 0
    2cd0:	0e 94 2e 08 	call	0x105c	; 0x105c <memset>
    2cd4:	19 82       	std	Y+1, r1	; 0x01
    2cd6:	20 e0       	ldi	r18, 0x00	; 0
    2cd8:	30 e0       	ldi	r19, 0x00	; 0
    2cda:	9f cf       	rjmp	.-194    	; 0x2c1a <gs_parse_command_response_tcp+0x4e>
    2cdc:	22 e0       	ldi	r18, 0x02	; 2
    2cde:	30 e0       	ldi	r19, 0x00	; 0
    2ce0:	c9 01       	movw	r24, r18
    2ce2:	cd 57       	subi	r28, 0x7D	; 125
    2ce4:	df 4f       	sbci	r29, 0xFF	; 255
    2ce6:	eb e0       	ldi	r30, 0x0B	; 11
    2ce8:	0c 94 af 53 	jmp	0xa75e	; 0xa75e <__epilogue_restores__+0xe>
    2cec:	f1 e0       	ldi	r31, 0x01	; 1
    2cee:	af 16       	cp	r10, r31
    2cf0:	b1 04       	cpc	r11, r1
    2cf2:	09 f4       	brne	.+2      	; 0x2cf6 <gs_parse_command_response_tcp+0x12a>
    2cf4:	97 c0       	rjmp	.+302    	; 0x2e24 <gs_parse_command_response_tcp+0x258>
    2cf6:	82 e0       	ldi	r24, 0x02	; 2
    2cf8:	a8 16       	cp	r10, r24
    2cfa:	b1 04       	cpc	r11, r1
    2cfc:	09 f0       	breq	.+2      	; 0x2d00 <gs_parse_command_response_tcp+0x134>
    2cfe:	4e c0       	rjmp	.+156    	; 0x2d9c <gs_parse_command_response_tcp+0x1d0>
    2d00:	89 85       	ldd	r24, Y+9	; 0x09
    2d02:	58 2f       	mov	r21, r24
    2d04:	50 53       	subi	r21, 0x30	; 48
    2d06:	98 2f       	mov	r25, r24
    2d08:	91 54       	subi	r25, 0x41	; 65
    2d0a:	ce 57       	subi	r28, 0x7E	; 126
    2d0c:	df 4f       	sbci	r29, 0xFF	; 255
    2d0e:	98 83       	st	Y, r25
    2d10:	c2 58       	subi	r28, 0x82	; 130
    2d12:	d0 40       	sbci	r29, 0x00	; 0
    2d14:	b8 2f       	mov	r27, r24
    2d16:	b7 53       	subi	r27, 0x37	; 55
    2d18:	e8 2f       	mov	r30, r24
    2d1a:	e1 56       	subi	r30, 0x61	; 97
    2d1c:	cd 57       	subi	r28, 0x7D	; 125
    2d1e:	df 4f       	sbci	r29, 0xFF	; 255
    2d20:	e8 83       	st	Y, r30
    2d22:	c3 58       	subi	r28, 0x83	; 131
    2d24:	d0 40       	sbci	r29, 0x00	; 0
    2d26:	a8 2f       	mov	r26, r24
    2d28:	a7 55       	subi	r26, 0x57	; 87
    2d2a:	8b 85       	ldd	r24, Y+11	; 0x0b
    2d2c:	48 2f       	mov	r20, r24
    2d2e:	40 53       	subi	r20, 0x30	; 48
    2d30:	08 2f       	mov	r16, r24
    2d32:	01 54       	subi	r16, 0x41	; 65
    2d34:	78 2f       	mov	r23, r24
    2d36:	77 53       	subi	r23, 0x37	; 55
    2d38:	f8 2f       	mov	r31, r24
    2d3a:	f1 56       	subi	r31, 0x61	; 97
    2d3c:	cf 57       	subi	r28, 0x7F	; 127
    2d3e:	df 4f       	sbci	r29, 0xFF	; 255
    2d40:	f8 83       	st	Y, r31
    2d42:	c1 58       	subi	r28, 0x81	; 129
    2d44:	d0 40       	sbci	r29, 0x00	; 0
    2d46:	68 2f       	mov	r22, r24
    2d48:	67 55       	subi	r22, 0x57	; 87
    2d4a:	10 91 94 1d 	lds	r17, 0x1D94
    2d4e:	30 91 95 1d 	lds	r19, 0x1D95
    2d52:	ef e6       	ldi	r30, 0x6F	; 111
    2d54:	fd e1       	ldi	r31, 0x1D	; 29
    2d56:	20 e0       	ldi	r18, 0x00	; 0
    2d58:	83 e0       	ldi	r24, 0x03	; 3
    2d5a:	e8 2e       	mov	r14, r24
    2d5c:	f1 2c       	mov	r15, r1
    2d5e:	80 81       	ld	r24, Z
    2d60:	91 81       	ldd	r25, Z+1	; 0x01
    2d62:	02 97       	sbiw	r24, 0x02	; 2
    2d64:	09 f4       	brne	.+2      	; 0x2d68 <gs_parse_command_response_tcp+0x19c>
    2d66:	85 c0       	rjmp	.+266    	; 0x2e72 <gs_parse_command_response_tcp+0x2a6>
    2d68:	2f 5f       	subi	r18, 0xFF	; 255
    2d6a:	39 96       	adiw	r30, 0x09	; 9
    2d6c:	24 30       	cpi	r18, 0x04	; 4
    2d6e:	b9 f7       	brne	.-18     	; 0x2d5e <gs_parse_command_response_tcp+0x192>
    2d70:	10 93 94 1d 	sts	0x1D94, r17
    2d74:	30 93 95 1d 	sts	0x1D95, r19
    2d78:	21 e0       	ldi	r18, 0x01	; 1
    2d7a:	30 e0       	ldi	r19, 0x00	; 0
    2d7c:	b1 cf       	rjmp	.-158    	; 0x2ce0 <gs_parse_command_response_tcp+0x114>
    2d7e:	0f e6       	ldi	r16, 0x6F	; 111
    2d80:	1d e1       	ldi	r17, 0x1D	; 29
    2d82:	ff 24       	eor	r15, r15
    2d84:	f8 01       	movw	r30, r16
    2d86:	80 81       	ld	r24, Z
    2d88:	91 81       	ldd	r25, Z+1	; 0x01
    2d8a:	02 97       	sbiw	r24, 0x02	; 2
    2d8c:	02 97       	sbiw	r24, 0x02	; 2
    2d8e:	48 f0       	brcs	.+18     	; 0x2da2 <gs_parse_command_response_tcp+0x1d6>
    2d90:	f3 94       	inc	r15
    2d92:	07 5f       	subi	r16, 0xF7	; 247
    2d94:	1f 4f       	sbci	r17, 0xFF	; 255
    2d96:	f4 e0       	ldi	r31, 0x04	; 4
    2d98:	ff 16       	cp	r15, r31
    2d9a:	a1 f7       	brne	.-24     	; 0x2d84 <gs_parse_command_response_tcp+0x1b8>
    2d9c:	21 e0       	ldi	r18, 0x01	; 1
    2d9e:	30 e0       	ldi	r19, 0x00	; 0
    2da0:	9f cf       	rjmp	.-194    	; 0x2ce0 <gs_parse_command_response_tcp+0x114>
    2da2:	20 91 95 1d 	lds	r18, 0x1D95
    2da6:	9c 85       	ldd	r25, Y+12	; 0x0c
    2da8:	89 2f       	mov	r24, r25
    2daa:	80 53       	subi	r24, 0x30	; 48
    2dac:	8a 30       	cpi	r24, 0x0A	; 10
    2dae:	28 f0       	brcs	.+10     	; 0x2dba <gs_parse_command_response_tcp+0x1ee>
    2db0:	81 51       	subi	r24, 0x11	; 17
    2db2:	86 30       	cpi	r24, 0x06	; 6
    2db4:	08 f0       	brcs	.+2      	; 0x2db8 <gs_parse_command_response_tcp+0x1ec>
    2db6:	83 c0       	rjmp	.+262    	; 0x2ebe <gs_parse_command_response_tcp+0x2f2>
    2db8:	86 5f       	subi	r24, 0xF6	; 246
    2dba:	28 17       	cp	r18, r24
    2dbc:	49 f7       	brne	.-46     	; 0x2d90 <gs_parse_command_response_tcp+0x1c4>
    2dbe:	8f 2d       	mov	r24, r15
    2dc0:	0e 94 35 15 	call	0x2a6a	; 0x2a6a <gs_reset_socket>
    2dc4:	10 92 97 1d 	sts	0x1D97, r1
    2dc8:	10 92 96 1d 	sts	0x1D96, r1
    2dcc:	e1 cf       	rjmp	.-62     	; 0x2d90 <gs_parse_command_response_tcp+0x1c4>
    2dce:	82 e0       	ldi	r24, 0x02	; 2
    2dd0:	90 e0       	ldi	r25, 0x00	; 0
    2dd2:	90 93 50 1d 	sts	0x1D50, r25
    2dd6:	80 93 4f 1d 	sts	0x1D4F, r24
    2dda:	21 e0       	ldi	r18, 0x01	; 1
    2ddc:	30 e0       	ldi	r19, 0x00	; 0
    2dde:	80 cf       	rjmp	.-256    	; 0x2ce0 <gs_parse_command_response_tcp+0x114>
    2de0:	10 92 97 1d 	sts	0x1D97, r1
    2de4:	10 92 96 1d 	sts	0x1D96, r1
    2de8:	21 e0       	ldi	r18, 0x01	; 1
    2dea:	30 e0       	ldi	r19, 0x00	; 0
    2dec:	79 cf       	rjmp	.-270    	; 0x2ce0 <gs_parse_command_response_tcp+0x114>
    2dee:	89 2d       	mov	r24, r9
    2df0:	90 e0       	ldi	r25, 0x00	; 0
    2df2:	fc 01       	movw	r30, r24
    2df4:	ee 0f       	add	r30, r30
    2df6:	ff 1f       	adc	r31, r31
    2df8:	ee 0f       	add	r30, r30
    2dfa:	ff 1f       	adc	r31, r31
    2dfc:	ee 0f       	add	r30, r30
    2dfe:	ff 1f       	adc	r31, r31
    2e00:	e8 0f       	add	r30, r24
    2e02:	f9 1f       	adc	r31, r25
    2e04:	ed 5b       	subi	r30, 0xBD	; 189
    2e06:	f2 4e       	sbci	r31, 0xE2	; 226
    2e08:	82 e0       	ldi	r24, 0x02	; 2
    2e0a:	90 e0       	ldi	r25, 0x00	; 0
    2e0c:	95 a7       	std	Z+45, r25	; 0x2d
    2e0e:	84 a7       	std	Z+44, r24	; 0x2c
    2e10:	10 92 97 1d 	sts	0x1D97, r1
    2e14:	10 92 96 1d 	sts	0x1D96, r1
    2e18:	20 e0       	ldi	r18, 0x00	; 0
    2e1a:	30 e0       	ldi	r19, 0x00	; 0
    2e1c:	61 cf       	rjmp	.-318    	; 0x2ce0 <gs_parse_command_response_tcp+0x114>
    2e1e:	20 e0       	ldi	r18, 0x00	; 0
    2e20:	30 e0       	ldi	r19, 0x00	; 0
    2e22:	5e cf       	rjmp	.-324    	; 0x2ce0 <gs_parse_command_response_tcp+0x114>
    2e24:	99 85       	ldd	r25, Y+9	; 0x09
    2e26:	29 2f       	mov	r18, r25
    2e28:	20 53       	subi	r18, 0x30	; 48
    2e2a:	2a 30       	cpi	r18, 0x0A	; 10
    2e2c:	08 f4       	brcc	.+2      	; 0x2e30 <gs_parse_command_response_tcp+0x264>
    2e2e:	53 c0       	rjmp	.+166    	; 0x2ed6 <gs_parse_command_response_tcp+0x30a>
    2e30:	89 2f       	mov	r24, r25
    2e32:	81 54       	subi	r24, 0x41	; 65
    2e34:	86 30       	cpi	r24, 0x06	; 6
    2e36:	08 f0       	brcs	.+2      	; 0x2e3a <gs_parse_command_response_tcp+0x26e>
    2e38:	48 c0       	rjmp	.+144    	; 0x2eca <gs_parse_command_response_tcp+0x2fe>
    2e3a:	29 2f       	mov	r18, r25
    2e3c:	27 53       	subi	r18, 0x37	; 55
    2e3e:	20 93 6e 1d 	sts	0x1D6E, r18
    2e42:	20 93 95 1d 	sts	0x1D95, r18
    2e46:	80 91 94 1d 	lds	r24, 0x1D94
    2e4a:	90 e0       	ldi	r25, 0x00	; 0
    2e4c:	fc 01       	movw	r30, r24
    2e4e:	ee 0f       	add	r30, r30
    2e50:	ff 1f       	adc	r31, r31
    2e52:	ee 0f       	add	r30, r30
    2e54:	ff 1f       	adc	r31, r31
    2e56:	ee 0f       	add	r30, r30
    2e58:	ff 1f       	adc	r31, r31
    2e5a:	e8 0f       	add	r30, r24
    2e5c:	f9 1f       	adc	r31, r25
    2e5e:	ed 5b       	subi	r30, 0xBD	; 189
    2e60:	f2 4e       	sbci	r31, 0xE2	; 226
    2e62:	24 ab       	std	Z+52, r18	; 0x34
    2e64:	82 e0       	ldi	r24, 0x02	; 2
    2e66:	90 e0       	ldi	r25, 0x00	; 0
    2e68:	95 a7       	std	Z+45, r25	; 0x2d
    2e6a:	84 a7       	std	Z+44, r24	; 0x2c
    2e6c:	21 e0       	ldi	r18, 0x01	; 1
    2e6e:	30 e0       	ldi	r19, 0x00	; 0
    2e70:	37 cf       	rjmp	.-402    	; 0x2ce0 <gs_parse_command_response_tcp+0x114>
    2e72:	90 85       	ldd	r25, Z+8	; 0x08
    2e74:	5a 30       	cpi	r21, 0x0A	; 10
    2e76:	b8 f5       	brcc	.+110    	; 0x2ee6 <gs_parse_command_response_tcp+0x31a>
    2e78:	85 2f       	mov	r24, r21
    2e7a:	98 17       	cp	r25, r24
    2e7c:	09 f0       	breq	.+2      	; 0x2e80 <gs_parse_command_response_tcp+0x2b4>
    2e7e:	74 cf       	rjmp	.-280    	; 0x2d68 <gs_parse_command_response_tcp+0x19c>
    2e80:	82 81       	ldd	r24, Z+2	; 0x02
    2e82:	93 81       	ldd	r25, Z+3	; 0x03
    2e84:	06 97       	sbiw	r24, 0x06	; 6
    2e86:	09 f0       	breq	.+2      	; 0x2e8a <gs_parse_command_response_tcp+0x2be>
    2e88:	6f cf       	rjmp	.-290    	; 0x2d68 <gs_parse_command_response_tcp+0x19c>
    2e8a:	90 91 6e 1d 	lds	r25, 0x1D6E
    2e8e:	5a 30       	cpi	r21, 0x0A	; 10
    2e90:	08 f4       	brcc	.+2      	; 0x2e94 <gs_parse_command_response_tcp+0x2c8>
    2e92:	40 c0       	rjmp	.+128    	; 0x2f14 <gs_parse_command_response_tcp+0x348>
    2e94:	ce 57       	subi	r28, 0x7E	; 126
    2e96:	df 4f       	sbci	r29, 0xFF	; 255
    2e98:	88 81       	ld	r24, Y
    2e9a:	c2 58       	subi	r28, 0x82	; 130
    2e9c:	d0 40       	sbci	r29, 0x00	; 0
    2e9e:	86 30       	cpi	r24, 0x06	; 6
    2ea0:	08 f0       	brcs	.+2      	; 0x2ea4 <gs_parse_command_response_tcp+0x2d8>
    2ea2:	48 c0       	rjmp	.+144    	; 0x2f34 <gs_parse_command_response_tcp+0x368>
    2ea4:	8b 2f       	mov	r24, r27
    2ea6:	98 17       	cp	r25, r24
    2ea8:	09 f0       	breq	.+2      	; 0x2eac <gs_parse_command_response_tcp+0x2e0>
    2eaa:	5e cf       	rjmp	.-324    	; 0x2d68 <gs_parse_command_response_tcp+0x19c>
    2eac:	4a 30       	cpi	r20, 0x0A	; 10
    2eae:	e8 f5       	brcc	.+122    	; 0x2f2a <gs_parse_command_response_tcp+0x35e>
    2eb0:	84 2f       	mov	r24, r20
    2eb2:	34 2f       	mov	r19, r20
    2eb4:	80 87       	std	Z+8, r24	; 0x08
    2eb6:	f1 82       	std	Z+1, r15	; 0x01
    2eb8:	e0 82       	st	Z, r14
    2eba:	12 2f       	mov	r17, r18
    2ebc:	55 cf       	rjmp	.-342    	; 0x2d68 <gs_parse_command_response_tcp+0x19c>
    2ebe:	89 2f       	mov	r24, r25
    2ec0:	81 56       	subi	r24, 0x61	; 97
    2ec2:	86 30       	cpi	r24, 0x06	; 6
    2ec4:	00 f1       	brcs	.+64     	; 0x2f06 <gs_parse_command_response_tcp+0x33a>
    2ec6:	80 e0       	ldi	r24, 0x00	; 0
    2ec8:	78 cf       	rjmp	.-272    	; 0x2dba <gs_parse_command_response_tcp+0x1ee>
    2eca:	89 2f       	mov	r24, r25
    2ecc:	81 56       	subi	r24, 0x61	; 97
    2ece:	86 30       	cpi	r24, 0x06	; 6
    2ed0:	18 f5       	brcc	.+70     	; 0x2f18 <gs_parse_command_response_tcp+0x34c>
    2ed2:	29 2f       	mov	r18, r25
    2ed4:	27 55       	subi	r18, 0x57	; 87
    2ed6:	20 93 6e 1d 	sts	0x1D6E, r18
    2eda:	20 93 95 1d 	sts	0x1D95, r18
    2ede:	80 91 94 1d 	lds	r24, 0x1D94
    2ee2:	90 e0       	ldi	r25, 0x00	; 0
    2ee4:	b3 cf       	rjmp	.-154    	; 0x2e4c <gs_parse_command_response_tcp+0x280>
    2ee6:	ce 57       	subi	r28, 0x7E	; 126
    2ee8:	df 4f       	sbci	r29, 0xFF	; 255
    2eea:	88 81       	ld	r24, Y
    2eec:	c2 58       	subi	r28, 0x82	; 130
    2eee:	d0 40       	sbci	r29, 0x00	; 0
    2ef0:	86 30       	cpi	r24, 0x06	; 6
    2ef2:	60 f0       	brcs	.+24     	; 0x2f0c <gs_parse_command_response_tcp+0x340>
    2ef4:	cd 57       	subi	r28, 0x7D	; 125
    2ef6:	df 4f       	sbci	r29, 0xFF	; 255
    2ef8:	88 81       	ld	r24, Y
    2efa:	c3 58       	subi	r28, 0x83	; 131
    2efc:	d0 40       	sbci	r29, 0x00	; 0
    2efe:	86 30       	cpi	r24, 0x06	; 6
    2f00:	38 f0       	brcs	.+14     	; 0x2f10 <gs_parse_command_response_tcp+0x344>
    2f02:	80 e0       	ldi	r24, 0x00	; 0
    2f04:	ba cf       	rjmp	.-140    	; 0x2e7a <gs_parse_command_response_tcp+0x2ae>
    2f06:	89 2f       	mov	r24, r25
    2f08:	87 55       	subi	r24, 0x57	; 87
    2f0a:	57 cf       	rjmp	.-338    	; 0x2dba <gs_parse_command_response_tcp+0x1ee>
    2f0c:	8b 2f       	mov	r24, r27
    2f0e:	b5 cf       	rjmp	.-150    	; 0x2e7a <gs_parse_command_response_tcp+0x2ae>
    2f10:	8a 2f       	mov	r24, r26
    2f12:	b3 cf       	rjmp	.-154    	; 0x2e7a <gs_parse_command_response_tcp+0x2ae>
    2f14:	85 2f       	mov	r24, r21
    2f16:	c7 cf       	rjmp	.-114    	; 0x2ea6 <gs_parse_command_response_tcp+0x2da>
    2f18:	10 92 6e 1d 	sts	0x1D6E, r1
    2f1c:	10 92 95 1d 	sts	0x1D95, r1
    2f20:	80 91 94 1d 	lds	r24, 0x1D94
    2f24:	90 e0       	ldi	r25, 0x00	; 0
    2f26:	20 e0       	ldi	r18, 0x00	; 0
    2f28:	91 cf       	rjmp	.-222    	; 0x2e4c <gs_parse_command_response_tcp+0x280>
    2f2a:	06 30       	cpi	r16, 0x06	; 6
    2f2c:	60 f4       	brcc	.+24     	; 0x2f46 <gs_parse_command_response_tcp+0x37a>
    2f2e:	87 2f       	mov	r24, r23
    2f30:	37 2f       	mov	r19, r23
    2f32:	c0 cf       	rjmp	.-128    	; 0x2eb4 <gs_parse_command_response_tcp+0x2e8>
    2f34:	cd 57       	subi	r28, 0x7D	; 125
    2f36:	df 4f       	sbci	r29, 0xFF	; 255
    2f38:	88 81       	ld	r24, Y
    2f3a:	c3 58       	subi	r28, 0x83	; 131
    2f3c:	d0 40       	sbci	r29, 0x00	; 0
    2f3e:	86 30       	cpi	r24, 0x06	; 6
    2f40:	60 f0       	brcs	.+24     	; 0x2f5a <gs_parse_command_response_tcp+0x38e>
    2f42:	80 e0       	ldi	r24, 0x00	; 0
    2f44:	b0 cf       	rjmp	.-160    	; 0x2ea6 <gs_parse_command_response_tcp+0x2da>
    2f46:	cf 57       	subi	r28, 0x7F	; 127
    2f48:	df 4f       	sbci	r29, 0xFF	; 255
    2f4a:	98 81       	ld	r25, Y
    2f4c:	c1 58       	subi	r28, 0x81	; 129
    2f4e:	d0 40       	sbci	r29, 0x00	; 0
    2f50:	96 30       	cpi	r25, 0x06	; 6
    2f52:	28 f4       	brcc	.+10     	; 0x2f5e <gs_parse_command_response_tcp+0x392>
    2f54:	86 2f       	mov	r24, r22
    2f56:	36 2f       	mov	r19, r22
    2f58:	ad cf       	rjmp	.-166    	; 0x2eb4 <gs_parse_command_response_tcp+0x2e8>
    2f5a:	8a 2f       	mov	r24, r26
    2f5c:	a4 cf       	rjmp	.-184    	; 0x2ea6 <gs_parse_command_response_tcp+0x2da>
    2f5e:	80 e0       	ldi	r24, 0x00	; 0
    2f60:	30 e0       	ldi	r19, 0x00	; 0
    2f62:	a8 cf       	rjmp	.-176    	; 0x2eb4 <gs_parse_command_response_tcp+0x2e8>

00002f64 <gs_parse_command_response>:
    2f64:	a0 e5       	ldi	r26, 0x50	; 80
    2f66:	b0 e0       	ldi	r27, 0x00	; 0
    2f68:	e8 eb       	ldi	r30, 0xB8	; 184
    2f6a:	f7 e1       	ldi	r31, 0x17	; 23
    2f6c:	0c 94 94 53 	jmp	0xa728	; 0xa728 <__prologue_saves__+0x10>
    2f70:	7c 01       	movw	r14, r24
    2f72:	5e 01       	movw	r10, r28
    2f74:	08 94       	sec
    2f76:	a1 1c       	adc	r10, r1
    2f78:	b1 1c       	adc	r11, r1
    2f7a:	c5 01       	movw	r24, r10
    2f7c:	60 e2       	ldi	r22, 0x20	; 32
    2f7e:	70 e0       	ldi	r23, 0x00	; 0
    2f80:	40 e5       	ldi	r20, 0x50	; 80
    2f82:	50 e0       	ldi	r21, 0x00	; 0
    2f84:	0e 94 2e 08 	call	0x105c	; 0x105c <memset>
    2f88:	f7 01       	movw	r30, r14
    2f8a:	80 81       	ld	r24, Z
    2f8c:	88 23       	and	r24, r24
    2f8e:	09 f4       	brne	.+2      	; 0x2f92 <gs_parse_command_response+0x2e>
    2f90:	40 c0       	rjmp	.+128    	; 0x3012 <gs_parse_command_response+0xae>
    2f92:	20 e0       	ldi	r18, 0x00	; 0
    2f94:	30 e0       	ldi	r19, 0x00	; 0
    2f96:	00 e0       	ldi	r16, 0x00	; 0
    2f98:	10 e0       	ldi	r17, 0x00	; 0
    2f9a:	52 e0       	ldi	r21, 0x02	; 2
    2f9c:	c5 2e       	mov	r12, r21
    2f9e:	d1 2c       	mov	r13, r1
    2fa0:	14 c0       	rjmp	.+40     	; 0x2fca <gs_parse_command_response+0x66>
    2fa2:	8a 30       	cpi	r24, 0x0A	; 10
    2fa4:	c1 f0       	breq	.+48     	; 0x2fd6 <gs_parse_command_response+0x72>
    2fa6:	f5 01       	movw	r30, r10
    2fa8:	e2 0f       	add	r30, r18
    2faa:	f3 1f       	adc	r31, r19
    2fac:	80 83       	st	Z, r24
    2fae:	2f 5f       	subi	r18, 0xFF	; 255
    2fb0:	3f 4f       	sbci	r19, 0xFF	; 255
    2fb2:	0f 5f       	subi	r16, 0xFF	; 255
    2fb4:	1f 4f       	sbci	r17, 0xFF	; 255
    2fb6:	f7 01       	movw	r30, r14
    2fb8:	01 90       	ld	r0, Z+
    2fba:	00 20       	and	r0, r0
    2fbc:	e9 f7       	brne	.-6      	; 0x2fb8 <gs_parse_command_response+0x54>
    2fbe:	31 97       	sbiw	r30, 0x01	; 1
    2fc0:	ee 19       	sub	r30, r14
    2fc2:	ff 09       	sbc	r31, r15
    2fc4:	e0 17       	cp	r30, r16
    2fc6:	f1 07       	cpc	r31, r17
    2fc8:	38 f1       	brcs	.+78     	; 0x3018 <gs_parse_command_response+0xb4>
    2fca:	f7 01       	movw	r30, r14
    2fcc:	e0 0f       	add	r30, r16
    2fce:	f1 1f       	adc	r31, r17
    2fd0:	80 81       	ld	r24, Z
    2fd2:	8d 30       	cpi	r24, 0x0D	; 13
    2fd4:	31 f7       	brne	.-52     	; 0x2fa2 <gs_parse_command_response+0x3e>
    2fd6:	21 15       	cp	r18, r1
    2fd8:	31 05       	cpc	r19, r1
    2fda:	59 f3       	breq	.-42     	; 0x2fb2 <gs_parse_command_response+0x4e>
    2fdc:	2a 0d       	add	r18, r10
    2fde:	3b 1d       	adc	r19, r11
    2fe0:	f9 01       	movw	r30, r18
    2fe2:	10 82       	st	Z, r1
    2fe4:	c5 01       	movw	r24, r10
    2fe6:	6c e9       	ldi	r22, 0x9C	; 156
    2fe8:	73 e0       	ldi	r23, 0x03	; 3
    2fea:	42 e0       	ldi	r20, 0x02	; 2
    2fec:	50 e0       	ldi	r21, 0x00	; 0
    2fee:	0e 94 57 08 	call	0x10ae	; 0x10ae <strncmp>
    2ff2:	00 97       	sbiw	r24, 0x00	; 0
    2ff4:	b9 f4       	brne	.+46     	; 0x3024 <gs_parse_command_response+0xc0>
    2ff6:	41 e0       	ldi	r20, 0x01	; 1
    2ff8:	c4 2e       	mov	r12, r20
    2ffa:	d1 2c       	mov	r13, r1
    2ffc:	c5 01       	movw	r24, r10
    2ffe:	60 e2       	ldi	r22, 0x20	; 32
    3000:	70 e0       	ldi	r23, 0x00	; 0
    3002:	40 e5       	ldi	r20, 0x50	; 80
    3004:	50 e0       	ldi	r21, 0x00	; 0
    3006:	0e 94 2e 08 	call	0x105c	; 0x105c <memset>
    300a:	19 82       	std	Y+1, r1	; 0x01
    300c:	20 e0       	ldi	r18, 0x00	; 0
    300e:	30 e0       	ldi	r19, 0x00	; 0
    3010:	d0 cf       	rjmp	.-96     	; 0x2fb2 <gs_parse_command_response+0x4e>
    3012:	62 e0       	ldi	r22, 0x02	; 2
    3014:	c6 2e       	mov	r12, r22
    3016:	d1 2c       	mov	r13, r1
    3018:	c6 01       	movw	r24, r12
    301a:	c0 5b       	subi	r28, 0xB0	; 176
    301c:	df 4f       	sbci	r29, 0xFF	; 255
    301e:	ea e0       	ldi	r30, 0x0A	; 10
    3020:	0c 94 b0 53 	jmp	0xa760	; 0xa760 <__epilogue_restores__+0x10>
    3024:	c5 01       	movw	r24, r10
    3026:	6f e9       	ldi	r22, 0x9F	; 159
    3028:	73 e0       	ldi	r23, 0x03	; 3
    302a:	45 e0       	ldi	r20, 0x05	; 5
    302c:	50 e0       	ldi	r21, 0x00	; 0
    302e:	0e 94 57 08 	call	0x10ae	; 0x10ae <strncmp>
    3032:	00 97       	sbiw	r24, 0x00	; 0
    3034:	19 f7       	brne	.-58     	; 0x2ffc <gs_parse_command_response+0x98>
    3036:	cc 24       	eor	r12, r12
    3038:	dd 24       	eor	r13, r13
    303a:	e0 cf       	rjmp	.-64     	; 0x2ffc <gs_parse_command_response+0x98>

0000303c <gs_flush>:
    303c:	a1 e0       	ldi	r26, 0x01	; 1
    303e:	b0 e0       	ldi	r27, 0x00	; 0
    3040:	e4 e2       	ldi	r30, 0x24	; 36
    3042:	f8 e1       	ldi	r31, 0x18	; 24
    3044:	0c 94 9a 53 	jmp	0xa734	; 0xa734 <__prologue_saves__+0x1c>
    3048:	80 e2       	ldi	r24, 0x20	; 32
    304a:	89 83       	std	Y+1, r24	; 0x01
    304c:	8e 01       	movw	r16, r28
    304e:	0f 5f       	subi	r16, 0xFF	; 255
    3050:	1f 4f       	sbci	r17, 0xFF	; 255
    3052:	07 c0       	rjmp	.+14     	; 0x3062 <gs_flush+0x26>
    3054:	80 91 49 1d 	lds	r24, 0x1D49
    3058:	90 91 4a 1d 	lds	r25, 0x1D4A
    305c:	b8 01       	movw	r22, r16
    305e:	0e 94 f2 4c 	call	0x99e4	; 0x99e4 <usart_xgetChar>
    3062:	80 91 49 1d 	lds	r24, 0x1D49
    3066:	90 91 4a 1d 	lds	r25, 0x1D4A
    306a:	0e 94 dd 4c 	call	0x99ba	; 0x99ba <usart_AvailableCharRx>
    306e:	89 2b       	or	r24, r25
    3070:	89 f7       	brne	.-30     	; 0x3054 <gs_flush+0x18>
    3072:	21 96       	adiw	r28, 0x01	; 1
    3074:	e4 e0       	ldi	r30, 0x04	; 4
    3076:	0c 94 b6 53 	jmp	0xa76c	; 0xa76c <__epilogue_restores__+0x1c>

0000307a <gs_send_command>:
    307a:	ef 92       	push	r14
    307c:	ff 92       	push	r15
    307e:	1f 93       	push	r17
    3080:	df 93       	push	r29
    3082:	cf 93       	push	r28
    3084:	cd b7       	in	r28, 0x3d	; 61
    3086:	de b7       	in	r29, 0x3e	; 62
    3088:	e2 97       	sbiw	r28, 0x32	; 50
    308a:	0f b6       	in	r0, 0x3f	; 63
    308c:	f8 94       	cli
    308e:	de bf       	out	0x3e, r29	; 62
    3090:	0f be       	out	0x3f, r0	; 63
    3092:	cd bf       	out	0x3d, r28	; 61
    3094:	18 2f       	mov	r17, r24
    3096:	7e 01       	movw	r14, r28
    3098:	08 94       	sec
    309a:	e1 1c       	adc	r14, r1
    309c:	f1 1c       	adc	r15, r1
    309e:	c7 01       	movw	r24, r14
    30a0:	60 e2       	ldi	r22, 0x20	; 32
    30a2:	70 e0       	ldi	r23, 0x00	; 0
    30a4:	42 e3       	ldi	r20, 0x32	; 50
    30a6:	50 e0       	ldi	r21, 0x00	; 0
    30a8:	0e 94 2e 08 	call	0x105c	; 0x105c <memset>
    30ac:	0e 94 1e 18 	call	0x303c	; 0x303c <gs_flush>
    30b0:	e1 2f       	mov	r30, r17
    30b2:	f0 e0       	ldi	r31, 0x00	; 0
    30b4:	ea 32       	cpi	r30, 0x2A	; 42
    30b6:	f1 05       	cpc	r31, r1
    30b8:	d0 f5       	brcc	.+116    	; 0x312e <gs_send_command+0xb4>
    30ba:	ee 58       	subi	r30, 0x8E	; 142
    30bc:	ff 4f       	sbci	r31, 0xFF	; 255
    30be:	0c 94 c3 53 	jmp	0xa786	; 0xa786 <__tablejump2__>
    30c2:	ad b7       	in	r26, 0x3d	; 61
    30c4:	be b7       	in	r27, 0x3e	; 62
    30c6:	1a 97       	sbiw	r26, 0x0a	; 10
    30c8:	0f b6       	in	r0, 0x3f	; 63
    30ca:	f8 94       	cli
    30cc:	be bf       	out	0x3e, r27	; 62
    30ce:	0f be       	out	0x3f, r0	; 63
    30d0:	ad bf       	out	0x3d, r26	; 61
    30d2:	ed b7       	in	r30, 0x3d	; 61
    30d4:	fe b7       	in	r31, 0x3e	; 62
    30d6:	31 96       	adiw	r30, 0x01	; 1
    30d8:	12 96       	adiw	r26, 0x02	; 2
    30da:	fc 92       	st	X, r15
    30dc:	ee 92       	st	-X, r14
    30de:	11 97       	sbiw	r26, 0x01	; 1
    30e0:	8d ed       	ldi	r24, 0xDD	; 221
    30e2:	93 e0       	ldi	r25, 0x03	; 3
    30e4:	93 83       	std	Z+3, r25	; 0x03
    30e6:	82 83       	std	Z+2, r24	; 0x02
    30e8:	80 91 79 09 	lds	r24, 0x0979
    30ec:	90 91 7a 09 	lds	r25, 0x097A
    30f0:	95 83       	std	Z+5, r25	; 0x05
    30f2:	84 83       	std	Z+4, r24	; 0x04
    30f4:	80 91 51 1d 	lds	r24, 0x1D51
    30f8:	90 91 52 1d 	lds	r25, 0x1D52
    30fc:	97 83       	std	Z+7, r25	; 0x07
    30fe:	86 83       	std	Z+6, r24	; 0x06
    3100:	80 91 53 1d 	lds	r24, 0x1D53
    3104:	90 91 54 1d 	lds	r25, 0x1D54
    3108:	91 87       	std	Z+9, r25	; 0x09
    310a:	80 87       	std	Z+8, r24	; 0x08
    310c:	0e 94 c5 08 	call	0x118a	; 0x118a <sprintf>
    3110:	8d b7       	in	r24, 0x3d	; 61
    3112:	9e b7       	in	r25, 0x3e	; 62
    3114:	0a 96       	adiw	r24, 0x0a	; 10
    3116:	0f b6       	in	r0, 0x3f	; 63
    3118:	f8 94       	cli
    311a:	9e bf       	out	0x3e, r25	; 62
    311c:	0f be       	out	0x3f, r0	; 63
    311e:	8d bf       	out	0x3d, r24	; 61
    3120:	80 91 49 1d 	lds	r24, 0x1D49
    3124:	90 91 4a 1d 	lds	r25, 0x1D4A
    3128:	b7 01       	movw	r22, r14
    312a:	0e 94 54 50 	call	0xa0a8	; 0xa0a8 <usart_xfprint>
    312e:	80 91 43 1d 	lds	r24, 0x1D43
    3132:	90 91 44 1d 	lds	r25, 0x1D44
    3136:	6b ef       	ldi	r22, 0xFB	; 251
    3138:	73 e0       	ldi	r23, 0x03	; 3
    313a:	0e 94 54 50 	call	0xa0a8	; 0xa0a8 <usart_xfprint>
    313e:	80 91 43 1d 	lds	r24, 0x1D43
    3142:	90 91 44 1d 	lds	r25, 0x1D44
    3146:	b7 01       	movw	r22, r14
    3148:	0e 94 54 50 	call	0xa0a8	; 0xa0a8 <usart_xfprint>
    314c:	e2 96       	adiw	r28, 0x32	; 50
    314e:	0f b6       	in	r0, 0x3f	; 63
    3150:	f8 94       	cli
    3152:	de bf       	out	0x3e, r29	; 62
    3154:	0f be       	out	0x3f, r0	; 63
    3156:	cd bf       	out	0x3d, r28	; 61
    3158:	cf 91       	pop	r28
    315a:	df 91       	pop	r29
    315c:	1f 91       	pop	r17
    315e:	ff 90       	pop	r15
    3160:	ef 90       	pop	r14
    3162:	08 95       	ret
    3164:	00 d0       	rcall	.+0      	; 0x3166 <gs_send_command+0xec>
    3166:	00 d0       	rcall	.+0      	; 0x3168 <gs_send_command+0xee>
    3168:	ed b7       	in	r30, 0x3d	; 61
    316a:	fe b7       	in	r31, 0x3e	; 62
    316c:	31 96       	adiw	r30, 0x01	; 1
    316e:	ad b7       	in	r26, 0x3d	; 61
    3170:	be b7       	in	r27, 0x3e	; 62
    3172:	12 96       	adiw	r26, 0x02	; 2
    3174:	fc 92       	st	X, r15
    3176:	ee 92       	st	-X, r14
    3178:	11 97       	sbiw	r26, 0x01	; 1
    317a:	81 eb       	ldi	r24, 0xB1	; 177
    317c:	93 e0       	ldi	r25, 0x03	; 3
    317e:	93 83       	std	Z+3, r25	; 0x03
    3180:	82 83       	std	Z+2, r24	; 0x02
    3182:	80 91 8b 09 	lds	r24, 0x098B
    3186:	90 91 8c 09 	lds	r25, 0x098C
    318a:	95 83       	std	Z+5, r25	; 0x05
    318c:	84 83       	std	Z+4, r24	; 0x04
    318e:	0e 94 c5 08 	call	0x118a	; 0x118a <sprintf>
    3192:	8d b7       	in	r24, 0x3d	; 61
    3194:	9e b7       	in	r25, 0x3e	; 62
    3196:	06 96       	adiw	r24, 0x06	; 6
    3198:	0f b6       	in	r0, 0x3f	; 63
    319a:	f8 94       	cli
    319c:	9e bf       	out	0x3e, r25	; 62
    319e:	0f be       	out	0x3f, r0	; 63
    31a0:	8d bf       	out	0x3d, r24	; 61
    31a2:	80 91 49 1d 	lds	r24, 0x1D49
    31a6:	90 91 4a 1d 	lds	r25, 0x1D4A
    31aa:	b7 01       	movw	r22, r14
    31ac:	0e 94 54 50 	call	0xa0a8	; 0xa0a8 <usart_xfprint>
    31b0:	be cf       	rjmp	.-132    	; 0x312e <gs_send_command+0xb4>
    31b2:	00 d0       	rcall	.+0      	; 0x31b4 <gs_send_command+0x13a>
    31b4:	00 d0       	rcall	.+0      	; 0x31b6 <gs_send_command+0x13c>
    31b6:	ed b7       	in	r30, 0x3d	; 61
    31b8:	fe b7       	in	r31, 0x3e	; 62
    31ba:	31 96       	adiw	r30, 0x01	; 1
    31bc:	ad b7       	in	r26, 0x3d	; 61
    31be:	be b7       	in	r27, 0x3e	; 62
    31c0:	12 96       	adiw	r26, 0x02	; 2
    31c2:	fc 92       	st	X, r15
    31c4:	ee 92       	st	-X, r14
    31c6:	11 97       	sbiw	r26, 0x01	; 1
    31c8:	81 eb       	ldi	r24, 0xB1	; 177
    31ca:	93 e0       	ldi	r25, 0x03	; 3
    31cc:	93 83       	std	Z+3, r25	; 0x03
    31ce:	82 83       	std	Z+2, r24	; 0x02
    31d0:	80 91 89 09 	lds	r24, 0x0989
    31d4:	90 91 8a 09 	lds	r25, 0x098A
    31d8:	d8 cf       	rjmp	.-80     	; 0x318a <gs_send_command+0x110>
    31da:	ad b7       	in	r26, 0x3d	; 61
    31dc:	be b7       	in	r27, 0x3e	; 62
    31de:	1c 97       	sbiw	r26, 0x0c	; 12
    31e0:	0f b6       	in	r0, 0x3f	; 63
    31e2:	f8 94       	cli
    31e4:	be bf       	out	0x3e, r27	; 62
    31e6:	0f be       	out	0x3f, r0	; 63
    31e8:	ad bf       	out	0x3d, r26	; 61
    31ea:	ed b7       	in	r30, 0x3d	; 61
    31ec:	fe b7       	in	r31, 0x3e	; 62
    31ee:	31 96       	adiw	r30, 0x01	; 1
    31f0:	12 96       	adiw	r26, 0x02	; 2
    31f2:	fc 92       	st	X, r15
    31f4:	ee 92       	st	-X, r14
    31f6:	11 97       	sbiw	r26, 0x01	; 1
    31f8:	87 ee       	ldi	r24, 0xE7	; 231
    31fa:	93 e0       	ldi	r25, 0x03	; 3
    31fc:	93 83       	std	Z+3, r25	; 0x03
    31fe:	82 83       	std	Z+2, r24	; 0x02
    3200:	80 91 87 09 	lds	r24, 0x0987
    3204:	90 91 88 09 	lds	r25, 0x0988
    3208:	95 83       	std	Z+5, r25	; 0x05
    320a:	84 83       	std	Z+4, r24	; 0x04
    320c:	80 91 5f 1d 	lds	r24, 0x1D5F
    3210:	90 91 60 1d 	lds	r25, 0x1D60
    3214:	97 83       	std	Z+7, r25	; 0x07
    3216:	86 83       	std	Z+6, r24	; 0x06
    3218:	80 91 61 1d 	lds	r24, 0x1D61
    321c:	90 91 62 1d 	lds	r25, 0x1D62
    3220:	91 87       	std	Z+9, r25	; 0x09
    3222:	80 87       	std	Z+8, r24	; 0x08
    3224:	80 91 63 1d 	lds	r24, 0x1D63
    3228:	90 91 64 1d 	lds	r25, 0x1D64
    322c:	93 87       	std	Z+11, r25	; 0x0b
    322e:	82 87       	std	Z+10, r24	; 0x0a
    3230:	0e 94 c5 08 	call	0x118a	; 0x118a <sprintf>
    3234:	8d b7       	in	r24, 0x3d	; 61
    3236:	9e b7       	in	r25, 0x3e	; 62
    3238:	0c 96       	adiw	r24, 0x0c	; 12
    323a:	0f b6       	in	r0, 0x3f	; 63
    323c:	f8 94       	cli
    323e:	9e bf       	out	0x3e, r25	; 62
    3240:	0f be       	out	0x3f, r0	; 63
    3242:	8d bf       	out	0x3d, r24	; 61
    3244:	80 91 49 1d 	lds	r24, 0x1D49
    3248:	90 91 4a 1d 	lds	r25, 0x1D4A
    324c:	b7 01       	movw	r22, r14
    324e:	0e 94 54 50 	call	0xa0a8	; 0xa0a8 <usart_xfprint>
    3252:	6d cf       	rjmp	.-294    	; 0x312e <gs_send_command+0xb4>
    3254:	00 d0       	rcall	.+0      	; 0x3256 <gs_send_command+0x1dc>
    3256:	00 d0       	rcall	.+0      	; 0x3258 <gs_send_command+0x1de>
    3258:	ed b7       	in	r30, 0x3d	; 61
    325a:	fe b7       	in	r31, 0x3e	; 62
    325c:	31 96       	adiw	r30, 0x01	; 1
    325e:	ad b7       	in	r26, 0x3d	; 61
    3260:	be b7       	in	r27, 0x3e	; 62
    3262:	12 96       	adiw	r26, 0x02	; 2
    3264:	fc 92       	st	X, r15
    3266:	ee 92       	st	-X, r14
    3268:	11 97       	sbiw	r26, 0x01	; 1
    326a:	81 eb       	ldi	r24, 0xB1	; 177
    326c:	93 e0       	ldi	r25, 0x03	; 3
    326e:	93 83       	std	Z+3, r25	; 0x03
    3270:	82 83       	std	Z+2, r24	; 0x02
    3272:	80 91 85 09 	lds	r24, 0x0985
    3276:	90 91 86 09 	lds	r25, 0x0986
    327a:	87 cf       	rjmp	.-242    	; 0x318a <gs_send_command+0x110>
    327c:	00 d0       	rcall	.+0      	; 0x327e <gs_send_command+0x204>
    327e:	00 d0       	rcall	.+0      	; 0x3280 <gs_send_command+0x206>
    3280:	ed b7       	in	r30, 0x3d	; 61
    3282:	fe b7       	in	r31, 0x3e	; 62
    3284:	31 96       	adiw	r30, 0x01	; 1
    3286:	ad b7       	in	r26, 0x3d	; 61
    3288:	be b7       	in	r27, 0x3e	; 62
    328a:	12 96       	adiw	r26, 0x02	; 2
    328c:	fc 92       	st	X, r15
    328e:	ee 92       	st	-X, r14
    3290:	11 97       	sbiw	r26, 0x01	; 1
    3292:	81 eb       	ldi	r24, 0xB1	; 177
    3294:	93 e0       	ldi	r25, 0x03	; 3
    3296:	93 83       	std	Z+3, r25	; 0x03
    3298:	82 83       	std	Z+2, r24	; 0x02
    329a:	80 91 83 09 	lds	r24, 0x0983
    329e:	90 91 84 09 	lds	r25, 0x0984
    32a2:	73 cf       	rjmp	.-282    	; 0x318a <gs_send_command+0x110>
    32a4:	00 d0       	rcall	.+0      	; 0x32a6 <gs_send_command+0x22c>
    32a6:	00 d0       	rcall	.+0      	; 0x32a8 <gs_send_command+0x22e>
    32a8:	ed b7       	in	r30, 0x3d	; 61
    32aa:	fe b7       	in	r31, 0x3e	; 62
    32ac:	31 96       	adiw	r30, 0x01	; 1
    32ae:	ad b7       	in	r26, 0x3d	; 61
    32b0:	be b7       	in	r27, 0x3e	; 62
    32b2:	12 96       	adiw	r26, 0x02	; 2
    32b4:	fc 92       	st	X, r15
    32b6:	ee 92       	st	-X, r14
    32b8:	11 97       	sbiw	r26, 0x01	; 1
    32ba:	81 eb       	ldi	r24, 0xB1	; 177
    32bc:	93 e0       	ldi	r25, 0x03	; 3
    32be:	93 83       	std	Z+3, r25	; 0x03
    32c0:	82 83       	std	Z+2, r24	; 0x02
    32c2:	80 91 81 09 	lds	r24, 0x0981
    32c6:	90 91 82 09 	lds	r25, 0x0982
    32ca:	5f cf       	rjmp	.-322    	; 0x318a <gs_send_command+0x110>
    32cc:	00 d0       	rcall	.+0      	; 0x32ce <gs_send_command+0x254>
    32ce:	00 d0       	rcall	.+0      	; 0x32d0 <gs_send_command+0x256>
    32d0:	ed b7       	in	r30, 0x3d	; 61
    32d2:	fe b7       	in	r31, 0x3e	; 62
    32d4:	31 96       	adiw	r30, 0x01	; 1
    32d6:	ad b7       	in	r26, 0x3d	; 61
    32d8:	be b7       	in	r27, 0x3e	; 62
    32da:	12 96       	adiw	r26, 0x02	; 2
    32dc:	fc 92       	st	X, r15
    32de:	ee 92       	st	-X, r14
    32e0:	11 97       	sbiw	r26, 0x01	; 1
    32e2:	81 eb       	ldi	r24, 0xB1	; 177
    32e4:	93 e0       	ldi	r25, 0x03	; 3
    32e6:	93 83       	std	Z+3, r25	; 0x03
    32e8:	82 83       	std	Z+2, r24	; 0x02
    32ea:	80 91 7f 09 	lds	r24, 0x097F
    32ee:	90 91 80 09 	lds	r25, 0x0980
    32f2:	4b cf       	rjmp	.-362    	; 0x318a <gs_send_command+0x110>
    32f4:	00 d0       	rcall	.+0      	; 0x32f6 <gs_send_command+0x27c>
    32f6:	00 d0       	rcall	.+0      	; 0x32f8 <gs_send_command+0x27e>
    32f8:	ed b7       	in	r30, 0x3d	; 61
    32fa:	fe b7       	in	r31, 0x3e	; 62
    32fc:	31 96       	adiw	r30, 0x01	; 1
    32fe:	ad b7       	in	r26, 0x3d	; 61
    3300:	be b7       	in	r27, 0x3e	; 62
    3302:	12 96       	adiw	r26, 0x02	; 2
    3304:	fc 92       	st	X, r15
    3306:	ee 92       	st	-X, r14
    3308:	11 97       	sbiw	r26, 0x01	; 1
    330a:	81 eb       	ldi	r24, 0xB1	; 177
    330c:	93 e0       	ldi	r25, 0x03	; 3
    330e:	93 83       	std	Z+3, r25	; 0x03
    3310:	82 83       	std	Z+2, r24	; 0x02
    3312:	80 91 7d 09 	lds	r24, 0x097D
    3316:	90 91 7e 09 	lds	r25, 0x097E
    331a:	37 cf       	rjmp	.-402    	; 0x318a <gs_send_command+0x110>
    331c:	00 d0       	rcall	.+0      	; 0x331e <gs_send_command+0x2a4>
    331e:	00 d0       	rcall	.+0      	; 0x3320 <gs_send_command+0x2a6>
    3320:	ed b7       	in	r30, 0x3d	; 61
    3322:	fe b7       	in	r31, 0x3e	; 62
    3324:	31 96       	adiw	r30, 0x01	; 1
    3326:	ad b7       	in	r26, 0x3d	; 61
    3328:	be b7       	in	r27, 0x3e	; 62
    332a:	12 96       	adiw	r26, 0x02	; 2
    332c:	fc 92       	st	X, r15
    332e:	ee 92       	st	-X, r14
    3330:	11 97       	sbiw	r26, 0x01	; 1
    3332:	81 eb       	ldi	r24, 0xB1	; 177
    3334:	93 e0       	ldi	r25, 0x03	; 3
    3336:	93 83       	std	Z+3, r25	; 0x03
    3338:	82 83       	std	Z+2, r24	; 0x02
    333a:	80 91 7b 09 	lds	r24, 0x097B
    333e:	90 91 7c 09 	lds	r25, 0x097C
    3342:	23 cf       	rjmp	.-442    	; 0x318a <gs_send_command+0x110>
    3344:	ad b7       	in	r26, 0x3d	; 61
    3346:	be b7       	in	r27, 0x3e	; 62
    3348:	18 97       	sbiw	r26, 0x08	; 8
    334a:	0f b6       	in	r0, 0x3f	; 63
    334c:	f8 94       	cli
    334e:	be bf       	out	0x3e, r27	; 62
    3350:	0f be       	out	0x3f, r0	; 63
    3352:	ad bf       	out	0x3d, r26	; 61
    3354:	ed b7       	in	r30, 0x3d	; 61
    3356:	fe b7       	in	r31, 0x3e	; 62
    3358:	31 96       	adiw	r30, 0x01	; 1
    335a:	12 96       	adiw	r26, 0x02	; 2
    335c:	fc 92       	st	X, r15
    335e:	ee 92       	st	-X, r14
    3360:	11 97       	sbiw	r26, 0x01	; 1
    3362:	86 ed       	ldi	r24, 0xD6	; 214
    3364:	93 e0       	ldi	r25, 0x03	; 3
    3366:	93 83       	std	Z+3, r25	; 0x03
    3368:	82 83       	std	Z+2, r24	; 0x02
    336a:	80 91 77 09 	lds	r24, 0x0977
    336e:	90 91 78 09 	lds	r25, 0x0978
    3372:	95 83       	std	Z+5, r25	; 0x05
    3374:	84 83       	std	Z+4, r24	; 0x04
    3376:	80 91 53 1d 	lds	r24, 0x1D53
    337a:	90 91 54 1d 	lds	r25, 0x1D54
    337e:	97 83       	std	Z+7, r25	; 0x07
    3380:	86 83       	std	Z+6, r24	; 0x06
    3382:	0e 94 c5 08 	call	0x118a	; 0x118a <sprintf>
    3386:	8d b7       	in	r24, 0x3d	; 61
    3388:	9e b7       	in	r25, 0x3e	; 62
    338a:	08 96       	adiw	r24, 0x08	; 8
    338c:	0f b6       	in	r0, 0x3f	; 63
    338e:	f8 94       	cli
    3390:	9e bf       	out	0x3e, r25	; 62
    3392:	0f be       	out	0x3f, r0	; 63
    3394:	8d bf       	out	0x3d, r24	; 61
    3396:	80 91 49 1d 	lds	r24, 0x1D49
    339a:	90 91 4a 1d 	lds	r25, 0x1D4A
    339e:	b7 01       	movw	r22, r14
    33a0:	0e 94 54 50 	call	0xa0a8	; 0xa0a8 <usart_xfprint>
    33a4:	c4 ce       	rjmp	.-632    	; 0x312e <gs_send_command+0xb4>
    33a6:	ad b7       	in	r26, 0x3d	; 61
    33a8:	be b7       	in	r27, 0x3e	; 62
    33aa:	18 97       	sbiw	r26, 0x08	; 8
    33ac:	0f b6       	in	r0, 0x3f	; 63
    33ae:	f8 94       	cli
    33b0:	be bf       	out	0x3e, r27	; 62
    33b2:	0f be       	out	0x3f, r0	; 63
    33b4:	ad bf       	out	0x3d, r26	; 61
    33b6:	ed b7       	in	r30, 0x3d	; 61
    33b8:	fe b7       	in	r31, 0x3e	; 62
    33ba:	31 96       	adiw	r30, 0x01	; 1
    33bc:	12 96       	adiw	r26, 0x02	; 2
    33be:	fc 92       	st	X, r15
    33c0:	ee 92       	st	-X, r14
    33c2:	11 97       	sbiw	r26, 0x01	; 1
    33c4:	84 ec       	ldi	r24, 0xC4	; 196
    33c6:	93 e0       	ldi	r25, 0x03	; 3
    33c8:	93 83       	std	Z+3, r25	; 0x03
    33ca:	82 83       	std	Z+2, r24	; 0x02
    33cc:	80 91 75 09 	lds	r24, 0x0975
    33d0:	90 91 76 09 	lds	r25, 0x0976
    33d4:	95 83       	std	Z+5, r25	; 0x05
    33d6:	84 83       	std	Z+4, r24	; 0x04
    33d8:	80 91 59 1d 	lds	r24, 0x1D59
    33dc:	86 83       	std	Z+6, r24	; 0x06
    33de:	17 82       	std	Z+7, r1	; 0x07
    33e0:	d0 cf       	rjmp	.-96     	; 0x3382 <gs_send_command+0x308>
    33e2:	ad b7       	in	r26, 0x3d	; 61
    33e4:	be b7       	in	r27, 0x3e	; 62
    33e6:	18 97       	sbiw	r26, 0x08	; 8
    33e8:	0f b6       	in	r0, 0x3f	; 63
    33ea:	f8 94       	cli
    33ec:	be bf       	out	0x3e, r27	; 62
    33ee:	0f be       	out	0x3f, r0	; 63
    33f0:	ad bf       	out	0x3d, r26	; 61
    33f2:	ed b7       	in	r30, 0x3d	; 61
    33f4:	fe b7       	in	r31, 0x3e	; 62
    33f6:	31 96       	adiw	r30, 0x01	; 1
    33f8:	12 96       	adiw	r26, 0x02	; 2
    33fa:	fc 92       	st	X, r15
    33fc:	ee 92       	st	-X, r14
    33fe:	11 97       	sbiw	r26, 0x01	; 1
    3400:	84 ec       	ldi	r24, 0xC4	; 196
    3402:	93 e0       	ldi	r25, 0x03	; 3
    3404:	93 83       	std	Z+3, r25	; 0x03
    3406:	82 83       	std	Z+2, r24	; 0x02
    3408:	80 91 73 09 	lds	r24, 0x0973
    340c:	90 91 74 09 	lds	r25, 0x0974
    3410:	95 83       	std	Z+5, r25	; 0x05
    3412:	84 83       	std	Z+4, r24	; 0x04
    3414:	80 91 57 1d 	lds	r24, 0x1D57
    3418:	86 83       	std	Z+6, r24	; 0x06
    341a:	17 82       	std	Z+7, r1	; 0x07
    341c:	b2 cf       	rjmp	.-156    	; 0x3382 <gs_send_command+0x308>
    341e:	ad b7       	in	r26, 0x3d	; 61
    3420:	be b7       	in	r27, 0x3e	; 62
    3422:	1a 97       	sbiw	r26, 0x0a	; 10
    3424:	0f b6       	in	r0, 0x3f	; 63
    3426:	f8 94       	cli
    3428:	be bf       	out	0x3e, r27	; 62
    342a:	0f be       	out	0x3f, r0	; 63
    342c:	ad bf       	out	0x3d, r26	; 61
    342e:	ed b7       	in	r30, 0x3d	; 61
    3430:	fe b7       	in	r31, 0x3e	; 62
    3432:	31 96       	adiw	r30, 0x01	; 1
    3434:	12 96       	adiw	r26, 0x02	; 2
    3436:	fc 92       	st	X, r15
    3438:	ee 92       	st	-X, r14
    343a:	11 97       	sbiw	r26, 0x01	; 1
    343c:	8d ed       	ldi	r24, 0xDD	; 221
    343e:	93 e0       	ldi	r25, 0x03	; 3
    3440:	93 83       	std	Z+3, r25	; 0x03
    3442:	82 83       	std	Z+2, r24	; 0x02
    3444:	80 91 95 09 	lds	r24, 0x0995
    3448:	90 91 96 09 	lds	r25, 0x0996
    344c:	95 83       	std	Z+5, r25	; 0x05
    344e:	84 83       	std	Z+4, r24	; 0x04
    3450:	80 91 6a 1d 	lds	r24, 0x1D6A
    3454:	90 91 6b 1d 	lds	r25, 0x1D6B
    3458:	97 83       	std	Z+7, r25	; 0x07
    345a:	86 83       	std	Z+6, r24	; 0x06
    345c:	80 91 6c 1d 	lds	r24, 0x1D6C
    3460:	90 91 6d 1d 	lds	r25, 0x1D6D
    3464:	51 ce       	rjmp	.-862    	; 0x3108 <gs_send_command+0x8e>
    3466:	ad b7       	in	r26, 0x3d	; 61
    3468:	be b7       	in	r27, 0x3e	; 62
    346a:	18 97       	sbiw	r26, 0x08	; 8
    346c:	0f b6       	in	r0, 0x3f	; 63
    346e:	f8 94       	cli
    3470:	be bf       	out	0x3e, r27	; 62
    3472:	0f be       	out	0x3f, r0	; 63
    3474:	ad bf       	out	0x3d, r26	; 61
    3476:	ed b7       	in	r30, 0x3d	; 61
    3478:	fe b7       	in	r31, 0x3e	; 62
    347a:	31 96       	adiw	r30, 0x01	; 1
    347c:	12 96       	adiw	r26, 0x02	; 2
    347e:	fc 92       	st	X, r15
    3480:	ee 92       	st	-X, r14
    3482:	11 97       	sbiw	r26, 0x01	; 1
    3484:	84 ec       	ldi	r24, 0xC4	; 196
    3486:	93 e0       	ldi	r25, 0x03	; 3
    3488:	93 83       	std	Z+3, r25	; 0x03
    348a:	82 83       	std	Z+2, r24	; 0x02
    348c:	80 91 6f 09 	lds	r24, 0x096F
    3490:	90 91 70 09 	lds	r25, 0x0970
    3494:	95 83       	std	Z+5, r25	; 0x05
    3496:	84 83       	std	Z+4, r24	; 0x04
    3498:	80 91 5b 1d 	lds	r24, 0x1D5B
    349c:	86 83       	std	Z+6, r24	; 0x06
    349e:	17 82       	std	Z+7, r1	; 0x07
    34a0:	70 cf       	rjmp	.-288    	; 0x3382 <gs_send_command+0x308>
    34a2:	00 d0       	rcall	.+0      	; 0x34a4 <gs_send_command+0x42a>
    34a4:	00 d0       	rcall	.+0      	; 0x34a6 <gs_send_command+0x42c>
    34a6:	ed b7       	in	r30, 0x3d	; 61
    34a8:	fe b7       	in	r31, 0x3e	; 62
    34aa:	31 96       	adiw	r30, 0x01	; 1
    34ac:	ad b7       	in	r26, 0x3d	; 61
    34ae:	be b7       	in	r27, 0x3e	; 62
    34b0:	12 96       	adiw	r26, 0x02	; 2
    34b2:	fc 92       	st	X, r15
    34b4:	ee 92       	st	-X, r14
    34b6:	11 97       	sbiw	r26, 0x01	; 1
    34b8:	81 eb       	ldi	r24, 0xB1	; 177
    34ba:	93 e0       	ldi	r25, 0x03	; 3
    34bc:	93 83       	std	Z+3, r25	; 0x03
    34be:	82 83       	std	Z+2, r24	; 0x02
    34c0:	80 91 97 09 	lds	r24, 0x0997
    34c4:	90 91 98 09 	lds	r25, 0x0998
    34c8:	60 ce       	rjmp	.-832    	; 0x318a <gs_send_command+0x110>
    34ca:	00 d0       	rcall	.+0      	; 0x34cc <gs_send_command+0x452>
    34cc:	00 d0       	rcall	.+0      	; 0x34ce <gs_send_command+0x454>
    34ce:	ed b7       	in	r30, 0x3d	; 61
    34d0:	fe b7       	in	r31, 0x3e	; 62
    34d2:	31 96       	adiw	r30, 0x01	; 1
    34d4:	ad b7       	in	r26, 0x3d	; 61
    34d6:	be b7       	in	r27, 0x3e	; 62
    34d8:	12 96       	adiw	r26, 0x02	; 2
    34da:	fc 92       	st	X, r15
    34dc:	ee 92       	st	-X, r14
    34de:	11 97       	sbiw	r26, 0x01	; 1
    34e0:	81 eb       	ldi	r24, 0xB1	; 177
    34e2:	93 e0       	ldi	r25, 0x03	; 3
    34e4:	93 83       	std	Z+3, r25	; 0x03
    34e6:	82 83       	std	Z+2, r24	; 0x02
    34e8:	80 91 99 09 	lds	r24, 0x0999
    34ec:	90 91 9a 09 	lds	r25, 0x099A
    34f0:	4c ce       	rjmp	.-872    	; 0x318a <gs_send_command+0x110>
    34f2:	ad b7       	in	r26, 0x3d	; 61
    34f4:	be b7       	in	r27, 0x3e	; 62
    34f6:	18 97       	sbiw	r26, 0x08	; 8
    34f8:	0f b6       	in	r0, 0x3f	; 63
    34fa:	f8 94       	cli
    34fc:	be bf       	out	0x3e, r27	; 62
    34fe:	0f be       	out	0x3f, r0	; 63
    3500:	ad bf       	out	0x3d, r26	; 61
    3502:	ed b7       	in	r30, 0x3d	; 61
    3504:	fe b7       	in	r31, 0x3e	; 62
    3506:	31 96       	adiw	r30, 0x01	; 1
    3508:	12 96       	adiw	r26, 0x02	; 2
    350a:	fc 92       	st	X, r15
    350c:	ee 92       	st	-X, r14
    350e:	11 97       	sbiw	r26, 0x01	; 1
    3510:	84 ec       	ldi	r24, 0xC4	; 196
    3512:	93 e0       	ldi	r25, 0x03	; 3
    3514:	93 83       	std	Z+3, r25	; 0x03
    3516:	82 83       	std	Z+2, r24	; 0x02
    3518:	80 91 9b 09 	lds	r24, 0x099B
    351c:	90 91 9c 09 	lds	r25, 0x099C
    3520:	95 83       	std	Z+5, r25	; 0x05
    3522:	84 83       	std	Z+4, r24	; 0x04
    3524:	80 91 67 1d 	lds	r24, 0x1D67
    3528:	86 83       	std	Z+6, r24	; 0x06
    352a:	17 82       	std	Z+7, r1	; 0x07
    352c:	2a cf       	rjmp	.-428    	; 0x3382 <gs_send_command+0x308>
    352e:	00 d0       	rcall	.+0      	; 0x3530 <gs_send_command+0x4b6>
    3530:	00 d0       	rcall	.+0      	; 0x3532 <gs_send_command+0x4b8>
    3532:	ed b7       	in	r30, 0x3d	; 61
    3534:	fe b7       	in	r31, 0x3e	; 62
    3536:	31 96       	adiw	r30, 0x01	; 1
    3538:	ad b7       	in	r26, 0x3d	; 61
    353a:	be b7       	in	r27, 0x3e	; 62
    353c:	12 96       	adiw	r26, 0x02	; 2
    353e:	fc 92       	st	X, r15
    3540:	ee 92       	st	-X, r14
    3542:	11 97       	sbiw	r26, 0x01	; 1
    3544:	81 eb       	ldi	r24, 0xB1	; 177
    3546:	93 e0       	ldi	r25, 0x03	; 3
    3548:	93 83       	std	Z+3, r25	; 0x03
    354a:	82 83       	std	Z+2, r24	; 0x02
    354c:	80 91 67 09 	lds	r24, 0x0967
    3550:	90 91 68 09 	lds	r25, 0x0968
    3554:	1a ce       	rjmp	.-972    	; 0x318a <gs_send_command+0x110>
    3556:	ad b7       	in	r26, 0x3d	; 61
    3558:	be b7       	in	r27, 0x3e	; 62
    355a:	1a 97       	sbiw	r26, 0x0a	; 10
    355c:	0f b6       	in	r0, 0x3f	; 63
    355e:	f8 94       	cli
    3560:	be bf       	out	0x3e, r27	; 62
    3562:	0f be       	out	0x3f, r0	; 63
    3564:	ad bf       	out	0x3d, r26	; 61
    3566:	ed b7       	in	r30, 0x3d	; 61
    3568:	fe b7       	in	r31, 0x3e	; 62
    356a:	31 96       	adiw	r30, 0x01	; 1
    356c:	12 96       	adiw	r26, 0x02	; 2
    356e:	fc 92       	st	X, r15
    3570:	ee 92       	st	-X, r14
    3572:	11 97       	sbiw	r26, 0x01	; 1
    3574:	8b ec       	ldi	r24, 0xCB	; 203
    3576:	93 e0       	ldi	r25, 0x03	; 3
    3578:	93 83       	std	Z+3, r25	; 0x03
    357a:	82 83       	std	Z+2, r24	; 0x02
    357c:	80 91 65 09 	lds	r24, 0x0965
    3580:	90 91 66 09 	lds	r25, 0x0966
    3584:	95 83       	std	Z+5, r25	; 0x05
    3586:	84 83       	std	Z+4, r24	; 0x04
    3588:	80 91 51 1d 	lds	r24, 0x1D51
    358c:	90 91 52 1d 	lds	r25, 0x1D52
    3590:	97 83       	std	Z+7, r25	; 0x07
    3592:	86 83       	std	Z+6, r24	; 0x06
    3594:	80 91 5d 1d 	lds	r24, 0x1D5D
    3598:	80 87       	std	Z+8, r24	; 0x08
    359a:	11 86       	std	Z+9, r1	; 0x09
    359c:	b7 cd       	rjmp	.-1170   	; 0x310c <gs_send_command+0x92>
    359e:	ad b7       	in	r26, 0x3d	; 61
    35a0:	be b7       	in	r27, 0x3e	; 62
    35a2:	18 97       	sbiw	r26, 0x08	; 8
    35a4:	0f b6       	in	r0, 0x3f	; 63
    35a6:	f8 94       	cli
    35a8:	be bf       	out	0x3e, r27	; 62
    35aa:	0f be       	out	0x3f, r0	; 63
    35ac:	ad bf       	out	0x3d, r26	; 61
    35ae:	ed b7       	in	r30, 0x3d	; 61
    35b0:	fe b7       	in	r31, 0x3e	; 62
    35b2:	31 96       	adiw	r30, 0x01	; 1
    35b4:	12 96       	adiw	r26, 0x02	; 2
    35b6:	fc 92       	st	X, r15
    35b8:	ee 92       	st	-X, r14
    35ba:	11 97       	sbiw	r26, 0x01	; 1
    35bc:	84 ec       	ldi	r24, 0xC4	; 196
    35be:	93 e0       	ldi	r25, 0x03	; 3
    35c0:	93 83       	std	Z+3, r25	; 0x03
    35c2:	82 83       	std	Z+2, r24	; 0x02
    35c4:	80 91 63 09 	lds	r24, 0x0963
    35c8:	90 91 64 09 	lds	r25, 0x0964
    35cc:	95 83       	std	Z+5, r25	; 0x05
    35ce:	84 83       	std	Z+4, r24	; 0x04
    35d0:	80 91 55 1d 	lds	r24, 0x1D55
    35d4:	86 83       	std	Z+6, r24	; 0x06
    35d6:	17 82       	std	Z+7, r1	; 0x07
    35d8:	d4 ce       	rjmp	.-600    	; 0x3382 <gs_send_command+0x308>
    35da:	00 d0       	rcall	.+0      	; 0x35dc <gs_send_command+0x562>
    35dc:	00 d0       	rcall	.+0      	; 0x35de <gs_send_command+0x564>
    35de:	ed b7       	in	r30, 0x3d	; 61
    35e0:	fe b7       	in	r31, 0x3e	; 62
    35e2:	31 96       	adiw	r30, 0x01	; 1
    35e4:	ad b7       	in	r26, 0x3d	; 61
    35e6:	be b7       	in	r27, 0x3e	; 62
    35e8:	12 96       	adiw	r26, 0x02	; 2
    35ea:	fc 92       	st	X, r15
    35ec:	ee 92       	st	-X, r14
    35ee:	11 97       	sbiw	r26, 0x01	; 1
    35f0:	81 eb       	ldi	r24, 0xB1	; 177
    35f2:	93 e0       	ldi	r25, 0x03	; 3
    35f4:	93 83       	std	Z+3, r25	; 0x03
    35f6:	82 83       	std	Z+2, r24	; 0x02
    35f8:	80 91 93 09 	lds	r24, 0x0993
    35fc:	90 91 94 09 	lds	r25, 0x0994
    3600:	c4 cd       	rjmp	.-1144   	; 0x318a <gs_send_command+0x110>
    3602:	00 d0       	rcall	.+0      	; 0x3604 <gs_send_command+0x58a>
    3604:	00 d0       	rcall	.+0      	; 0x3606 <gs_send_command+0x58c>
    3606:	ed b7       	in	r30, 0x3d	; 61
    3608:	fe b7       	in	r31, 0x3e	; 62
    360a:	31 96       	adiw	r30, 0x01	; 1
    360c:	ad b7       	in	r26, 0x3d	; 61
    360e:	be b7       	in	r27, 0x3e	; 62
    3610:	12 96       	adiw	r26, 0x02	; 2
    3612:	fc 92       	st	X, r15
    3614:	ee 92       	st	-X, r14
    3616:	11 97       	sbiw	r26, 0x01	; 1
    3618:	81 eb       	ldi	r24, 0xB1	; 177
    361a:	93 e0       	ldi	r25, 0x03	; 3
    361c:	93 83       	std	Z+3, r25	; 0x03
    361e:	82 83       	std	Z+2, r24	; 0x02
    3620:	80 91 8f 09 	lds	r24, 0x098F
    3624:	90 91 90 09 	lds	r25, 0x0990
    3628:	b0 cd       	rjmp	.-1184   	; 0x318a <gs_send_command+0x110>
    362a:	00 d0       	rcall	.+0      	; 0x362c <gs_send_command+0x5b2>
    362c:	00 d0       	rcall	.+0      	; 0x362e <gs_send_command+0x5b4>
    362e:	ed b7       	in	r30, 0x3d	; 61
    3630:	fe b7       	in	r31, 0x3e	; 62
    3632:	31 96       	adiw	r30, 0x01	; 1
    3634:	ad b7       	in	r26, 0x3d	; 61
    3636:	be b7       	in	r27, 0x3e	; 62
    3638:	12 96       	adiw	r26, 0x02	; 2
    363a:	fc 92       	st	X, r15
    363c:	ee 92       	st	-X, r14
    363e:	11 97       	sbiw	r26, 0x01	; 1
    3640:	81 eb       	ldi	r24, 0xB1	; 177
    3642:	93 e0       	ldi	r25, 0x03	; 3
    3644:	93 83       	std	Z+3, r25	; 0x03
    3646:	82 83       	std	Z+2, r24	; 0x02
    3648:	80 91 8d 09 	lds	r24, 0x098D
    364c:	90 91 8e 09 	lds	r25, 0x098E
    3650:	9c cd       	rjmp	.-1224   	; 0x318a <gs_send_command+0x110>
    3652:	80 91 94 1d 	lds	r24, 0x1D94
    3656:	90 e0       	ldi	r25, 0x00	; 0
    3658:	fc 01       	movw	r30, r24
    365a:	ee 0f       	add	r30, r30
    365c:	ff 1f       	adc	r31, r31
    365e:	ee 0f       	add	r30, r30
    3660:	ff 1f       	adc	r31, r31
    3662:	ee 0f       	add	r30, r30
    3664:	ff 1f       	adc	r31, r31
    3666:	e8 0f       	add	r30, r24
    3668:	f9 1f       	adc	r31, r25
    366a:	ed 5b       	subi	r30, 0xBD	; 189
    366c:	f2 4e       	sbci	r31, 0xE2	; 226
    366e:	84 a5       	ldd	r24, Z+44	; 0x2c
    3670:	95 a5       	ldd	r25, Z+45	; 0x2d
    3672:	89 2b       	or	r24, r25
    3674:	09 f4       	brne	.+2      	; 0x3678 <gs_send_command+0x5fe>
    3676:	5b cd       	rjmp	.-1354   	; 0x312e <gs_send_command+0xb4>
    3678:	ad b7       	in	r26, 0x3d	; 61
    367a:	be b7       	in	r27, 0x3e	; 62
    367c:	18 97       	sbiw	r26, 0x08	; 8
    367e:	0f b6       	in	r0, 0x3f	; 63
    3680:	f8 94       	cli
    3682:	be bf       	out	0x3e, r27	; 62
    3684:	0f be       	out	0x3f, r0	; 63
    3686:	ad bf       	out	0x3d, r26	; 61
    3688:	ed b7       	in	r30, 0x3d	; 61
    368a:	fe b7       	in	r31, 0x3e	; 62
    368c:	31 96       	adiw	r30, 0x01	; 1
    368e:	12 96       	adiw	r26, 0x02	; 2
    3690:	fc 92       	st	X, r15
    3692:	ee 92       	st	-X, r14
    3694:	11 97       	sbiw	r26, 0x01	; 1
    3696:	84 ef       	ldi	r24, 0xF4	; 244
    3698:	93 e0       	ldi	r25, 0x03	; 3
    369a:	93 83       	std	Z+3, r25	; 0x03
    369c:	82 83       	std	Z+2, r24	; 0x02
    369e:	80 91 a3 09 	lds	r24, 0x09A3
    36a2:	90 91 a4 09 	lds	r25, 0x09A4
    36a6:	95 83       	std	Z+5, r25	; 0x05
    36a8:	84 83       	std	Z+4, r24	; 0x04
    36aa:	80 91 95 1d 	lds	r24, 0x1D95
    36ae:	3c cf       	rjmp	.-392    	; 0x3528 <gs_send_command+0x4ae>
    36b0:	ad b7       	in	r26, 0x3d	; 61
    36b2:	be b7       	in	r27, 0x3e	; 62
    36b4:	1a 97       	sbiw	r26, 0x0a	; 10
    36b6:	0f b6       	in	r0, 0x3f	; 63
    36b8:	f8 94       	cli
    36ba:	be bf       	out	0x3e, r27	; 62
    36bc:	0f be       	out	0x3f, r0	; 63
    36be:	ad bf       	out	0x3d, r26	; 61
    36c0:	ed b7       	in	r30, 0x3d	; 61
    36c2:	fe b7       	in	r31, 0x3e	; 62
    36c4:	31 96       	adiw	r30, 0x01	; 1
    36c6:	12 96       	adiw	r26, 0x02	; 2
    36c8:	fc 92       	st	X, r15
    36ca:	ee 92       	st	-X, r14
    36cc:	11 97       	sbiw	r26, 0x01	; 1
    36ce:	86 eb       	ldi	r24, 0xB6	; 182
    36d0:	93 e0       	ldi	r25, 0x03	; 3
    36d2:	93 83       	std	Z+3, r25	; 0x03
    36d4:	82 83       	std	Z+2, r24	; 0x02
    36d6:	80 91 57 09 	lds	r24, 0x0957
    36da:	90 91 58 09 	lds	r25, 0x0958
    36de:	95 83       	std	Z+5, r25	; 0x05
    36e0:	84 83       	std	Z+4, r24	; 0x04
    36e2:	80 91 4b 1d 	lds	r24, 0x1D4B
    36e6:	90 91 4c 1d 	lds	r25, 0x1D4C
    36ea:	a0 91 4d 1d 	lds	r26, 0x1D4D
    36ee:	b0 91 4e 1d 	lds	r27, 0x1D4E
    36f2:	86 83       	std	Z+6, r24	; 0x06
    36f4:	97 83       	std	Z+7, r25	; 0x07
    36f6:	a0 87       	std	Z+8, r26	; 0x08
    36f8:	b1 87       	std	Z+9, r27	; 0x09
    36fa:	08 cd       	rjmp	.-1520   	; 0x310c <gs_send_command+0x92>
    36fc:	00 d0       	rcall	.+0      	; 0x36fe <gs_send_command+0x684>
    36fe:	00 d0       	rcall	.+0      	; 0x3700 <gs_send_command+0x686>
    3700:	ed b7       	in	r30, 0x3d	; 61
    3702:	fe b7       	in	r31, 0x3e	; 62
    3704:	31 96       	adiw	r30, 0x01	; 1
    3706:	ad b7       	in	r26, 0x3d	; 61
    3708:	be b7       	in	r27, 0x3e	; 62
    370a:	12 96       	adiw	r26, 0x02	; 2
    370c:	fc 92       	st	X, r15
    370e:	ee 92       	st	-X, r14
    3710:	11 97       	sbiw	r26, 0x01	; 1
    3712:	81 eb       	ldi	r24, 0xB1	; 177
    3714:	93 e0       	ldi	r25, 0x03	; 3
    3716:	93 83       	std	Z+3, r25	; 0x03
    3718:	82 83       	std	Z+2, r24	; 0x02
    371a:	80 91 55 09 	lds	r24, 0x0955
    371e:	90 91 56 09 	lds	r25, 0x0956
    3722:	33 cd       	rjmp	.-1434   	; 0x318a <gs_send_command+0x110>
    3724:	00 d0       	rcall	.+0      	; 0x3726 <gs_send_command+0x6ac>
    3726:	00 d0       	rcall	.+0      	; 0x3728 <gs_send_command+0x6ae>
    3728:	ed b7       	in	r30, 0x3d	; 61
    372a:	fe b7       	in	r31, 0x3e	; 62
    372c:	31 96       	adiw	r30, 0x01	; 1
    372e:	ad b7       	in	r26, 0x3d	; 61
    3730:	be b7       	in	r27, 0x3e	; 62
    3732:	12 96       	adiw	r26, 0x02	; 2
    3734:	fc 92       	st	X, r15
    3736:	ee 92       	st	-X, r14
    3738:	11 97       	sbiw	r26, 0x01	; 1
    373a:	81 eb       	ldi	r24, 0xB1	; 177
    373c:	93 e0       	ldi	r25, 0x03	; 3
    373e:	93 83       	std	Z+3, r25	; 0x03
    3740:	82 83       	std	Z+2, r24	; 0x02
    3742:	80 91 53 09 	lds	r24, 0x0953
    3746:	90 91 54 09 	lds	r25, 0x0954
    374a:	1f cd       	rjmp	.-1474   	; 0x318a <gs_send_command+0x110>
    374c:	00 d0       	rcall	.+0      	; 0x374e <gs_send_command+0x6d4>
    374e:	00 d0       	rcall	.+0      	; 0x3750 <gs_send_command+0x6d6>
    3750:	ed b7       	in	r30, 0x3d	; 61
    3752:	fe b7       	in	r31, 0x3e	; 62
    3754:	31 96       	adiw	r30, 0x01	; 1
    3756:	ad b7       	in	r26, 0x3d	; 61
    3758:	be b7       	in	r27, 0x3e	; 62
    375a:	12 96       	adiw	r26, 0x02	; 2
    375c:	fc 92       	st	X, r15
    375e:	ee 92       	st	-X, r14
    3760:	11 97       	sbiw	r26, 0x01	; 1
    3762:	81 eb       	ldi	r24, 0xB1	; 177
    3764:	93 e0       	ldi	r25, 0x03	; 3
    3766:	93 83       	std	Z+3, r25	; 0x03
    3768:	82 83       	std	Z+2, r24	; 0x02
    376a:	80 91 51 09 	lds	r24, 0x0951
    376e:	90 91 52 09 	lds	r25, 0x0952
    3772:	0b cd       	rjmp	.-1514   	; 0x318a <gs_send_command+0x110>

00003774 <gs_get_command_response>:
    3774:	a1 e0       	ldi	r26, 0x01	; 1
    3776:	b0 e0       	ldi	r27, 0x00	; 0
    3778:	e0 ec       	ldi	r30, 0xC0	; 192
    377a:	fb e1       	ldi	r31, 0x1B	; 27
    377c:	0c 94 8c 53 	jmp	0xa718	; 0xa718 <__prologue_saves__>
    3780:	2c 01       	movw	r4, r24
    3782:	cb 01       	movw	r24, r22
    3784:	20 e2       	ldi	r18, 0x20	; 32
    3786:	29 83       	std	Y+1, r18	; 0x01
    3788:	65 e0       	ldi	r22, 0x05	; 5
    378a:	70 e0       	ldi	r23, 0x00	; 0
    378c:	0e 94 43 53 	call	0xa686	; 0xa686 <__udivmodhi4>
    3790:	3b 01       	movw	r6, r22
    3792:	ee 24       	eor	r14, r14
    3794:	ff 24       	eor	r15, r15
    3796:	00 e0       	ldi	r16, 0x00	; 0
    3798:	10 e0       	ldi	r17, 0x00	; 0
    379a:	aa 24       	eor	r10, r10
    379c:	bb 24       	eor	r11, r11
    379e:	e0 e2       	ldi	r30, 0x20	; 32
    37a0:	2e 2e       	mov	r2, r30
    37a2:	ee e4       	ldi	r30, 0x4E	; 78
    37a4:	3e 2e       	mov	r3, r30
    37a6:	4e 01       	movw	r8, r28
    37a8:	08 94       	sec
    37aa:	81 1c       	adc	r8, r1
    37ac:	91 1c       	adc	r9, r1
    37ae:	c1 01       	movw	r24, r2
    37b0:	01 97       	sbiw	r24, 0x01	; 1
    37b2:	f1 f7       	brne	.-4      	; 0x37b0 <gs_get_command_response+0x3c>
    37b4:	62 01       	movw	r12, r4
    37b6:	ce 0c       	add	r12, r14
    37b8:	df 1c       	adc	r13, r15
    37ba:	80 91 49 1d 	lds	r24, 0x1D49
    37be:	90 91 4a 1d 	lds	r25, 0x1D4A
    37c2:	0e 94 dd 4c 	call	0x99ba	; 0x99ba <usart_AvailableCharRx>
    37c6:	89 2b       	or	r24, r25
    37c8:	a9 f0       	breq	.+42     	; 0x37f4 <gs_get_command_response+0x80>
    37ca:	80 91 49 1d 	lds	r24, 0x1D49
    37ce:	90 91 4a 1d 	lds	r25, 0x1D4A
    37d2:	b4 01       	movw	r22, r8
    37d4:	0e 94 f2 4c 	call	0x99e4	; 0x99e4 <usart_xgetChar>
    37d8:	89 81       	ldd	r24, Y+1	; 0x01
    37da:	f6 01       	movw	r30, r12
    37dc:	81 93       	st	Z+, r24
    37de:	6f 01       	movw	r12, r30
    37e0:	08 94       	sec
    37e2:	e1 1c       	adc	r14, r1
    37e4:	f1 1c       	adc	r15, r1
    37e6:	0f 5f       	subi	r16, 0xFF	; 255
    37e8:	1f 4f       	sbci	r17, 0xFF	; 255
    37ea:	00 38       	cpi	r16, 0x80	; 128
    37ec:	11 05       	cpc	r17, r1
    37ee:	28 f3       	brcs	.-54     	; 0x37ba <gs_get_command_response+0x46>
    37f0:	0e 94 1e 18 	call	0x303c	; 0x303c <gs_flush>
    37f4:	08 94       	sec
    37f6:	a1 1c       	adc	r10, r1
    37f8:	b1 1c       	adc	r11, r1
    37fa:	6a 14       	cp	r6, r10
    37fc:	7b 04       	cpc	r7, r11
    37fe:	b8 f6       	brcc	.-82     	; 0x37ae <gs_get_command_response+0x3a>
    3800:	e4 0c       	add	r14, r4
    3802:	f5 1c       	adc	r15, r5
    3804:	f7 01       	movw	r30, r14
    3806:	10 82       	st	Z, r1
    3808:	80 91 43 1d 	lds	r24, 0x1D43
    380c:	90 91 44 1d 	lds	r25, 0x1D44
    3810:	6e ef       	ldi	r22, 0xFE	; 254
    3812:	73 e0       	ldi	r23, 0x03	; 3
    3814:	0e 94 54 50 	call	0xa0a8	; 0xa0a8 <usart_xfprint>
    3818:	80 91 43 1d 	lds	r24, 0x1D43
    381c:	90 91 44 1d 	lds	r25, 0x1D44
    3820:	b2 01       	movw	r22, r4
    3822:	0e 94 54 50 	call	0xa0a8	; 0xa0a8 <usart_xfprint>
    3826:	80 91 43 1d 	lds	r24, 0x1D43
    382a:	90 91 44 1d 	lds	r25, 0x1D44
    382e:	6b ef       	ldi	r22, 0xFB	; 251
    3830:	73 e0       	ldi	r23, 0x03	; 3
    3832:	0e 94 54 50 	call	0xa0a8	; 0xa0a8 <usart_xfprint>
    3836:	c8 01       	movw	r24, r16
    3838:	21 96       	adiw	r28, 0x01	; 1
    383a:	e2 e1       	ldi	r30, 0x12	; 18
    383c:	0c 94 a8 53 	jmp	0xa750	; 0xa750 <__epilogue_restores__>

00003840 <gs_read_data_from_socket>:
    3840:	a1 e8       	ldi	r26, 0x81	; 129
    3842:	b0 e0       	ldi	r27, 0x00	; 0
    3844:	e6 e2       	ldi	r30, 0x26	; 38
    3846:	fc e1       	ldi	r31, 0x1C	; 28
    3848:	0c 94 8c 53 	jmp	0xa718	; 0xa718 <__prologue_saves__>
    384c:	2c 01       	movw	r4, r24
    384e:	80 91 00 03 	lds	r24, 0x0300
    3852:	90 91 01 03 	lds	r25, 0x0301
    3856:	9a 83       	std	Y+2, r25	; 0x02
    3858:	89 83       	std	Y+1, r24	; 0x01
    385a:	fe 01       	movw	r30, r28
    385c:	33 96       	adiw	r30, 0x03	; 3
    385e:	8e e7       	ldi	r24, 0x7E	; 126
    3860:	df 01       	movw	r26, r30
    3862:	1d 92       	st	X+, r1
    3864:	8a 95       	dec	r24
    3866:	e9 f7       	brne	.-6      	; 0x3862 <gs_read_data_from_socket+0x22>
    3868:	f2 01       	movw	r30, r4
    386a:	10 82       	st	Z, r1
    386c:	19 82       	std	Y+1, r1	; 0x01
    386e:	5e 01       	movw	r10, r28
    3870:	08 94       	sec
    3872:	a1 1c       	adc	r10, r1
    3874:	b1 1c       	adc	r11, r1
    3876:	c5 01       	movw	r24, r10
    3878:	6e e1       	ldi	r22, 0x1E	; 30
    387a:	70 e0       	ldi	r23, 0x00	; 0
    387c:	0e 94 ba 1b 	call	0x3774	; 0x3774 <gs_get_command_response>
    3880:	9c 01       	movw	r18, r24
    3882:	89 81       	ldd	r24, Y+1	; 0x01
    3884:	88 23       	and	r24, r24
    3886:	09 f4       	brne	.+2      	; 0x388a <gs_read_data_from_socket+0x4a>
    3888:	a9 c0       	rjmp	.+338    	; 0x39dc <gs_read_data_from_socket+0x19c>
    388a:	23 2b       	or	r18, r19
    388c:	09 f4       	brne	.+2      	; 0x3890 <gs_read_data_from_socket+0x50>
    388e:	a6 c0       	rjmp	.+332    	; 0x39dc <gs_read_data_from_socket+0x19c>
    3890:	85 01       	movw	r16, r10
    3892:	66 24       	eor	r6, r6
    3894:	77 24       	eor	r7, r7
    3896:	cc 24       	eor	r12, r12
    3898:	dd 24       	eor	r13, r13
    389a:	ee 24       	eor	r14, r14
    389c:	ff 24       	eor	r15, r15
    389e:	88 24       	eor	r8, r8
    38a0:	99 24       	eor	r9, r9
    38a2:	91 e0       	ldi	r25, 0x01	; 1
    38a4:	29 2e       	mov	r2, r25
    38a6:	31 2c       	mov	r3, r1
    38a8:	18 c0       	rjmp	.+48     	; 0x38da <gs_read_data_from_socket+0x9a>
    38aa:	91 e0       	ldi	r25, 0x01	; 1
    38ac:	c9 16       	cp	r12, r25
    38ae:	d1 04       	cpc	r13, r1
    38b0:	09 f4       	brne	.+2      	; 0x38b4 <gs_read_data_from_socket+0x74>
    38b2:	c0 c0       	rjmp	.+384    	; 0x3a34 <gs_read_data_from_socket+0x1f4>
    38b4:	25 34       	cpi	r18, 0x45	; 69
    38b6:	09 f4       	brne	.+2      	; 0x38ba <gs_read_data_from_socket+0x7a>
    38b8:	78 c0       	rjmp	.+240    	; 0x39aa <gs_read_data_from_socket+0x16a>
    38ba:	08 94       	sec
    38bc:	e1 1c       	adc	r14, r1
    38be:	f1 1c       	adc	r15, r1
    38c0:	f5 01       	movw	r30, r10
    38c2:	01 90       	ld	r0, Z+
    38c4:	00 20       	and	r0, r0
    38c6:	e9 f7       	brne	.-6      	; 0x38c2 <gs_read_data_from_socket+0x82>
    38c8:	31 97       	sbiw	r30, 0x01	; 1
    38ca:	ea 19       	sub	r30, r10
    38cc:	fb 09       	sbc	r31, r11
    38ce:	0f 5f       	subi	r16, 0xFF	; 255
    38d0:	1f 4f       	sbci	r17, 0xFF	; 255
    38d2:	ee 15       	cp	r30, r14
    38d4:	ff 05       	cpc	r31, r15
    38d6:	08 f4       	brcc	.+2      	; 0x38da <gs_read_data_from_socket+0x9a>
    38d8:	85 c0       	rjmp	.+266    	; 0x39e4 <gs_read_data_from_socket+0x1a4>
    38da:	f8 01       	movw	r30, r16
    38dc:	20 81       	ld	r18, Z
    38de:	32 2f       	mov	r19, r18
    38e0:	2b 31       	cpi	r18, 0x1B	; 27
    38e2:	09 f4       	brne	.+2      	; 0x38e6 <gs_read_data_from_socket+0xa6>
    38e4:	9d c0       	rjmp	.+314    	; 0x3a20 <gs_read_data_from_socket+0x1e0>
    38e6:	23 35       	cpi	r18, 0x53	; 83
    38e8:	09 f4       	brne	.+2      	; 0x38ec <gs_read_data_from_socket+0xac>
    38ea:	92 c0       	rjmp	.+292    	; 0x3a10 <gs_read_data_from_socket+0x1d0>
    38ec:	25 34       	cpi	r18, 0x45	; 69
    38ee:	39 f0       	breq	.+14     	; 0x38fe <gs_read_data_from_socket+0xbe>
    38f0:	80 91 96 1d 	lds	r24, 0x1D96
    38f4:	90 91 97 1d 	lds	r25, 0x1D97
    38f8:	89 2b       	or	r24, r25
    38fa:	09 f4       	brne	.+2      	; 0x38fe <gs_read_data_from_socket+0xbe>
    38fc:	79 c0       	rjmp	.+242    	; 0x39f0 <gs_read_data_from_socket+0x1b0>
    38fe:	c1 14       	cp	r12, r1
    3900:	d1 04       	cpc	r13, r1
    3902:	99 f6       	brne	.-90     	; 0x38aa <gs_read_data_from_socket+0x6a>
    3904:	80 91 96 1d 	lds	r24, 0x1D96
    3908:	90 91 97 1d 	lds	r25, 0x1D97
    390c:	02 97       	sbiw	r24, 0x02	; 2
    390e:	91 f6       	brne	.-92     	; 0x38b4 <gs_read_data_from_socket+0x74>
    3910:	43 2f       	mov	r20, r19
    3912:	40 53       	subi	r20, 0x30	; 48
    3914:	50 91 95 1d 	lds	r21, 0x1D95
    3918:	a0 91 93 1d 	lds	r26, 0x1D93
    391c:	70 91 94 1d 	lds	r23, 0x1D94
    3920:	e7 e7       	ldi	r30, 0x77	; 119
    3922:	fd e1       	ldi	r31, 0x1D	; 29
    3924:	20 e0       	ldi	r18, 0x00	; 0
    3926:	63 2f       	mov	r22, r19
    3928:	61 54       	subi	r22, 0x41	; 65
    392a:	83 2f       	mov	r24, r19
    392c:	81 56       	subi	r24, 0x61	; 97
    392e:	cf 57       	subi	r28, 0x7F	; 127
    3930:	df 4f       	sbci	r29, 0xFF	; 255
    3932:	88 83       	st	Y, r24
    3934:	c1 58       	subi	r28, 0x81	; 129
    3936:	d0 40       	sbci	r29, 0x00	; 0
    3938:	b9 ea       	ldi	r27, 0xA9	; 169
    393a:	db 2e       	mov	r13, r27
    393c:	d3 0e       	add	r13, r19
    393e:	b3 2f       	mov	r27, r19
    3940:	b7 53       	subi	r27, 0x37	; 55
    3942:	90 81       	ld	r25, Z
    3944:	4a 30       	cpi	r20, 0x0A	; 10
    3946:	60 f4       	brcc	.+24     	; 0x3960 <gs_read_data_from_socket+0x120>
    3948:	84 2f       	mov	r24, r20
    394a:	98 17       	cp	r25, r24
    394c:	79 f0       	breq	.+30     	; 0x396c <gs_read_data_from_socket+0x12c>
    394e:	95 2f       	mov	r25, r21
    3950:	2f 5f       	subi	r18, 0xFF	; 255
    3952:	39 96       	adiw	r30, 0x09	; 9
    3954:	24 30       	cpi	r18, 0x04	; 4
    3956:	81 f0       	breq	.+32     	; 0x3978 <gs_read_data_from_socket+0x138>
    3958:	59 2f       	mov	r21, r25
    395a:	90 81       	ld	r25, Z
    395c:	4a 30       	cpi	r20, 0x0A	; 10
    395e:	a0 f3       	brcs	.-24     	; 0x3948 <gs_read_data_from_socket+0x108>
    3960:	66 30       	cpi	r22, 0x06	; 6
    3962:	08 f0       	brcs	.+2      	; 0x3966 <gs_read_data_from_socket+0x126>
    3964:	6f c0       	rjmp	.+222    	; 0x3a44 <gs_read_data_from_socket+0x204>
    3966:	8b 2f       	mov	r24, r27
    3968:	98 17       	cp	r25, r24
    396a:	89 f7       	brne	.-30     	; 0x394e <gs_read_data_from_socket+0x10e>
    396c:	a2 2f       	mov	r26, r18
    396e:	72 2f       	mov	r23, r18
    3970:	2f 5f       	subi	r18, 0xFF	; 255
    3972:	39 96       	adiw	r30, 0x09	; 9
    3974:	24 30       	cpi	r18, 0x04	; 4
    3976:	81 f7       	brne	.-32     	; 0x3958 <gs_read_data_from_socket+0x118>
    3978:	90 93 95 1d 	sts	0x1D95, r25
    397c:	a0 93 93 1d 	sts	0x1D93, r26
    3980:	70 93 94 1d 	sts	0x1D94, r23
    3984:	10 92 99 1d 	sts	0x1D99, r1
    3988:	10 92 98 1d 	sts	0x1D98, r1
    398c:	f2 01       	movw	r30, r4
    398e:	e8 0d       	add	r30, r8
    3990:	f9 1d       	adc	r31, r9
    3992:	30 83       	st	Z, r19
    3994:	08 94       	sec
    3996:	81 1c       	adc	r8, r1
    3998:	91 1c       	adc	r9, r1
    399a:	a1 e0       	ldi	r26, 0x01	; 1
    399c:	ca 2e       	mov	r12, r26
    399e:	d1 2c       	mov	r13, r1
    39a0:	d8 01       	movw	r26, r16
    39a2:	2c 91       	ld	r18, X
    39a4:	25 34       	cpi	r18, 0x45	; 69
    39a6:	09 f0       	breq	.+2      	; 0x39aa <gs_read_data_from_socket+0x16a>
    39a8:	88 cf       	rjmp	.-240    	; 0x38ba <gs_read_data_from_socket+0x7a>
    39aa:	80 91 96 1d 	lds	r24, 0x1D96
    39ae:	90 91 97 1d 	lds	r25, 0x1D97
    39b2:	81 30       	cpi	r24, 0x01	; 1
    39b4:	91 05       	cpc	r25, r1
    39b6:	09 f0       	breq	.+2      	; 0x39ba <gs_read_data_from_socket+0x17a>
    39b8:	80 cf       	rjmp	.-256    	; 0x38ba <gs_read_data_from_socket+0x7a>
    39ba:	90 93 99 1d 	sts	0x1D99, r25
    39be:	80 93 98 1d 	sts	0x1D98, r24
    39c2:	10 92 97 1d 	sts	0x1D97, r1
    39c6:	10 92 96 1d 	sts	0x1D96, r1
    39ca:	bf ef       	ldi	r27, 0xFF	; 255
    39cc:	b0 93 93 1d 	sts	0x1D93, r27
    39d0:	f1 e0       	ldi	r31, 0x01	; 1
    39d2:	6f 2e       	mov	r6, r31
    39d4:	71 2c       	mov	r7, r1
    39d6:	cc 24       	eor	r12, r12
    39d8:	dd 24       	eor	r13, r13
    39da:	6f cf       	rjmp	.-290    	; 0x38ba <gs_read_data_from_socket+0x7a>
    39dc:	d2 01       	movw	r26, r4
    39de:	1c 92       	st	X, r1
    39e0:	66 24       	eor	r6, r6
    39e2:	77 24       	eor	r7, r7
    39e4:	c3 01       	movw	r24, r6
    39e6:	cf 57       	subi	r28, 0x7F	; 127
    39e8:	df 4f       	sbci	r29, 0xFF	; 255
    39ea:	e2 e1       	ldi	r30, 0x12	; 18
    39ec:	0c 94 a8 53 	jmp	0xa750	; 0xa750 <__epilogue_restores__>
    39f0:	c5 01       	movw	r24, r10
    39f2:	62 e0       	ldi	r22, 0x02	; 2
    39f4:	70 e0       	ldi	r23, 0x00	; 0
    39f6:	4a e2       	ldi	r20, 0x2A	; 42
    39f8:	0e 94 e6 15 	call	0x2bcc	; 0x2bcc <gs_parse_command_response_tcp>
    39fc:	01 97       	sbiw	r24, 0x01	; 1
    39fe:	d1 f1       	breq	.+116    	; 0x3a74 <gs_read_data_from_socket+0x234>
    3a00:	d8 01       	movw	r26, r16
    3a02:	2c 91       	ld	r18, X
    3a04:	32 2f       	mov	r19, r18
    3a06:	2b 31       	cpi	r18, 0x1B	; 27
    3a08:	59 f0       	breq	.+22     	; 0x3a20 <gs_read_data_from_socket+0x1e0>
    3a0a:	23 35       	cpi	r18, 0x53	; 83
    3a0c:	09 f0       	breq	.+2      	; 0x3a10 <gs_read_data_from_socket+0x1d0>
    3a0e:	77 cf       	rjmp	.-274    	; 0x38fe <gs_read_data_from_socket+0xbe>
    3a10:	80 91 96 1d 	lds	r24, 0x1D96
    3a14:	90 91 97 1d 	lds	r25, 0x1D97
    3a18:	01 97       	sbiw	r24, 0x01	; 1
    3a1a:	e9 f0       	breq	.+58     	; 0x3a56 <gs_read_data_from_socket+0x216>
    3a1c:	33 e5       	ldi	r19, 0x53	; 83
    3a1e:	6f cf       	rjmp	.-290    	; 0x38fe <gs_read_data_from_socket+0xbe>
    3a20:	30 92 97 1d 	sts	0x1D97, r3
    3a24:	20 92 96 1d 	sts	0x1D96, r2
    3a28:	10 92 99 1d 	sts	0x1D99, r1
    3a2c:	10 92 98 1d 	sts	0x1D98, r1
    3a30:	3b e1       	ldi	r19, 0x1B	; 27
    3a32:	65 cf       	rjmp	.-310    	; 0x38fe <gs_read_data_from_socket+0xbe>
    3a34:	80 91 96 1d 	lds	r24, 0x1D96
    3a38:	90 91 97 1d 	lds	r25, 0x1D97
    3a3c:	02 97       	sbiw	r24, 0x02	; 2
    3a3e:	09 f0       	breq	.+2      	; 0x3a42 <gs_read_data_from_socket+0x202>
    3a40:	39 cf       	rjmp	.-398    	; 0x38b4 <gs_read_data_from_socket+0x74>
    3a42:	a0 cf       	rjmp	.-192    	; 0x3984 <gs_read_data_from_socket+0x144>
    3a44:	cf 57       	subi	r28, 0x7F	; 127
    3a46:	df 4f       	sbci	r29, 0xFF	; 255
    3a48:	88 81       	ld	r24, Y
    3a4a:	c1 58       	subi	r28, 0x81	; 129
    3a4c:	d0 40       	sbci	r29, 0x00	; 0
    3a4e:	86 30       	cpi	r24, 0x06	; 6
    3a50:	78 f0       	brcs	.+30     	; 0x3a70 <gs_read_data_from_socket+0x230>
    3a52:	80 e0       	ldi	r24, 0x00	; 0
    3a54:	7a cf       	rjmp	.-268    	; 0x394a <gs_read_data_from_socket+0x10a>
    3a56:	e2 e0       	ldi	r30, 0x02	; 2
    3a58:	f0 e0       	ldi	r31, 0x00	; 0
    3a5a:	f0 93 97 1d 	sts	0x1D97, r31
    3a5e:	e0 93 96 1d 	sts	0x1D96, r30
    3a62:	10 92 99 1d 	sts	0x1D99, r1
    3a66:	10 92 98 1d 	sts	0x1D98, r1
    3a6a:	33 e5       	ldi	r19, 0x53	; 83
    3a6c:	43 e2       	ldi	r20, 0x23	; 35
    3a6e:	52 cf       	rjmp	.-348    	; 0x3914 <gs_read_data_from_socket+0xd4>
    3a70:	8d 2d       	mov	r24, r13
    3a72:	6b cf       	rjmp	.-298    	; 0x394a <gs_read_data_from_socket+0x10a>
    3a74:	81 e0       	ldi	r24, 0x01	; 1
    3a76:	68 2e       	mov	r6, r24
    3a78:	71 2c       	mov	r7, r1
    3a7a:	c2 cf       	rjmp	.-124    	; 0x3a00 <gs_read_data_from_socket+0x1c0>

00003a7c <gs_disconnect_deactivate_socket>:
    3a7c:	8f 92       	push	r8
    3a7e:	9f 92       	push	r9
    3a80:	bf 92       	push	r11
    3a82:	cf 92       	push	r12
    3a84:	df 92       	push	r13
    3a86:	ef 92       	push	r14
    3a88:	ff 92       	push	r15
    3a8a:	0f 93       	push	r16
    3a8c:	1f 93       	push	r17
    3a8e:	df 93       	push	r29
    3a90:	cf 93       	push	r28
    3a92:	cd b7       	in	r28, 0x3d	; 61
    3a94:	de b7       	in	r29, 0x3e	; 62
    3a96:	c0 58       	subi	r28, 0x80	; 128
    3a98:	d0 40       	sbci	r29, 0x00	; 0
    3a9a:	0f b6       	in	r0, 0x3f	; 63
    3a9c:	f8 94       	cli
    3a9e:	de bf       	out	0x3e, r29	; 62
    3aa0:	0f be       	out	0x3f, r0	; 63
    3aa2:	cd bf       	out	0x3d, r28	; 61
    3aa4:	b8 2e       	mov	r11, r24
    3aa6:	83 e0       	ldi	r24, 0x03	; 3
    3aa8:	8b 15       	cp	r24, r11
    3aaa:	08 f4       	brcc	.+2      	; 0x3aae <gs_disconnect_deactivate_socket+0x32>
    3aac:	42 c0       	rjmp	.+132    	; 0x3b32 <gs_disconnect_deactivate_socket+0xb6>
    3aae:	cb 2c       	mov	r12, r11
    3ab0:	dd 24       	eor	r13, r13
    3ab2:	46 01       	movw	r8, r12
    3ab4:	88 0c       	add	r8, r8
    3ab6:	99 1c       	adc	r9, r9
    3ab8:	88 0c       	add	r8, r8
    3aba:	99 1c       	adc	r9, r9
    3abc:	88 0c       	add	r8, r8
    3abe:	99 1c       	adc	r9, r9
    3ac0:	74 01       	movw	r14, r8
    3ac2:	ec 0c       	add	r14, r12
    3ac4:	fd 1c       	adc	r15, r13
    3ac6:	a3 e4       	ldi	r26, 0x43	; 67
    3ac8:	bd e1       	ldi	r27, 0x1D	; 29
    3aca:	ea 0e       	add	r14, r26
    3acc:	fb 1e       	adc	r15, r27
    3ace:	f7 01       	movw	r30, r14
    3ad0:	84 a5       	ldd	r24, Z+44	; 0x2c
    3ad2:	95 a5       	ldd	r25, Z+45	; 0x2d
    3ad4:	01 97       	sbiw	r24, 0x01	; 1
    3ad6:	03 97       	sbiw	r24, 0x03	; 3
    3ad8:	60 f5       	brcc	.+88     	; 0x3b32 <gs_disconnect_deactivate_socket+0xb6>
    3ada:	b0 92 94 1d 	sts	0x1D94, r11
    3ade:	84 a9       	ldd	r24, Z+52	; 0x34
    3ae0:	80 93 95 1d 	sts	0x1D95, r24
    3ae4:	80 91 00 03 	lds	r24, 0x0300
    3ae8:	90 91 01 03 	lds	r25, 0x0301
    3aec:	9a 83       	std	Y+2, r25	; 0x02
    3aee:	89 83       	std	Y+1, r24	; 0x01
    3af0:	fe 01       	movw	r30, r28
    3af2:	33 96       	adiw	r30, 0x03	; 3
    3af4:	8e e7       	ldi	r24, 0x7E	; 126
    3af6:	df 01       	movw	r26, r30
    3af8:	1d 92       	st	X+, r1
    3afa:	8a 95       	dec	r24
    3afc:	e9 f7       	brne	.-6      	; 0x3af8 <gs_disconnect_deactivate_socket+0x7c>
    3afe:	19 82       	std	Y+1, r1	; 0x01
    3b00:	89 e2       	ldi	r24, 0x29	; 41
    3b02:	0e 94 3d 18 	call	0x307a	; 0x307a <gs_send_command>
    3b06:	8e 01       	movw	r16, r28
    3b08:	0f 5f       	subi	r16, 0xFF	; 255
    3b0a:	1f 4f       	sbci	r17, 0xFF	; 255
    3b0c:	c8 01       	movw	r24, r16
    3b0e:	68 ee       	ldi	r22, 0xE8	; 232
    3b10:	73 e0       	ldi	r23, 0x03	; 3
    3b12:	0e 94 ba 1b 	call	0x3774	; 0x3774 <gs_get_command_response>
    3b16:	c8 01       	movw	r24, r16
    3b18:	61 e0       	ldi	r22, 0x01	; 1
    3b1a:	70 e0       	ldi	r23, 0x00	; 0
    3b1c:	49 e2       	ldi	r20, 0x29	; 41
    3b1e:	0e 94 e6 15 	call	0x2bcc	; 0x2bcc <gs_parse_command_response_tcp>
    3b22:	8c 01       	movw	r16, r24
    3b24:	89 e2       	ldi	r24, 0x29	; 41
    3b26:	b8 01       	movw	r22, r16
    3b28:	0e 94 9f 14 	call	0x293e	; 0x293e <gs_send_command_response_to_serial_terminal>
    3b2c:	01 30       	cpi	r16, 0x01	; 1
    3b2e:	11 05       	cpc	r17, r1
    3b30:	b1 f0       	breq	.+44     	; 0x3b5e <gs_disconnect_deactivate_socket+0xe2>
    3b32:	20 e0       	ldi	r18, 0x00	; 0
    3b34:	30 e0       	ldi	r19, 0x00	; 0
    3b36:	c9 01       	movw	r24, r18
    3b38:	c0 58       	subi	r28, 0x80	; 128
    3b3a:	df 4f       	sbci	r29, 0xFF	; 255
    3b3c:	0f b6       	in	r0, 0x3f	; 63
    3b3e:	f8 94       	cli
    3b40:	de bf       	out	0x3e, r29	; 62
    3b42:	0f be       	out	0x3f, r0	; 63
    3b44:	cd bf       	out	0x3d, r28	; 61
    3b46:	cf 91       	pop	r28
    3b48:	df 91       	pop	r29
    3b4a:	1f 91       	pop	r17
    3b4c:	0f 91       	pop	r16
    3b4e:	ff 90       	pop	r15
    3b50:	ef 90       	pop	r14
    3b52:	df 90       	pop	r13
    3b54:	cf 90       	pop	r12
    3b56:	bf 90       	pop	r11
    3b58:	9f 90       	pop	r9
    3b5a:	8f 90       	pop	r8
    3b5c:	08 95       	ret
    3b5e:	f7 01       	movw	r30, r14
    3b60:	80 a9       	ldd	r24, Z+48	; 0x30
    3b62:	91 a9       	ldd	r25, Z+49	; 0x31
    3b64:	9c 01       	movw	r18, r24
    3b66:	d9 01       	movw	r26, r18
    3b68:	ec e6       	ldi	r30, 0x6C	; 108
    3b6a:	f3 e0       	ldi	r31, 0x03	; 3
    3b6c:	88 e0       	ldi	r24, 0x08	; 8
    3b6e:	01 90       	ld	r0, Z+
    3b70:	0d 92       	st	X+, r0
    3b72:	81 50       	subi	r24, 0x01	; 1
    3b74:	e1 f7       	brne	.-8      	; 0x3b6e <gs_disconnect_deactivate_socket+0xf2>
    3b76:	f4 01       	movw	r30, r8
    3b78:	ec 0d       	add	r30, r12
    3b7a:	fd 1d       	adc	r31, r13
    3b7c:	ed 5b       	subi	r30, 0xBD	; 189
    3b7e:	f2 4e       	sbci	r31, 0xE2	; 226
    3b80:	15 a6       	std	Z+45, r1	; 0x2d
    3b82:	14 a6       	std	Z+44, r1	; 0x2c
    3b84:	86 e0       	ldi	r24, 0x06	; 6
    3b86:	90 e0       	ldi	r25, 0x00	; 0
    3b88:	97 a7       	std	Z+47, r25	; 0x2f
    3b8a:	86 a7       	std	Z+46, r24	; 0x2e
    3b8c:	13 aa       	std	Z+51, r1	; 0x33
    3b8e:	12 aa       	std	Z+50, r1	; 0x32
    3b90:	8f ef       	ldi	r24, 0xFF	; 255
    3b92:	84 ab       	std	Z+52, r24	; 0x34
    3b94:	50 91 94 1d 	lds	r21, 0x1D94
    3b98:	5b 15       	cp	r21, r11
    3b9a:	61 f0       	breq	.+24     	; 0x3bb4 <gs_disconnect_deactivate_socket+0x138>
    3b9c:	80 93 95 1d 	sts	0x1D95, r24
    3ba0:	8f ef       	ldi	r24, 0xFF	; 255
    3ba2:	80 93 93 1d 	sts	0x1D93, r24
    3ba6:	10 92 97 1d 	sts	0x1D97, r1
    3baa:	10 92 96 1d 	sts	0x1D96, r1
    3bae:	21 e0       	ldi	r18, 0x01	; 1
    3bb0:	30 e0       	ldi	r19, 0x00	; 0
    3bb2:	c1 cf       	rjmp	.-126    	; 0x3b36 <gs_disconnect_deactivate_socket+0xba>
    3bb4:	ef e6       	ldi	r30, 0x6F	; 111
    3bb6:	fd e1       	ldi	r31, 0x1D	; 29
    3bb8:	20 e0       	ldi	r18, 0x00	; 0
    3bba:	30 e0       	ldi	r19, 0x00	; 0
    3bbc:	80 81       	ld	r24, Z
    3bbe:	91 81       	ldd	r25, Z+1	; 0x01
    3bc0:	02 97       	sbiw	r24, 0x02	; 2
    3bc2:	02 97       	sbiw	r24, 0x02	; 2
    3bc4:	38 f0       	brcs	.+14     	; 0x3bd4 <gs_disconnect_deactivate_socket+0x158>
    3bc6:	2f 5f       	subi	r18, 0xFF	; 255
    3bc8:	3f 4f       	sbci	r19, 0xFF	; 255
    3bca:	39 96       	adiw	r30, 0x09	; 9
    3bcc:	24 30       	cpi	r18, 0x04	; 4
    3bce:	31 05       	cpc	r19, r1
    3bd0:	a9 f7       	brne	.-22     	; 0x3bbc <gs_disconnect_deactivate_socket+0x140>
    3bd2:	e6 cf       	rjmp	.-52     	; 0x3ba0 <gs_disconnect_deactivate_socket+0x124>
    3bd4:	52 17       	cp	r21, r18
    3bd6:	b9 f3       	breq	.-18     	; 0x3bc6 <gs_disconnect_deactivate_socket+0x14a>
    3bd8:	20 93 94 1d 	sts	0x1D94, r18
    3bdc:	f9 01       	movw	r30, r18
    3bde:	ee 0f       	add	r30, r30
    3be0:	ff 1f       	adc	r31, r31
    3be2:	ee 0f       	add	r30, r30
    3be4:	ff 1f       	adc	r31, r31
    3be6:	ee 0f       	add	r30, r30
    3be8:	ff 1f       	adc	r31, r31
    3bea:	e2 0f       	add	r30, r18
    3bec:	f3 1f       	adc	r31, r19
    3bee:	ed 5b       	subi	r30, 0xBD	; 189
    3bf0:	f2 4e       	sbci	r31, 0xE2	; 226
    3bf2:	84 a9       	ldd	r24, Z+52	; 0x34
    3bf4:	80 93 95 1d 	sts	0x1D95, r24
    3bf8:	d3 cf       	rjmp	.-90     	; 0x3ba0 <gs_disconnect_deactivate_socket+0x124>

00003bfa <gs_enable_activate_socket>:
    3bfa:	a0 e8       	ldi	r26, 0x80	; 128
    3bfc:	b0 e0       	ldi	r27, 0x00	; 0
    3bfe:	e3 e0       	ldi	r30, 0x03	; 3
    3c00:	fe e1       	ldi	r31, 0x1E	; 30
    3c02:	0c 94 9a 53 	jmp	0xa734	; 0xa734 <__prologue_saves__+0x1c>
    3c06:	28 2f       	mov	r18, r24
    3c08:	84 30       	cpi	r24, 0x04	; 4
    3c0a:	e8 f5       	brcc	.+122    	; 0x3c86 <gs_enable_activate_socket+0x8c>
    3c0c:	90 e0       	ldi	r25, 0x00	; 0
    3c0e:	fc 01       	movw	r30, r24
    3c10:	ee 0f       	add	r30, r30
    3c12:	ff 1f       	adc	r31, r31
    3c14:	ee 0f       	add	r30, r30
    3c16:	ff 1f       	adc	r31, r31
    3c18:	ee 0f       	add	r30, r30
    3c1a:	ff 1f       	adc	r31, r31
    3c1c:	e8 0f       	add	r30, r24
    3c1e:	f9 1f       	adc	r31, r25
    3c20:	ed 5b       	subi	r30, 0xBD	; 189
    3c22:	f2 4e       	sbci	r31, 0xE2	; 226
    3c24:	84 a5       	ldd	r24, Z+44	; 0x2c
    3c26:	95 a5       	ldd	r25, Z+45	; 0x2d
    3c28:	01 97       	sbiw	r24, 0x01	; 1
    3c2a:	03 97       	sbiw	r24, 0x03	; 3
    3c2c:	60 f5       	brcc	.+88     	; 0x3c86 <gs_enable_activate_socket+0x8c>
    3c2e:	20 93 94 1d 	sts	0x1D94, r18
    3c32:	84 a9       	ldd	r24, Z+52	; 0x34
    3c34:	80 93 95 1d 	sts	0x1D95, r24
    3c38:	80 91 00 03 	lds	r24, 0x0300
    3c3c:	90 91 01 03 	lds	r25, 0x0301
    3c40:	9a 83       	std	Y+2, r25	; 0x02
    3c42:	89 83       	std	Y+1, r24	; 0x01
    3c44:	fe 01       	movw	r30, r28
    3c46:	33 96       	adiw	r30, 0x03	; 3
    3c48:	8e e7       	ldi	r24, 0x7E	; 126
    3c4a:	df 01       	movw	r26, r30
    3c4c:	1d 92       	st	X+, r1
    3c4e:	8a 95       	dec	r24
    3c50:	e9 f7       	brne	.-6      	; 0x3c4c <gs_enable_activate_socket+0x52>
    3c52:	19 82       	std	Y+1, r1	; 0x01
    3c54:	85 e2       	ldi	r24, 0x25	; 37
    3c56:	0e 94 3d 18 	call	0x307a	; 0x307a <gs_send_command>
    3c5a:	8e 01       	movw	r16, r28
    3c5c:	0f 5f       	subi	r16, 0xFF	; 255
    3c5e:	1f 4f       	sbci	r17, 0xFF	; 255
    3c60:	c8 01       	movw	r24, r16
    3c62:	6c e2       	ldi	r22, 0x2C	; 44
    3c64:	71 e0       	ldi	r23, 0x01	; 1
    3c66:	0e 94 ba 1b 	call	0x3774	; 0x3774 <gs_get_command_response>
    3c6a:	c8 01       	movw	r24, r16
    3c6c:	61 e0       	ldi	r22, 0x01	; 1
    3c6e:	70 e0       	ldi	r23, 0x00	; 0
    3c70:	45 e2       	ldi	r20, 0x25	; 37
    3c72:	0e 94 e6 15 	call	0x2bcc	; 0x2bcc <gs_parse_command_response_tcp>
    3c76:	8c 01       	movw	r16, r24
    3c78:	85 e2       	ldi	r24, 0x25	; 37
    3c7a:	b8 01       	movw	r22, r16
    3c7c:	0e 94 9f 14 	call	0x293e	; 0x293e <gs_send_command_response_to_serial_terminal>
    3c80:	01 30       	cpi	r16, 0x01	; 1
    3c82:	11 05       	cpc	r17, r1
    3c84:	41 f0       	breq	.+16     	; 0x3c96 <gs_enable_activate_socket+0x9c>
    3c86:	20 e0       	ldi	r18, 0x00	; 0
    3c88:	30 e0       	ldi	r19, 0x00	; 0
    3c8a:	c9 01       	movw	r24, r18
    3c8c:	c0 58       	subi	r28, 0x80	; 128
    3c8e:	df 4f       	sbci	r29, 0xFF	; 255
    3c90:	e4 e0       	ldi	r30, 0x04	; 4
    3c92:	0c 94 b6 53 	jmp	0xa76c	; 0xa76c <__epilogue_restores__+0x1c>
    3c96:	10 92 97 1d 	sts	0x1D97, r1
    3c9a:	10 92 96 1d 	sts	0x1D96, r1
    3c9e:	21 e0       	ldi	r18, 0x01	; 1
    3ca0:	30 e0       	ldi	r19, 0x00	; 0
    3ca2:	f3 cf       	rjmp	.-26     	; 0x3c8a <gs_enable_activate_socket+0x90>

00003ca4 <start_web_server>:
    3ca4:	0f 93       	push	r16
    3ca6:	1f 93       	push	r17
    3ca8:	cf 93       	push	r28
    3caa:	df 93       	push	r29
    3cac:	80 91 41 1d 	lds	r24, 0x1D41
    3cb0:	88 23       	and	r24, r24
    3cb2:	29 f1       	breq	.+74     	; 0x3cfe <start_web_server+0x5a>
    3cb4:	80 e5       	ldi	r24, 0x50	; 80
    3cb6:	90 e0       	ldi	r25, 0x00	; 0
    3cb8:	90 93 9d 1d 	sts	0x1D9D, r25
    3cbc:	80 93 9c 1d 	sts	0x1D9C, r24
    3cc0:	86 e0       	ldi	r24, 0x06	; 6
    3cc2:	80 93 9e 1d 	sts	0x1D9E, r24
    3cc6:	80 e0       	ldi	r24, 0x00	; 0
    3cc8:	90 e0       	ldi	r25, 0x00	; 0
    3cca:	65 e8       	ldi	r22, 0x85	; 133
    3ccc:	72 e0       	ldi	r23, 0x02	; 2
    3cce:	0e 94 54 50 	call	0xa0a8	; 0xa0a8 <usart_xfprint>
    3cd2:	20 91 9e 1d 	lds	r18, 0x1D9E
    3cd6:	ef e6       	ldi	r30, 0x6F	; 111
    3cd8:	fd e1       	ldi	r31, 0x1D	; 29
    3cda:	c0 e0       	ldi	r28, 0x00	; 0
    3cdc:	d0 e0       	ldi	r29, 0x00	; 0
    3cde:	80 81       	ld	r24, Z
    3ce0:	91 81       	ldd	r25, Z+1	; 0x01
    3ce2:	89 2b       	or	r24, r25
    3ce4:	11 f4       	brne	.+4      	; 0x3cea <start_web_server+0x46>
    3ce6:	26 30       	cpi	r18, 0x06	; 6
    3ce8:	a9 f0       	breq	.+42     	; 0x3d14 <start_web_server+0x70>
    3cea:	21 96       	adiw	r28, 0x01	; 1
    3cec:	39 96       	adiw	r30, 0x09	; 9
    3cee:	c4 30       	cpi	r28, 0x04	; 4
    3cf0:	d1 05       	cpc	r29, r1
    3cf2:	a9 f7       	brne	.-22     	; 0x3cde <start_web_server+0x3a>
    3cf4:	df 91       	pop	r29
    3cf6:	cf 91       	pop	r28
    3cf8:	1f 91       	pop	r17
    3cfa:	0f 91       	pop	r16
    3cfc:	08 95       	ret
    3cfe:	80 e0       	ldi	r24, 0x00	; 0
    3d00:	90 e0       	ldi	r25, 0x00	; 0
    3d02:	66 e2       	ldi	r22, 0x26	; 38
    3d04:	74 e0       	ldi	r23, 0x04	; 4
    3d06:	0e 94 54 50 	call	0xa0a8	; 0xa0a8 <usart_xfprint>
    3d0a:	df 91       	pop	r29
    3d0c:	cf 91       	pop	r28
    3d0e:	1f 91       	pop	r17
    3d10:	0f 91       	pop	r16
    3d12:	08 95       	ret
    3d14:	20 91 9c 1d 	lds	r18, 0x1D9C
    3d18:	30 91 9d 1d 	lds	r19, 0x1D9D
    3d1c:	c0 93 94 1d 	sts	0x1D94, r28
    3d20:	fe 01       	movw	r30, r28
    3d22:	ee 0f       	add	r30, r30
    3d24:	ff 1f       	adc	r31, r31
    3d26:	ee 0f       	add	r30, r30
    3d28:	ff 1f       	adc	r31, r31
    3d2a:	ee 0f       	add	r30, r30
    3d2c:	ff 1f       	adc	r31, r31
    3d2e:	ec 0f       	add	r30, r28
    3d30:	fd 1f       	adc	r31, r29
    3d32:	ed 5b       	subi	r30, 0xBD	; 189
    3d34:	f2 4e       	sbci	r31, 0xE2	; 226
    3d36:	86 e0       	ldi	r24, 0x06	; 6
    3d38:	90 e0       	ldi	r25, 0x00	; 0
    3d3a:	97 a7       	std	Z+47, r25	; 0x2f
    3d3c:	86 a7       	std	Z+46, r24	; 0x2e
    3d3e:	33 ab       	std	Z+51, r19	; 0x33
    3d40:	22 ab       	std	Z+50, r18	; 0x32
    3d42:	01 e0       	ldi	r16, 0x01	; 1
    3d44:	10 e0       	ldi	r17, 0x00	; 0
    3d46:	15 a7       	std	Z+45, r17	; 0x2d
    3d48:	04 a7       	std	Z+44, r16	; 0x2c
    3d4a:	8c 2f       	mov	r24, r28
    3d4c:	0e 94 fd 1d 	call	0x3bfa	; 0x3bfa <gs_enable_activate_socket>
    3d50:	c0 93 42 1d 	sts	0x1D42, r28
    3d54:	80 e0       	ldi	r24, 0x00	; 0
    3d56:	90 e0       	ldi	r25, 0x00	; 0
    3d58:	6a e0       	ldi	r22, 0x0A	; 10
    3d5a:	74 e0       	ldi	r23, 0x04	; 4
    3d5c:	0e 94 54 50 	call	0xa0a8	; 0xa0a8 <usart_xfprint>
    3d60:	10 93 45 0a 	sts	0x0A45, r17
    3d64:	00 93 44 0a 	sts	0x0A44, r16
    3d68:	c5 cf       	rjmp	.-118    	; 0x3cf4 <start_web_server+0x50>

00003d6a <gs_activate_wireless_connection>:
    3d6a:	a0 e8       	ldi	r26, 0x80	; 128
    3d6c:	b0 e0       	ldi	r27, 0x00	; 0
    3d6e:	eb eb       	ldi	r30, 0xBB	; 187
    3d70:	fe e1       	ldi	r31, 0x1E	; 30
    3d72:	0c 94 96 53 	jmp	0xa72c	; 0xa72c <__prologue_saves__+0x14>
    3d76:	80 91 00 03 	lds	r24, 0x0300
    3d7a:	90 91 01 03 	lds	r25, 0x0301
    3d7e:	9a 83       	std	Y+2, r25	; 0x02
    3d80:	89 83       	std	Y+1, r24	; 0x01
    3d82:	fe 01       	movw	r30, r28
    3d84:	33 96       	adiw	r30, 0x03	; 3
    3d86:	8e e7       	ldi	r24, 0x7E	; 126
    3d88:	df 01       	movw	r26, r30
    3d8a:	1d 92       	st	X+, r1
    3d8c:	8a 95       	dec	r24
    3d8e:	e9 f7       	brne	.-6      	; 0x3d8a <gs_activate_wireless_connection+0x20>
    3d90:	80 91 43 1d 	lds	r24, 0x1D43
    3d94:	90 91 44 1d 	lds	r25, 0x1D44
    3d98:	66 e5       	ldi	r22, 0x56	; 86
    3d9a:	74 e0       	ldi	r23, 0x04	; 4
    3d9c:	0e 94 54 50 	call	0xa0a8	; 0xa0a8 <usart_xfprint>
    3da0:	19 82       	std	Y+1, r1	; 0x01
    3da2:	80 e0       	ldi	r24, 0x00	; 0
    3da4:	0e 94 3d 18 	call	0x307a	; 0x307a <gs_send_command>
    3da8:	7e 01       	movw	r14, r28
    3daa:	08 94       	sec
    3dac:	e1 1c       	adc	r14, r1
    3dae:	f1 1c       	adc	r15, r1
    3db0:	c7 01       	movw	r24, r14
    3db2:	6c e2       	ldi	r22, 0x2C	; 44
    3db4:	71 e0       	ldi	r23, 0x01	; 1
    3db6:	0e 94 ba 1b 	call	0x3774	; 0x3774 <gs_get_command_response>
    3dba:	c7 01       	movw	r24, r14
    3dbc:	0e 94 b2 17 	call	0x2f64	; 0x2f64 <gs_parse_command_response>
    3dc0:	bc 01       	movw	r22, r24
    3dc2:	80 e0       	ldi	r24, 0x00	; 0
    3dc4:	0e 94 9f 14 	call	0x293e	; 0x293e <gs_send_command_response_to_serial_terminal>
    3dc8:	19 82       	std	Y+1, r1	; 0x01
    3dca:	80 e0       	ldi	r24, 0x00	; 0
    3dcc:	0e 94 3d 18 	call	0x307a	; 0x307a <gs_send_command>
    3dd0:	c7 01       	movw	r24, r14
    3dd2:	6c e2       	ldi	r22, 0x2C	; 44
    3dd4:	71 e0       	ldi	r23, 0x01	; 1
    3dd6:	0e 94 ba 1b 	call	0x3774	; 0x3774 <gs_get_command_response>
    3dda:	c7 01       	movw	r24, r14
    3ddc:	0e 94 b2 17 	call	0x2f64	; 0x2f64 <gs_parse_command_response>
    3de0:	8c 01       	movw	r16, r24
    3de2:	80 e0       	ldi	r24, 0x00	; 0
    3de4:	b8 01       	movw	r22, r16
    3de6:	0e 94 9f 14 	call	0x293e	; 0x293e <gs_send_command_response_to_serial_terminal>
    3dea:	01 30       	cpi	r16, 0x01	; 1
    3dec:	11 05       	cpc	r17, r1
    3dee:	09 f4       	brne	.+2      	; 0x3df2 <gs_activate_wireless_connection+0x88>
    3df0:	7d c0       	rjmp	.+250    	; 0x3eec <gs_activate_wireless_connection+0x182>
    3df2:	cc 24       	eor	r12, r12
    3df4:	dd 24       	eor	r13, r13
    3df6:	d3 94       	inc	r13
    3df8:	19 82       	std	Y+1, r1	; 0x01
    3dfa:	81 e0       	ldi	r24, 0x01	; 1
    3dfc:	0e 94 3d 18 	call	0x307a	; 0x307a <gs_send_command>
    3e00:	c7 01       	movw	r24, r14
    3e02:	6c e2       	ldi	r22, 0x2C	; 44
    3e04:	71 e0       	ldi	r23, 0x01	; 1
    3e06:	0e 94 ba 1b 	call	0x3774	; 0x3774 <gs_get_command_response>
    3e0a:	c7 01       	movw	r24, r14
    3e0c:	0e 94 b2 17 	call	0x2f64	; 0x2f64 <gs_parse_command_response>
    3e10:	8c 01       	movw	r16, r24
    3e12:	81 e0       	ldi	r24, 0x01	; 1
    3e14:	b8 01       	movw	r22, r16
    3e16:	0e 94 9f 14 	call	0x293e	; 0x293e <gs_send_command_response_to_serial_terminal>
    3e1a:	01 30       	cpi	r16, 0x01	; 1
    3e1c:	11 05       	cpc	r17, r1
    3e1e:	09 f4       	brne	.+2      	; 0x3e22 <gs_activate_wireless_connection+0xb8>
    3e20:	63 c0       	rjmp	.+198    	; 0x3ee8 <gs_activate_wireless_connection+0x17e>
    3e22:	d3 94       	inc	r13
    3e24:	19 82       	std	Y+1, r1	; 0x01
    3e26:	8c e1       	ldi	r24, 0x1C	; 28
    3e28:	0e 94 3d 18 	call	0x307a	; 0x307a <gs_send_command>
    3e2c:	c7 01       	movw	r24, r14
    3e2e:	6c e2       	ldi	r22, 0x2C	; 44
    3e30:	71 e0       	ldi	r23, 0x01	; 1
    3e32:	0e 94 ba 1b 	call	0x3774	; 0x3774 <gs_get_command_response>
    3e36:	c7 01       	movw	r24, r14
    3e38:	0e 94 b2 17 	call	0x2f64	; 0x2f64 <gs_parse_command_response>
    3e3c:	8c 01       	movw	r16, r24
    3e3e:	8c e1       	ldi	r24, 0x1C	; 28
    3e40:	b8 01       	movw	r22, r16
    3e42:	0e 94 9f 14 	call	0x293e	; 0x293e <gs_send_command_response_to_serial_terminal>
    3e46:	01 30       	cpi	r16, 0x01	; 1
    3e48:	11 05       	cpc	r17, r1
    3e4a:	09 f4       	brne	.+2      	; 0x3e4e <gs_activate_wireless_connection+0xe4>
    3e4c:	4b c0       	rjmp	.+150    	; 0x3ee4 <gs_activate_wireless_connection+0x17a>
    3e4e:	d3 94       	inc	r13
    3e50:	19 82       	std	Y+1, r1	; 0x01
    3e52:	8b e0       	ldi	r24, 0x0B	; 11
    3e54:	0e 94 3d 18 	call	0x307a	; 0x307a <gs_send_command>
    3e58:	c7 01       	movw	r24, r14
    3e5a:	6c e2       	ldi	r22, 0x2C	; 44
    3e5c:	71 e0       	ldi	r23, 0x01	; 1
    3e5e:	0e 94 ba 1b 	call	0x3774	; 0x3774 <gs_get_command_response>
    3e62:	c7 01       	movw	r24, r14
    3e64:	0e 94 b2 17 	call	0x2f64	; 0x2f64 <gs_parse_command_response>
    3e68:	8c 01       	movw	r16, r24
    3e6a:	8b e0       	ldi	r24, 0x0B	; 11
    3e6c:	b8 01       	movw	r22, r16
    3e6e:	0e 94 9f 14 	call	0x293e	; 0x293e <gs_send_command_response_to_serial_terminal>
    3e72:	01 30       	cpi	r16, 0x01	; 1
    3e74:	11 05       	cpc	r17, r1
    3e76:	09 f4       	brne	.+2      	; 0x3e7a <gs_activate_wireless_connection+0x110>
    3e78:	9b c0       	rjmp	.+310    	; 0x3fb0 <gs_activate_wireless_connection+0x246>
    3e7a:	d3 94       	inc	r13
    3e7c:	19 82       	std	Y+1, r1	; 0x01
    3e7e:	89 e1       	ldi	r24, 0x19	; 25
    3e80:	0e 94 3d 18 	call	0x307a	; 0x307a <gs_send_command>
    3e84:	c7 01       	movw	r24, r14
    3e86:	6c e2       	ldi	r22, 0x2C	; 44
    3e88:	71 e0       	ldi	r23, 0x01	; 1
    3e8a:	0e 94 ba 1b 	call	0x3774	; 0x3774 <gs_get_command_response>
    3e8e:	c7 01       	movw	r24, r14
    3e90:	0e 94 b2 17 	call	0x2f64	; 0x2f64 <gs_parse_command_response>
    3e94:	8c 01       	movw	r16, r24
    3e96:	89 e1       	ldi	r24, 0x19	; 25
    3e98:	b8 01       	movw	r22, r16
    3e9a:	0e 94 9f 14 	call	0x293e	; 0x293e <gs_send_command_response_to_serial_terminal>
    3e9e:	01 30       	cpi	r16, 0x01	; 1
    3ea0:	11 05       	cpc	r17, r1
    3ea2:	41 f1       	breq	.+80     	; 0x3ef4 <gs_activate_wireless_connection+0x18a>
    3ea4:	d3 94       	inc	r13
    3ea6:	80 91 55 1d 	lds	r24, 0x1D55
    3eaa:	90 91 56 1d 	lds	r25, 0x1D56
    3eae:	02 97       	sbiw	r24, 0x02	; 2
    3eb0:	41 f1       	breq	.+80     	; 0x3f02 <gs_activate_wireless_connection+0x198>
    3eb2:	cc 20       	and	r12, r12
    3eb4:	a1 f0       	breq	.+40     	; 0x3ede <gs_activate_wireless_connection+0x174>
    3eb6:	dd 20       	and	r13, r13
    3eb8:	79 f4       	brne	.+30     	; 0x3ed8 <gs_activate_wireless_connection+0x16e>
    3eba:	01 e0       	ldi	r16, 0x01	; 1
    3ebc:	10 e0       	ldi	r17, 0x00	; 0
    3ebe:	c8 01       	movw	r24, r16
    3ec0:	0e 94 1c 14 	call	0x2838	; 0x2838 <gs_send_activation_status_to_serial_terminal>
    3ec4:	10 93 50 1d 	sts	0x1D50, r17
    3ec8:	00 93 4f 1d 	sts	0x1D4F, r16
    3ecc:	c8 01       	movw	r24, r16
    3ece:	c0 58       	subi	r28, 0x80	; 128
    3ed0:	df 4f       	sbci	r29, 0xFF	; 255
    3ed2:	e8 e0       	ldi	r30, 0x08	; 8
    3ed4:	0c 94 b2 53 	jmp	0xa764	; 0xa764 <__epilogue_restores__+0x14>
    3ed8:	02 e0       	ldi	r16, 0x02	; 2
    3eda:	10 e0       	ldi	r17, 0x00	; 0
    3edc:	f0 cf       	rjmp	.-32     	; 0x3ebe <gs_activate_wireless_connection+0x154>
    3ede:	00 e0       	ldi	r16, 0x00	; 0
    3ee0:	10 e0       	ldi	r17, 0x00	; 0
    3ee2:	ed cf       	rjmp	.-38     	; 0x3ebe <gs_activate_wireless_connection+0x154>
    3ee4:	c3 94       	inc	r12
    3ee6:	b4 cf       	rjmp	.-152    	; 0x3e50 <gs_activate_wireless_connection+0xe6>
    3ee8:	c3 94       	inc	r12
    3eea:	9c cf       	rjmp	.-200    	; 0x3e24 <gs_activate_wireless_connection+0xba>
    3eec:	cc 24       	eor	r12, r12
    3eee:	c3 94       	inc	r12
    3ef0:	dd 24       	eor	r13, r13
    3ef2:	82 cf       	rjmp	.-252    	; 0x3df8 <gs_activate_wireless_connection+0x8e>
    3ef4:	c3 94       	inc	r12
    3ef6:	80 91 55 1d 	lds	r24, 0x1D55
    3efa:	90 91 56 1d 	lds	r25, 0x1D56
    3efe:	02 97       	sbiw	r24, 0x02	; 2
    3f00:	c1 f6       	brne	.-80     	; 0x3eb2 <gs_activate_wireless_connection+0x148>
    3f02:	19 82       	std	Y+1, r1	; 0x01
    3f04:	8b e1       	ldi	r24, 0x1B	; 27
    3f06:	0e 94 3d 18 	call	0x307a	; 0x307a <gs_send_command>
    3f0a:	c7 01       	movw	r24, r14
    3f0c:	6c e2       	ldi	r22, 0x2C	; 44
    3f0e:	71 e0       	ldi	r23, 0x01	; 1
    3f10:	0e 94 ba 1b 	call	0x3774	; 0x3774 <gs_get_command_response>
    3f14:	c7 01       	movw	r24, r14
    3f16:	0e 94 b2 17 	call	0x2f64	; 0x2f64 <gs_parse_command_response>
    3f1a:	8c 01       	movw	r16, r24
    3f1c:	8b e1       	ldi	r24, 0x1B	; 27
    3f1e:	b8 01       	movw	r22, r16
    3f20:	0e 94 9f 14 	call	0x293e	; 0x293e <gs_send_command_response_to_serial_terminal>
    3f24:	01 30       	cpi	r16, 0x01	; 1
    3f26:	11 05       	cpc	r17, r1
    3f28:	09 f4       	brne	.+2      	; 0x3f2c <gs_activate_wireless_connection+0x1c2>
    3f2a:	44 c0       	rjmp	.+136    	; 0x3fb4 <gs_activate_wireless_connection+0x24a>
    3f2c:	d3 94       	inc	r13
    3f2e:	19 82       	std	Y+1, r1	; 0x01
    3f30:	89 e0       	ldi	r24, 0x09	; 9
    3f32:	0e 94 3d 18 	call	0x307a	; 0x307a <gs_send_command>
    3f36:	c7 01       	movw	r24, r14
    3f38:	6c e2       	ldi	r22, 0x2C	; 44
    3f3a:	71 e0       	ldi	r23, 0x01	; 1
    3f3c:	0e 94 ba 1b 	call	0x3774	; 0x3774 <gs_get_command_response>
    3f40:	c7 01       	movw	r24, r14
    3f42:	0e 94 b2 17 	call	0x2f64	; 0x2f64 <gs_parse_command_response>
    3f46:	8c 01       	movw	r16, r24
    3f48:	89 e0       	ldi	r24, 0x09	; 9
    3f4a:	b8 01       	movw	r22, r16
    3f4c:	0e 94 9f 14 	call	0x293e	; 0x293e <gs_send_command_response_to_serial_terminal>
    3f50:	01 30       	cpi	r16, 0x01	; 1
    3f52:	11 05       	cpc	r17, r1
    3f54:	99 f1       	breq	.+102    	; 0x3fbc <gs_activate_wireless_connection+0x252>
    3f56:	d3 94       	inc	r13
    3f58:	19 82       	std	Y+1, r1	; 0x01
    3f5a:	8a e0       	ldi	r24, 0x0A	; 10
    3f5c:	0e 94 3d 18 	call	0x307a	; 0x307a <gs_send_command>
    3f60:	c7 01       	movw	r24, r14
    3f62:	6c ed       	ldi	r22, 0xDC	; 220
    3f64:	75 e0       	ldi	r23, 0x05	; 5
    3f66:	0e 94 ba 1b 	call	0x3774	; 0x3774 <gs_get_command_response>
    3f6a:	c7 01       	movw	r24, r14
    3f6c:	0e 94 b2 17 	call	0x2f64	; 0x2f64 <gs_parse_command_response>
    3f70:	8c 01       	movw	r16, r24
    3f72:	8a e0       	ldi	r24, 0x0A	; 10
    3f74:	b8 01       	movw	r22, r16
    3f76:	0e 94 9f 14 	call	0x293e	; 0x293e <gs_send_command_response_to_serial_terminal>
    3f7a:	01 30       	cpi	r16, 0x01	; 1
    3f7c:	11 05       	cpc	r17, r1
    3f7e:	e1 f0       	breq	.+56     	; 0x3fb8 <gs_activate_wireless_connection+0x24e>
    3f80:	d3 94       	inc	r13
    3f82:	19 82       	std	Y+1, r1	; 0x01
    3f84:	8d e1       	ldi	r24, 0x1D	; 29
    3f86:	0e 94 3d 18 	call	0x307a	; 0x307a <gs_send_command>
    3f8a:	c7 01       	movw	r24, r14
    3f8c:	6c e2       	ldi	r22, 0x2C	; 44
    3f8e:	71 e0       	ldi	r23, 0x01	; 1
    3f90:	0e 94 ba 1b 	call	0x3774	; 0x3774 <gs_get_command_response>
    3f94:	c7 01       	movw	r24, r14
    3f96:	0e 94 b2 17 	call	0x2f64	; 0x2f64 <gs_parse_command_response>
    3f9a:	8c 01       	movw	r16, r24
    3f9c:	8d e1       	ldi	r24, 0x1D	; 29
    3f9e:	b8 01       	movw	r22, r16
    3fa0:	0e 94 9f 14 	call	0x293e	; 0x293e <gs_send_command_response_to_serial_terminal>
    3fa4:	01 30       	cpi	r16, 0x01	; 1
    3fa6:	11 05       	cpc	r17, r1
    3fa8:	09 f4       	brne	.+2      	; 0x3fac <gs_activate_wireless_connection+0x242>
    3faa:	85 cf       	rjmp	.-246    	; 0x3eb6 <gs_activate_wireless_connection+0x14c>
    3fac:	d3 94       	inc	r13
    3fae:	81 cf       	rjmp	.-254    	; 0x3eb2 <gs_activate_wireless_connection+0x148>
    3fb0:	c3 94       	inc	r12
    3fb2:	64 cf       	rjmp	.-312    	; 0x3e7c <gs_activate_wireless_connection+0x112>
    3fb4:	c3 94       	inc	r12
    3fb6:	bb cf       	rjmp	.-138    	; 0x3f2e <gs_activate_wireless_connection+0x1c4>
    3fb8:	c3 94       	inc	r12
    3fba:	e3 cf       	rjmp	.-58     	; 0x3f82 <gs_activate_wireless_connection+0x218>
    3fbc:	c3 94       	inc	r12
    3fbe:	cc cf       	rjmp	.-104    	; 0x3f58 <gs_activate_wireless_connection+0x1ee>

00003fc0 <gs_initialize_gainspan>:
    3fc0:	ef 92       	push	r14
    3fc2:	ff 92       	push	r15
    3fc4:	1f 93       	push	r17
    3fc6:	cf 93       	push	r28
    3fc8:	df 93       	push	r29
    3fca:	10 92 44 1d 	sts	0x1D44, r1
    3fce:	10 92 43 1d 	sts	0x1D43, r1
    3fd2:	20 e8       	ldi	r18, 0x80	; 128
    3fd4:	35 e2       	ldi	r19, 0x25	; 37
    3fd6:	40 e0       	ldi	r20, 0x00	; 0
    3fd8:	50 e0       	ldi	r21, 0x00	; 0
    3fda:	20 93 45 1d 	sts	0x1D45, r18
    3fde:	30 93 46 1d 	sts	0x1D46, r19
    3fe2:	40 93 47 1d 	sts	0x1D47, r20
    3fe6:	50 93 48 1d 	sts	0x1D48, r21
    3fea:	82 e0       	ldi	r24, 0x02	; 2
    3fec:	90 e0       	ldi	r25, 0x00	; 0
    3fee:	90 93 4a 1d 	sts	0x1D4A, r25
    3ff2:	80 93 49 1d 	sts	0x1D49, r24
    3ff6:	20 93 4b 1d 	sts	0x1D4B, r18
    3ffa:	30 93 4c 1d 	sts	0x1D4C, r19
    3ffe:	40 93 4d 1d 	sts	0x1D4D, r20
    4002:	50 93 4e 1d 	sts	0x1D4E, r21
    4006:	10 92 50 1d 	sts	0x1D50, r1
    400a:	10 92 4f 1d 	sts	0x1D4F, r1
    400e:	80 e8       	ldi	r24, 0x80	; 128
    4010:	90 e0       	ldi	r25, 0x00	; 0
    4012:	0e 94 48 28 	call	0x5090	; 0x5090 <pvPortMalloc>
    4016:	80 93 51 1d 	sts	0x1D51, r24
    401a:	90 93 52 1d 	sts	0x1D52, r25
    401e:	dc 01       	movw	r26, r24
    4020:	e6 e8       	ldi	r30, 0x86	; 134
    4022:	f4 e0       	ldi	r31, 0x04	; 4
    4024:	89 e0       	ldi	r24, 0x09	; 9
    4026:	01 90       	ld	r0, Z+
    4028:	0d 92       	st	X+, r0
    402a:	81 50       	subi	r24, 0x01	; 1
    402c:	e1 f7       	brne	.-8      	; 0x4026 <gs_initialize_gainspan+0x66>
    402e:	80 e8       	ldi	r24, 0x80	; 128
    4030:	90 e0       	ldi	r25, 0x00	; 0
    4032:	0e 94 48 28 	call	0x5090	; 0x5090 <pvPortMalloc>
    4036:	80 93 53 1d 	sts	0x1D53, r24
    403a:	90 93 54 1d 	sts	0x1D54, r25
    403e:	dc 01       	movw	r26, r24
    4040:	ef e8       	ldi	r30, 0x8F	; 143
    4042:	f4 e0       	ldi	r31, 0x04	; 4
    4044:	89 e0       	ldi	r24, 0x09	; 9
    4046:	01 90       	ld	r0, Z+
    4048:	0d 92       	st	X+, r0
    404a:	81 50       	subi	r24, 0x01	; 1
    404c:	e1 f7       	brne	.-8      	; 0x4046 <gs_initialize_gainspan+0x86>
    404e:	82 e0       	ldi	r24, 0x02	; 2
    4050:	90 e0       	ldi	r25, 0x00	; 0
    4052:	90 93 56 1d 	sts	0x1D56, r25
    4056:	80 93 55 1d 	sts	0x1D55, r24
    405a:	10 92 58 1d 	sts	0x1D58, r1
    405e:	10 92 57 1d 	sts	0x1D57, r1
    4062:	84 e0       	ldi	r24, 0x04	; 4
    4064:	90 e0       	ldi	r25, 0x00	; 0
    4066:	90 93 5a 1d 	sts	0x1D5A, r25
    406a:	80 93 59 1d 	sts	0x1D59, r24
    406e:	10 92 5c 1d 	sts	0x1D5C, r1
    4072:	10 92 5b 1d 	sts	0x1D5B, r1
    4076:	8b e0       	ldi	r24, 0x0B	; 11
    4078:	90 e0       	ldi	r25, 0x00	; 0
    407a:	90 93 5e 1d 	sts	0x1D5E, r25
    407e:	80 93 5d 1d 	sts	0x1D5D, r24
    4082:	8f e0       	ldi	r24, 0x0F	; 15
    4084:	90 e0       	ldi	r25, 0x00	; 0
    4086:	0e 94 48 28 	call	0x5090	; 0x5090 <pvPortMalloc>
    408a:	80 93 5f 1d 	sts	0x1D5F, r24
    408e:	90 93 60 1d 	sts	0x1D60, r25
    4092:	dc 01       	movw	r26, r24
    4094:	e8 e9       	ldi	r30, 0x98	; 152
    4096:	f4 e0       	ldi	r31, 0x04	; 4
    4098:	8c e0       	ldi	r24, 0x0C	; 12
    409a:	01 90       	ld	r0, Z+
    409c:	0d 92       	st	X+, r0
    409e:	81 50       	subi	r24, 0x01	; 1
    40a0:	e1 f7       	brne	.-8      	; 0x409a <gs_initialize_gainspan+0xda>
    40a2:	8f e0       	ldi	r24, 0x0F	; 15
    40a4:	90 e0       	ldi	r25, 0x00	; 0
    40a6:	0e 94 48 28 	call	0x5090	; 0x5090 <pvPortMalloc>
    40aa:	80 93 61 1d 	sts	0x1D61, r24
    40ae:	90 93 62 1d 	sts	0x1D62, r25
    40b2:	dc 01       	movw	r26, r24
    40b4:	e4 ea       	ldi	r30, 0xA4	; 164
    40b6:	f4 e0       	ldi	r31, 0x04	; 4
    40b8:	8e e0       	ldi	r24, 0x0E	; 14
    40ba:	01 90       	ld	r0, Z+
    40bc:	0d 92       	st	X+, r0
    40be:	81 50       	subi	r24, 0x01	; 1
    40c0:	e1 f7       	brne	.-8      	; 0x40ba <gs_initialize_gainspan+0xfa>
    40c2:	8f e0       	ldi	r24, 0x0F	; 15
    40c4:	90 e0       	ldi	r25, 0x00	; 0
    40c6:	0e 94 48 28 	call	0x5090	; 0x5090 <pvPortMalloc>
    40ca:	80 93 63 1d 	sts	0x1D63, r24
    40ce:	90 93 64 1d 	sts	0x1D64, r25
    40d2:	dc 01       	movw	r26, r24
    40d4:	e8 e9       	ldi	r30, 0x98	; 152
    40d6:	f4 e0       	ldi	r31, 0x04	; 4
    40d8:	8c e0       	ldi	r24, 0x0C	; 12
    40da:	01 90       	ld	r0, Z+
    40dc:	0d 92       	st	X+, r0
    40de:	81 50       	subi	r24, 0x01	; 1
    40e0:	e1 f7       	brne	.-8      	; 0x40da <gs_initialize_gainspan+0x11a>
    40e2:	86 e0       	ldi	r24, 0x06	; 6
    40e4:	90 e0       	ldi	r25, 0x00	; 0
    40e6:	90 93 66 1d 	sts	0x1D66, r25
    40ea:	80 93 65 1d 	sts	0x1D65, r24
    40ee:	80 e5       	ldi	r24, 0x50	; 80
    40f0:	90 e0       	ldi	r25, 0x00	; 0
    40f2:	90 93 68 1d 	sts	0x1D68, r25
    40f6:	80 93 67 1d 	sts	0x1D67, r24
    40fa:	81 e0       	ldi	r24, 0x01	; 1
    40fc:	80 93 69 1d 	sts	0x1D69, r24
    4100:	82 eb       	ldi	r24, 0xB2	; 178
    4102:	94 e0       	ldi	r25, 0x04	; 4
    4104:	90 93 6b 1d 	sts	0x1D6B, r25
    4108:	80 93 6a 1d 	sts	0x1D6A, r24
    410c:	88 eb       	ldi	r24, 0xB8	; 184
    410e:	94 e0       	ldi	r25, 0x04	; 4
    4110:	90 93 6d 1d 	sts	0x1D6D, r25
    4114:	80 93 6c 1d 	sts	0x1D6C, r24
    4118:	10 92 97 1d 	sts	0x1D97, r1
    411c:	10 92 96 1d 	sts	0x1D96, r1
    4120:	8f ef       	ldi	r24, 0xFF	; 255
    4122:	80 93 6e 1d 	sts	0x1D6E, r24
    4126:	cf e6       	ldi	r28, 0x6F	; 111
    4128:	dd e1       	ldi	r29, 0x1D	; 29
    412a:	e6 e0       	ldi	r30, 0x06	; 6
    412c:	ee 2e       	mov	r14, r30
    412e:	f1 2c       	mov	r15, r1
    4130:	1f ef       	ldi	r17, 0xFF	; 255
    4132:	8f e0       	ldi	r24, 0x0F	; 15
    4134:	90 e0       	ldi	r25, 0x00	; 0
    4136:	0e 94 48 28 	call	0x5090	; 0x5090 <pvPortMalloc>
    413a:	8c 83       	std	Y+4, r24	; 0x04
    413c:	9d 83       	std	Y+5, r25	; 0x05
    413e:	dc 01       	movw	r26, r24
    4140:	ec e6       	ldi	r30, 0x6C	; 108
    4142:	f3 e0       	ldi	r31, 0x03	; 3
    4144:	88 e0       	ldi	r24, 0x08	; 8
    4146:	01 90       	ld	r0, Z+
    4148:	0d 92       	st	X+, r0
    414a:	81 50       	subi	r24, 0x01	; 1
    414c:	e1 f7       	brne	.-8      	; 0x4146 <gs_initialize_gainspan+0x186>
    414e:	19 82       	std	Y+1, r1	; 0x01
    4150:	18 82       	st	Y, r1
    4152:	fb 82       	std	Y+3, r15	; 0x03
    4154:	ea 82       	std	Y+2, r14	; 0x02
    4156:	1f 82       	std	Y+7, r1	; 0x07
    4158:	1e 82       	std	Y+6, r1	; 0x06
    415a:	18 87       	std	Y+8, r17	; 0x08
    415c:	29 96       	adiw	r28, 0x09	; 9
    415e:	8d e1       	ldi	r24, 0x1D	; 29
    4160:	c3 39       	cpi	r28, 0x93	; 147
    4162:	d8 07       	cpc	r29, r24
    4164:	31 f7       	brne	.-52     	; 0x4132 <gs_initialize_gainspan+0x172>
    4166:	18 83       	st	Y, r17
    4168:	19 83       	std	Y+1, r17	; 0x01
    416a:	1a 83       	std	Y+2, r17	; 0x02
    416c:	10 92 97 1d 	sts	0x1D97, r1
    4170:	10 92 96 1d 	sts	0x1D96, r1
    4174:	81 e0       	ldi	r24, 0x01	; 1
    4176:	90 e0       	ldi	r25, 0x00	; 0
    4178:	9e 83       	std	Y+6, r25	; 0x06
    417a:	8d 83       	std	Y+5, r24	; 0x05
    417c:	df 91       	pop	r29
    417e:	cf 91       	pop	r28
    4180:	1f 91       	pop	r17
    4182:	ff 90       	pop	r15
    4184:	ef 90       	pop	r14
    4186:	08 95       	ret

00004188 <gs_initialize_module>:
    4188:	6f 92       	push	r6
    418a:	7f 92       	push	r7
    418c:	8f 92       	push	r8
    418e:	9f 92       	push	r9
    4190:	af 92       	push	r10
    4192:	bf 92       	push	r11
    4194:	cf 92       	push	r12
    4196:	df 92       	push	r13
    4198:	ef 92       	push	r14
    419a:	ff 92       	push	r15
    419c:	0f 93       	push	r16
    419e:	1f 93       	push	r17
    41a0:	4c 01       	movw	r8, r24
    41a2:	5a 01       	movw	r10, r20
    41a4:	6b 01       	movw	r12, r22
    41a6:	39 01       	movw	r6, r18
    41a8:	0e 94 e0 1f 	call	0x3fc0	; 0x3fc0 <gs_initialize_gainspan>
    41ac:	90 92 4a 1d 	sts	0x1D4A, r9
    41b0:	80 92 49 1d 	sts	0x1D49, r8
    41b4:	a0 92 4b 1d 	sts	0x1D4B, r10
    41b8:	b0 92 4c 1d 	sts	0x1D4C, r11
    41bc:	c0 92 4d 1d 	sts	0x1D4D, r12
    41c0:	d0 92 4e 1d 	sts	0x1D4E, r13
    41c4:	70 92 44 1d 	sts	0x1D44, r7
    41c8:	60 92 43 1d 	sts	0x1D43, r6
    41cc:	e0 92 45 1d 	sts	0x1D45, r14
    41d0:	f0 92 46 1d 	sts	0x1D46, r15
    41d4:	00 93 47 1d 	sts	0x1D47, r16
    41d8:	10 93 48 1d 	sts	0x1D48, r17
    41dc:	1f 91       	pop	r17
    41de:	0f 91       	pop	r16
    41e0:	ff 90       	pop	r15
    41e2:	ef 90       	pop	r14
    41e4:	df 90       	pop	r13
    41e6:	cf 90       	pop	r12
    41e8:	bf 90       	pop	r11
    41ea:	af 90       	pop	r10
    41ec:	9f 90       	pop	r9
    41ee:	8f 90       	pop	r8
    41f0:	7f 90       	pop	r7
    41f2:	6f 90       	pop	r6
    41f4:	08 95       	ret

000041f6 <gs_set_webserver_authentication>:
    41f6:	ef 92       	push	r14
    41f8:	ff 92       	push	r15
    41fa:	0f 93       	push	r16
    41fc:	1f 93       	push	r17
    41fe:	7b 01       	movw	r14, r22
    4200:	8c 01       	movw	r16, r24
    4202:	80 91 6a 1d 	lds	r24, 0x1D6A
    4206:	90 91 6b 1d 	lds	r25, 0x1D6B
    420a:	b7 01       	movw	r22, r14
    420c:	0e 94 40 08 	call	0x1080	; 0x1080 <strcpy>
    4210:	80 91 6c 1d 	lds	r24, 0x1D6C
    4214:	90 91 6d 1d 	lds	r25, 0x1D6D
    4218:	b8 01       	movw	r22, r16
    421a:	0e 94 40 08 	call	0x1080	; 0x1080 <strcpy>
    421e:	1f 91       	pop	r17
    4220:	0f 91       	pop	r16
    4222:	ff 90       	pop	r15
    4224:	ef 90       	pop	r14
    4226:	08 95       	ret

00004228 <gs_set_wireless_ssid>:
    4228:	bc 01       	movw	r22, r24
    422a:	80 91 51 1d 	lds	r24, 0x1D51
    422e:	90 91 52 1d 	lds	r25, 0x1D52
    4232:	0e 94 40 08 	call	0x1080	; 0x1080 <strcpy>
    4236:	08 95       	ret

00004238 <gs_set_wireless_configuration>:
    4238:	ae e0       	ldi	r26, 0x0E	; 14
    423a:	b0 e0       	ldi	r27, 0x00	; 0
    423c:	e2 e2       	ldi	r30, 0x22	; 34
    423e:	f1 e2       	ldi	r31, 0x21	; 33
    4240:	0c 94 90 53 	jmp	0xa720	; 0xa720 <__prologue_saves__+0x8>
    4244:	c9 82       	std	Y+1, r12	; 0x01
    4246:	da 82       	std	Y+2, r13	; 0x02
    4248:	eb 82       	std	Y+3, r14	; 0x03
    424a:	fc 82       	std	Y+4, r15	; 0x04
    424c:	0d 83       	std	Y+5, r16	; 0x05
    424e:	1e 83       	std	Y+6, r17	; 0x06
    4250:	2f 83       	std	Y+7, r18	; 0x07
    4252:	38 87       	std	Y+8, r19	; 0x08
    4254:	49 87       	std	Y+9, r20	; 0x09
    4256:	5a 87       	std	Y+10, r21	; 0x0a
    4258:	6b 87       	std	Y+11, r22	; 0x0b
    425a:	7c 87       	std	Y+12, r23	; 0x0c
    425c:	8d 87       	std	Y+13, r24	; 0x0d
    425e:	9e 87       	std	Y+14, r25	; 0x0e
    4260:	0b 81       	ldd	r16, Y+3	; 0x03
    4262:	1c 81       	ldd	r17, Y+4	; 0x04
    4264:	ed 80       	ldd	r14, Y+5	; 0x05
    4266:	fe 80       	ldd	r15, Y+6	; 0x06
    4268:	cf 80       	ldd	r12, Y+7	; 0x07
    426a:	d8 84       	ldd	r13, Y+8	; 0x08
    426c:	a9 84       	ldd	r10, Y+9	; 0x09
    426e:	ba 84       	ldd	r11, Y+10	; 0x0a
    4270:	8b 84       	ldd	r8, Y+11	; 0x0b
    4272:	9c 84       	ldd	r9, Y+12	; 0x0c
    4274:	6d 84       	ldd	r6, Y+13	; 0x0d
    4276:	7e 84       	ldd	r7, Y+14	; 0x0e
    4278:	69 81       	ldd	r22, Y+1	; 0x01
    427a:	7a 81       	ldd	r23, Y+2	; 0x02
    427c:	80 91 51 1d 	lds	r24, 0x1D51
    4280:	90 91 52 1d 	lds	r25, 0x1D52
    4284:	0e 94 40 08 	call	0x1080	; 0x1080 <strcpy>
    4288:	80 91 53 1d 	lds	r24, 0x1D53
    428c:	90 91 54 1d 	lds	r25, 0x1D54
    4290:	b8 01       	movw	r22, r16
    4292:	0e 94 40 08 	call	0x1080	; 0x1080 <strcpy>
    4296:	f0 92 56 1d 	sts	0x1D56, r15
    429a:	e0 92 55 1d 	sts	0x1D55, r14
    429e:	d0 92 58 1d 	sts	0x1D58, r13
    42a2:	c0 92 57 1d 	sts	0x1D57, r12
    42a6:	b0 92 5a 1d 	sts	0x1D5A, r11
    42aa:	a0 92 59 1d 	sts	0x1D59, r10
    42ae:	90 92 5c 1d 	sts	0x1D5C, r9
    42b2:	80 92 5b 1d 	sts	0x1D5B, r8
    42b6:	70 92 5e 1d 	sts	0x1D5E, r7
    42ba:	60 92 5d 1d 	sts	0x1D5D, r6
    42be:	2e 96       	adiw	r28, 0x0e	; 14
    42c0:	ee e0       	ldi	r30, 0x0E	; 14
    42c2:	0c 94 ac 53 	jmp	0xa758	; 0xa758 <__epilogue_restores__+0x8>

000042c6 <gs_set_network_configuration>:
    42c6:	a6 e0       	ldi	r26, 0x06	; 6
    42c8:	b0 e0       	ldi	r27, 0x00	; 0
    42ca:	e9 e6       	ldi	r30, 0x69	; 105
    42cc:	f1 e2       	ldi	r31, 0x21	; 33
    42ce:	0c 94 98 53 	jmp	0xa730	; 0xa730 <__prologue_saves__+0x18>
    42d2:	49 83       	std	Y+1, r20	; 0x01
    42d4:	5a 83       	std	Y+2, r21	; 0x02
    42d6:	6b 83       	std	Y+3, r22	; 0x03
    42d8:	7c 83       	std	Y+4, r23	; 0x04
    42da:	8d 83       	std	Y+5, r24	; 0x05
    42dc:	9e 83       	std	Y+6, r25	; 0x06
    42de:	0b 81       	ldd	r16, Y+3	; 0x03
    42e0:	1c 81       	ldd	r17, Y+4	; 0x04
    42e2:	ed 80       	ldd	r14, Y+5	; 0x05
    42e4:	fe 80       	ldd	r15, Y+6	; 0x06
    42e6:	69 81       	ldd	r22, Y+1	; 0x01
    42e8:	7a 81       	ldd	r23, Y+2	; 0x02
    42ea:	80 91 5f 1d 	lds	r24, 0x1D5F
    42ee:	90 91 60 1d 	lds	r25, 0x1D60
    42f2:	0e 94 40 08 	call	0x1080	; 0x1080 <strcpy>
    42f6:	80 91 61 1d 	lds	r24, 0x1D61
    42fa:	90 91 62 1d 	lds	r25, 0x1D62
    42fe:	b8 01       	movw	r22, r16
    4300:	0e 94 40 08 	call	0x1080	; 0x1080 <strcpy>
    4304:	80 91 63 1d 	lds	r24, 0x1D63
    4308:	90 91 64 1d 	lds	r25, 0x1D64
    430c:	b7 01       	movw	r22, r14
    430e:	0e 94 40 08 	call	0x1080	; 0x1080 <strcpy>
    4312:	26 96       	adiw	r28, 0x06	; 6
    4314:	e6 e0       	ldi	r30, 0x06	; 6
    4316:	0c 94 b4 53 	jmp	0xa768	; 0xa768 <__epilogue_restores__+0x18>

0000431a <add_element_choice>:
    431a:	0f 93       	push	r16
    431c:	1f 93       	push	r17
    431e:	cf 93       	push	r28
    4320:	df 93       	push	r29
    4322:	38 2f       	mov	r19, r24
    4324:	20 91 41 1d 	lds	r18, 0x1D41
    4328:	22 23       	and	r18, r18
    432a:	89 f1       	breq	.+98     	; 0x438e <add_element_choice+0x74>
    432c:	80 91 23 1d 	lds	r24, 0x1D23
    4330:	83 17       	cp	r24, r19
    4332:	11 f1       	breq	.+68     	; 0x4378 <add_element_choice+0x5e>
    4334:	e6 e2       	ldi	r30, 0x26	; 38
    4336:	fd e1       	ldi	r31, 0x1D	; 29
    4338:	90 e0       	ldi	r25, 0x00	; 0
    433a:	04 c0       	rjmp	.+8      	; 0x4344 <add_element_choice+0x2a>
    433c:	80 81       	ld	r24, Z
    433e:	33 96       	adiw	r30, 0x03	; 3
    4340:	83 17       	cp	r24, r19
    4342:	d1 f0       	breq	.+52     	; 0x4378 <add_element_choice+0x5e>
    4344:	9f 5f       	subi	r25, 0xFF	; 255
    4346:	92 17       	cp	r25, r18
    4348:	c8 f3       	brcs	.-14     	; 0x433c <add_element_choice+0x22>
    434a:	2b 30       	cpi	r18, 0x0B	; 11
    434c:	00 f1       	brcs	.+64     	; 0x438e <add_element_choice+0x74>
    434e:	80 e0       	ldi	r24, 0x00	; 0
    4350:	90 e0       	ldi	r25, 0x00	; 0
    4352:	67 e2       	ldi	r22, 0x27	; 39
    4354:	75 e0       	ldi	r23, 0x05	; 5
    4356:	0e 94 54 50 	call	0xa0a8	; 0xa0a8 <usart_xfprint>
    435a:	20 e5       	ldi	r18, 0x50	; 80
    435c:	33 ec       	ldi	r19, 0xC3	; 195
    435e:	40 e9       	ldi	r20, 0x90	; 144
    4360:	51 e0       	ldi	r21, 0x01	; 1
    4362:	ca 01       	movw	r24, r20
    4364:	01 97       	sbiw	r24, 0x01	; 1
    4366:	f1 f7       	brne	.-4      	; 0x4364 <add_element_choice+0x4a>
    4368:	21 50       	subi	r18, 0x01	; 1
    436a:	30 40       	sbci	r19, 0x00	; 0
    436c:	d1 f7       	brne	.-12     	; 0x4362 <add_element_choice+0x48>
    436e:	df 91       	pop	r29
    4370:	cf 91       	pop	r28
    4372:	1f 91       	pop	r17
    4374:	0f 91       	pop	r16
    4376:	08 95       	ret
    4378:	80 e0       	ldi	r24, 0x00	; 0
    437a:	90 e0       	ldi	r25, 0x00	; 0
    437c:	6e eb       	ldi	r22, 0xBE	; 190
    437e:	74 e0       	ldi	r23, 0x04	; 4
    4380:	0e 94 54 50 	call	0xa0a8	; 0xa0a8 <usart_xfprint>
    4384:	df 91       	pop	r29
    4386:	cf 91       	pop	r28
    4388:	1f 91       	pop	r17
    438a:	0f 91       	pop	r16
    438c:	08 95       	ret
    438e:	42 2f       	mov	r20, r18
    4390:	50 e0       	ldi	r21, 0x00	; 0
    4392:	8a 01       	movw	r16, r20
    4394:	00 0f       	add	r16, r16
    4396:	11 1f       	adc	r17, r17
    4398:	e8 01       	movw	r28, r16
    439a:	c4 0f       	add	r28, r20
    439c:	d5 1f       	adc	r29, r21
    439e:	c3 5e       	subi	r28, 0xE3	; 227
    43a0:	d2 4e       	sbci	r29, 0xE2	; 226
    43a2:	3e 83       	std	Y+6, r19	; 0x06
    43a4:	db 01       	movw	r26, r22
    43a6:	0d 90       	ld	r0, X+
    43a8:	00 20       	and	r0, r0
    43aa:	e9 f7       	brne	.-6      	; 0x43a6 <add_element_choice+0x8c>
    43ac:	11 97       	sbiw	r26, 0x01	; 1
    43ae:	a6 1b       	sub	r26, r22
    43b0:	b7 0b       	sbc	r27, r23
    43b2:	a8 32       	cpi	r26, 0x28	; 40
    43b4:	b1 05       	cpc	r27, r1
    43b6:	a8 f4       	brcc	.+42     	; 0x43e2 <add_element_choice+0xc8>
    43b8:	fb 01       	movw	r30, r22
    43ba:	80 81       	ld	r24, Z
    43bc:	88 23       	and	r24, r24
    43be:	81 f5       	brne	.+96     	; 0x4420 <add_element_choice+0x106>
    43c0:	f8 01       	movw	r30, r16
    43c2:	e4 0f       	add	r30, r20
    43c4:	f5 1f       	adc	r31, r21
    43c6:	e3 5e       	subi	r30, 0xE3	; 227
    43c8:	f2 4e       	sbci	r31, 0xE2	; 226
    43ca:	27 81       	ldd	r18, Z+7	; 0x07
    43cc:	30 85       	ldd	r19, Z+8	; 0x08
    43ce:	c9 01       	movw	r24, r18
    43d0:	dc 01       	movw	r26, r24
    43d2:	e9 ef       	ldi	r30, 0xF9	; 249
    43d4:	f4 e0       	ldi	r31, 0x04	; 4
    43d6:	8e e0       	ldi	r24, 0x0E	; 14
    43d8:	01 90       	ld	r0, Z+
    43da:	0d 92       	st	X+, r0
    43dc:	81 50       	subi	r24, 0x01	; 1
    43de:	e1 f7       	brne	.-8      	; 0x43d8 <add_element_choice+0xbe>
    43e0:	0a c0       	rjmp	.+20     	; 0x43f6 <add_element_choice+0xdc>
    43e2:	fb 01       	movw	r30, r22
    43e4:	80 81       	ld	r24, Z
    43e6:	88 23       	and	r24, r24
    43e8:	59 f3       	breq	.-42     	; 0x43c0 <add_element_choice+0xa6>
    43ea:	8f 81       	ldd	r24, Y+7	; 0x07
    43ec:	98 85       	ldd	r25, Y+8	; 0x08
    43ee:	48 e2       	ldi	r20, 0x28	; 40
    43f0:	50 e0       	ldi	r21, 0x00	; 0
    43f2:	0e 94 65 08 	call	0x10ca	; 0x10ca <strncpy>
    43f6:	80 91 41 1d 	lds	r24, 0x1D41
    43fa:	8f 5f       	subi	r24, 0xFF	; 255
    43fc:	80 93 41 1d 	sts	0x1D41, r24
    4400:	8b 30       	cpi	r24, 0x0B	; 11
    4402:	18 f0       	brcs	.+6      	; 0x440a <add_element_choice+0xf0>
    4404:	8a e0       	ldi	r24, 0x0A	; 10
    4406:	80 93 41 1d 	sts	0x1D41, r24
    440a:	80 e0       	ldi	r24, 0x00	; 0
    440c:	90 e0       	ldi	r25, 0x00	; 0
    440e:	67 e0       	ldi	r22, 0x07	; 7
    4410:	75 e0       	ldi	r23, 0x05	; 5
    4412:	0e 94 54 50 	call	0xa0a8	; 0xa0a8 <usart_xfprint>
    4416:	df 91       	pop	r29
    4418:	cf 91       	pop	r28
    441a:	1f 91       	pop	r17
    441c:	0f 91       	pop	r16
    441e:	08 95       	ret
    4420:	8f 81       	ldd	r24, Y+7	; 0x07
    4422:	98 85       	ldd	r25, Y+8	; 0x08
    4424:	ad 01       	movw	r20, r26
    4426:	0e 94 65 08 	call	0x10ca	; 0x10ca <strncpy>
    442a:	e5 cf       	rjmp	.-54     	; 0x43f6 <add_element_choice+0xdc>

0000442c <configure_web_page>:
    442c:	8f 92       	push	r8
    442e:	9f 92       	push	r9
    4430:	af 92       	push	r10
    4432:	bf 92       	push	r11
    4434:	cf 92       	push	r12
    4436:	df 92       	push	r13
    4438:	ff 92       	push	r15
    443a:	0f 93       	push	r16
    443c:	1f 93       	push	r17
    443e:	cf 93       	push	r28
    4440:	df 93       	push	r29
    4442:	6c 01       	movw	r12, r24
    4444:	5b 01       	movw	r10, r22
    4446:	4a 01       	movw	r8, r20
    4448:	80 e8       	ldi	r24, 0x80	; 128
    444a:	90 e0       	ldi	r25, 0x00	; 0
    444c:	0e 94 48 28 	call	0x5090	; 0x5090 <pvPortMalloc>
    4450:	fc 01       	movw	r30, r24
    4452:	90 93 1e 1d 	sts	0x1D1E, r25
    4456:	80 93 1d 1d 	sts	0x1D1D, r24
    445a:	10 82       	st	Z, r1
    445c:	80 e8       	ldi	r24, 0x80	; 128
    445e:	90 e0       	ldi	r25, 0x00	; 0
    4460:	0e 94 48 28 	call	0x5090	; 0x5090 <pvPortMalloc>
    4464:	fc 01       	movw	r30, r24
    4466:	90 93 20 1d 	sts	0x1D20, r25
    446a:	80 93 1f 1d 	sts	0x1D1F, r24
    446e:	10 82       	st	Z, r1
    4470:	10 92 22 1d 	sts	0x1D22, r1
    4474:	10 92 21 1d 	sts	0x1D21, r1
    4478:	c3 e2       	ldi	r28, 0x23	; 35
    447a:	dd e1       	ldi	r29, 0x1D	; 29
    447c:	a0 e2       	ldi	r26, 0x20	; 32
    447e:	fa 2e       	mov	r15, r26
    4480:	00 e2       	ldi	r16, 0x20	; 32
    4482:	10 e0       	ldi	r17, 0x00	; 0
    4484:	f8 82       	st	Y, r15
    4486:	88 e2       	ldi	r24, 0x28	; 40
    4488:	90 e0       	ldi	r25, 0x00	; 0
    448a:	0e 94 48 28 	call	0x5090	; 0x5090 <pvPortMalloc>
    448e:	fc 01       	movw	r30, r24
    4490:	9a 83       	std	Y+2, r25	; 0x02
    4492:	89 83       	std	Y+1, r24	; 0x01
    4494:	11 83       	std	Z+1, r17	; 0x01
    4496:	00 83       	st	Z, r16
    4498:	23 96       	adiw	r28, 0x03	; 3
    449a:	8d e1       	ldi	r24, 0x1D	; 29
    449c:	c1 34       	cpi	r28, 0x41	; 65
    449e:	d8 07       	cpc	r29, r24
    44a0:	89 f7       	brne	.-30     	; 0x4484 <configure_web_page+0x58>
    44a2:	18 82       	st	Y, r1
    44a4:	8a e0       	ldi	r24, 0x0A	; 10
    44a6:	90 e0       	ldi	r25, 0x00	; 0
    44a8:	0e 94 48 28 	call	0x5090	; 0x5090 <pvPortMalloc>
    44ac:	fc 01       	movw	r30, r24
    44ae:	90 93 9b 1d 	sts	0x1D9B, r25
    44b2:	80 93 9a 1d 	sts	0x1D9A, r24
    44b6:	10 82       	st	Z, r1
    44b8:	e2 e0       	ldi	r30, 0x02	; 2
    44ba:	8e 16       	cp	r8, r30
    44bc:	91 04       	cpc	r9, r1
    44be:	08 f4       	brcc	.+2      	; 0x44c2 <configure_web_page+0x96>
    44c0:	75 c0       	rjmp	.+234    	; 0x45ac <configure_web_page+0x180>
    44c2:	10 92 22 1d 	sts	0x1D22, r1
    44c6:	10 92 21 1d 	sts	0x1D21, r1
    44ca:	d6 01       	movw	r26, r12
    44cc:	0d 90       	ld	r0, X+
    44ce:	00 20       	and	r0, r0
    44d0:	e9 f7       	brne	.-6      	; 0x44cc <configure_web_page+0xa0>
    44d2:	11 97       	sbiw	r26, 0x01	; 1
    44d4:	ac 19       	sub	r26, r12
    44d6:	bd 09       	sbc	r27, r13
    44d8:	a0 38       	cpi	r26, 0x80	; 128
    44da:	b1 05       	cpc	r27, r1
    44dc:	98 f4       	brcc	.+38     	; 0x4504 <configure_web_page+0xd8>
    44de:	f6 01       	movw	r30, r12
    44e0:	80 81       	ld	r24, Z
    44e2:	88 23       	and	r24, r24
    44e4:	09 f0       	breq	.+2      	; 0x44e8 <configure_web_page+0xbc>
    44e6:	67 c0       	rjmp	.+206    	; 0x45b6 <configure_web_page+0x18a>
    44e8:	80 91 1d 1d 	lds	r24, 0x1D1D
    44ec:	90 91 1e 1d 	lds	r25, 0x1D1E
    44f0:	9c 01       	movw	r18, r24
    44f2:	d9 01       	movw	r26, r18
    44f4:	eb e5       	ldi	r30, 0x5B	; 91
    44f6:	f5 e0       	ldi	r31, 0x05	; 5
    44f8:	80 e1       	ldi	r24, 0x10	; 16
    44fa:	01 90       	ld	r0, Z+
    44fc:	0d 92       	st	X+, r0
    44fe:	81 50       	subi	r24, 0x01	; 1
    4500:	e1 f7       	brne	.-8      	; 0x44fa <configure_web_page+0xce>
    4502:	0d c0       	rjmp	.+26     	; 0x451e <configure_web_page+0xf2>
    4504:	f6 01       	movw	r30, r12
    4506:	80 81       	ld	r24, Z
    4508:	88 23       	and	r24, r24
    450a:	71 f3       	breq	.-36     	; 0x44e8 <configure_web_page+0xbc>
    450c:	80 91 1d 1d 	lds	r24, 0x1D1D
    4510:	90 91 1e 1d 	lds	r25, 0x1D1E
    4514:	b6 01       	movw	r22, r12
    4516:	40 e8       	ldi	r20, 0x80	; 128
    4518:	50 e0       	ldi	r21, 0x00	; 0
    451a:	0e 94 65 08 	call	0x10ca	; 0x10ca <strncpy>
    451e:	d5 01       	movw	r26, r10
    4520:	0d 90       	ld	r0, X+
    4522:	00 20       	and	r0, r0
    4524:	e9 f7       	brne	.-6      	; 0x4520 <configure_web_page+0xf4>
    4526:	11 97       	sbiw	r26, 0x01	; 1
    4528:	aa 19       	sub	r26, r10
    452a:	bb 09       	sbc	r27, r11
    452c:	a0 38       	cpi	r26, 0x80	; 128
    452e:	b1 05       	cpc	r27, r1
    4530:	78 f5       	brcc	.+94     	; 0x4590 <configure_web_page+0x164>
    4532:	f5 01       	movw	r30, r10
    4534:	80 81       	ld	r24, Z
    4536:	88 23       	and	r24, r24
    4538:	09 f0       	breq	.+2      	; 0x453c <configure_web_page+0x110>
    453a:	46 c0       	rjmp	.+140    	; 0x45c8 <configure_web_page+0x19c>
    453c:	80 91 1f 1d 	lds	r24, 0x1D1F
    4540:	90 91 20 1d 	lds	r25, 0x1D20
    4544:	9c 01       	movw	r18, r24
    4546:	d9 01       	movw	r26, r18
    4548:	eb e6       	ldi	r30, 0x6B	; 107
    454a:	f5 e0       	ldi	r31, 0x05	; 5
    454c:	8d e0       	ldi	r24, 0x0D	; 13
    454e:	01 90       	ld	r0, Z+
    4550:	0d 92       	st	X+, r0
    4552:	81 50       	subi	r24, 0x01	; 1
    4554:	e1 f7       	brne	.-8      	; 0x454e <configure_web_page+0x122>
    4556:	10 92 41 1d 	sts	0x1D41, r1
    455a:	e0 91 9a 1d 	lds	r30, 0x1D9A
    455e:	f0 91 9b 1d 	lds	r31, 0x1D9B
    4562:	10 82       	st	Z, r1
    4564:	10 92 42 0a 	sts	0x0A42, r1
    4568:	10 92 43 0a 	sts	0x0A43, r1
    456c:	80 e0       	ldi	r24, 0x00	; 0
    456e:	90 e0       	ldi	r25, 0x00	; 0
    4570:	68 e7       	ldi	r22, 0x78	; 120
    4572:	75 e0       	ldi	r23, 0x05	; 5
    4574:	0e 94 54 50 	call	0xa0a8	; 0xa0a8 <usart_xfprint>
    4578:	df 91       	pop	r29
    457a:	cf 91       	pop	r28
    457c:	1f 91       	pop	r17
    457e:	0f 91       	pop	r16
    4580:	ff 90       	pop	r15
    4582:	df 90       	pop	r13
    4584:	cf 90       	pop	r12
    4586:	bf 90       	pop	r11
    4588:	af 90       	pop	r10
    458a:	9f 90       	pop	r9
    458c:	8f 90       	pop	r8
    458e:	08 95       	ret
    4590:	f5 01       	movw	r30, r10
    4592:	80 81       	ld	r24, Z
    4594:	88 23       	and	r24, r24
    4596:	91 f2       	breq	.-92     	; 0x453c <configure_web_page+0x110>
    4598:	80 91 1f 1d 	lds	r24, 0x1D1F
    459c:	90 91 20 1d 	lds	r25, 0x1D20
    45a0:	b5 01       	movw	r22, r10
    45a2:	40 e8       	ldi	r20, 0x80	; 128
    45a4:	50 e0       	ldi	r21, 0x00	; 0
    45a6:	0e 94 65 08 	call	0x10ca	; 0x10ca <strncpy>
    45aa:	d5 cf       	rjmp	.-86     	; 0x4556 <configure_web_page+0x12a>
    45ac:	90 92 22 1d 	sts	0x1D22, r9
    45b0:	80 92 21 1d 	sts	0x1D21, r8
    45b4:	8a cf       	rjmp	.-236    	; 0x44ca <configure_web_page+0x9e>
    45b6:	80 91 1d 1d 	lds	r24, 0x1D1D
    45ba:	90 91 1e 1d 	lds	r25, 0x1D1E
    45be:	b6 01       	movw	r22, r12
    45c0:	ad 01       	movw	r20, r26
    45c2:	0e 94 65 08 	call	0x10ca	; 0x10ca <strncpy>
    45c6:	ab cf       	rjmp	.-170    	; 0x451e <configure_web_page+0xf2>
    45c8:	80 91 1f 1d 	lds	r24, 0x1D1F
    45cc:	90 91 20 1d 	lds	r25, 0x1D20
    45d0:	b5 01       	movw	r22, r10
    45d2:	ad 01       	movw	r20, r26
    45d4:	0e 94 65 08 	call	0x10ca	; 0x10ca <strncpy>
    45d8:	be cf       	rjmp	.-132    	; 0x4556 <configure_web_page+0x12a>

000045da <gs_write_data_to_socket>:
    45da:	a0 e8       	ldi	r26, 0x80	; 128
    45dc:	b0 e0       	ldi	r27, 0x00	; 0
    45de:	e3 ef       	ldi	r30, 0xF3	; 243
    45e0:	f2 e2       	ldi	r31, 0x22	; 34
    45e2:	0c 94 96 53 	jmp	0xa72c	; 0xa72c <__prologue_saves__+0x14>
    45e6:	18 2f       	mov	r17, r24
    45e8:	7b 01       	movw	r14, r22
    45ea:	6e 01       	movw	r12, r28
    45ec:	08 94       	sec
    45ee:	c1 1c       	adc	r12, r1
    45f0:	d1 1c       	adc	r13, r1
    45f2:	c6 01       	movw	r24, r12
    45f4:	60 e2       	ldi	r22, 0x20	; 32
    45f6:	70 e0       	ldi	r23, 0x00	; 0
    45f8:	40 e8       	ldi	r20, 0x80	; 128
    45fa:	50 e0       	ldi	r21, 0x00	; 0
    45fc:	0e 94 2e 08 	call	0x105c	; 0x105c <memset>
    4600:	19 82       	std	Y+1, r1	; 0x01
    4602:	d7 01       	movw	r26, r14
    4604:	8c 91       	ld	r24, X
    4606:	88 23       	and	r24, r24
    4608:	a1 f0       	breq	.+40     	; 0x4632 <gs_write_data_to_socket+0x58>
    460a:	8d 30       	cpi	r24, 0x0D	; 13
    460c:	91 f0       	breq	.+36     	; 0x4632 <gs_write_data_to_socket+0x58>
    460e:	81 2f       	mov	r24, r17
    4610:	90 e0       	ldi	r25, 0x00	; 0
    4612:	8c 01       	movw	r16, r24
    4614:	00 0f       	add	r16, r16
    4616:	11 1f       	adc	r17, r17
    4618:	00 0f       	add	r16, r16
    461a:	11 1f       	adc	r17, r17
    461c:	00 0f       	add	r16, r16
    461e:	11 1f       	adc	r17, r17
    4620:	08 0f       	add	r16, r24
    4622:	19 1f       	adc	r17, r25
    4624:	0d 5b       	subi	r16, 0xBD	; 189
    4626:	12 4e       	sbci	r17, 0xE2	; 226
    4628:	f8 01       	movw	r30, r16
    462a:	86 a5       	ldd	r24, Z+46	; 0x2e
    462c:	97 a5       	ldd	r25, Z+47	; 0x2f
    462e:	06 97       	sbiw	r24, 0x06	; 6
    4630:	79 f0       	breq	.+30     	; 0x4650 <gs_write_data_to_socket+0x76>
    4632:	2c ed       	ldi	r18, 0xDC	; 220
    4634:	35 e0       	ldi	r19, 0x05	; 5
    4636:	40 e9       	ldi	r20, 0x90	; 144
    4638:	51 e0       	ldi	r21, 0x01	; 1
    463a:	ca 01       	movw	r24, r20
    463c:	01 97       	sbiw	r24, 0x01	; 1
    463e:	f1 f7       	brne	.-4      	; 0x463c <gs_write_data_to_socket+0x62>
    4640:	21 50       	subi	r18, 0x01	; 1
    4642:	30 40       	sbci	r19, 0x00	; 0
    4644:	d1 f7       	brne	.-12     	; 0x463a <gs_write_data_to_socket+0x60>
    4646:	c0 58       	subi	r28, 0x80	; 128
    4648:	df 4f       	sbci	r29, 0xFF	; 255
    464a:	e8 e0       	ldi	r30, 0x08	; 8
    464c:	0c 94 b2 53 	jmp	0xa764	; 0xa764 <__epilogue_restores__+0x14>
    4650:	8b e1       	ldi	r24, 0x1B	; 27
    4652:	90 e0       	ldi	r25, 0x00	; 0
    4654:	9a 83       	std	Y+2, r25	; 0x02
    4656:	89 83       	std	Y+1, r24	; 0x01
    4658:	80 91 49 1d 	lds	r24, 0x1D49
    465c:	90 91 4a 1d 	lds	r25, 0x1D4A
    4660:	b6 01       	movw	r22, r12
    4662:	0e 94 54 50 	call	0xa0a8	; 0xa0a8 <usart_xfprint>
    4666:	83 e5       	ldi	r24, 0x53	; 83
    4668:	90 e0       	ldi	r25, 0x00	; 0
    466a:	9a 83       	std	Y+2, r25	; 0x02
    466c:	89 83       	std	Y+1, r24	; 0x01
    466e:	80 91 49 1d 	lds	r24, 0x1D49
    4672:	90 91 4a 1d 	lds	r25, 0x1D4A
    4676:	b6 01       	movw	r22, r12
    4678:	0e 94 54 50 	call	0xa0a8	; 0xa0a8 <usart_xfprint>
    467c:	00 d0       	rcall	.+0      	; 0x467e <gs_write_data_to_socket+0xa4>
    467e:	00 d0       	rcall	.+0      	; 0x4680 <gs_write_data_to_socket+0xa6>
    4680:	ed b7       	in	r30, 0x3d	; 61
    4682:	fe b7       	in	r31, 0x3e	; 62
    4684:	31 96       	adiw	r30, 0x01	; 1
    4686:	ad b7       	in	r26, 0x3d	; 61
    4688:	be b7       	in	r27, 0x3e	; 62
    468a:	12 96       	adiw	r26, 0x02	; 2
    468c:	dc 92       	st	X, r13
    468e:	ce 92       	st	-X, r12
    4690:	11 97       	sbiw	r26, 0x01	; 1
    4692:	89 e6       	ldi	r24, 0x69	; 105
    4694:	93 e0       	ldi	r25, 0x03	; 3
    4696:	93 83       	std	Z+3, r25	; 0x03
    4698:	82 83       	std	Z+2, r24	; 0x02
    469a:	d8 01       	movw	r26, r16
    469c:	d4 96       	adiw	r26, 0x34	; 52
    469e:	8c 91       	ld	r24, X
    46a0:	84 83       	std	Z+4, r24	; 0x04
    46a2:	15 82       	std	Z+5, r1	; 0x05
    46a4:	0e 94 c5 08 	call	0x118a	; 0x118a <sprintf>
    46a8:	ed b7       	in	r30, 0x3d	; 61
    46aa:	fe b7       	in	r31, 0x3e	; 62
    46ac:	36 96       	adiw	r30, 0x06	; 6
    46ae:	0f b6       	in	r0, 0x3f	; 63
    46b0:	f8 94       	cli
    46b2:	fe bf       	out	0x3e, r31	; 62
    46b4:	0f be       	out	0x3f, r0	; 63
    46b6:	ed bf       	out	0x3d, r30	; 61
    46b8:	80 91 49 1d 	lds	r24, 0x1D49
    46bc:	90 91 4a 1d 	lds	r25, 0x1D4A
    46c0:	b6 01       	movw	r22, r12
    46c2:	0e 94 54 50 	call	0xa0a8	; 0xa0a8 <usart_xfprint>
    46c6:	f7 01       	movw	r30, r14
    46c8:	01 90       	ld	r0, Z+
    46ca:	00 20       	and	r0, r0
    46cc:	e9 f7       	brne	.-6      	; 0x46c8 <gs_write_data_to_socket+0xee>
    46ce:	32 97       	sbiw	r30, 0x02	; 2
    46d0:	ee 15       	cp	r30, r14
    46d2:	ff 05       	cpc	r31, r15
    46d4:	79 f4       	brne	.+30     	; 0x46f4 <gs_write_data_to_socket+0x11a>
    46d6:	d7 01       	movw	r26, r14
    46d8:	8c 91       	ld	r24, X
    46da:	8d 30       	cpi	r24, 0x0D	; 13
    46dc:	b1 f0       	breq	.+44     	; 0x470a <gs_write_data_to_socket+0x130>
    46de:	8a 30       	cpi	r24, 0x0A	; 10
    46e0:	69 f5       	brne	.+90     	; 0x473c <gs_write_data_to_socket+0x162>
    46e2:	d6 01       	movw	r26, r12
    46e4:	eb ef       	ldi	r30, 0xFB	; 251
    46e6:	f3 e0       	ldi	r31, 0x03	; 3
    46e8:	83 e0       	ldi	r24, 0x03	; 3
    46ea:	01 90       	ld	r0, Z+
    46ec:	0d 92       	st	X+, r0
    46ee:	81 50       	subi	r24, 0x01	; 1
    46f0:	e1 f7       	brne	.-8      	; 0x46ea <gs_write_data_to_socket+0x110>
    46f2:	04 c0       	rjmp	.+8      	; 0x46fc <gs_write_data_to_socket+0x122>
    46f4:	c6 01       	movw	r24, r12
    46f6:	b7 01       	movw	r22, r14
    46f8:	0e 94 40 08 	call	0x1080	; 0x1080 <strcpy>
    46fc:	80 91 49 1d 	lds	r24, 0x1D49
    4700:	90 91 4a 1d 	lds	r25, 0x1D4A
    4704:	b6 01       	movw	r22, r12
    4706:	0e 94 54 50 	call	0xa0a8	; 0xa0a8 <usart_xfprint>
    470a:	8b e1       	ldi	r24, 0x1B	; 27
    470c:	90 e0       	ldi	r25, 0x00	; 0
    470e:	9a 83       	std	Y+2, r25	; 0x02
    4710:	89 83       	std	Y+1, r24	; 0x01
    4712:	80 91 49 1d 	lds	r24, 0x1D49
    4716:	90 91 4a 1d 	lds	r25, 0x1D4A
    471a:	b6 01       	movw	r22, r12
    471c:	0e 94 54 50 	call	0xa0a8	; 0xa0a8 <usart_xfprint>
    4720:	85 e4       	ldi	r24, 0x45	; 69
    4722:	90 e0       	ldi	r25, 0x00	; 0
    4724:	9a 83       	std	Y+2, r25	; 0x02
    4726:	89 83       	std	Y+1, r24	; 0x01
    4728:	80 91 49 1d 	lds	r24, 0x1D49
    472c:	90 91 4a 1d 	lds	r25, 0x1D4A
    4730:	b6 01       	movw	r22, r12
    4732:	0e 94 54 50 	call	0xa0a8	; 0xa0a8 <usart_xfprint>
    4736:	2c ed       	ldi	r18, 0xDC	; 220
    4738:	35 e0       	ldi	r19, 0x05	; 5
    473a:	7d cf       	rjmp	.-262    	; 0x4636 <gs_write_data_to_socket+0x5c>
    473c:	00 d0       	rcall	.+0      	; 0x473e <gs_write_data_to_socket+0x164>
    473e:	00 d0       	rcall	.+0      	; 0x4740 <gs_write_data_to_socket+0x166>
    4740:	ed b7       	in	r30, 0x3d	; 61
    4742:	fe b7       	in	r31, 0x3e	; 62
    4744:	31 96       	adiw	r30, 0x01	; 1
    4746:	ad b7       	in	r26, 0x3d	; 61
    4748:	be b7       	in	r27, 0x3e	; 62
    474a:	12 96       	adiw	r26, 0x02	; 2
    474c:	dc 92       	st	X, r13
    474e:	ce 92       	st	-X, r12
    4750:	11 97       	sbiw	r26, 0x01	; 1
    4752:	81 eb       	ldi	r24, 0xB1	; 177
    4754:	93 e0       	ldi	r25, 0x03	; 3
    4756:	93 83       	std	Z+3, r25	; 0x03
    4758:	82 83       	std	Z+2, r24	; 0x02
    475a:	f5 82       	std	Z+5, r15	; 0x05
    475c:	e4 82       	std	Z+4, r14	; 0x04
    475e:	0e 94 c5 08 	call	0x118a	; 0x118a <sprintf>
    4762:	ed b7       	in	r30, 0x3d	; 61
    4764:	fe b7       	in	r31, 0x3e	; 62
    4766:	36 96       	adiw	r30, 0x06	; 6
    4768:	0f b6       	in	r0, 0x3f	; 63
    476a:	f8 94       	cli
    476c:	fe bf       	out	0x3e, r31	; 62
    476e:	0f be       	out	0x3f, r0	; 63
    4770:	ed bf       	out	0x3d, r30	; 61
    4772:	80 91 49 1d 	lds	r24, 0x1D49
    4776:	90 91 4a 1d 	lds	r25, 0x1D4A
    477a:	b6 01       	movw	r22, r12
    477c:	0e 94 54 50 	call	0xa0a8	; 0xa0a8 <usart_xfprint>
    4780:	c4 cf       	rjmp	.-120    	; 0x470a <gs_write_data_to_socket+0x130>

00004782 <process_client_request>:
    4782:	a0 e8       	ldi	r26, 0x80	; 128
    4784:	b1 e0       	ldi	r27, 0x01	; 1
    4786:	e7 ec       	ldi	r30, 0xC7	; 199
    4788:	f3 e2       	ldi	r31, 0x23	; 35
    478a:	0c 94 94 53 	jmp	0xa728	; 0xa728 <__prologue_saves__+0x10>
    478e:	80 91 44 0a 	lds	r24, 0x0A44
    4792:	90 91 45 0a 	lds	r25, 0x0A45
    4796:	01 97       	sbiw	r24, 0x01	; 1
    4798:	29 f0       	breq	.+10     	; 0x47a4 <process_client_request+0x22>
    479a:	c0 58       	subi	r28, 0x80	; 128
    479c:	de 4f       	sbci	r29, 0xFE	; 254
    479e:	ea e0       	ldi	r30, 0x0A	; 10
    47a0:	0c 94 b0 53 	jmp	0xa760	; 0xa760 <__epilogue_restores__+0x10>
    47a4:	80 91 42 1d 	lds	r24, 0x1D42
    47a8:	84 30       	cpi	r24, 0x04	; 4
    47aa:	b8 f7       	brcc	.-18     	; 0x479a <process_client_request+0x18>
    47ac:	90 e0       	ldi	r25, 0x00	; 0
    47ae:	fc 01       	movw	r30, r24
    47b0:	ee 0f       	add	r30, r30
    47b2:	ff 1f       	adc	r31, r31
    47b4:	ee 0f       	add	r30, r30
    47b6:	ff 1f       	adc	r31, r31
    47b8:	ee 0f       	add	r30, r30
    47ba:	ff 1f       	adc	r31, r31
    47bc:	e8 0f       	add	r30, r24
    47be:	f9 1f       	adc	r31, r25
    47c0:	ed 5b       	subi	r30, 0xBD	; 189
    47c2:	f2 4e       	sbci	r31, 0xE2	; 226
    47c4:	84 a5       	ldd	r24, Z+44	; 0x2c
    47c6:	95 a5       	ldd	r25, Z+45	; 0x2d
    47c8:	02 97       	sbiw	r24, 0x02	; 2
    47ca:	39 f7       	brne	.-50     	; 0x479a <process_client_request+0x18>
    47cc:	51 e0       	ldi	r21, 0x01	; 1
    47ce:	e5 2e       	mov	r14, r21
    47d0:	f5 2e       	mov	r15, r21
    47d2:	ec 0e       	add	r14, r28
    47d4:	fd 1e       	adc	r15, r29
    47d6:	80 91 00 03 	lds	r24, 0x0300
    47da:	90 91 01 03 	lds	r25, 0x0301
    47de:	f7 01       	movw	r30, r14
    47e0:	81 93       	st	Z+, r24
    47e2:	91 93       	st	Z+, r25
    47e4:	2e e7       	ldi	r18, 0x7E	; 126
    47e6:	df 01       	movw	r26, r30
    47e8:	32 2f       	mov	r19, r18
    47ea:	1d 92       	st	X+, r1
    47ec:	3a 95       	dec	r19
    47ee:	e9 f7       	brne	.-6      	; 0x47ea <process_client_request+0x68>
    47f0:	41 e8       	ldi	r20, 0x81	; 129
    47f2:	c4 2e       	mov	r12, r20
    47f4:	d1 2c       	mov	r13, r1
    47f6:	cc 0e       	add	r12, r28
    47f8:	dd 1e       	adc	r13, r29
    47fa:	f6 01       	movw	r30, r12
    47fc:	81 93       	st	Z+, r24
    47fe:	91 93       	st	Z+, r25
    4800:	df 01       	movw	r26, r30
    4802:	32 2f       	mov	r19, r18
    4804:	1d 92       	st	X+, r1
    4806:	3a 95       	dec	r19
    4808:	e9 f7       	brne	.-6      	; 0x4804 <process_client_request+0x82>
    480a:	9a 83       	std	Y+2, r25	; 0x02
    480c:	89 83       	std	Y+1, r24	; 0x01
    480e:	fe 01       	movw	r30, r28
    4810:	33 96       	adiw	r30, 0x03	; 3
    4812:	df 01       	movw	r26, r30
    4814:	1d 92       	st	X+, r1
    4816:	2a 95       	dec	r18
    4818:	e9 f7       	brne	.-6      	; 0x4814 <process_client_request+0x92>
    481a:	8e 01       	movw	r16, r28
    481c:	0f 5f       	subi	r16, 0xFF	; 255
    481e:	1f 4f       	sbci	r17, 0xFF	; 255
    4820:	c8 01       	movw	r24, r16
    4822:	0e 94 20 1c 	call	0x3840	; 0x3840 <gs_read_data_from_socket>
    4826:	89 81       	ldd	r24, Y+1	; 0x01
    4828:	88 23       	and	r24, r24
    482a:	09 f0       	breq	.+2      	; 0x482e <process_client_request+0xac>
    482c:	48 c1       	rjmp	.+656    	; 0x4abe <process_client_request+0x33c>
    482e:	20 91 42 1d 	lds	r18, 0x1D42
    4832:	24 30       	cpi	r18, 0x04	; 4
    4834:	08 f0       	brcs	.+2      	; 0x4838 <process_client_request+0xb6>
    4836:	b1 cf       	rjmp	.-158    	; 0x479a <process_client_request+0x18>
    4838:	82 2f       	mov	r24, r18
    483a:	90 e0       	ldi	r25, 0x00	; 0
    483c:	fc 01       	movw	r30, r24
    483e:	ee 0f       	add	r30, r30
    4840:	ff 1f       	adc	r31, r31
    4842:	ee 0f       	add	r30, r30
    4844:	ff 1f       	adc	r31, r31
    4846:	ee 0f       	add	r30, r30
    4848:	ff 1f       	adc	r31, r31
    484a:	e8 0f       	add	r30, r24
    484c:	f9 1f       	adc	r31, r25
    484e:	ed 5b       	subi	r30, 0xBD	; 189
    4850:	f2 4e       	sbci	r31, 0xE2	; 226
    4852:	84 a5       	ldd	r24, Z+44	; 0x2c
    4854:	95 a5       	ldd	r25, Z+45	; 0x2d
    4856:	03 97       	sbiw	r24, 0x03	; 3
    4858:	09 f0       	breq	.+2      	; 0x485c <process_client_request+0xda>
    485a:	9f cf       	rjmp	.-194    	; 0x479a <process_client_request+0x18>
    485c:	82 2f       	mov	r24, r18
    485e:	69 e9       	ldi	r22, 0x99	; 153
    4860:	75 e0       	ldi	r23, 0x05	; 5
    4862:	0e 94 ed 22 	call	0x45da	; 0x45da <gs_write_data_to_socket>
    4866:	80 91 42 1d 	lds	r24, 0x1D42
    486a:	6a ea       	ldi	r22, 0xAA	; 170
    486c:	75 e0       	ldi	r23, 0x05	; 5
    486e:	0e 94 ed 22 	call	0x45da	; 0x45da <gs_write_data_to_socket>
    4872:	80 91 42 1d 	lds	r24, 0x1D42
    4876:	64 ec       	ldi	r22, 0xC4	; 196
    4878:	75 e0       	ldi	r23, 0x05	; 5
    487a:	0e 94 ed 22 	call	0x45da	; 0x45da <gs_write_data_to_socket>
    487e:	80 91 42 1d 	lds	r24, 0x1D42
    4882:	66 ed       	ldi	r22, 0xD6	; 214
    4884:	75 e0       	ldi	r23, 0x05	; 5
    4886:	0e 94 ed 22 	call	0x45da	; 0x45da <gs_write_data_to_socket>
    488a:	80 91 42 1d 	lds	r24, 0x1D42
    488e:	6f ed       	ldi	r22, 0xDF	; 223
    4890:	75 e0       	ldi	r23, 0x05	; 5
    4892:	0e 94 ed 22 	call	0x45da	; 0x45da <gs_write_data_to_socket>
    4896:	d6 01       	movw	r26, r12
    4898:	e8 ee       	ldi	r30, 0xE8	; 232
    489a:	f5 e0       	ldi	r31, 0x05	; 5
    489c:	88 e0       	ldi	r24, 0x08	; 8
    489e:	01 90       	ld	r0, Z+
    48a0:	0d 92       	st	X+, r0
    48a2:	81 50       	subi	r24, 0x01	; 1
    48a4:	e1 f7       	brne	.-8      	; 0x489e <process_client_request+0x11c>
    48a6:	60 91 1d 1d 	lds	r22, 0x1D1D
    48aa:	70 91 1e 1d 	lds	r23, 0x1D1E
    48ae:	c6 01       	movw	r24, r12
    48b0:	0e 94 35 08 	call	0x106a	; 0x106a <strcat>
    48b4:	f6 01       	movw	r30, r12
    48b6:	01 90       	ld	r0, Z+
    48b8:	00 20       	and	r0, r0
    48ba:	e9 f7       	brne	.-6      	; 0x48b6 <process_client_request+0x134>
    48bc:	31 97       	sbiw	r30, 0x01	; 1
    48be:	df 01       	movw	r26, r30
    48c0:	e0 ef       	ldi	r30, 0xF0	; 240
    48c2:	f5 e0       	ldi	r31, 0x05	; 5
    48c4:	8b e0       	ldi	r24, 0x0B	; 11
    48c6:	01 90       	ld	r0, Z+
    48c8:	0d 92       	st	X+, r0
    48ca:	81 50       	subi	r24, 0x01	; 1
    48cc:	e1 f7       	brne	.-8      	; 0x48c6 <process_client_request+0x144>
    48ce:	80 91 42 1d 	lds	r24, 0x1D42
    48d2:	b6 01       	movw	r22, r12
    48d4:	0e 94 ed 22 	call	0x45da	; 0x45da <gs_write_data_to_socket>
    48d8:	80 91 42 1d 	lds	r24, 0x1D42
    48dc:	6b ef       	ldi	r22, 0xFB	; 251
    48de:	75 e0       	ldi	r23, 0x05	; 5
    48e0:	0e 94 ed 22 	call	0x45da	; 0x45da <gs_write_data_to_socket>
    48e4:	80 91 42 1d 	lds	r24, 0x1D42
    48e8:	65 e0       	ldi	r22, 0x05	; 5
    48ea:	76 e0       	ldi	r23, 0x06	; 6
    48ec:	0e 94 ed 22 	call	0x45da	; 0x45da <gs_write_data_to_socket>
    48f0:	d6 01       	movw	r26, r12
    48f2:	ee e0       	ldi	r30, 0x0E	; 14
    48f4:	f6 e0       	ldi	r31, 0x06	; 6
    48f6:	8d e0       	ldi	r24, 0x0D	; 13
    48f8:	01 90       	ld	r0, Z+
    48fa:	0d 92       	st	X+, r0
    48fc:	81 50       	subi	r24, 0x01	; 1
    48fe:	e1 f7       	brne	.-8      	; 0x48f8 <process_client_request+0x176>
    4900:	60 91 1d 1d 	lds	r22, 0x1D1D
    4904:	70 91 1e 1d 	lds	r23, 0x1D1E
    4908:	c6 01       	movw	r24, r12
    490a:	0e 94 35 08 	call	0x106a	; 0x106a <strcat>
    490e:	f6 01       	movw	r30, r12
    4910:	01 90       	ld	r0, Z+
    4912:	00 20       	and	r0, r0
    4914:	e9 f7       	brne	.-6      	; 0x4910 <process_client_request+0x18e>
    4916:	31 97       	sbiw	r30, 0x01	; 1
    4918:	df 01       	movw	r26, r30
    491a:	eb e1       	ldi	r30, 0x1B	; 27
    491c:	f6 e0       	ldi	r31, 0x06	; 6
    491e:	88 e0       	ldi	r24, 0x08	; 8
    4920:	01 90       	ld	r0, Z+
    4922:	0d 92       	st	X+, r0
    4924:	81 50       	subi	r24, 0x01	; 1
    4926:	e1 f7       	brne	.-8      	; 0x4920 <process_client_request+0x19e>
    4928:	80 91 42 1d 	lds	r24, 0x1D42
    492c:	b6 01       	movw	r22, r12
    492e:	0e 94 ed 22 	call	0x45da	; 0x45da <gs_write_data_to_socket>
    4932:	d6 01       	movw	r26, r12
    4934:	e3 e2       	ldi	r30, 0x23	; 35
    4936:	f6 e0       	ldi	r31, 0x06	; 6
    4938:	8d e0       	ldi	r24, 0x0D	; 13
    493a:	01 90       	ld	r0, Z+
    493c:	0d 92       	st	X+, r0
    493e:	81 50       	subi	r24, 0x01	; 1
    4940:	e1 f7       	brne	.-8      	; 0x493a <process_client_request+0x1b8>
    4942:	60 91 1f 1d 	lds	r22, 0x1D1F
    4946:	70 91 20 1d 	lds	r23, 0x1D20
    494a:	c6 01       	movw	r24, r12
    494c:	0e 94 35 08 	call	0x106a	; 0x106a <strcat>
    4950:	f6 01       	movw	r30, r12
    4952:	01 90       	ld	r0, Z+
    4954:	00 20       	and	r0, r0
    4956:	e9 f7       	brne	.-6      	; 0x4952 <process_client_request+0x1d0>
    4958:	31 97       	sbiw	r30, 0x01	; 1
    495a:	df 01       	movw	r26, r30
    495c:	e0 e3       	ldi	r30, 0x30	; 48
    495e:	f6 e0       	ldi	r31, 0x06	; 6
    4960:	89 e0       	ldi	r24, 0x09	; 9
    4962:	01 90       	ld	r0, Z+
    4964:	0d 92       	st	X+, r0
    4966:	81 50       	subi	r24, 0x01	; 1
    4968:	e1 f7       	brne	.-8      	; 0x4962 <process_client_request+0x1e0>
    496a:	80 91 42 1d 	lds	r24, 0x1D42
    496e:	b6 01       	movw	r22, r12
    4970:	0e 94 ed 22 	call	0x45da	; 0x45da <gs_write_data_to_socket>
    4974:	80 91 42 1d 	lds	r24, 0x1D42
    4978:	69 e3       	ldi	r22, 0x39	; 57
    497a:	76 e0       	ldi	r23, 0x06	; 6
    497c:	0e 94 ed 22 	call	0x45da	; 0x45da <gs_write_data_to_socket>
    4980:	80 91 42 1d 	lds	r24, 0x1D42
    4984:	6f e3       	ldi	r22, 0x3F	; 63
    4986:	76 e0       	ldi	r23, 0x06	; 6
    4988:	0e 94 ed 22 	call	0x45da	; 0x45da <gs_write_data_to_socket>
    498c:	80 91 21 1d 	lds	r24, 0x1D21
    4990:	90 91 22 1d 	lds	r25, 0x1D22
    4994:	00 97       	sbiw	r24, 0x00	; 0
    4996:	09 f4       	brne	.+2      	; 0x499a <process_client_request+0x218>
    4998:	be c0       	rjmp	.+380    	; 0x4b16 <process_client_request+0x394>
    499a:	01 97       	sbiw	r24, 0x01	; 1
    499c:	09 f0       	breq	.+2      	; 0x49a0 <process_client_request+0x21e>
    499e:	b4 c0       	rjmp	.+360    	; 0x4b08 <process_client_request+0x386>
    49a0:	80 91 41 1d 	lds	r24, 0x1D41
    49a4:	88 23       	and	r24, r24
    49a6:	09 f4       	brne	.+2      	; 0x49aa <process_client_request+0x228>
    49a8:	49 c0       	rjmp	.+146    	; 0x4a3c <process_client_request+0x2ba>
    49aa:	ff 24       	eor	r15, r15
    49ac:	d6 01       	movw	r26, r12
    49ae:	ee e9       	ldi	r30, 0x9E	; 158
    49b0:	f6 e0       	ldi	r31, 0x06	; 6
    49b2:	8a e2       	ldi	r24, 0x2A	; 42
    49b4:	01 90       	ld	r0, Z+
    49b6:	0d 92       	st	X+, r0
    49b8:	81 50       	subi	r24, 0x01	; 1
    49ba:	e1 f7       	brne	.-8      	; 0x49b4 <process_client_request+0x232>
    49bc:	0f 2d       	mov	r16, r15
    49be:	10 e0       	ldi	r17, 0x00	; 0
    49c0:	58 01       	movw	r10, r16
    49c2:	aa 0c       	add	r10, r10
    49c4:	bb 1c       	adc	r11, r11
    49c6:	b5 01       	movw	r22, r10
    49c8:	60 0f       	add	r22, r16
    49ca:	71 1f       	adc	r23, r17
    49cc:	6d 5d       	subi	r22, 0xDD	; 221
    49ce:	72 4e       	sbci	r23, 0xE2	; 226
    49d0:	c6 01       	movw	r24, r12
    49d2:	41 e0       	ldi	r20, 0x01	; 1
    49d4:	50 e0       	ldi	r21, 0x00	; 0
    49d6:	0e 94 47 08 	call	0x108e	; 0x108e <strncat>
    49da:	f6 01       	movw	r30, r12
    49dc:	01 90       	ld	r0, Z+
    49de:	00 20       	and	r0, r0
    49e0:	e9 f7       	brne	.-6      	; 0x49dc <process_client_request+0x25a>
    49e2:	31 97       	sbiw	r30, 0x01	; 1
    49e4:	df 01       	movw	r26, r30
    49e6:	e3 e8       	ldi	r30, 0x83	; 131
    49e8:	f6 e0       	ldi	r31, 0x06	; 6
    49ea:	83 e0       	ldi	r24, 0x03	; 3
    49ec:	01 90       	ld	r0, Z+
    49ee:	0d 92       	st	X+, r0
    49f0:	81 50       	subi	r24, 0x01	; 1
    49f2:	e1 f7       	brne	.-8      	; 0x49ec <process_client_request+0x26a>
    49f4:	0a 0d       	add	r16, r10
    49f6:	1b 1d       	adc	r17, r11
    49f8:	03 5e       	subi	r16, 0xE3	; 227
    49fa:	12 4e       	sbci	r17, 0xE2	; 226
    49fc:	d8 01       	movw	r26, r16
    49fe:	17 96       	adiw	r26, 0x07	; 7
    4a00:	6d 91       	ld	r22, X+
    4a02:	7c 91       	ld	r23, X
    4a04:	18 97       	sbiw	r26, 0x08	; 8
    4a06:	c6 01       	movw	r24, r12
    4a08:	0e 94 35 08 	call	0x106a	; 0x106a <strcat>
    4a0c:	f6 01       	movw	r30, r12
    4a0e:	01 90       	ld	r0, Z+
    4a10:	00 20       	and	r0, r0
    4a12:	e9 f7       	brne	.-6      	; 0x4a0e <process_client_request+0x28c>
    4a14:	31 97       	sbiw	r30, 0x01	; 1
    4a16:	df 01       	movw	r26, r30
    4a18:	e8 ec       	ldi	r30, 0xC8	; 200
    4a1a:	f6 e0       	ldi	r31, 0x06	; 6
    4a1c:	83 e0       	ldi	r24, 0x03	; 3
    4a1e:	01 90       	ld	r0, Z+
    4a20:	0d 92       	st	X+, r0
    4a22:	81 50       	subi	r24, 0x01	; 1
    4a24:	e1 f7       	brne	.-8      	; 0x4a1e <process_client_request+0x29c>
    4a26:	80 91 42 1d 	lds	r24, 0x1D42
    4a2a:	b6 01       	movw	r22, r12
    4a2c:	0e 94 ed 22 	call	0x45da	; 0x45da <gs_write_data_to_socket>
    4a30:	f3 94       	inc	r15
    4a32:	80 91 41 1d 	lds	r24, 0x1D41
    4a36:	f8 16       	cp	r15, r24
    4a38:	08 f4       	brcc	.+2      	; 0x4a3c <process_client_request+0x2ba>
    4a3a:	b8 cf       	rjmp	.-144    	; 0x49ac <process_client_request+0x22a>
    4a3c:	80 91 42 1d 	lds	r24, 0x1D42
    4a40:	68 e0       	ldi	r22, 0x08	; 8
    4a42:	77 e0       	ldi	r23, 0x07	; 7
    4a44:	0e 94 ed 22 	call	0x45da	; 0x45da <gs_write_data_to_socket>
    4a48:	80 91 42 1d 	lds	r24, 0x1D42
    4a4c:	6c e2       	ldi	r22, 0x2C	; 44
    4a4e:	77 e0       	ldi	r23, 0x07	; 7
    4a50:	0e 94 ed 22 	call	0x45da	; 0x45da <gs_write_data_to_socket>
    4a54:	80 91 42 1d 	lds	r24, 0x1D42
    4a58:	66 e3       	ldi	r22, 0x36	; 54
    4a5a:	77 e0       	ldi	r23, 0x07	; 7
    4a5c:	0e 94 ed 22 	call	0x45da	; 0x45da <gs_write_data_to_socket>
    4a60:	80 91 42 1d 	lds	r24, 0x1D42
    4a64:	6d e3       	ldi	r22, 0x3D	; 61
    4a66:	77 e0       	ldi	r23, 0x07	; 7
    4a68:	0e 94 ed 22 	call	0x45da	; 0x45da <gs_write_data_to_socket>
    4a6c:	80 91 42 1d 	lds	r24, 0x1D42
    4a70:	69 e4       	ldi	r22, 0x49	; 73
    4a72:	77 e0       	ldi	r23, 0x07	; 7
    4a74:	0e 94 ed 22 	call	0x45da	; 0x45da <gs_write_data_to_socket>
    4a78:	80 91 42 1d 	lds	r24, 0x1D42
    4a7c:	63 e5       	ldi	r22, 0x53	; 83
    4a7e:	77 e0       	ldi	r23, 0x07	; 7
    4a80:	0e 94 ed 22 	call	0x45da	; 0x45da <gs_write_data_to_socket>
    4a84:	80 91 42 1d 	lds	r24, 0x1D42
    4a88:	6b e5       	ldi	r22, 0x5B	; 91
    4a8a:	77 e0       	ldi	r23, 0x07	; 7
    4a8c:	0e 94 ed 22 	call	0x45da	; 0x45da <gs_write_data_to_socket>
    4a90:	80 91 42 1d 	lds	r24, 0x1D42
    4a94:	6c e5       	ldi	r22, 0x5C	; 92
    4a96:	77 e0       	ldi	r23, 0x07	; 7
    4a98:	0e 94 ed 22 	call	0x45da	; 0x45da <gs_write_data_to_socket>
    4a9c:	80 91 42 1d 	lds	r24, 0x1D42
    4aa0:	0e 94 35 15 	call	0x2a6a	; 0x2a6a <gs_reset_socket>
    4aa4:	0e 94 1e 18 	call	0x303c	; 0x303c <gs_flush>
    4aa8:	28 ee       	ldi	r18, 0xE8	; 232
    4aaa:	33 e0       	ldi	r19, 0x03	; 3
    4aac:	40 e9       	ldi	r20, 0x90	; 144
    4aae:	51 e0       	ldi	r21, 0x01	; 1
    4ab0:	ca 01       	movw	r24, r20
    4ab2:	01 97       	sbiw	r24, 0x01	; 1
    4ab4:	f1 f7       	brne	.-4      	; 0x4ab2 <process_client_request+0x330>
    4ab6:	21 50       	subi	r18, 0x01	; 1
    4ab8:	30 40       	sbci	r19, 0x00	; 0
    4aba:	d1 f7       	brne	.-12     	; 0x4ab0 <process_client_request+0x32e>
    4abc:	6e ce       	rjmp	.-804    	; 0x479a <process_client_request+0x18>
    4abe:	c8 01       	movw	r24, r16
    4ac0:	65 e9       	ldi	r22, 0x95	; 149
    4ac2:	75 e0       	ldi	r23, 0x05	; 5
    4ac4:	0e 94 7f 08 	call	0x10fe	; 0x10fe <strstr>
    4ac8:	bc 01       	movw	r22, r24
    4aca:	c7 01       	movw	r24, r14
    4acc:	0e 94 40 08 	call	0x1080	; 0x1080 <strcpy>
    4ad0:	f7 01       	movw	r30, r14
    4ad2:	85 81       	ldd	r24, Z+5	; 0x05
    4ad4:	8f 33       	cpi	r24, 0x3F	; 63
    4ad6:	09 f0       	breq	.+2      	; 0x4ada <process_client_request+0x358>
    4ad8:	aa ce       	rjmp	.-684    	; 0x482e <process_client_request+0xac>
    4ada:	80 91 42 0a 	lds	r24, 0x0A42
    4ade:	e0 91 9a 1d 	lds	r30, 0x1D9A
    4ae2:	f0 91 9b 1d 	lds	r31, 0x1D9B
    4ae6:	e8 0f       	add	r30, r24
    4ae8:	f1 1d       	adc	r31, r1
    4aea:	d7 01       	movw	r26, r14
    4aec:	18 96       	adiw	r26, 0x08	; 8
    4aee:	8c 91       	ld	r24, X
    4af0:	80 83       	st	Z, r24
    4af2:	80 91 42 0a 	lds	r24, 0x0A42
    4af6:	8f 5f       	subi	r24, 0xFF	; 255
    4af8:	80 93 42 0a 	sts	0x0A42, r24
    4afc:	8a 30       	cpi	r24, 0x0A	; 10
    4afe:	08 f4       	brcc	.+2      	; 0x4b02 <process_client_request+0x380>
    4b00:	96 ce       	rjmp	.-724    	; 0x482e <process_client_request+0xac>
    4b02:	10 92 42 0a 	sts	0x0A42, r1
    4b06:	93 ce       	rjmp	.-730    	; 0x482e <process_client_request+0xac>
    4b08:	80 91 42 1d 	lds	r24, 0x1D42
    4b0c:	6b ec       	ldi	r22, 0xCB	; 203
    4b0e:	76 e0       	ldi	r23, 0x06	; 6
    4b10:	0e 94 ed 22 	call	0x45da	; 0x45da <gs_write_data_to_socket>
    4b14:	93 cf       	rjmp	.-218    	; 0x4a3c <process_client_request+0x2ba>
    4b16:	80 91 42 1d 	lds	r24, 0x1D42
    4b1a:	6f e5       	ldi	r22, 0x5F	; 95
    4b1c:	76 e0       	ldi	r23, 0x06	; 6
    4b1e:	0e 94 ed 22 	call	0x45da	; 0x45da <gs_write_data_to_socket>
    4b22:	80 91 41 1d 	lds	r24, 0x1D41
    4b26:	88 23       	and	r24, r24
    4b28:	09 f4       	brne	.+2      	; 0x4b2c <process_client_request+0x3aa>
    4b2a:	47 c0       	rjmp	.+142    	; 0x4bba <process_client_request+0x438>
    4b2c:	bb 24       	eor	r11, r11
    4b2e:	d6 01       	movw	r26, r12
    4b30:	e3 e7       	ldi	r30, 0x73	; 115
    4b32:	f6 e0       	ldi	r31, 0x06	; 6
    4b34:	80 e1       	ldi	r24, 0x10	; 16
    4b36:	01 90       	ld	r0, Z+
    4b38:	0d 92       	st	X+, r0
    4b3a:	81 50       	subi	r24, 0x01	; 1
    4b3c:	e1 f7       	brne	.-8      	; 0x4b36 <process_client_request+0x3b4>
    4b3e:	0b 2d       	mov	r16, r11
    4b40:	10 e0       	ldi	r17, 0x00	; 0
    4b42:	78 01       	movw	r14, r16
    4b44:	ee 0c       	add	r14, r14
    4b46:	ff 1c       	adc	r15, r15
    4b48:	b7 01       	movw	r22, r14
    4b4a:	60 0f       	add	r22, r16
    4b4c:	71 1f       	adc	r23, r17
    4b4e:	6d 5d       	subi	r22, 0xDD	; 221
    4b50:	72 4e       	sbci	r23, 0xE2	; 226
    4b52:	c6 01       	movw	r24, r12
    4b54:	41 e0       	ldi	r20, 0x01	; 1
    4b56:	50 e0       	ldi	r21, 0x00	; 0
    4b58:	0e 94 47 08 	call	0x108e	; 0x108e <strncat>
    4b5c:	f6 01       	movw	r30, r12
    4b5e:	01 90       	ld	r0, Z+
    4b60:	00 20       	and	r0, r0
    4b62:	e9 f7       	brne	.-6      	; 0x4b5e <process_client_request+0x3dc>
    4b64:	31 97       	sbiw	r30, 0x01	; 1
    4b66:	df 01       	movw	r26, r30
    4b68:	e3 e8       	ldi	r30, 0x83	; 131
    4b6a:	f6 e0       	ldi	r31, 0x06	; 6
    4b6c:	83 e0       	ldi	r24, 0x03	; 3
    4b6e:	01 90       	ld	r0, Z+
    4b70:	0d 92       	st	X+, r0
    4b72:	81 50       	subi	r24, 0x01	; 1
    4b74:	e1 f7       	brne	.-8      	; 0x4b6e <process_client_request+0x3ec>
    4b76:	0e 0d       	add	r16, r14
    4b78:	1f 1d       	adc	r17, r15
    4b7a:	03 5e       	subi	r16, 0xE3	; 227
    4b7c:	12 4e       	sbci	r17, 0xE2	; 226
    4b7e:	f8 01       	movw	r30, r16
    4b80:	67 81       	ldd	r22, Z+7	; 0x07
    4b82:	70 85       	ldd	r23, Z+8	; 0x08
    4b84:	c6 01       	movw	r24, r12
    4b86:	0e 94 35 08 	call	0x106a	; 0x106a <strcat>
    4b8a:	f6 01       	movw	r30, r12
    4b8c:	01 90       	ld	r0, Z+
    4b8e:	00 20       	and	r0, r0
    4b90:	e9 f7       	brne	.-6      	; 0x4b8c <process_client_request+0x40a>
    4b92:	31 97       	sbiw	r30, 0x01	; 1
    4b94:	df 01       	movw	r26, r30
    4b96:	e6 e8       	ldi	r30, 0x86	; 134
    4b98:	f6 e0       	ldi	r31, 0x06	; 6
    4b9a:	8c e0       	ldi	r24, 0x0C	; 12
    4b9c:	01 90       	ld	r0, Z+
    4b9e:	0d 92       	st	X+, r0
    4ba0:	81 50       	subi	r24, 0x01	; 1
    4ba2:	e1 f7       	brne	.-8      	; 0x4b9c <process_client_request+0x41a>
    4ba4:	80 91 42 1d 	lds	r24, 0x1D42
    4ba8:	b6 01       	movw	r22, r12
    4baa:	0e 94 ed 22 	call	0x45da	; 0x45da <gs_write_data_to_socket>
    4bae:	b3 94       	inc	r11
    4bb0:	80 91 41 1d 	lds	r24, 0x1D41
    4bb4:	b8 16       	cp	r11, r24
    4bb6:	08 f4       	brcc	.+2      	; 0x4bba <process_client_request+0x438>
    4bb8:	ba cf       	rjmp	.-140    	; 0x4b2e <process_client_request+0x3ac>
    4bba:	80 91 42 1d 	lds	r24, 0x1D42
    4bbe:	62 e9       	ldi	r22, 0x92	; 146
    4bc0:	76 e0       	ldi	r23, 0x06	; 6
    4bc2:	0e 94 ed 22 	call	0x45da	; 0x45da <gs_write_data_to_socket>
    4bc6:	3a cf       	rjmp	.-396    	; 0x4a3c <process_client_request+0x2ba>

00004bc8 <I2C_Slave_Start_Transceiver>:
    4bc8:	80 91 bc 00 	lds	r24, 0x00BC
    4bcc:	80 fd       	sbrc	r24, 0
    4bce:	fc cf       	rjmp	.-8      	; 0x4bc8 <I2C_Slave_Start_Transceiver>
    4bd0:	10 92 48 0a 	sts	0x0A48, r1
    4bd4:	88 ef       	ldi	r24, 0xF8	; 248
    4bd6:	80 93 a7 09 	sts	0x09A7, r24
    4bda:	85 ec       	ldi	r24, 0xC5	; 197
    4bdc:	80 93 bc 00 	sts	0x00BC, r24
    4be0:	08 95       	ret

00004be2 <I2C_Master_Start_Transceiver>:
    4be2:	80 91 bc 00 	lds	r24, 0x00BC
    4be6:	80 fd       	sbrc	r24, 0
    4be8:	fc cf       	rjmp	.-8      	; 0x4be2 <I2C_Master_Start_Transceiver>
    4bea:	10 92 48 0a 	sts	0x0A48, r1
    4bee:	88 ef       	ldi	r24, 0xF8	; 248
    4bf0:	80 93 a7 09 	sts	0x09A7, r24
    4bf4:	85 ee       	ldi	r24, 0xE5	; 229
    4bf6:	80 93 bc 00 	sts	0x00BC, r24
    4bfa:	08 95       	ret

00004bfc <I2C_Slave_Start_Transceiver_With_Data>:
    4bfc:	ac 01       	movw	r20, r24
    4bfe:	80 91 bc 00 	lds	r24, 0x00BC
    4c02:	80 fd       	sbrc	r24, 0
    4c04:	fc cf       	rjmp	.-8      	; 0x4bfe <I2C_Slave_Start_Transceiver_With_Data+0x2>
    4c06:	60 93 63 0a 	sts	0x0A63, r22
    4c0a:	66 23       	and	r22, r22
    4c0c:	71 f0       	breq	.+28     	; 0x4c2a <I2C_Slave_Start_Transceiver_With_Data+0x2e>
    4c0e:	20 e0       	ldi	r18, 0x00	; 0
    4c10:	30 e0       	ldi	r19, 0x00	; 0
    4c12:	f9 01       	movw	r30, r18
    4c14:	e5 5b       	subi	r30, 0xB5	; 181
    4c16:	f5 4f       	sbci	r31, 0xF5	; 245
    4c18:	da 01       	movw	r26, r20
    4c1a:	a2 0f       	add	r26, r18
    4c1c:	b3 1f       	adc	r27, r19
    4c1e:	8c 91       	ld	r24, X
    4c20:	80 83       	st	Z, r24
    4c22:	2f 5f       	subi	r18, 0xFF	; 255
    4c24:	3f 4f       	sbci	r19, 0xFF	; 255
    4c26:	26 17       	cp	r18, r22
    4c28:	a0 f3       	brcs	.-24     	; 0x4c12 <I2C_Slave_Start_Transceiver_With_Data+0x16>
    4c2a:	10 92 48 0a 	sts	0x0A48, r1
    4c2e:	88 ef       	ldi	r24, 0xF8	; 248
    4c30:	80 93 a7 09 	sts	0x09A7, r24
    4c34:	85 ec       	ldi	r24, 0xC5	; 197
    4c36:	80 93 bc 00 	sts	0x00BC, r24
    4c3a:	08 95       	ret

00004c3c <I2C_Master_Start_Transceiver_With_Data>:
    4c3c:	fc 01       	movw	r30, r24
    4c3e:	80 91 bc 00 	lds	r24, 0x00BC
    4c42:	80 fd       	sbrc	r24, 0
    4c44:	fc cf       	rjmp	.-8      	; 0x4c3e <I2C_Master_Start_Transceiver_With_Data+0x2>
    4c46:	60 93 63 0a 	sts	0x0A63, r22
    4c4a:	80 81       	ld	r24, Z
    4c4c:	80 93 4b 0a 	sts	0x0A4B, r24
    4c50:	80 81       	ld	r24, Z
    4c52:	80 fd       	sbrc	r24, 0
    4c54:	11 c0       	rjmp	.+34     	; 0x4c78 <I2C_Master_Start_Transceiver_With_Data+0x3c>
    4c56:	62 30       	cpi	r22, 0x02	; 2
    4c58:	78 f0       	brcs	.+30     	; 0x4c78 <I2C_Master_Start_Transceiver_With_Data+0x3c>
    4c5a:	df 01       	movw	r26, r30
    4c5c:	ec e4       	ldi	r30, 0x4C	; 76
    4c5e:	fa e0       	ldi	r31, 0x0A	; 10
    4c60:	62 50       	subi	r22, 0x02	; 2
    4c62:	70 e0       	ldi	r23, 0x00	; 0
    4c64:	63 5b       	subi	r22, 0xB3	; 179
    4c66:	75 4f       	sbci	r23, 0xF5	; 245
    4c68:	11 96       	adiw	r26, 0x01	; 1
    4c6a:	8c 91       	ld	r24, X
    4c6c:	11 97       	sbiw	r26, 0x01	; 1
    4c6e:	81 93       	st	Z+, r24
    4c70:	11 96       	adiw	r26, 0x01	; 1
    4c72:	e6 17       	cp	r30, r22
    4c74:	f7 07       	cpc	r31, r23
    4c76:	c1 f7       	brne	.-16     	; 0x4c68 <I2C_Master_Start_Transceiver_With_Data+0x2c>
    4c78:	10 92 48 0a 	sts	0x0A48, r1
    4c7c:	88 ef       	ldi	r24, 0xF8	; 248
    4c7e:	80 93 a7 09 	sts	0x09A7, r24
    4c82:	85 ea       	ldi	r24, 0xA5	; 165
    4c84:	80 93 bc 00 	sts	0x00BC, r24
    4c88:	08 95       	ret

00004c8a <I2C_Slave_Get_Data_From_Transceiver>:
    4c8a:	ac 01       	movw	r20, r24
    4c8c:	80 91 bc 00 	lds	r24, 0x00BC
    4c90:	80 fd       	sbrc	r24, 0
    4c92:	fc cf       	rjmp	.-8      	; 0x4c8c <I2C_Slave_Get_Data_From_Transceiver+0x2>
    4c94:	20 91 48 0a 	lds	r18, 0x0A48
    4c98:	20 ff       	sbrs	r18, 0
    4c9a:	19 c0       	rjmp	.+50     	; 0x4cce <I2C_Slave_Get_Data_From_Transceiver+0x44>
    4c9c:	66 23       	and	r22, r22
    4c9e:	81 f0       	breq	.+32     	; 0x4cc0 <I2C_Slave_Get_Data_From_Transceiver+0x36>
    4ca0:	20 e0       	ldi	r18, 0x00	; 0
    4ca2:	30 e0       	ldi	r19, 0x00	; 0
    4ca4:	fa 01       	movw	r30, r20
    4ca6:	e2 0f       	add	r30, r18
    4ca8:	f3 1f       	adc	r31, r19
    4caa:	d9 01       	movw	r26, r18
    4cac:	a5 5b       	subi	r26, 0xB5	; 181
    4cae:	b5 4f       	sbci	r27, 0xF5	; 245
    4cb0:	8c 91       	ld	r24, X
    4cb2:	80 83       	st	Z, r24
    4cb4:	2f 5f       	subi	r18, 0xFF	; 255
    4cb6:	3f 4f       	sbci	r19, 0xFF	; 255
    4cb8:	26 17       	cp	r18, r22
    4cba:	a0 f3       	brcs	.-24     	; 0x4ca4 <I2C_Slave_Get_Data_From_Transceiver+0x1a>
    4cbc:	20 91 48 0a 	lds	r18, 0x0A48
    4cc0:	82 2f       	mov	r24, r18
    4cc2:	8d 7f       	andi	r24, 0xFD	; 253
    4cc4:	80 93 48 0a 	sts	0x0A48, r24
    4cc8:	82 2f       	mov	r24, r18
    4cca:	81 70       	andi	r24, 0x01	; 1
    4ccc:	08 95       	ret
    4cce:	80 e0       	ldi	r24, 0x00	; 0
    4cd0:	08 95       	ret

00004cd2 <I2C_Master_Get_Data_From_Transceiver>:
    4cd2:	ac 01       	movw	r20, r24
    4cd4:	80 91 bc 00 	lds	r24, 0x00BC
    4cd8:	80 fd       	sbrc	r24, 0
    4cda:	fc cf       	rjmp	.-8      	; 0x4cd4 <I2C_Master_Get_Data_From_Transceiver+0x2>
    4cdc:	80 91 48 0a 	lds	r24, 0x0A48
    4ce0:	28 2f       	mov	r18, r24
    4ce2:	21 70       	andi	r18, 0x01	; 1
    4ce4:	80 ff       	sbrs	r24, 0
    4ce6:	13 c0       	rjmp	.+38     	; 0x4d0e <I2C_Master_Get_Data_From_Transceiver+0x3c>
    4ce8:	66 23       	and	r22, r22
    4cea:	89 f0       	breq	.+34     	; 0x4d0e <I2C_Master_Get_Data_From_Transceiver+0x3c>
    4cec:	20 e0       	ldi	r18, 0x00	; 0
    4cee:	30 e0       	ldi	r19, 0x00	; 0
    4cf0:	fa 01       	movw	r30, r20
    4cf2:	e2 0f       	add	r30, r18
    4cf4:	f3 1f       	adc	r31, r19
    4cf6:	d9 01       	movw	r26, r18
    4cf8:	a5 5b       	subi	r26, 0xB5	; 181
    4cfa:	b5 4f       	sbci	r27, 0xF5	; 245
    4cfc:	8c 91       	ld	r24, X
    4cfe:	80 83       	st	Z, r24
    4d00:	2f 5f       	subi	r18, 0xFF	; 255
    4d02:	3f 4f       	sbci	r19, 0xFF	; 255
    4d04:	26 17       	cp	r18, r22
    4d06:	a0 f3       	brcs	.-24     	; 0x4cf0 <I2C_Master_Get_Data_From_Transceiver+0x1e>
    4d08:	20 91 48 0a 	lds	r18, 0x0A48
    4d0c:	21 70       	andi	r18, 0x01	; 1
    4d0e:	82 2f       	mov	r24, r18
    4d10:	08 95       	ret

00004d12 <I2C_Check_Free_After_Stop>:
    4d12:	80 91 49 0a 	lds	r24, 0x0A49
    4d16:	88 23       	and	r24, r24
    4d18:	19 f0       	breq	.+6      	; 0x4d20 <I2C_Check_Free_After_Stop+0xe>
    4d1a:	89 b1       	in	r24, 0x09	; 9
    4d1c:	89 b1       	in	r24, 0x09	; 9
    4d1e:	fd cf       	rjmp	.-6      	; 0x4d1a <I2C_Check_Free_After_Stop+0x8>
    4d20:	81 e0       	ldi	r24, 0x01	; 1
    4d22:	08 95       	ret

00004d24 <I2C_Get_State_Info>:
    4d24:	80 91 bc 00 	lds	r24, 0x00BC
    4d28:	80 fd       	sbrc	r24, 0
    4d2a:	fc cf       	rjmp	.-8      	; 0x4d24 <I2C_Get_State_Info>
    4d2c:	80 91 a7 09 	lds	r24, 0x09A7
    4d30:	08 95       	ret

00004d32 <__vector_39>:
    4d32:	1f 92       	push	r1
    4d34:	0f 92       	push	r0
    4d36:	0f b6       	in	r0, 0x3f	; 63
    4d38:	0f 92       	push	r0
    4d3a:	0b b6       	in	r0, 0x3b	; 59
    4d3c:	0f 92       	push	r0
    4d3e:	11 24       	eor	r1, r1
    4d40:	2f 93       	push	r18
    4d42:	3f 93       	push	r19
    4d44:	8f 93       	push	r24
    4d46:	9f 93       	push	r25
    4d48:	af 93       	push	r26
    4d4a:	bf 93       	push	r27
    4d4c:	ef 93       	push	r30
    4d4e:	ff 93       	push	r31
    4d50:	80 91 b9 00 	lds	r24, 0x00B9
    4d54:	90 e0       	ldi	r25, 0x00	; 0
    4d56:	fc 01       	movw	r30, r24
    4d58:	38 97       	sbiw	r30, 0x08	; 8
    4d5a:	e1 3c       	cpi	r30, 0xC1	; 193
    4d5c:	f1 05       	cpc	r31, r1
    4d5e:	b0 f0       	brcs	.+44     	; 0x4d8c <__vector_39+0x5a>
    4d60:	80 91 b9 00 	lds	r24, 0x00B9
    4d64:	80 93 a7 09 	sts	0x09A7, r24
    4d68:	85 ed       	ldi	r24, 0xD5	; 213
    4d6a:	80 93 bc 00 	sts	0x00BC, r24
    4d6e:	ff 91       	pop	r31
    4d70:	ef 91       	pop	r30
    4d72:	bf 91       	pop	r27
    4d74:	af 91       	pop	r26
    4d76:	9f 91       	pop	r25
    4d78:	8f 91       	pop	r24
    4d7a:	3f 91       	pop	r19
    4d7c:	2f 91       	pop	r18
    4d7e:	0f 90       	pop	r0
    4d80:	0b be       	out	0x3b, r0	; 59
    4d82:	0f 90       	pop	r0
    4d84:	0f be       	out	0x3f, r0	; 63
    4d86:	0f 90       	pop	r0
    4d88:	1f 90       	pop	r1
    4d8a:	18 95       	reti
    4d8c:	e4 56       	subi	r30, 0x64	; 100
    4d8e:	ff 4f       	sbci	r31, 0xFF	; 255
    4d90:	0c 94 c3 53 	jmp	0xa786	; 0xa786 <__tablejump2__>
    4d94:	80 91 4a 0a 	lds	r24, 0x0A4A
    4d98:	90 91 bb 00 	lds	r25, 0x00BB
    4d9c:	e8 2f       	mov	r30, r24
    4d9e:	f0 e0       	ldi	r31, 0x00	; 0
    4da0:	e5 5b       	subi	r30, 0xB5	; 181
    4da2:	f5 4f       	sbci	r31, 0xF5	; 245
    4da4:	90 83       	st	Z, r25
    4da6:	8f 5f       	subi	r24, 0xFF	; 255
    4da8:	80 93 4a 0a 	sts	0x0A4A, r24
    4dac:	80 91 48 0a 	lds	r24, 0x0A48
    4db0:	81 60       	ori	r24, 0x01	; 1
    4db2:	80 93 48 0a 	sts	0x0A48, r24
    4db6:	85 ec       	ldi	r24, 0xC5	; 197
    4db8:	80 93 bc 00 	sts	0x00BC, r24
    4dbc:	d8 cf       	rjmp	.-80     	; 0x4d6e <__vector_39+0x3c>
    4dbe:	20 91 4a 0a 	lds	r18, 0x0A4A
    4dc2:	80 91 bb 00 	lds	r24, 0x00BB
    4dc6:	e2 2f       	mov	r30, r18
    4dc8:	f0 e0       	ldi	r31, 0x00	; 0
    4dca:	e5 5b       	subi	r30, 0xB5	; 181
    4dcc:	f5 4f       	sbci	r31, 0xF5	; 245
    4dce:	80 83       	st	Z, r24
    4dd0:	2f 5f       	subi	r18, 0xFF	; 255
    4dd2:	20 93 4a 0a 	sts	0x0A4A, r18
    4dd6:	30 e0       	ldi	r19, 0x00	; 0
    4dd8:	80 91 63 0a 	lds	r24, 0x0A63
    4ddc:	90 e0       	ldi	r25, 0x00	; 0
    4dde:	01 97       	sbiw	r24, 0x01	; 1
    4de0:	28 17       	cp	r18, r24
    4de2:	39 07       	cpc	r19, r25
    4de4:	44 f3       	brlt	.-48     	; 0x4db6 <__vector_39+0x84>
    4de6:	85 e8       	ldi	r24, 0x85	; 133
    4de8:	80 93 bc 00 	sts	0x00BC, r24
    4dec:	c0 cf       	rjmp	.-128    	; 0x4d6e <__vector_39+0x3c>
    4dee:	10 92 4a 0a 	sts	0x0A4A, r1
    4df2:	90 91 4a 0a 	lds	r25, 0x0A4A
    4df6:	80 91 63 0a 	lds	r24, 0x0A63
    4dfa:	98 17       	cp	r25, r24
    4dfc:	08 f0       	brcs	.+2      	; 0x4e00 <__vector_39+0xce>
    4dfe:	5d c0       	rjmp	.+186    	; 0x4eba <__vector_39+0x188>
    4e00:	e9 2f       	mov	r30, r25
    4e02:	f0 e0       	ldi	r31, 0x00	; 0
    4e04:	e5 5b       	subi	r30, 0xB5	; 181
    4e06:	f5 4f       	sbci	r31, 0xF5	; 245
    4e08:	80 81       	ld	r24, Z
    4e0a:	80 93 bb 00 	sts	0x00BB, r24
    4e0e:	9f 5f       	subi	r25, 0xFF	; 255
    4e10:	90 93 4a 0a 	sts	0x0A4A, r25
    4e14:	85 e8       	ldi	r24, 0x85	; 133
    4e16:	80 93 bc 00 	sts	0x00BC, r24
    4e1a:	a9 cf       	rjmp	.-174    	; 0x4d6e <__vector_39+0x3c>
    4e1c:	10 92 4a 0a 	sts	0x0A4A, r1
    4e20:	90 91 4a 0a 	lds	r25, 0x0A4A
    4e24:	e9 2f       	mov	r30, r25
    4e26:	f0 e0       	ldi	r31, 0x00	; 0
    4e28:	e5 5b       	subi	r30, 0xB5	; 181
    4e2a:	f5 4f       	sbci	r31, 0xF5	; 245
    4e2c:	80 81       	ld	r24, Z
    4e2e:	80 93 bb 00 	sts	0x00BB, r24
    4e32:	9f 5f       	subi	r25, 0xFF	; 255
    4e34:	90 93 4a 0a 	sts	0x0A4A, r25
    4e38:	85 ec       	ldi	r24, 0xC5	; 197
    4e3a:	80 93 bc 00 	sts	0x00BC, r24
    4e3e:	97 cf       	rjmp	.-210    	; 0x4d6e <__vector_39+0x3c>
    4e40:	80 91 bb 00 	lds	r24, 0x00BB
    4e44:	e0 91 4a 0a 	lds	r30, 0x0A4A
    4e48:	f0 e0       	ldi	r31, 0x00	; 0
    4e4a:	e5 5b       	subi	r30, 0xB5	; 181
    4e4c:	f5 4f       	sbci	r31, 0xF5	; 245
    4e4e:	80 83       	st	Z, r24
    4e50:	80 91 48 0a 	lds	r24, 0x0A48
    4e54:	81 60       	ori	r24, 0x01	; 1
    4e56:	80 93 48 0a 	sts	0x0A48, r24
    4e5a:	84 ed       	ldi	r24, 0xD4	; 212
    4e5c:	80 93 bc 00 	sts	0x00BC, r24
    4e60:	86 cf       	rjmp	.-244    	; 0x4d6e <__vector_39+0x3c>
    4e62:	80 91 b9 00 	lds	r24, 0x00B9
    4e66:	80 93 a7 09 	sts	0x09A7, r24
    4e6a:	85 ee       	ldi	r24, 0xE5	; 229
    4e6c:	80 93 bc 00 	sts	0x00BC, r24
    4e70:	7e cf       	rjmp	.-260    	; 0x4d6e <__vector_39+0x3c>
    4e72:	85 ee       	ldi	r24, 0xE5	; 229
    4e74:	80 93 bc 00 	sts	0x00BC, r24
    4e78:	7a cf       	rjmp	.-268    	; 0x4d6e <__vector_39+0x3c>
    4e7a:	84 e0       	ldi	r24, 0x04	; 4
    4e7c:	80 93 49 0a 	sts	0x0A49, r24
    4e80:	80 93 bc 00 	sts	0x00BC, r24
    4e84:	74 cf       	rjmp	.-280    	; 0x4d6e <__vector_39+0x3c>
    4e86:	90 91 4a 0a 	lds	r25, 0x0A4A
    4e8a:	80 91 63 0a 	lds	r24, 0x0A63
    4e8e:	98 17       	cp	r25, r24
    4e90:	19 f1       	breq	.+70     	; 0x4ed8 <__vector_39+0x1a6>
    4e92:	80 91 b9 00 	lds	r24, 0x00B9
    4e96:	80 93 a7 09 	sts	0x09A7, r24
    4e9a:	84 e0       	ldi	r24, 0x04	; 4
    4e9c:	80 93 bc 00 	sts	0x00BC, r24
    4ea0:	66 cf       	rjmp	.-308    	; 0x4d6e <__vector_39+0x3c>
    4ea2:	80 91 48 0a 	lds	r24, 0x0A48
    4ea6:	84 60       	ori	r24, 0x04	; 4
    4ea8:	82 60       	ori	r24, 0x02	; 2
    4eaa:	80 93 48 0a 	sts	0x0A48, r24
    4eae:	10 92 4a 0a 	sts	0x0A4A, r1
    4eb2:	85 ec       	ldi	r24, 0xC5	; 197
    4eb4:	80 93 bc 00 	sts	0x00BC, r24
    4eb8:	5a cf       	rjmp	.-332    	; 0x4d6e <__vector_39+0x3c>
    4eba:	80 91 48 0a 	lds	r24, 0x0A48
    4ebe:	81 60       	ori	r24, 0x01	; 1
    4ec0:	80 93 48 0a 	sts	0x0A48, r24
    4ec4:	84 e9       	ldi	r24, 0x94	; 148
    4ec6:	80 93 bc 00 	sts	0x00BC, r24
    4eca:	51 cf       	rjmp	.-350    	; 0x4d6e <__vector_39+0x3c>
    4ecc:	80 91 48 0a 	lds	r24, 0x0A48
    4ed0:	eb cf       	rjmp	.-42     	; 0x4ea8 <__vector_39+0x176>
    4ed2:	20 91 4a 0a 	lds	r18, 0x0A4A
    4ed6:	7f cf       	rjmp	.-258    	; 0x4dd6 <__vector_39+0xa4>
    4ed8:	80 91 48 0a 	lds	r24, 0x0A48
    4edc:	81 60       	ori	r24, 0x01	; 1
    4ede:	80 93 48 0a 	sts	0x0A48, r24
    4ee2:	db cf       	rjmp	.-74     	; 0x4e9a <__vector_39+0x168>

00004ee4 <I2C_Master_Initialise>:
    4ee4:	1f 93       	push	r17
    4ee6:	18 2f       	mov	r17, r24
    4ee8:	80 91 46 0a 	lds	r24, 0x0A46
    4eec:	90 91 47 0a 	lds	r25, 0x0A47
    4ef0:	89 2b       	or	r24, r25
    4ef2:	a9 f0       	breq	.+42     	; 0x4f1e <I2C_Master_Initialise+0x3a>
    4ef4:	8a b1       	in	r24, 0x0a	; 10
    4ef6:	8c 7f       	andi	r24, 0xFC	; 252
    4ef8:	8a b9       	out	0x0a, r24	; 10
    4efa:	8b b1       	in	r24, 0x0b	; 11
    4efc:	83 60       	ori	r24, 0x03	; 3
    4efe:	8b b9       	out	0x0b, r24	; 11
    4f00:	10 92 b9 00 	sts	0x00B9, r1
    4f04:	8c e2       	ldi	r24, 0x2C	; 44
    4f06:	80 93 b8 00 	sts	0x00B8, r24
    4f0a:	10 93 ba 00 	sts	0x00BA, r17
    4f0e:	8f ef       	ldi	r24, 0xFF	; 255
    4f10:	80 93 bb 00 	sts	0x00BB, r24
    4f14:	84 e0       	ldi	r24, 0x04	; 4
    4f16:	80 93 bc 00 	sts	0x00BC, r24
    4f1a:	1f 91       	pop	r17
    4f1c:	08 95       	ret
    4f1e:	81 e0       	ldi	r24, 0x01	; 1
    4f20:	60 e0       	ldi	r22, 0x00	; 0
    4f22:	43 e0       	ldi	r20, 0x03	; 3
    4f24:	0e 94 db 2e 	call	0x5db6	; 0x5db6 <xQueueGenericCreate>
    4f28:	90 93 47 0a 	sts	0x0A47, r25
    4f2c:	80 93 46 0a 	sts	0x0A46, r24
    4f30:	00 97       	sbiw	r24, 0x00	; 0
    4f32:	01 f3       	breq	.-64     	; 0x4ef4 <I2C_Master_Initialise+0x10>
    4f34:	60 e0       	ldi	r22, 0x00	; 0
    4f36:	70 e0       	ldi	r23, 0x00	; 0
    4f38:	40 e0       	ldi	r20, 0x00	; 0
    4f3a:	50 e0       	ldi	r21, 0x00	; 0
    4f3c:	20 e0       	ldi	r18, 0x00	; 0
    4f3e:	0e 94 48 2c 	call	0x5890	; 0x5890 <xQueueGenericSend>
    4f42:	d8 cf       	rjmp	.-80     	; 0x4ef4 <I2C_Master_Initialise+0x10>

00004f44 <I2C_Slave_Initialise>:
    4f44:	1f 93       	push	r17
    4f46:	18 2f       	mov	r17, r24
    4f48:	80 91 46 0a 	lds	r24, 0x0A46
    4f4c:	90 91 47 0a 	lds	r25, 0x0A47
    4f50:	89 2b       	or	r24, r25
    4f52:	69 f0       	breq	.+26     	; 0x4f6e <I2C_Slave_Initialise+0x2a>
    4f54:	8a b1       	in	r24, 0x0a	; 10
    4f56:	8c 7f       	andi	r24, 0xFC	; 252
    4f58:	8a b9       	out	0x0a, r24	; 10
    4f5a:	10 93 ba 00 	sts	0x00BA, r17
    4f5e:	8f ef       	ldi	r24, 0xFF	; 255
    4f60:	80 93 bb 00 	sts	0x00BB, r24
    4f64:	84 e0       	ldi	r24, 0x04	; 4
    4f66:	80 93 bc 00 	sts	0x00BC, r24
    4f6a:	1f 91       	pop	r17
    4f6c:	08 95       	ret
    4f6e:	81 e0       	ldi	r24, 0x01	; 1
    4f70:	60 e0       	ldi	r22, 0x00	; 0
    4f72:	43 e0       	ldi	r20, 0x03	; 3
    4f74:	0e 94 db 2e 	call	0x5db6	; 0x5db6 <xQueueGenericCreate>
    4f78:	90 93 47 0a 	sts	0x0A47, r25
    4f7c:	80 93 46 0a 	sts	0x0A46, r24
    4f80:	00 97       	sbiw	r24, 0x00	; 0
    4f82:	41 f3       	breq	.-48     	; 0x4f54 <I2C_Slave_Initialise+0x10>
    4f84:	60 e0       	ldi	r22, 0x00	; 0
    4f86:	70 e0       	ldi	r23, 0x00	; 0
    4f88:	40 e0       	ldi	r20, 0x00	; 0
    4f8a:	50 e0       	ldi	r21, 0x00	; 0
    4f8c:	20 e0       	ldi	r18, 0x00	; 0
    4f8e:	0e 94 48 2c 	call	0x5890	; 0x5890 <xQueueGenericSend>
    4f92:	e0 cf       	rjmp	.-64     	; 0x4f54 <I2C_Slave_Initialise+0x10>

00004f94 <xPortGetFreeHeapSize>:
    4f94:	80 91 aa 09 	lds	r24, 0x09AA
    4f98:	90 91 ab 09 	lds	r25, 0x09AB
    4f9c:	08 95       	ret

00004f9e <xPortGetMinimumEverFreeHeapSize>:
    4f9e:	80 91 a8 09 	lds	r24, 0x09A8
    4fa2:	90 91 a9 09 	lds	r25, 0x09A9
    4fa6:	08 95       	ret

00004fa8 <vPortInitialiseBlocks>:
    4fa8:	08 95       	ret

00004faa <vPortFree>:
    4faa:	0f 93       	push	r16
    4fac:	1f 93       	push	r17
    4fae:	cf 93       	push	r28
    4fb0:	df 93       	push	r29
    4fb2:	00 97       	sbiw	r24, 0x00	; 0
    4fb4:	89 f0       	breq	.+34     	; 0x4fd8 <vPortFree+0x2e>
    4fb6:	ec 01       	movw	r28, r24
    4fb8:	24 97       	sbiw	r28, 0x04	; 4
    4fba:	4a 81       	ldd	r20, Y+2	; 0x02
    4fbc:	5b 81       	ldd	r21, Y+3	; 0x03
    4fbe:	20 91 64 0a 	lds	r18, 0x0A64
    4fc2:	30 91 65 0a 	lds	r19, 0x0A65
    4fc6:	c9 01       	movw	r24, r18
    4fc8:	84 23       	and	r24, r20
    4fca:	95 23       	and	r25, r21
    4fcc:	89 2b       	or	r24, r25
    4fce:	21 f0       	breq	.+8      	; 0x4fd8 <vPortFree+0x2e>
    4fd0:	88 81       	ld	r24, Y
    4fd2:	99 81       	ldd	r25, Y+1	; 0x01
    4fd4:	89 2b       	or	r24, r25
    4fd6:	29 f0       	breq	.+10     	; 0x4fe2 <vPortFree+0x38>
    4fd8:	df 91       	pop	r29
    4fda:	cf 91       	pop	r28
    4fdc:	1f 91       	pop	r17
    4fde:	0f 91       	pop	r16
    4fe0:	08 95       	ret
    4fe2:	20 95       	com	r18
    4fe4:	30 95       	com	r19
    4fe6:	24 23       	and	r18, r20
    4fe8:	35 23       	and	r19, r21
    4fea:	3b 83       	std	Y+3, r19	; 0x03
    4fec:	2a 83       	std	Y+2, r18	; 0x02
    4fee:	0e 94 49 2f 	call	0x5e92	; 0x5e92 <vTaskSuspendAll>
    4ff2:	0a 81       	ldd	r16, Y+2	; 0x02
    4ff4:	1b 81       	ldd	r17, Y+3	; 0x03
    4ff6:	80 91 aa 09 	lds	r24, 0x09AA
    4ffa:	90 91 ab 09 	lds	r25, 0x09AB
    4ffe:	80 0f       	add	r24, r16
    5000:	91 1f       	adc	r25, r17
    5002:	90 93 ab 09 	sts	0x09AB, r25
    5006:	80 93 aa 09 	sts	0x09AA, r24
    500a:	e8 e6       	ldi	r30, 0x68	; 104
    500c:	fc e1       	ldi	r31, 0x1C	; 28
    500e:	01 c0       	rjmp	.+2      	; 0x5012 <vPortFree+0x68>
    5010:	fc 01       	movw	r30, r24
    5012:	80 81       	ld	r24, Z
    5014:	91 81       	ldd	r25, Z+1	; 0x01
    5016:	8c 17       	cp	r24, r28
    5018:	9d 07       	cpc	r25, r29
    501a:	d0 f3       	brcs	.-12     	; 0x5010 <vPortFree+0x66>
    501c:	bf 01       	movw	r22, r30
    501e:	9f 01       	movw	r18, r30
    5020:	42 81       	ldd	r20, Z+2	; 0x02
    5022:	53 81       	ldd	r21, Z+3	; 0x03
    5024:	cf 01       	movw	r24, r30
    5026:	84 0f       	add	r24, r20
    5028:	95 1f       	adc	r25, r21
    502a:	c8 17       	cp	r28, r24
    502c:	d9 07       	cpc	r29, r25
    502e:	49 f1       	breq	.+82     	; 0x5082 <vPortFree+0xd8>
    5030:	fe 01       	movw	r30, r28
    5032:	9e 01       	movw	r18, r28
    5034:	eb 01       	movw	r28, r22
    5036:	a8 81       	ld	r26, Y
    5038:	b9 81       	ldd	r27, Y+1	; 0x01
    503a:	20 0f       	add	r18, r16
    503c:	31 1f       	adc	r19, r17
    503e:	a2 17       	cp	r26, r18
    5040:	b3 07       	cpc	r27, r19
    5042:	59 f0       	breq	.+22     	; 0x505a <vPortFree+0xb0>
    5044:	b1 83       	std	Z+1, r27	; 0x01
    5046:	a0 83       	st	Z, r26
    5048:	6e 17       	cp	r22, r30
    504a:	7f 07       	cpc	r23, r31
    504c:	19 f0       	breq	.+6      	; 0x5054 <vPortFree+0xaa>
    504e:	db 01       	movw	r26, r22
    5050:	ed 93       	st	X+, r30
    5052:	fc 93       	st	X, r31
    5054:	0e 94 63 34 	call	0x68c6	; 0x68c6 <xTaskResumeAll>
    5058:	bf cf       	rjmp	.-130    	; 0x4fd8 <vPortFree+0x2e>
    505a:	80 91 66 0a 	lds	r24, 0x0A66
    505e:	90 91 67 0a 	lds	r25, 0x0A67
    5062:	a8 17       	cp	r26, r24
    5064:	b9 07       	cpc	r27, r25
    5066:	71 f3       	breq	.-36     	; 0x5044 <vPortFree+0x9a>
    5068:	12 96       	adiw	r26, 0x02	; 2
    506a:	8d 91       	ld	r24, X+
    506c:	9c 91       	ld	r25, X
    506e:	13 97       	sbiw	r26, 0x03	; 3
    5070:	80 0f       	add	r24, r16
    5072:	91 1f       	adc	r25, r17
    5074:	93 83       	std	Z+3, r25	; 0x03
    5076:	82 83       	std	Z+2, r24	; 0x02
    5078:	8d 91       	ld	r24, X+
    507a:	9c 91       	ld	r25, X
    507c:	91 83       	std	Z+1, r25	; 0x01
    507e:	80 83       	st	Z, r24
    5080:	e3 cf       	rjmp	.-58     	; 0x5048 <vPortFree+0x9e>
    5082:	ca 01       	movw	r24, r20
    5084:	80 0f       	add	r24, r16
    5086:	91 1f       	adc	r25, r17
    5088:	93 83       	std	Z+3, r25	; 0x03
    508a:	82 83       	std	Z+2, r24	; 0x02
    508c:	8c 01       	movw	r16, r24
    508e:	d2 cf       	rjmp	.-92     	; 0x5034 <vPortFree+0x8a>

00005090 <pvPortMalloc>:
    5090:	a0 e0       	ldi	r26, 0x00	; 0
    5092:	b0 e0       	ldi	r27, 0x00	; 0
    5094:	ee e4       	ldi	r30, 0x4E	; 78
    5096:	f8 e2       	ldi	r31, 0x28	; 40
    5098:	0c 94 94 53 	jmp	0xa728	; 0xa728 <__prologue_saves__+0x10>
    509c:	ec 01       	movw	r28, r24
    509e:	0e 94 49 2f 	call	0x5e92	; 0x5e92 <vTaskSuspendAll>
    50a2:	80 91 66 0a 	lds	r24, 0x0A66
    50a6:	90 91 67 0a 	lds	r25, 0x0A67
    50aa:	89 2b       	or	r24, r25
    50ac:	99 f0       	breq	.+38     	; 0x50d4 <pvPortMalloc+0x44>
    50ae:	40 91 64 0a 	lds	r20, 0x0A64
    50b2:	50 91 65 0a 	lds	r21, 0x0A65
    50b6:	ce 01       	movw	r24, r28
    50b8:	84 23       	and	r24, r20
    50ba:	95 23       	and	r25, r21
    50bc:	89 2b       	or	r24, r25
    50be:	e1 f1       	breq	.+120    	; 0x5138 <pvPortMalloc+0xa8>
    50c0:	c0 e0       	ldi	r28, 0x00	; 0
    50c2:	d0 e0       	ldi	r29, 0x00	; 0
    50c4:	0e 94 63 34 	call	0x68c6	; 0x68c6 <xTaskResumeAll>
    50c8:	ce 01       	movw	r24, r28
    50ca:	cd b7       	in	r28, 0x3d	; 61
    50cc:	de b7       	in	r29, 0x3e	; 62
    50ce:	ea e0       	ldi	r30, 0x0A	; 10
    50d0:	0c 94 b0 53 	jmp	0xa760	; 0xa760 <__epilogue_restores__+0x10>
    50d4:	89 e6       	ldi	r24, 0x69	; 105
    50d6:	9a e0       	ldi	r25, 0x0A	; 10
    50d8:	90 93 69 1c 	sts	0x1C69, r25
    50dc:	80 93 68 1c 	sts	0x1C68, r24
    50e0:	10 92 6b 1c 	sts	0x1C6B, r1
    50e4:	10 92 6a 1c 	sts	0x1C6A, r1
    50e8:	24 e6       	ldi	r18, 0x64	; 100
    50ea:	3c e1       	ldi	r19, 0x1C	; 28
    50ec:	30 93 67 0a 	sts	0x0A67, r19
    50f0:	20 93 66 0a 	sts	0x0A66, r18
    50f4:	10 92 67 1c 	sts	0x1C67, r1
    50f8:	10 92 66 1c 	sts	0x1C66, r1
    50fc:	10 92 65 1c 	sts	0x1C65, r1
    5100:	10 92 64 1c 	sts	0x1C64, r1
    5104:	8b ef       	ldi	r24, 0xFB	; 251
    5106:	91 e1       	ldi	r25, 0x11	; 17
    5108:	90 93 6c 0a 	sts	0x0A6C, r25
    510c:	80 93 6b 0a 	sts	0x0A6B, r24
    5110:	30 93 6a 0a 	sts	0x0A6A, r19
    5114:	20 93 69 0a 	sts	0x0A69, r18
    5118:	80 91 aa 09 	lds	r24, 0x09AA
    511c:	90 91 ab 09 	lds	r25, 0x09AB
    5120:	04 97       	sbiw	r24, 0x04	; 4
    5122:	90 93 ab 09 	sts	0x09AB, r25
    5126:	80 93 aa 09 	sts	0x09AA, r24
    512a:	80 e0       	ldi	r24, 0x00	; 0
    512c:	90 e8       	ldi	r25, 0x80	; 128
    512e:	90 93 65 0a 	sts	0x0A65, r25
    5132:	80 93 64 0a 	sts	0x0A64, r24
    5136:	bb cf       	rjmp	.-138    	; 0x50ae <pvPortMalloc+0x1e>
    5138:	20 97       	sbiw	r28, 0x00	; 0
    513a:	11 f2       	breq	.-124    	; 0x50c0 <pvPortMalloc+0x30>
    513c:	be 01       	movw	r22, r28
    513e:	6c 5f       	subi	r22, 0xFC	; 252
    5140:	7f 4f       	sbci	r23, 0xFF	; 255
    5142:	09 f4       	brne	.+2      	; 0x5146 <pvPortMalloc+0xb6>
    5144:	bd cf       	rjmp	.-134    	; 0x50c0 <pvPortMalloc+0x30>
    5146:	a0 90 aa 09 	lds	r10, 0x09AA
    514a:	b0 90 ab 09 	lds	r11, 0x09AB
    514e:	a6 16       	cp	r10, r22
    5150:	b7 06       	cpc	r11, r23
    5152:	08 f4       	brcc	.+2      	; 0x5156 <pvPortMalloc+0xc6>
    5154:	b5 cf       	rjmp	.-150    	; 0x50c0 <pvPortMalloc+0x30>
    5156:	00 91 68 1c 	lds	r16, 0x1C68
    515a:	10 91 69 1c 	lds	r17, 0x1C69
    515e:	a8 e6       	ldi	r26, 0x68	; 104
    5160:	bc e1       	ldi	r27, 0x1C	; 28
    5162:	06 c0       	rjmp	.+12     	; 0x5170 <pvPortMalloc+0xe0>
    5164:	88 81       	ld	r24, Y
    5166:	99 81       	ldd	r25, Y+1	; 0x01
    5168:	00 97       	sbiw	r24, 0x00	; 0
    516a:	41 f0       	breq	.+16     	; 0x517c <pvPortMalloc+0xec>
    516c:	8c 01       	movw	r16, r24
    516e:	de 01       	movw	r26, r28
    5170:	e8 01       	movw	r28, r16
    5172:	ea 81       	ldd	r30, Y+2	; 0x02
    5174:	fb 81       	ldd	r31, Y+3	; 0x03
    5176:	e6 17       	cp	r30, r22
    5178:	f7 07       	cpc	r31, r23
    517a:	a0 f3       	brcs	.-24     	; 0x5164 <pvPortMalloc+0xd4>
    517c:	e0 90 66 0a 	lds	r14, 0x0A66
    5180:	f0 90 67 0a 	lds	r15, 0x0A67
    5184:	0e 15       	cp	r16, r14
    5186:	1f 05       	cpc	r17, r15
    5188:	09 f4       	brne	.+2      	; 0x518c <pvPortMalloc+0xfc>
    518a:	9a cf       	rjmp	.-204    	; 0x50c0 <pvPortMalloc+0x30>
    518c:	cd 90       	ld	r12, X+
    518e:	dc 90       	ld	r13, X
    5190:	11 97       	sbiw	r26, 0x01	; 1
    5192:	e8 01       	movw	r28, r16
    5194:	88 81       	ld	r24, Y
    5196:	99 81       	ldd	r25, Y+1	; 0x01
    5198:	8d 93       	st	X+, r24
    519a:	9c 93       	st	X, r25
    519c:	cf 01       	movw	r24, r30
    519e:	86 1b       	sub	r24, r22
    51a0:	97 0b       	sbc	r25, r23
    51a2:	89 30       	cpi	r24, 0x09	; 9
    51a4:	91 05       	cpc	r25, r1
    51a6:	90 f1       	brcs	.+100    	; 0x520c <pvPortMalloc+0x17c>
    51a8:	d8 01       	movw	r26, r16
    51aa:	a6 0f       	add	r26, r22
    51ac:	b7 1f       	adc	r27, r23
    51ae:	13 96       	adiw	r26, 0x03	; 3
    51b0:	9c 93       	st	X, r25
    51b2:	8e 93       	st	-X, r24
    51b4:	12 97       	sbiw	r26, 0x02	; 2
    51b6:	f8 01       	movw	r30, r16
    51b8:	73 83       	std	Z+3, r23	; 0x03
    51ba:	62 83       	std	Z+2, r22	; 0x02
    51bc:	e8 e6       	ldi	r30, 0x68	; 104
    51be:	fc e1       	ldi	r31, 0x1C	; 28
    51c0:	01 c0       	rjmp	.+2      	; 0x51c4 <pvPortMalloc+0x134>
    51c2:	fc 01       	movw	r30, r24
    51c4:	80 81       	ld	r24, Z
    51c6:	91 81       	ldd	r25, Z+1	; 0x01
    51c8:	8a 17       	cp	r24, r26
    51ca:	9b 07       	cpc	r25, r27
    51cc:	d0 f3       	brcs	.-12     	; 0x51c2 <pvPortMalloc+0x132>
    51ce:	ef 01       	movw	r28, r30
    51d0:	9f 01       	movw	r18, r30
    51d2:	62 81       	ldd	r22, Z+2	; 0x02
    51d4:	73 81       	ldd	r23, Z+3	; 0x03
    51d6:	cf 01       	movw	r24, r30
    51d8:	86 0f       	add	r24, r22
    51da:	97 1f       	adc	r25, r23
    51dc:	a8 17       	cp	r26, r24
    51de:	b9 07       	cpc	r27, r25
    51e0:	99 f1       	breq	.+102    	; 0x5248 <pvPortMalloc+0x1b8>
    51e2:	fd 01       	movw	r30, r26
    51e4:	9d 01       	movw	r18, r26
    51e6:	62 81       	ldd	r22, Z+2	; 0x02
    51e8:	73 81       	ldd	r23, Z+3	; 0x03
    51ea:	a8 81       	ld	r26, Y
    51ec:	b9 81       	ldd	r27, Y+1	; 0x01
    51ee:	26 0f       	add	r18, r22
    51f0:	37 1f       	adc	r19, r23
    51f2:	a2 17       	cp	r26, r18
    51f4:	b3 07       	cpc	r27, r19
    51f6:	b9 f1       	breq	.+110    	; 0x5266 <pvPortMalloc+0x1d6>
    51f8:	b1 83       	std	Z+1, r27	; 0x01
    51fa:	a0 83       	st	Z, r26
    51fc:	ce 17       	cp	r28, r30
    51fe:	df 07       	cpc	r29, r31
    5200:	61 f1       	breq	.+88     	; 0x525a <pvPortMalloc+0x1ca>
    5202:	f9 83       	std	Y+1, r31	; 0x01
    5204:	e8 83       	st	Y, r30
    5206:	e8 01       	movw	r28, r16
    5208:	ea 81       	ldd	r30, Y+2	; 0x02
    520a:	fb 81       	ldd	r31, Y+3	; 0x03
    520c:	95 01       	movw	r18, r10
    520e:	2e 1b       	sub	r18, r30
    5210:	3f 0b       	sbc	r19, r31
    5212:	30 93 ab 09 	sts	0x09AB, r19
    5216:	20 93 aa 09 	sts	0x09AA, r18
    521a:	80 91 a8 09 	lds	r24, 0x09A8
    521e:	90 91 a9 09 	lds	r25, 0x09A9
    5222:	28 17       	cp	r18, r24
    5224:	39 07       	cpc	r19, r25
    5226:	20 f4       	brcc	.+8      	; 0x5230 <pvPortMalloc+0x1a0>
    5228:	30 93 a9 09 	sts	0x09A9, r19
    522c:	20 93 a8 09 	sts	0x09A8, r18
    5230:	e6 01       	movw	r28, r12
    5232:	24 96       	adiw	r28, 0x04	; 4
    5234:	e4 2b       	or	r30, r20
    5236:	f5 2b       	or	r31, r21
    5238:	d8 01       	movw	r26, r16
    523a:	13 96       	adiw	r26, 0x03	; 3
    523c:	fc 93       	st	X, r31
    523e:	ee 93       	st	-X, r30
    5240:	12 97       	sbiw	r26, 0x02	; 2
    5242:	1d 92       	st	X+, r1
    5244:	1c 92       	st	X, r1
    5246:	3e cf       	rjmp	.-388    	; 0x50c4 <pvPortMalloc+0x34>
    5248:	12 96       	adiw	r26, 0x02	; 2
    524a:	8d 91       	ld	r24, X+
    524c:	9c 91       	ld	r25, X
    524e:	13 97       	sbiw	r26, 0x03	; 3
    5250:	86 0f       	add	r24, r22
    5252:	97 1f       	adc	r25, r23
    5254:	93 83       	std	Z+3, r25	; 0x03
    5256:	82 83       	std	Z+2, r24	; 0x02
    5258:	c6 cf       	rjmp	.-116    	; 0x51e6 <pvPortMalloc+0x156>
    525a:	d8 01       	movw	r26, r16
    525c:	12 96       	adiw	r26, 0x02	; 2
    525e:	ed 91       	ld	r30, X+
    5260:	fc 91       	ld	r31, X
    5262:	13 97       	sbiw	r26, 0x03	; 3
    5264:	d3 cf       	rjmp	.-90     	; 0x520c <pvPortMalloc+0x17c>
    5266:	ea 16       	cp	r14, r26
    5268:	fb 06       	cpc	r15, r27
    526a:	69 f0       	breq	.+26     	; 0x5286 <pvPortMalloc+0x1f6>
    526c:	12 96       	adiw	r26, 0x02	; 2
    526e:	8d 91       	ld	r24, X+
    5270:	9c 91       	ld	r25, X
    5272:	13 97       	sbiw	r26, 0x03	; 3
    5274:	86 0f       	add	r24, r22
    5276:	97 1f       	adc	r25, r23
    5278:	93 83       	std	Z+3, r25	; 0x03
    527a:	82 83       	std	Z+2, r24	; 0x02
    527c:	8d 91       	ld	r24, X+
    527e:	9c 91       	ld	r25, X
    5280:	91 83       	std	Z+1, r25	; 0x01
    5282:	80 83       	st	Z, r24
    5284:	bb cf       	rjmp	.-138    	; 0x51fc <pvPortMalloc+0x16c>
    5286:	f1 82       	std	Z+1, r15	; 0x01
    5288:	e0 82       	st	Z, r14
    528a:	b8 cf       	rjmp	.-144    	; 0x51fc <pvPortMalloc+0x16c>

0000528c <uxQueueMessagesWaiting>:
    528c:	0f b6       	in	r0, 0x3f	; 63
    528e:	f8 94       	cli
    5290:	0f 92       	push	r0
    5292:	fc 01       	movw	r30, r24
    5294:	82 8d       	ldd	r24, Z+26	; 0x1a
    5296:	0f 90       	pop	r0
    5298:	0f be       	out	0x3f, r0	; 63
    529a:	08 95       	ret

0000529c <uxQueueSpacesAvailable>:
    529c:	fc 01       	movw	r30, r24
    529e:	0f b6       	in	r0, 0x3f	; 63
    52a0:	f8 94       	cli
    52a2:	0f 92       	push	r0
    52a4:	92 8d       	ldd	r25, Z+26	; 0x1a
    52a6:	0f 90       	pop	r0
    52a8:	0f be       	out	0x3f, r0	; 63
    52aa:	83 8d       	ldd	r24, Z+27	; 0x1b
    52ac:	89 1b       	sub	r24, r25
    52ae:	08 95       	ret

000052b0 <uxQueueMessagesWaitingFromISR>:
    52b0:	fc 01       	movw	r30, r24
    52b2:	82 8d       	ldd	r24, Z+26	; 0x1a
    52b4:	08 95       	ret

000052b6 <uxQueueGetQueueNumber>:
    52b6:	fc 01       	movw	r30, r24
    52b8:	87 8d       	ldd	r24, Z+31	; 0x1f
    52ba:	08 95       	ret

000052bc <vQueueSetQueueNumber>:
    52bc:	fc 01       	movw	r30, r24
    52be:	67 8f       	std	Z+31, r22	; 0x1f
    52c0:	08 95       	ret

000052c2 <ucQueueGetQueueType>:
    52c2:	fc 01       	movw	r30, r24
    52c4:	80 a1       	ldd	r24, Z+32	; 0x20
    52c6:	08 95       	ret

000052c8 <xQueueIsQueueEmptyFromISR>:
    52c8:	fc 01       	movw	r30, r24
    52ca:	82 8d       	ldd	r24, Z+26	; 0x1a
    52cc:	90 e0       	ldi	r25, 0x00	; 0
    52ce:	88 23       	and	r24, r24
    52d0:	09 f4       	brne	.+2      	; 0x52d4 <xQueueIsQueueEmptyFromISR+0xc>
    52d2:	91 e0       	ldi	r25, 0x01	; 1
    52d4:	89 2f       	mov	r24, r25
    52d6:	08 95       	ret

000052d8 <xQueueIsQueueFullFromISR>:
    52d8:	fc 01       	movw	r30, r24
    52da:	92 8d       	ldd	r25, Z+26	; 0x1a
    52dc:	20 e0       	ldi	r18, 0x00	; 0
    52de:	83 8d       	ldd	r24, Z+27	; 0x1b
    52e0:	98 17       	cp	r25, r24
    52e2:	11 f0       	breq	.+4      	; 0x52e8 <xQueueIsQueueFullFromISR+0x10>
    52e4:	82 2f       	mov	r24, r18
    52e6:	08 95       	ret
    52e8:	21 e0       	ldi	r18, 0x01	; 1
    52ea:	82 2f       	mov	r24, r18
    52ec:	08 95       	ret

000052ee <vQueueDelete>:
    52ee:	cf 93       	push	r28
    52f0:	df 93       	push	r29
    52f2:	ec 01       	movw	r28, r24
    52f4:	88 81       	ld	r24, Y
    52f6:	99 81       	ldd	r25, Y+1	; 0x01
    52f8:	00 97       	sbiw	r24, 0x00	; 0
    52fa:	11 f0       	breq	.+4      	; 0x5300 <vQueueDelete+0x12>
    52fc:	0e 94 d5 27 	call	0x4faa	; 0x4faa <vPortFree>
    5300:	ce 01       	movw	r24, r28
    5302:	0e 94 d5 27 	call	0x4faa	; 0x4faa <vPortFree>
    5306:	df 91       	pop	r29
    5308:	cf 91       	pop	r28
    530a:	08 95       	ret

0000530c <xQueuePeekFromISR>:
    530c:	0f 93       	push	r16
    530e:	1f 93       	push	r17
    5310:	cf 93       	push	r28
    5312:	df 93       	push	r29
    5314:	56 2f       	mov	r21, r22
    5316:	e7 2f       	mov	r30, r23
    5318:	ec 01       	movw	r28, r24
    531a:	8a 8d       	ldd	r24, Y+26	; 0x1a
    531c:	88 23       	and	r24, r24
    531e:	f1 f0       	breq	.+60     	; 0x535c <xQueuePeekFromISR+0x50>
    5320:	0e 81       	ldd	r16, Y+6	; 0x06
    5322:	1f 81       	ldd	r17, Y+7	; 0x07
    5324:	68 81       	ld	r22, Y
    5326:	79 81       	ldd	r23, Y+1	; 0x01
    5328:	61 15       	cp	r22, r1
    532a:	71 05       	cpc	r23, r1
    532c:	a1 f0       	breq	.+40     	; 0x5356 <xQueuePeekFromISR+0x4a>
    532e:	4c 8d       	ldd	r20, Y+28	; 0x1c
    5330:	98 01       	movw	r18, r16
    5332:	24 0f       	add	r18, r20
    5334:	31 1d       	adc	r19, r1
    5336:	3f 83       	std	Y+7, r19	; 0x07
    5338:	2e 83       	std	Y+6, r18	; 0x06
    533a:	8a 81       	ldd	r24, Y+2	; 0x02
    533c:	9b 81       	ldd	r25, Y+3	; 0x03
    533e:	28 17       	cp	r18, r24
    5340:	39 07       	cpc	r19, r25
    5342:	10 f0       	brcs	.+4      	; 0x5348 <xQueuePeekFromISR+0x3c>
    5344:	7f 83       	std	Y+7, r23	; 0x07
    5346:	6e 83       	std	Y+6, r22	; 0x06
    5348:	6e 81       	ldd	r22, Y+6	; 0x06
    534a:	7f 81       	ldd	r23, Y+7	; 0x07
    534c:	85 2f       	mov	r24, r21
    534e:	9e 2f       	mov	r25, r30
    5350:	50 e0       	ldi	r21, 0x00	; 0
    5352:	0e 94 25 08 	call	0x104a	; 0x104a <memcpy>
    5356:	1f 83       	std	Y+7, r17	; 0x07
    5358:	0e 83       	std	Y+6, r16	; 0x06
    535a:	81 e0       	ldi	r24, 0x01	; 1
    535c:	df 91       	pop	r29
    535e:	cf 91       	pop	r28
    5360:	1f 91       	pop	r17
    5362:	0f 91       	pop	r16
    5364:	08 95       	ret

00005366 <xQueueReceiveFromISR>:
    5366:	0f 93       	push	r16
    5368:	1f 93       	push	r17
    536a:	cf 93       	push	r28
    536c:	df 93       	push	r29
    536e:	fb 01       	movw	r30, r22
    5370:	8a 01       	movw	r16, r20
    5372:	ec 01       	movw	r28, r24
    5374:	8a 8d       	ldd	r24, Y+26	; 0x1a
    5376:	88 23       	and	r24, r24
    5378:	19 f1       	breq	.+70     	; 0x53c0 <xQueueReceiveFromISR+0x5a>
    537a:	68 81       	ld	r22, Y
    537c:	79 81       	ldd	r23, Y+1	; 0x01
    537e:	61 15       	cp	r22, r1
    5380:	71 05       	cpc	r23, r1
    5382:	a1 f0       	breq	.+40     	; 0x53ac <xQueueReceiveFromISR+0x46>
    5384:	4c 8d       	ldd	r20, Y+28	; 0x1c
    5386:	8e 81       	ldd	r24, Y+6	; 0x06
    5388:	9f 81       	ldd	r25, Y+7	; 0x07
    538a:	84 0f       	add	r24, r20
    538c:	91 1d       	adc	r25, r1
    538e:	9f 83       	std	Y+7, r25	; 0x07
    5390:	8e 83       	std	Y+6, r24	; 0x06
    5392:	2a 81       	ldd	r18, Y+2	; 0x02
    5394:	3b 81       	ldd	r19, Y+3	; 0x03
    5396:	82 17       	cp	r24, r18
    5398:	93 07       	cpc	r25, r19
    539a:	10 f0       	brcs	.+4      	; 0x53a0 <xQueueReceiveFromISR+0x3a>
    539c:	7f 83       	std	Y+7, r23	; 0x07
    539e:	6e 83       	std	Y+6, r22	; 0x06
    53a0:	6e 81       	ldd	r22, Y+6	; 0x06
    53a2:	7f 81       	ldd	r23, Y+7	; 0x07
    53a4:	cf 01       	movw	r24, r30
    53a6:	50 e0       	ldi	r21, 0x00	; 0
    53a8:	0e 94 25 08 	call	0x104a	; 0x104a <memcpy>
    53ac:	8a 8d       	ldd	r24, Y+26	; 0x1a
    53ae:	81 50       	subi	r24, 0x01	; 1
    53b0:	8a 8f       	std	Y+26, r24	; 0x1a
    53b2:	8d 8d       	ldd	r24, Y+29	; 0x1d
    53b4:	8f 3f       	cpi	r24, 0xFF	; 255
    53b6:	49 f0       	breq	.+18     	; 0x53ca <xQueueReceiveFromISR+0x64>
    53b8:	8d 8d       	ldd	r24, Y+29	; 0x1d
    53ba:	8f 5f       	subi	r24, 0xFF	; 255
    53bc:	8d 8f       	std	Y+29, r24	; 0x1d
    53be:	81 e0       	ldi	r24, 0x01	; 1
    53c0:	df 91       	pop	r29
    53c2:	cf 91       	pop	r28
    53c4:	1f 91       	pop	r17
    53c6:	0f 91       	pop	r16
    53c8:	08 95       	ret
    53ca:	88 85       	ldd	r24, Y+8	; 0x08
    53cc:	88 23       	and	r24, r24
    53ce:	31 f4       	brne	.+12     	; 0x53dc <xQueueReceiveFromISR+0x76>
    53d0:	81 e0       	ldi	r24, 0x01	; 1
    53d2:	df 91       	pop	r29
    53d4:	cf 91       	pop	r28
    53d6:	1f 91       	pop	r17
    53d8:	0f 91       	pop	r16
    53da:	08 95       	ret
    53dc:	ce 01       	movw	r24, r28
    53de:	08 96       	adiw	r24, 0x08	; 8
    53e0:	0e 94 63 31 	call	0x62c6	; 0x62c6 <xTaskRemoveFromEventList>
    53e4:	88 23       	and	r24, r24
    53e6:	a1 f3       	breq	.-24     	; 0x53d0 <xQueueReceiveFromISR+0x6a>
    53e8:	01 15       	cp	r16, r1
    53ea:	11 05       	cpc	r17, r1
    53ec:	89 f3       	breq	.-30     	; 0x53d0 <xQueueReceiveFromISR+0x6a>
    53ee:	81 e0       	ldi	r24, 0x01	; 1
    53f0:	f8 01       	movw	r30, r16
    53f2:	80 83       	st	Z, r24
    53f4:	e5 cf       	rjmp	.-54     	; 0x53c0 <xQueueReceiveFromISR+0x5a>

000053f6 <xQueueGenericReceive>:
    53f6:	a5 e0       	ldi	r26, 0x05	; 5
    53f8:	b0 e0       	ldi	r27, 0x00	; 0
    53fa:	e1 e0       	ldi	r30, 0x01	; 1
    53fc:	fa e2       	ldi	r31, 0x2A	; 42
    53fe:	0c 94 8e 53 	jmp	0xa71c	; 0xa71c <__prologue_saves__+0x4>
    5402:	56 2e       	mov	r5, r22
    5404:	47 2e       	mov	r4, r23
    5406:	5d 83       	std	Y+5, r21	; 0x05
    5408:	4c 83       	std	Y+4, r20	; 0x04
    540a:	a2 2e       	mov	r10, r18
    540c:	8c 01       	movw	r16, r24
    540e:	28 e0       	ldi	r18, 0x08	; 8
    5410:	c2 2e       	mov	r12, r18
    5412:	d1 2c       	mov	r13, r1
    5414:	c8 0e       	add	r12, r24
    5416:	d9 1e       	adc	r13, r25
    5418:	91 e1       	ldi	r25, 0x11	; 17
    541a:	e9 2e       	mov	r14, r25
    541c:	f1 2c       	mov	r15, r1
    541e:	e0 0e       	add	r14, r16
    5420:	f1 1e       	adc	r15, r17
    5422:	20 e0       	ldi	r18, 0x00	; 0
    5424:	4e 01       	movw	r8, r28
    5426:	08 94       	sec
    5428:	81 1c       	adc	r8, r1
    542a:	91 1c       	adc	r9, r1
    542c:	84 e0       	ldi	r24, 0x04	; 4
    542e:	68 2e       	mov	r6, r24
    5430:	71 2c       	mov	r7, r1
    5432:	6c 0e       	add	r6, r28
    5434:	7d 1e       	adc	r7, r29
    5436:	bb 24       	eor	r11, r11
    5438:	ba 94       	dec	r11
    543a:	0f b6       	in	r0, 0x3f	; 63
    543c:	f8 94       	cli
    543e:	0f 92       	push	r0
    5440:	f8 01       	movw	r30, r16
    5442:	82 8d       	ldd	r24, Z+26	; 0x1a
    5444:	88 23       	and	r24, r24
    5446:	09 f0       	breq	.+2      	; 0x544a <xQueueGenericReceive+0x54>
    5448:	ec c0       	rjmp	.+472    	; 0x5622 <xQueueGenericReceive+0x22c>
    544a:	8c 81       	ldd	r24, Y+4	; 0x04
    544c:	9d 81       	ldd	r25, Y+5	; 0x05
    544e:	89 2b       	or	r24, r25
    5450:	09 f4       	brne	.+2      	; 0x5454 <xQueueGenericReceive+0x5e>
    5452:	1c c1       	rjmp	.+568    	; 0x568c <xQueueGenericReceive+0x296>
    5454:	22 23       	and	r18, r18
    5456:	09 f4       	brne	.+2      	; 0x545a <xQueueGenericReceive+0x64>
    5458:	d5 c0       	rjmp	.+426    	; 0x5604 <xQueueGenericReceive+0x20e>
    545a:	0f 90       	pop	r0
    545c:	0f be       	out	0x3f, r0	; 63
    545e:	0e 94 49 2f 	call	0x5e92	; 0x5e92 <vTaskSuspendAll>
    5462:	0f b6       	in	r0, 0x3f	; 63
    5464:	f8 94       	cli
    5466:	0f 92       	push	r0
    5468:	f8 01       	movw	r30, r16
    546a:	85 8d       	ldd	r24, Z+29	; 0x1d
    546c:	8f 3f       	cpi	r24, 0xFF	; 255
    546e:	09 f4       	brne	.+2      	; 0x5472 <xQueueGenericReceive+0x7c>
    5470:	c7 c0       	rjmp	.+398    	; 0x5600 <xQueueGenericReceive+0x20a>
    5472:	f8 01       	movw	r30, r16
    5474:	86 8d       	ldd	r24, Z+30	; 0x1e
    5476:	8f 3f       	cpi	r24, 0xFF	; 255
    5478:	09 f4       	brne	.+2      	; 0x547c <xQueueGenericReceive+0x86>
    547a:	c0 c0       	rjmp	.+384    	; 0x55fc <xQueueGenericReceive+0x206>
    547c:	0f 90       	pop	r0
    547e:	0f be       	out	0x3f, r0	; 63
    5480:	c4 01       	movw	r24, r8
    5482:	b3 01       	movw	r22, r6
    5484:	0e 94 6e 2f 	call	0x5edc	; 0x5edc <xTaskCheckForTimeOut>
    5488:	88 23       	and	r24, r24
    548a:	09 f0       	breq	.+2      	; 0x548e <xQueueGenericReceive+0x98>
    548c:	07 c1       	rjmp	.+526    	; 0x569c <xQueueGenericReceive+0x2a6>
    548e:	0f b6       	in	r0, 0x3f	; 63
    5490:	f8 94       	cli
    5492:	0f 92       	push	r0
    5494:	f8 01       	movw	r30, r16
    5496:	82 8d       	ldd	r24, Z+26	; 0x1a
    5498:	0f 90       	pop	r0
    549a:	0f be       	out	0x3f, r0	; 63
    549c:	88 23       	and	r24, r24
    549e:	09 f0       	breq	.+2      	; 0x54a2 <xQueueGenericReceive+0xac>
    54a0:	5f c0       	rjmp	.+190    	; 0x5560 <xQueueGenericReceive+0x16a>
    54a2:	f8 01       	movw	r30, r16
    54a4:	80 81       	ld	r24, Z
    54a6:	91 81       	ldd	r25, Z+1	; 0x01
    54a8:	89 2b       	or	r24, r25
    54aa:	09 f4       	brne	.+2      	; 0x54ae <xQueueGenericReceive+0xb8>
    54ac:	af c0       	rjmp	.+350    	; 0x560c <xQueueGenericReceive+0x216>
    54ae:	6c 81       	ldd	r22, Y+4	; 0x04
    54b0:	7d 81       	ldd	r23, Y+5	; 0x05
    54b2:	c7 01       	movw	r24, r14
    54b4:	0e 94 4d 33 	call	0x669a	; 0x669a <vTaskPlaceOnEventList>
    54b8:	0f b6       	in	r0, 0x3f	; 63
    54ba:	f8 94       	cli
    54bc:	0f 92       	push	r0
    54be:	f8 01       	movw	r30, r16
    54c0:	86 8d       	ldd	r24, Z+30	; 0x1e
    54c2:	18 16       	cp	r1, r24
    54c4:	4c f0       	brlt	.+18     	; 0x54d8 <xQueueGenericReceive+0xe2>
    54c6:	19 c0       	rjmp	.+50     	; 0x54fa <xQueueGenericReceive+0x104>
    54c8:	f8 01       	movw	r30, r16
    54ca:	86 8d       	ldd	r24, Z+30	; 0x1e
    54cc:	81 50       	subi	r24, 0x01	; 1
    54ce:	86 8f       	std	Z+30, r24	; 0x1e
    54d0:	86 8d       	ldd	r24, Z+30	; 0x1e
    54d2:	18 16       	cp	r1, r24
    54d4:	94 f4       	brge	.+36     	; 0x54fa <xQueueGenericReceive+0x104>
    54d6:	f8 01       	movw	r30, r16
    54d8:	81 89       	ldd	r24, Z+17	; 0x11
    54da:	88 23       	and	r24, r24
    54dc:	71 f0       	breq	.+28     	; 0x54fa <xQueueGenericReceive+0x104>
    54de:	c7 01       	movw	r24, r14
    54e0:	0e 94 63 31 	call	0x62c6	; 0x62c6 <xTaskRemoveFromEventList>
    54e4:	88 23       	and	r24, r24
    54e6:	81 f3       	breq	.-32     	; 0x54c8 <xQueueGenericReceive+0xd2>
    54e8:	0e 94 ad 2f 	call	0x5f5a	; 0x5f5a <vTaskMissedYield>
    54ec:	f8 01       	movw	r30, r16
    54ee:	86 8d       	ldd	r24, Z+30	; 0x1e
    54f0:	81 50       	subi	r24, 0x01	; 1
    54f2:	86 8f       	std	Z+30, r24	; 0x1e
    54f4:	86 8d       	ldd	r24, Z+30	; 0x1e
    54f6:	18 16       	cp	r1, r24
    54f8:	74 f3       	brlt	.-36     	; 0x54d6 <xQueueGenericReceive+0xe0>
    54fa:	f8 01       	movw	r30, r16
    54fc:	b6 8e       	std	Z+30, r11	; 0x1e
    54fe:	0f 90       	pop	r0
    5500:	0f be       	out	0x3f, r0	; 63
    5502:	0f b6       	in	r0, 0x3f	; 63
    5504:	f8 94       	cli
    5506:	0f 92       	push	r0
    5508:	f8 01       	movw	r30, r16
    550a:	85 8d       	ldd	r24, Z+29	; 0x1d
    550c:	18 16       	cp	r1, r24
    550e:	4c f0       	brlt	.+18     	; 0x5522 <xQueueGenericReceive+0x12c>
    5510:	19 c0       	rjmp	.+50     	; 0x5544 <xQueueGenericReceive+0x14e>
    5512:	f8 01       	movw	r30, r16
    5514:	85 8d       	ldd	r24, Z+29	; 0x1d
    5516:	81 50       	subi	r24, 0x01	; 1
    5518:	85 8f       	std	Z+29, r24	; 0x1d
    551a:	85 8d       	ldd	r24, Z+29	; 0x1d
    551c:	18 16       	cp	r1, r24
    551e:	94 f4       	brge	.+36     	; 0x5544 <xQueueGenericReceive+0x14e>
    5520:	f8 01       	movw	r30, r16
    5522:	80 85       	ldd	r24, Z+8	; 0x08
    5524:	88 23       	and	r24, r24
    5526:	71 f0       	breq	.+28     	; 0x5544 <xQueueGenericReceive+0x14e>
    5528:	c6 01       	movw	r24, r12
    552a:	0e 94 63 31 	call	0x62c6	; 0x62c6 <xTaskRemoveFromEventList>
    552e:	88 23       	and	r24, r24
    5530:	81 f3       	breq	.-32     	; 0x5512 <xQueueGenericReceive+0x11c>
    5532:	0e 94 ad 2f 	call	0x5f5a	; 0x5f5a <vTaskMissedYield>
    5536:	f8 01       	movw	r30, r16
    5538:	85 8d       	ldd	r24, Z+29	; 0x1d
    553a:	81 50       	subi	r24, 0x01	; 1
    553c:	85 8f       	std	Z+29, r24	; 0x1d
    553e:	85 8d       	ldd	r24, Z+29	; 0x1d
    5540:	18 16       	cp	r1, r24
    5542:	74 f3       	brlt	.-36     	; 0x5520 <xQueueGenericReceive+0x12a>
    5544:	f8 01       	movw	r30, r16
    5546:	b5 8e       	std	Z+29, r11	; 0x1d
    5548:	0f 90       	pop	r0
    554a:	0f be       	out	0x3f, r0	; 63
    554c:	0e 94 63 34 	call	0x68c6	; 0x68c6 <xTaskResumeAll>
    5550:	88 23       	and	r24, r24
    5552:	11 f0       	breq	.+4      	; 0x5558 <xQueueGenericReceive+0x162>
    5554:	21 e0       	ldi	r18, 0x01	; 1
    5556:	71 cf       	rjmp	.-286    	; 0x543a <xQueueGenericReceive+0x44>
    5558:	0e 94 2a 49 	call	0x9254	; 0x9254 <vPortYield>
    555c:	21 e0       	ldi	r18, 0x01	; 1
    555e:	6d cf       	rjmp	.-294    	; 0x543a <xQueueGenericReceive+0x44>
    5560:	0f b6       	in	r0, 0x3f	; 63
    5562:	f8 94       	cli
    5564:	0f 92       	push	r0
    5566:	f8 01       	movw	r30, r16
    5568:	86 8d       	ldd	r24, Z+30	; 0x1e
    556a:	18 16       	cp	r1, r24
    556c:	4c f0       	brlt	.+18     	; 0x5580 <xQueueGenericReceive+0x18a>
    556e:	19 c0       	rjmp	.+50     	; 0x55a2 <xQueueGenericReceive+0x1ac>
    5570:	f8 01       	movw	r30, r16
    5572:	86 8d       	ldd	r24, Z+30	; 0x1e
    5574:	81 50       	subi	r24, 0x01	; 1
    5576:	86 8f       	std	Z+30, r24	; 0x1e
    5578:	86 8d       	ldd	r24, Z+30	; 0x1e
    557a:	18 16       	cp	r1, r24
    557c:	94 f4       	brge	.+36     	; 0x55a2 <xQueueGenericReceive+0x1ac>
    557e:	f8 01       	movw	r30, r16
    5580:	81 89       	ldd	r24, Z+17	; 0x11
    5582:	88 23       	and	r24, r24
    5584:	71 f0       	breq	.+28     	; 0x55a2 <xQueueGenericReceive+0x1ac>
    5586:	c7 01       	movw	r24, r14
    5588:	0e 94 63 31 	call	0x62c6	; 0x62c6 <xTaskRemoveFromEventList>
    558c:	88 23       	and	r24, r24
    558e:	81 f3       	breq	.-32     	; 0x5570 <xQueueGenericReceive+0x17a>
    5590:	0e 94 ad 2f 	call	0x5f5a	; 0x5f5a <vTaskMissedYield>
    5594:	f8 01       	movw	r30, r16
    5596:	86 8d       	ldd	r24, Z+30	; 0x1e
    5598:	81 50       	subi	r24, 0x01	; 1
    559a:	86 8f       	std	Z+30, r24	; 0x1e
    559c:	86 8d       	ldd	r24, Z+30	; 0x1e
    559e:	18 16       	cp	r1, r24
    55a0:	74 f3       	brlt	.-36     	; 0x557e <xQueueGenericReceive+0x188>
    55a2:	f8 01       	movw	r30, r16
    55a4:	b6 8e       	std	Z+30, r11	; 0x1e
    55a6:	0f 90       	pop	r0
    55a8:	0f be       	out	0x3f, r0	; 63
    55aa:	0f b6       	in	r0, 0x3f	; 63
    55ac:	f8 94       	cli
    55ae:	0f 92       	push	r0
    55b0:	f8 01       	movw	r30, r16
    55b2:	85 8d       	ldd	r24, Z+29	; 0x1d
    55b4:	18 16       	cp	r1, r24
    55b6:	4c f0       	brlt	.+18     	; 0x55ca <xQueueGenericReceive+0x1d4>
    55b8:	19 c0       	rjmp	.+50     	; 0x55ec <xQueueGenericReceive+0x1f6>
    55ba:	f8 01       	movw	r30, r16
    55bc:	85 8d       	ldd	r24, Z+29	; 0x1d
    55be:	81 50       	subi	r24, 0x01	; 1
    55c0:	85 8f       	std	Z+29, r24	; 0x1d
    55c2:	85 8d       	ldd	r24, Z+29	; 0x1d
    55c4:	18 16       	cp	r1, r24
    55c6:	94 f4       	brge	.+36     	; 0x55ec <xQueueGenericReceive+0x1f6>
    55c8:	f8 01       	movw	r30, r16
    55ca:	80 85       	ldd	r24, Z+8	; 0x08
    55cc:	88 23       	and	r24, r24
    55ce:	71 f0       	breq	.+28     	; 0x55ec <xQueueGenericReceive+0x1f6>
    55d0:	c6 01       	movw	r24, r12
    55d2:	0e 94 63 31 	call	0x62c6	; 0x62c6 <xTaskRemoveFromEventList>
    55d6:	88 23       	and	r24, r24
    55d8:	81 f3       	breq	.-32     	; 0x55ba <xQueueGenericReceive+0x1c4>
    55da:	0e 94 ad 2f 	call	0x5f5a	; 0x5f5a <vTaskMissedYield>
    55de:	f8 01       	movw	r30, r16
    55e0:	85 8d       	ldd	r24, Z+29	; 0x1d
    55e2:	81 50       	subi	r24, 0x01	; 1
    55e4:	85 8f       	std	Z+29, r24	; 0x1d
    55e6:	85 8d       	ldd	r24, Z+29	; 0x1d
    55e8:	18 16       	cp	r1, r24
    55ea:	74 f3       	brlt	.-36     	; 0x55c8 <xQueueGenericReceive+0x1d2>
    55ec:	f8 01       	movw	r30, r16
    55ee:	b5 8e       	std	Z+29, r11	; 0x1d
    55f0:	0f 90       	pop	r0
    55f2:	0f be       	out	0x3f, r0	; 63
    55f4:	0e 94 63 34 	call	0x68c6	; 0x68c6 <xTaskResumeAll>
    55f8:	21 e0       	ldi	r18, 0x01	; 1
    55fa:	1f cf       	rjmp	.-450    	; 0x543a <xQueueGenericReceive+0x44>
    55fc:	16 8e       	std	Z+30, r1	; 0x1e
    55fe:	3e cf       	rjmp	.-388    	; 0x547c <xQueueGenericReceive+0x86>
    5600:	15 8e       	std	Z+29, r1	; 0x1d
    5602:	37 cf       	rjmp	.-402    	; 0x5472 <xQueueGenericReceive+0x7c>
    5604:	c4 01       	movw	r24, r8
    5606:	0e 94 63 2f 	call	0x5ec6	; 0x5ec6 <vTaskSetTimeOutState>
    560a:	27 cf       	rjmp	.-434    	; 0x545a <xQueueGenericReceive+0x64>
    560c:	0f b6       	in	r0, 0x3f	; 63
    560e:	f8 94       	cli
    5610:	0f 92       	push	r0
    5612:	f8 01       	movw	r30, r16
    5614:	82 81       	ldd	r24, Z+2	; 0x02
    5616:	93 81       	ldd	r25, Z+3	; 0x03
    5618:	0e 94 db 30 	call	0x61b6	; 0x61b6 <vTaskPriorityInherit>
    561c:	0f 90       	pop	r0
    561e:	0f be       	out	0x3f, r0	; 63
    5620:	46 cf       	rjmp	.-372    	; 0x54ae <xQueueGenericReceive+0xb8>
    5622:	86 80       	ldd	r8, Z+6	; 0x06
    5624:	97 80       	ldd	r9, Z+7	; 0x07
    5626:	60 81       	ld	r22, Z
    5628:	71 81       	ldd	r23, Z+1	; 0x01
    562a:	61 15       	cp	r22, r1
    562c:	71 05       	cpc	r23, r1
    562e:	a1 f0       	breq	.+40     	; 0x5658 <xQueueGenericReceive+0x262>
    5630:	44 8d       	ldd	r20, Z+28	; 0x1c
    5632:	94 01       	movw	r18, r8
    5634:	24 0f       	add	r18, r20
    5636:	31 1d       	adc	r19, r1
    5638:	37 83       	std	Z+7, r19	; 0x07
    563a:	26 83       	std	Z+6, r18	; 0x06
    563c:	82 81       	ldd	r24, Z+2	; 0x02
    563e:	93 81       	ldd	r25, Z+3	; 0x03
    5640:	28 17       	cp	r18, r24
    5642:	39 07       	cpc	r19, r25
    5644:	08 f0       	brcs	.+2      	; 0x5648 <xQueueGenericReceive+0x252>
    5646:	8c c0       	rjmp	.+280    	; 0x5760 <xQueueGenericReceive+0x36a>
    5648:	f8 01       	movw	r30, r16
    564a:	66 81       	ldd	r22, Z+6	; 0x06
    564c:	77 81       	ldd	r23, Z+7	; 0x07
    564e:	85 2d       	mov	r24, r5
    5650:	94 2d       	mov	r25, r4
    5652:	50 e0       	ldi	r21, 0x00	; 0
    5654:	0e 94 25 08 	call	0x104a	; 0x104a <memcpy>
    5658:	aa 20       	and	r10, r10
    565a:	09 f0       	breq	.+2      	; 0x565e <xQueueGenericReceive+0x268>
    565c:	73 c0       	rjmp	.+230    	; 0x5744 <xQueueGenericReceive+0x34e>
    565e:	f8 01       	movw	r30, r16
    5660:	82 8d       	ldd	r24, Z+26	; 0x1a
    5662:	81 50       	subi	r24, 0x01	; 1
    5664:	82 8f       	std	Z+26, r24	; 0x1a
    5666:	80 81       	ld	r24, Z
    5668:	91 81       	ldd	r25, Z+1	; 0x01
    566a:	89 2b       	or	r24, r25
    566c:	09 f4       	brne	.+2      	; 0x5670 <xQueueGenericReceive+0x27a>
    566e:	81 c0       	rjmp	.+258    	; 0x5772 <xQueueGenericReceive+0x37c>
    5670:	f8 01       	movw	r30, r16
    5672:	80 85       	ldd	r24, Z+8	; 0x08
    5674:	88 23       	and	r24, r24
    5676:	09 f4       	brne	.+2      	; 0x567a <xQueueGenericReceive+0x284>
    5678:	6b c0       	rjmp	.+214    	; 0x5750 <xQueueGenericReceive+0x35a>
    567a:	c6 01       	movw	r24, r12
    567c:	0e 94 63 31 	call	0x62c6	; 0x62c6 <xTaskRemoveFromEventList>
    5680:	81 30       	cpi	r24, 0x01	; 1
    5682:	09 f0       	breq	.+2      	; 0x5686 <xQueueGenericReceive+0x290>
    5684:	65 c0       	rjmp	.+202    	; 0x5750 <xQueueGenericReceive+0x35a>
    5686:	0e 94 2a 49 	call	0x9254	; 0x9254 <vPortYield>
    568a:	62 c0       	rjmp	.+196    	; 0x5750 <xQueueGenericReceive+0x35a>
    568c:	0f 90       	pop	r0
    568e:	0f be       	out	0x3f, r0	; 63
    5690:	80 e0       	ldi	r24, 0x00	; 0
    5692:	25 96       	adiw	r28, 0x05	; 5
    5694:	e0 e1       	ldi	r30, 0x10	; 16
    5696:	0c 94 aa 53 	jmp	0xa754	; 0xa754 <__epilogue_restores__+0x4>
    569a:	71 c0       	rjmp	.+226    	; 0x577e <xQueueGenericSendFromISR>
    569c:	0f b6       	in	r0, 0x3f	; 63
    569e:	f8 94       	cli
    56a0:	0f 92       	push	r0
    56a2:	f8 01       	movw	r30, r16
    56a4:	86 8d       	ldd	r24, Z+30	; 0x1e
    56a6:	18 16       	cp	r1, r24
    56a8:	4c f0       	brlt	.+18     	; 0x56bc <xQueueGenericReceive+0x2c6>
    56aa:	19 c0       	rjmp	.+50     	; 0x56de <xQueueGenericReceive+0x2e8>
    56ac:	f8 01       	movw	r30, r16
    56ae:	86 8d       	ldd	r24, Z+30	; 0x1e
    56b0:	81 50       	subi	r24, 0x01	; 1
    56b2:	86 8f       	std	Z+30, r24	; 0x1e
    56b4:	86 8d       	ldd	r24, Z+30	; 0x1e
    56b6:	18 16       	cp	r1, r24
    56b8:	94 f4       	brge	.+36     	; 0x56de <xQueueGenericReceive+0x2e8>
    56ba:	f8 01       	movw	r30, r16
    56bc:	81 89       	ldd	r24, Z+17	; 0x11
    56be:	88 23       	and	r24, r24
    56c0:	71 f0       	breq	.+28     	; 0x56de <xQueueGenericReceive+0x2e8>
    56c2:	c7 01       	movw	r24, r14
    56c4:	0e 94 63 31 	call	0x62c6	; 0x62c6 <xTaskRemoveFromEventList>
    56c8:	88 23       	and	r24, r24
    56ca:	81 f3       	breq	.-32     	; 0x56ac <xQueueGenericReceive+0x2b6>
    56cc:	0e 94 ad 2f 	call	0x5f5a	; 0x5f5a <vTaskMissedYield>
    56d0:	f8 01       	movw	r30, r16
    56d2:	86 8d       	ldd	r24, Z+30	; 0x1e
    56d4:	81 50       	subi	r24, 0x01	; 1
    56d6:	86 8f       	std	Z+30, r24	; 0x1e
    56d8:	86 8d       	ldd	r24, Z+30	; 0x1e
    56da:	18 16       	cp	r1, r24
    56dc:	74 f3       	brlt	.-36     	; 0x56ba <xQueueGenericReceive+0x2c4>
    56de:	8f ef       	ldi	r24, 0xFF	; 255
    56e0:	f8 01       	movw	r30, r16
    56e2:	86 8f       	std	Z+30, r24	; 0x1e
    56e4:	0f 90       	pop	r0
    56e6:	0f be       	out	0x3f, r0	; 63
    56e8:	0f b6       	in	r0, 0x3f	; 63
    56ea:	f8 94       	cli
    56ec:	0f 92       	push	r0
    56ee:	f8 01       	movw	r30, r16
    56f0:	85 8d       	ldd	r24, Z+29	; 0x1d
    56f2:	18 16       	cp	r1, r24
    56f4:	4c f0       	brlt	.+18     	; 0x5708 <xQueueGenericReceive+0x312>
    56f6:	19 c0       	rjmp	.+50     	; 0x572a <xQueueGenericReceive+0x334>
    56f8:	f8 01       	movw	r30, r16
    56fa:	85 8d       	ldd	r24, Z+29	; 0x1d
    56fc:	81 50       	subi	r24, 0x01	; 1
    56fe:	85 8f       	std	Z+29, r24	; 0x1d
    5700:	85 8d       	ldd	r24, Z+29	; 0x1d
    5702:	18 16       	cp	r1, r24
    5704:	94 f4       	brge	.+36     	; 0x572a <xQueueGenericReceive+0x334>
    5706:	f8 01       	movw	r30, r16
    5708:	80 85       	ldd	r24, Z+8	; 0x08
    570a:	88 23       	and	r24, r24
    570c:	71 f0       	breq	.+28     	; 0x572a <xQueueGenericReceive+0x334>
    570e:	c6 01       	movw	r24, r12
    5710:	0e 94 63 31 	call	0x62c6	; 0x62c6 <xTaskRemoveFromEventList>
    5714:	88 23       	and	r24, r24
    5716:	81 f3       	breq	.-32     	; 0x56f8 <xQueueGenericReceive+0x302>
    5718:	0e 94 ad 2f 	call	0x5f5a	; 0x5f5a <vTaskMissedYield>
    571c:	f8 01       	movw	r30, r16
    571e:	85 8d       	ldd	r24, Z+29	; 0x1d
    5720:	81 50       	subi	r24, 0x01	; 1
    5722:	85 8f       	std	Z+29, r24	; 0x1d
    5724:	85 8d       	ldd	r24, Z+29	; 0x1d
    5726:	18 16       	cp	r1, r24
    5728:	74 f3       	brlt	.-36     	; 0x5706 <xQueueGenericReceive+0x310>
    572a:	8f ef       	ldi	r24, 0xFF	; 255
    572c:	f8 01       	movw	r30, r16
    572e:	85 8f       	std	Z+29, r24	; 0x1d
    5730:	0f 90       	pop	r0
    5732:	0f be       	out	0x3f, r0	; 63
    5734:	0e 94 63 34 	call	0x68c6	; 0x68c6 <xTaskResumeAll>
    5738:	80 e0       	ldi	r24, 0x00	; 0
    573a:	25 96       	adiw	r28, 0x05	; 5
    573c:	e0 e1       	ldi	r30, 0x10	; 16
    573e:	0c 94 aa 53 	jmp	0xa754	; 0xa754 <__epilogue_restores__+0x4>
    5742:	1d c0       	rjmp	.+58     	; 0x577e <xQueueGenericSendFromISR>
    5744:	f8 01       	movw	r30, r16
    5746:	97 82       	std	Z+7, r9	; 0x07
    5748:	86 82       	std	Z+6, r8	; 0x06
    574a:	81 89       	ldd	r24, Z+17	; 0x11
    574c:	88 23       	and	r24, r24
    574e:	59 f4       	brne	.+22     	; 0x5766 <xQueueGenericReceive+0x370>
    5750:	0f 90       	pop	r0
    5752:	0f be       	out	0x3f, r0	; 63
    5754:	81 e0       	ldi	r24, 0x01	; 1
    5756:	25 96       	adiw	r28, 0x05	; 5
    5758:	e0 e1       	ldi	r30, 0x10	; 16
    575a:	0c 94 aa 53 	jmp	0xa754	; 0xa754 <__epilogue_restores__+0x4>
    575e:	0f c0       	rjmp	.+30     	; 0x577e <xQueueGenericSendFromISR>
    5760:	77 83       	std	Z+7, r23	; 0x07
    5762:	66 83       	std	Z+6, r22	; 0x06
    5764:	71 cf       	rjmp	.-286    	; 0x5648 <xQueueGenericReceive+0x252>
    5766:	c7 01       	movw	r24, r14
    5768:	0e 94 63 31 	call	0x62c6	; 0x62c6 <xTaskRemoveFromEventList>
    576c:	88 23       	and	r24, r24
    576e:	81 f3       	breq	.-32     	; 0x5750 <xQueueGenericReceive+0x35a>
    5770:	8a cf       	rjmp	.-236    	; 0x5686 <xQueueGenericReceive+0x290>
    5772:	0e 94 8b 30 	call	0x6116	; 0x6116 <xTaskGetCurrentTaskHandle>
    5776:	f8 01       	movw	r30, r16
    5778:	93 83       	std	Z+3, r25	; 0x03
    577a:	82 83       	std	Z+2, r24	; 0x02
    577c:	79 cf       	rjmp	.-270    	; 0x5670 <xQueueGenericReceive+0x27a>

0000577e <xQueueGenericSendFromISR>:
    577e:	ef 92       	push	r14
    5780:	ff 92       	push	r15
    5782:	1f 93       	push	r17
    5784:	cf 93       	push	r28
    5786:	df 93       	push	r29
    5788:	7a 01       	movw	r14, r20
    578a:	12 2f       	mov	r17, r18
    578c:	ec 01       	movw	r28, r24
    578e:	9a 8d       	ldd	r25, Y+26	; 0x1a
    5790:	8b 8d       	ldd	r24, Y+27	; 0x1b
    5792:	98 17       	cp	r25, r24
    5794:	48 f0       	brcs	.+18     	; 0x57a8 <xQueueGenericSendFromISR+0x2a>
    5796:	22 30       	cpi	r18, 0x02	; 2
    5798:	39 f0       	breq	.+14     	; 0x57a8 <xQueueGenericSendFromISR+0x2a>
    579a:	80 e0       	ldi	r24, 0x00	; 0
    579c:	df 91       	pop	r29
    579e:	cf 91       	pop	r28
    57a0:	1f 91       	pop	r17
    57a2:	ff 90       	pop	r15
    57a4:	ef 90       	pop	r14
    57a6:	08 95       	ret
    57a8:	4c 8d       	ldd	r20, Y+28	; 0x1c
    57aa:	44 23       	and	r20, r20
    57ac:	a9 f4       	brne	.+42     	; 0x57d8 <xQueueGenericSendFromISR+0x5a>
    57ae:	88 81       	ld	r24, Y
    57b0:	99 81       	ldd	r25, Y+1	; 0x01
    57b2:	89 2b       	or	r24, r25
    57b4:	09 f4       	brne	.+2      	; 0x57b8 <xQueueGenericSendFromISR+0x3a>
    57b6:	65 c0       	rjmp	.+202    	; 0x5882 <xQueueGenericSendFromISR+0x104>
    57b8:	8a 8d       	ldd	r24, Y+26	; 0x1a
    57ba:	8f 5f       	subi	r24, 0xFF	; 255
    57bc:	8a 8f       	std	Y+26, r24	; 0x1a
    57be:	8e 8d       	ldd	r24, Y+30	; 0x1e
    57c0:	8f 3f       	cpi	r24, 0xFF	; 255
    57c2:	89 f1       	breq	.+98     	; 0x5826 <xQueueGenericSendFromISR+0xa8>
    57c4:	8e 8d       	ldd	r24, Y+30	; 0x1e
    57c6:	8f 5f       	subi	r24, 0xFF	; 255
    57c8:	8e 8f       	std	Y+30, r24	; 0x1e
    57ca:	81 e0       	ldi	r24, 0x01	; 1
    57cc:	df 91       	pop	r29
    57ce:	cf 91       	pop	r28
    57d0:	1f 91       	pop	r17
    57d2:	ff 90       	pop	r15
    57d4:	ef 90       	pop	r14
    57d6:	08 95       	ret
    57d8:	11 23       	and	r17, r17
    57da:	79 f1       	breq	.+94     	; 0x583a <xQueueGenericSendFromISR+0xbc>
    57dc:	8e 81       	ldd	r24, Y+6	; 0x06
    57de:	9f 81       	ldd	r25, Y+7	; 0x07
    57e0:	50 e0       	ldi	r21, 0x00	; 0
    57e2:	0e 94 25 08 	call	0x104a	; 0x104a <memcpy>
    57e6:	8c 8d       	ldd	r24, Y+28	; 0x1c
    57e8:	90 e0       	ldi	r25, 0x00	; 0
    57ea:	44 27       	eor	r20, r20
    57ec:	55 27       	eor	r21, r21
    57ee:	48 1b       	sub	r20, r24
    57f0:	59 0b       	sbc	r21, r25
    57f2:	8e 81       	ldd	r24, Y+6	; 0x06
    57f4:	9f 81       	ldd	r25, Y+7	; 0x07
    57f6:	84 0f       	add	r24, r20
    57f8:	95 1f       	adc	r25, r21
    57fa:	9f 83       	std	Y+7, r25	; 0x07
    57fc:	8e 83       	std	Y+6, r24	; 0x06
    57fe:	28 81       	ld	r18, Y
    5800:	39 81       	ldd	r19, Y+1	; 0x01
    5802:	82 17       	cp	r24, r18
    5804:	93 07       	cpc	r25, r19
    5806:	30 f4       	brcc	.+12     	; 0x5814 <xQueueGenericSendFromISR+0x96>
    5808:	8a 81       	ldd	r24, Y+2	; 0x02
    580a:	9b 81       	ldd	r25, Y+3	; 0x03
    580c:	84 0f       	add	r24, r20
    580e:	95 1f       	adc	r25, r21
    5810:	9f 83       	std	Y+7, r25	; 0x07
    5812:	8e 83       	std	Y+6, r24	; 0x06
    5814:	12 30       	cpi	r17, 0x02	; 2
    5816:	81 f6       	brne	.-96     	; 0x57b8 <xQueueGenericSendFromISR+0x3a>
    5818:	8a 8d       	ldd	r24, Y+26	; 0x1a
    581a:	88 23       	and	r24, r24
    581c:	69 f2       	breq	.-102    	; 0x57b8 <xQueueGenericSendFromISR+0x3a>
    581e:	8a 8d       	ldd	r24, Y+26	; 0x1a
    5820:	81 50       	subi	r24, 0x01	; 1
    5822:	8a 8f       	std	Y+26, r24	; 0x1a
    5824:	c9 cf       	rjmp	.-110    	; 0x57b8 <xQueueGenericSendFromISR+0x3a>
    5826:	89 89       	ldd	r24, Y+17	; 0x11
    5828:	88 23       	and	r24, r24
    582a:	f1 f4       	brne	.+60     	; 0x5868 <xQueueGenericSendFromISR+0xea>
    582c:	81 e0       	ldi	r24, 0x01	; 1
    582e:	df 91       	pop	r29
    5830:	cf 91       	pop	r28
    5832:	1f 91       	pop	r17
    5834:	ff 90       	pop	r15
    5836:	ef 90       	pop	r14
    5838:	08 95       	ret
    583a:	8c 81       	ldd	r24, Y+4	; 0x04
    583c:	9d 81       	ldd	r25, Y+5	; 0x05
    583e:	50 e0       	ldi	r21, 0x00	; 0
    5840:	0e 94 25 08 	call	0x104a	; 0x104a <memcpy>
    5844:	8c 8d       	ldd	r24, Y+28	; 0x1c
    5846:	2c 81       	ldd	r18, Y+4	; 0x04
    5848:	3d 81       	ldd	r19, Y+5	; 0x05
    584a:	28 0f       	add	r18, r24
    584c:	31 1d       	adc	r19, r1
    584e:	3d 83       	std	Y+5, r19	; 0x05
    5850:	2c 83       	std	Y+4, r18	; 0x04
    5852:	8a 81       	ldd	r24, Y+2	; 0x02
    5854:	9b 81       	ldd	r25, Y+3	; 0x03
    5856:	28 17       	cp	r18, r24
    5858:	39 07       	cpc	r19, r25
    585a:	08 f4       	brcc	.+2      	; 0x585e <xQueueGenericSendFromISR+0xe0>
    585c:	ad cf       	rjmp	.-166    	; 0x57b8 <xQueueGenericSendFromISR+0x3a>
    585e:	88 81       	ld	r24, Y
    5860:	99 81       	ldd	r25, Y+1	; 0x01
    5862:	9d 83       	std	Y+5, r25	; 0x05
    5864:	8c 83       	std	Y+4, r24	; 0x04
    5866:	a8 cf       	rjmp	.-176    	; 0x57b8 <xQueueGenericSendFromISR+0x3a>
    5868:	ce 01       	movw	r24, r28
    586a:	41 96       	adiw	r24, 0x11	; 17
    586c:	0e 94 63 31 	call	0x62c6	; 0x62c6 <xTaskRemoveFromEventList>
    5870:	88 23       	and	r24, r24
    5872:	e1 f2       	breq	.-72     	; 0x582c <xQueueGenericSendFromISR+0xae>
    5874:	e1 14       	cp	r14, r1
    5876:	f1 04       	cpc	r15, r1
    5878:	c9 f2       	breq	.-78     	; 0x582c <xQueueGenericSendFromISR+0xae>
    587a:	81 e0       	ldi	r24, 0x01	; 1
    587c:	f7 01       	movw	r30, r14
    587e:	80 83       	st	Z, r24
    5880:	a5 cf       	rjmp	.-182    	; 0x57cc <xQueueGenericSendFromISR+0x4e>
    5882:	8a 81       	ldd	r24, Y+2	; 0x02
    5884:	9b 81       	ldd	r25, Y+3	; 0x03
    5886:	0e 94 a9 30 	call	0x6152	; 0x6152 <vTaskPriorityDisinherit>
    588a:	1b 82       	std	Y+3, r1	; 0x03
    588c:	1a 82       	std	Y+2, r1	; 0x02
    588e:	94 cf       	rjmp	.-216    	; 0x57b8 <xQueueGenericSendFromISR+0x3a>

00005890 <xQueueGenericSend>:
    5890:	a5 e0       	ldi	r26, 0x05	; 5
    5892:	b0 e0       	ldi	r27, 0x00	; 0
    5894:	ee e4       	ldi	r30, 0x4E	; 78
    5896:	fc e2       	ldi	r31, 0x2C	; 44
    5898:	0c 94 8e 53 	jmp	0xa71c	; 0xa71c <__prologue_saves__+0x4>
    589c:	56 2e       	mov	r5, r22
    589e:	47 2e       	mov	r4, r23
    58a0:	5d 83       	std	Y+5, r21	; 0x05
    58a2:	4c 83       	std	Y+4, r20	; 0x04
    58a4:	b2 2e       	mov	r11, r18
    58a6:	8c 01       	movw	r16, r24
    58a8:	58 e0       	ldi	r21, 0x08	; 8
    58aa:	e5 2e       	mov	r14, r21
    58ac:	f1 2c       	mov	r15, r1
    58ae:	e8 0e       	add	r14, r24
    58b0:	f9 1e       	adc	r15, r25
    58b2:	41 e1       	ldi	r20, 0x11	; 17
    58b4:	c4 2e       	mov	r12, r20
    58b6:	d1 2c       	mov	r13, r1
    58b8:	c8 0e       	add	r12, r24
    58ba:	d9 1e       	adc	r13, r25
    58bc:	20 e0       	ldi	r18, 0x00	; 0
    58be:	4e 01       	movw	r8, r28
    58c0:	08 94       	sec
    58c2:	81 1c       	adc	r8, r1
    58c4:	91 1c       	adc	r9, r1
    58c6:	34 e0       	ldi	r19, 0x04	; 4
    58c8:	63 2e       	mov	r6, r19
    58ca:	71 2c       	mov	r7, r1
    58cc:	6c 0e       	add	r6, r28
    58ce:	7d 1e       	adc	r7, r29
    58d0:	aa 24       	eor	r10, r10
    58d2:	aa 94       	dec	r10
    58d4:	0f b6       	in	r0, 0x3f	; 63
    58d6:	f8 94       	cli
    58d8:	0f 92       	push	r0
    58da:	f8 01       	movw	r30, r16
    58dc:	92 8d       	ldd	r25, Z+26	; 0x1a
    58de:	83 8d       	ldd	r24, Z+27	; 0x1b
    58e0:	98 17       	cp	r25, r24
    58e2:	08 f4       	brcc	.+2      	; 0x58e6 <xQueueGenericSend+0x56>
    58e4:	e0 c0       	rjmp	.+448    	; 0x5aa6 <xQueueGenericSend+0x216>
    58e6:	f2 e0       	ldi	r31, 0x02	; 2
    58e8:	bf 16       	cp	r11, r31
    58ea:	09 f4       	brne	.+2      	; 0x58ee <xQueueGenericSend+0x5e>
    58ec:	dc c0       	rjmp	.+440    	; 0x5aa6 <xQueueGenericSend+0x216>
    58ee:	8c 81       	ldd	r24, Y+4	; 0x04
    58f0:	9d 81       	ldd	r25, Y+5	; 0x05
    58f2:	89 2b       	or	r24, r25
    58f4:	09 f4       	brne	.+2      	; 0x58f8 <xQueueGenericSend+0x68>
    58f6:	1e c1       	rjmp	.+572    	; 0x5b34 <xQueueGenericSend+0x2a4>
    58f8:	22 23       	and	r18, r18
    58fa:	09 f4       	brne	.+2      	; 0x58fe <xQueueGenericSend+0x6e>
    58fc:	78 c0       	rjmp	.+240    	; 0x59ee <xQueueGenericSend+0x15e>
    58fe:	0f 90       	pop	r0
    5900:	0f be       	out	0x3f, r0	; 63
    5902:	0e 94 49 2f 	call	0x5e92	; 0x5e92 <vTaskSuspendAll>
    5906:	0f b6       	in	r0, 0x3f	; 63
    5908:	f8 94       	cli
    590a:	0f 92       	push	r0
    590c:	f8 01       	movw	r30, r16
    590e:	85 8d       	ldd	r24, Z+29	; 0x1d
    5910:	8f 3f       	cpi	r24, 0xFF	; 255
    5912:	09 f4       	brne	.+2      	; 0x5916 <xQueueGenericSend+0x86>
    5914:	6a c0       	rjmp	.+212    	; 0x59ea <xQueueGenericSend+0x15a>
    5916:	f8 01       	movw	r30, r16
    5918:	86 8d       	ldd	r24, Z+30	; 0x1e
    591a:	8f 3f       	cpi	r24, 0xFF	; 255
    591c:	09 f4       	brne	.+2      	; 0x5920 <xQueueGenericSend+0x90>
    591e:	63 c0       	rjmp	.+198    	; 0x59e6 <xQueueGenericSend+0x156>
    5920:	0f 90       	pop	r0
    5922:	0f be       	out	0x3f, r0	; 63
    5924:	c4 01       	movw	r24, r8
    5926:	b3 01       	movw	r22, r6
    5928:	0e 94 6e 2f 	call	0x5edc	; 0x5edc <xTaskCheckForTimeOut>
    592c:	88 23       	and	r24, r24
    592e:	09 f0       	breq	.+2      	; 0x5932 <xQueueGenericSend+0xa2>
    5930:	09 c1       	rjmp	.+530    	; 0x5b44 <xQueueGenericSend+0x2b4>
    5932:	0f b6       	in	r0, 0x3f	; 63
    5934:	f8 94       	cli
    5936:	0f 92       	push	r0
    5938:	f8 01       	movw	r30, r16
    593a:	92 8d       	ldd	r25, Z+26	; 0x1a
    593c:	0f 90       	pop	r0
    593e:	0f be       	out	0x3f, r0	; 63
    5940:	f8 01       	movw	r30, r16
    5942:	83 8d       	ldd	r24, Z+27	; 0x1b
    5944:	98 17       	cp	r25, r24
    5946:	09 f4       	brne	.+2      	; 0x594a <xQueueGenericSend+0xba>
    5948:	56 c0       	rjmp	.+172    	; 0x59f6 <xQueueGenericSend+0x166>
    594a:	0f b6       	in	r0, 0x3f	; 63
    594c:	f8 94       	cli
    594e:	0f 92       	push	r0
    5950:	f8 01       	movw	r30, r16
    5952:	86 8d       	ldd	r24, Z+30	; 0x1e
    5954:	18 16       	cp	r1, r24
    5956:	4c f0       	brlt	.+18     	; 0x596a <xQueueGenericSend+0xda>
    5958:	19 c0       	rjmp	.+50     	; 0x598c <xQueueGenericSend+0xfc>
    595a:	f8 01       	movw	r30, r16
    595c:	86 8d       	ldd	r24, Z+30	; 0x1e
    595e:	81 50       	subi	r24, 0x01	; 1
    5960:	86 8f       	std	Z+30, r24	; 0x1e
    5962:	86 8d       	ldd	r24, Z+30	; 0x1e
    5964:	18 16       	cp	r1, r24
    5966:	94 f4       	brge	.+36     	; 0x598c <xQueueGenericSend+0xfc>
    5968:	f8 01       	movw	r30, r16
    596a:	81 89       	ldd	r24, Z+17	; 0x11
    596c:	88 23       	and	r24, r24
    596e:	71 f0       	breq	.+28     	; 0x598c <xQueueGenericSend+0xfc>
    5970:	c6 01       	movw	r24, r12
    5972:	0e 94 63 31 	call	0x62c6	; 0x62c6 <xTaskRemoveFromEventList>
    5976:	88 23       	and	r24, r24
    5978:	81 f3       	breq	.-32     	; 0x595a <xQueueGenericSend+0xca>
    597a:	0e 94 ad 2f 	call	0x5f5a	; 0x5f5a <vTaskMissedYield>
    597e:	f8 01       	movw	r30, r16
    5980:	86 8d       	ldd	r24, Z+30	; 0x1e
    5982:	81 50       	subi	r24, 0x01	; 1
    5984:	86 8f       	std	Z+30, r24	; 0x1e
    5986:	86 8d       	ldd	r24, Z+30	; 0x1e
    5988:	18 16       	cp	r1, r24
    598a:	74 f3       	brlt	.-36     	; 0x5968 <xQueueGenericSend+0xd8>
    598c:	f8 01       	movw	r30, r16
    598e:	a6 8e       	std	Z+30, r10	; 0x1e
    5990:	0f 90       	pop	r0
    5992:	0f be       	out	0x3f, r0	; 63
    5994:	0f b6       	in	r0, 0x3f	; 63
    5996:	f8 94       	cli
    5998:	0f 92       	push	r0
    599a:	f8 01       	movw	r30, r16
    599c:	85 8d       	ldd	r24, Z+29	; 0x1d
    599e:	18 16       	cp	r1, r24
    59a0:	4c f0       	brlt	.+18     	; 0x59b4 <xQueueGenericSend+0x124>
    59a2:	19 c0       	rjmp	.+50     	; 0x59d6 <xQueueGenericSend+0x146>
    59a4:	f8 01       	movw	r30, r16
    59a6:	85 8d       	ldd	r24, Z+29	; 0x1d
    59a8:	81 50       	subi	r24, 0x01	; 1
    59aa:	85 8f       	std	Z+29, r24	; 0x1d
    59ac:	85 8d       	ldd	r24, Z+29	; 0x1d
    59ae:	18 16       	cp	r1, r24
    59b0:	94 f4       	brge	.+36     	; 0x59d6 <xQueueGenericSend+0x146>
    59b2:	f8 01       	movw	r30, r16
    59b4:	80 85       	ldd	r24, Z+8	; 0x08
    59b6:	88 23       	and	r24, r24
    59b8:	71 f0       	breq	.+28     	; 0x59d6 <xQueueGenericSend+0x146>
    59ba:	c7 01       	movw	r24, r14
    59bc:	0e 94 63 31 	call	0x62c6	; 0x62c6 <xTaskRemoveFromEventList>
    59c0:	88 23       	and	r24, r24
    59c2:	81 f3       	breq	.-32     	; 0x59a4 <xQueueGenericSend+0x114>
    59c4:	0e 94 ad 2f 	call	0x5f5a	; 0x5f5a <vTaskMissedYield>
    59c8:	f8 01       	movw	r30, r16
    59ca:	85 8d       	ldd	r24, Z+29	; 0x1d
    59cc:	81 50       	subi	r24, 0x01	; 1
    59ce:	85 8f       	std	Z+29, r24	; 0x1d
    59d0:	85 8d       	ldd	r24, Z+29	; 0x1d
    59d2:	18 16       	cp	r1, r24
    59d4:	74 f3       	brlt	.-36     	; 0x59b2 <xQueueGenericSend+0x122>
    59d6:	f8 01       	movw	r30, r16
    59d8:	a5 8e       	std	Z+29, r10	; 0x1d
    59da:	0f 90       	pop	r0
    59dc:	0f be       	out	0x3f, r0	; 63
    59de:	0e 94 63 34 	call	0x68c6	; 0x68c6 <xTaskResumeAll>
    59e2:	21 e0       	ldi	r18, 0x01	; 1
    59e4:	77 cf       	rjmp	.-274    	; 0x58d4 <xQueueGenericSend+0x44>
    59e6:	16 8e       	std	Z+30, r1	; 0x1e
    59e8:	9b cf       	rjmp	.-202    	; 0x5920 <xQueueGenericSend+0x90>
    59ea:	15 8e       	std	Z+29, r1	; 0x1d
    59ec:	94 cf       	rjmp	.-216    	; 0x5916 <xQueueGenericSend+0x86>
    59ee:	c4 01       	movw	r24, r8
    59f0:	0e 94 63 2f 	call	0x5ec6	; 0x5ec6 <vTaskSetTimeOutState>
    59f4:	84 cf       	rjmp	.-248    	; 0x58fe <xQueueGenericSend+0x6e>
    59f6:	6c 81       	ldd	r22, Y+4	; 0x04
    59f8:	7d 81       	ldd	r23, Y+5	; 0x05
    59fa:	c7 01       	movw	r24, r14
    59fc:	0e 94 4d 33 	call	0x669a	; 0x669a <vTaskPlaceOnEventList>
    5a00:	0f b6       	in	r0, 0x3f	; 63
    5a02:	f8 94       	cli
    5a04:	0f 92       	push	r0
    5a06:	f8 01       	movw	r30, r16
    5a08:	86 8d       	ldd	r24, Z+30	; 0x1e
    5a0a:	18 16       	cp	r1, r24
    5a0c:	4c f0       	brlt	.+18     	; 0x5a20 <xQueueGenericSend+0x190>
    5a0e:	19 c0       	rjmp	.+50     	; 0x5a42 <xQueueGenericSend+0x1b2>
    5a10:	f8 01       	movw	r30, r16
    5a12:	86 8d       	ldd	r24, Z+30	; 0x1e
    5a14:	81 50       	subi	r24, 0x01	; 1
    5a16:	86 8f       	std	Z+30, r24	; 0x1e
    5a18:	86 8d       	ldd	r24, Z+30	; 0x1e
    5a1a:	18 16       	cp	r1, r24
    5a1c:	94 f4       	brge	.+36     	; 0x5a42 <xQueueGenericSend+0x1b2>
    5a1e:	f8 01       	movw	r30, r16
    5a20:	81 89       	ldd	r24, Z+17	; 0x11
    5a22:	88 23       	and	r24, r24
    5a24:	71 f0       	breq	.+28     	; 0x5a42 <xQueueGenericSend+0x1b2>
    5a26:	c6 01       	movw	r24, r12
    5a28:	0e 94 63 31 	call	0x62c6	; 0x62c6 <xTaskRemoveFromEventList>
    5a2c:	88 23       	and	r24, r24
    5a2e:	81 f3       	breq	.-32     	; 0x5a10 <xQueueGenericSend+0x180>
    5a30:	0e 94 ad 2f 	call	0x5f5a	; 0x5f5a <vTaskMissedYield>
    5a34:	f8 01       	movw	r30, r16
    5a36:	86 8d       	ldd	r24, Z+30	; 0x1e
    5a38:	81 50       	subi	r24, 0x01	; 1
    5a3a:	86 8f       	std	Z+30, r24	; 0x1e
    5a3c:	86 8d       	ldd	r24, Z+30	; 0x1e
    5a3e:	18 16       	cp	r1, r24
    5a40:	74 f3       	brlt	.-36     	; 0x5a1e <xQueueGenericSend+0x18e>
    5a42:	f8 01       	movw	r30, r16
    5a44:	a6 8e       	std	Z+30, r10	; 0x1e
    5a46:	0f 90       	pop	r0
    5a48:	0f be       	out	0x3f, r0	; 63
    5a4a:	0f b6       	in	r0, 0x3f	; 63
    5a4c:	f8 94       	cli
    5a4e:	0f 92       	push	r0
    5a50:	f8 01       	movw	r30, r16
    5a52:	85 8d       	ldd	r24, Z+29	; 0x1d
    5a54:	18 16       	cp	r1, r24
    5a56:	4c f0       	brlt	.+18     	; 0x5a6a <xQueueGenericSend+0x1da>
    5a58:	19 c0       	rjmp	.+50     	; 0x5a8c <xQueueGenericSend+0x1fc>
    5a5a:	f8 01       	movw	r30, r16
    5a5c:	85 8d       	ldd	r24, Z+29	; 0x1d
    5a5e:	81 50       	subi	r24, 0x01	; 1
    5a60:	85 8f       	std	Z+29, r24	; 0x1d
    5a62:	85 8d       	ldd	r24, Z+29	; 0x1d
    5a64:	18 16       	cp	r1, r24
    5a66:	94 f4       	brge	.+36     	; 0x5a8c <xQueueGenericSend+0x1fc>
    5a68:	f8 01       	movw	r30, r16
    5a6a:	80 85       	ldd	r24, Z+8	; 0x08
    5a6c:	88 23       	and	r24, r24
    5a6e:	71 f0       	breq	.+28     	; 0x5a8c <xQueueGenericSend+0x1fc>
    5a70:	c7 01       	movw	r24, r14
    5a72:	0e 94 63 31 	call	0x62c6	; 0x62c6 <xTaskRemoveFromEventList>
    5a76:	88 23       	and	r24, r24
    5a78:	81 f3       	breq	.-32     	; 0x5a5a <xQueueGenericSend+0x1ca>
    5a7a:	0e 94 ad 2f 	call	0x5f5a	; 0x5f5a <vTaskMissedYield>
    5a7e:	f8 01       	movw	r30, r16
    5a80:	85 8d       	ldd	r24, Z+29	; 0x1d
    5a82:	81 50       	subi	r24, 0x01	; 1
    5a84:	85 8f       	std	Z+29, r24	; 0x1d
    5a86:	85 8d       	ldd	r24, Z+29	; 0x1d
    5a88:	18 16       	cp	r1, r24
    5a8a:	74 f3       	brlt	.-36     	; 0x5a68 <xQueueGenericSend+0x1d8>
    5a8c:	f8 01       	movw	r30, r16
    5a8e:	a5 8e       	std	Z+29, r10	; 0x1d
    5a90:	0f 90       	pop	r0
    5a92:	0f be       	out	0x3f, r0	; 63
    5a94:	0e 94 63 34 	call	0x68c6	; 0x68c6 <xTaskResumeAll>
    5a98:	88 23       	and	r24, r24
    5a9a:	09 f0       	breq	.+2      	; 0x5a9e <xQueueGenericSend+0x20e>
    5a9c:	a2 cf       	rjmp	.-188    	; 0x59e2 <xQueueGenericSend+0x152>
    5a9e:	0e 94 2a 49 	call	0x9254	; 0x9254 <vPortYield>
    5aa2:	21 e0       	ldi	r18, 0x01	; 1
    5aa4:	17 cf       	rjmp	.-466    	; 0x58d4 <xQueueGenericSend+0x44>
    5aa6:	f8 01       	movw	r30, r16
    5aa8:	44 8d       	ldd	r20, Z+28	; 0x1c
    5aaa:	44 23       	and	r20, r20
    5aac:	a9 f4       	brne	.+42     	; 0x5ad8 <xQueueGenericSend+0x248>
    5aae:	80 81       	ld	r24, Z
    5ab0:	91 81       	ldd	r25, Z+1	; 0x01
    5ab2:	89 2b       	or	r24, r25
    5ab4:	09 f4       	brne	.+2      	; 0x5ab8 <xQueueGenericSend+0x228>
    5ab6:	be c0       	rjmp	.+380    	; 0x5c34 <xQueueGenericSend+0x3a4>
    5ab8:	f8 01       	movw	r30, r16
    5aba:	82 8d       	ldd	r24, Z+26	; 0x1a
    5abc:	8f 5f       	subi	r24, 0xFF	; 255
    5abe:	82 8f       	std	Z+26, r24	; 0x1a
    5ac0:	81 89       	ldd	r24, Z+17	; 0x11
    5ac2:	88 23       	and	r24, r24
    5ac4:	09 f0       	breq	.+2      	; 0x5ac8 <xQueueGenericSend+0x238>
    5ac6:	ad c0       	rjmp	.+346    	; 0x5c22 <xQueueGenericSend+0x392>
    5ac8:	0f 90       	pop	r0
    5aca:	0f be       	out	0x3f, r0	; 63
    5acc:	81 e0       	ldi	r24, 0x01	; 1
    5ace:	25 96       	adiw	r28, 0x05	; 5
    5ad0:	e0 e1       	ldi	r30, 0x10	; 16
    5ad2:	0c 94 aa 53 	jmp	0xa754	; 0xa754 <__epilogue_restores__+0x4>
    5ad6:	b6 c0       	rjmp	.+364    	; 0x5c44 <xQueueCreateMutex>
    5ad8:	bb 20       	and	r11, r11
    5ada:	09 f4       	brne	.+2      	; 0x5ade <xQueueGenericSend+0x24e>
    5adc:	87 c0       	rjmp	.+270    	; 0x5bec <xQueueGenericSend+0x35c>
    5ade:	f8 01       	movw	r30, r16
    5ae0:	86 81       	ldd	r24, Z+6	; 0x06
    5ae2:	97 81       	ldd	r25, Z+7	; 0x07
    5ae4:	65 2d       	mov	r22, r5
    5ae6:	74 2d       	mov	r23, r4
    5ae8:	50 e0       	ldi	r21, 0x00	; 0
    5aea:	0e 94 25 08 	call	0x104a	; 0x104a <memcpy>
    5aee:	f8 01       	movw	r30, r16
    5af0:	84 8d       	ldd	r24, Z+28	; 0x1c
    5af2:	90 e0       	ldi	r25, 0x00	; 0
    5af4:	44 27       	eor	r20, r20
    5af6:	55 27       	eor	r21, r21
    5af8:	48 1b       	sub	r20, r24
    5afa:	59 0b       	sbc	r21, r25
    5afc:	86 81       	ldd	r24, Z+6	; 0x06
    5afe:	97 81       	ldd	r25, Z+7	; 0x07
    5b00:	84 0f       	add	r24, r20
    5b02:	95 1f       	adc	r25, r21
    5b04:	97 83       	std	Z+7, r25	; 0x07
    5b06:	86 83       	std	Z+6, r24	; 0x06
    5b08:	20 81       	ld	r18, Z
    5b0a:	31 81       	ldd	r19, Z+1	; 0x01
    5b0c:	82 17       	cp	r24, r18
    5b0e:	93 07       	cpc	r25, r19
    5b10:	30 f4       	brcc	.+12     	; 0x5b1e <xQueueGenericSend+0x28e>
    5b12:	82 81       	ldd	r24, Z+2	; 0x02
    5b14:	93 81       	ldd	r25, Z+3	; 0x03
    5b16:	84 0f       	add	r24, r20
    5b18:	95 1f       	adc	r25, r21
    5b1a:	97 83       	std	Z+7, r25	; 0x07
    5b1c:	86 83       	std	Z+6, r24	; 0x06
    5b1e:	f2 e0       	ldi	r31, 0x02	; 2
    5b20:	bf 16       	cp	r11, r31
    5b22:	51 f6       	brne	.-108    	; 0x5ab8 <xQueueGenericSend+0x228>
    5b24:	f8 01       	movw	r30, r16
    5b26:	82 8d       	ldd	r24, Z+26	; 0x1a
    5b28:	88 23       	and	r24, r24
    5b2a:	31 f2       	breq	.-116    	; 0x5ab8 <xQueueGenericSend+0x228>
    5b2c:	82 8d       	ldd	r24, Z+26	; 0x1a
    5b2e:	81 50       	subi	r24, 0x01	; 1
    5b30:	82 8f       	std	Z+26, r24	; 0x1a
    5b32:	c2 cf       	rjmp	.-124    	; 0x5ab8 <xQueueGenericSend+0x228>
    5b34:	0f 90       	pop	r0
    5b36:	0f be       	out	0x3f, r0	; 63
    5b38:	80 e0       	ldi	r24, 0x00	; 0
    5b3a:	25 96       	adiw	r28, 0x05	; 5
    5b3c:	e0 e1       	ldi	r30, 0x10	; 16
    5b3e:	0c 94 aa 53 	jmp	0xa754	; 0xa754 <__epilogue_restores__+0x4>
    5b42:	80 c0       	rjmp	.+256    	; 0x5c44 <xQueueCreateMutex>
    5b44:	0f b6       	in	r0, 0x3f	; 63
    5b46:	f8 94       	cli
    5b48:	0f 92       	push	r0
    5b4a:	f8 01       	movw	r30, r16
    5b4c:	86 8d       	ldd	r24, Z+30	; 0x1e
    5b4e:	18 16       	cp	r1, r24
    5b50:	4c f0       	brlt	.+18     	; 0x5b64 <xQueueGenericSend+0x2d4>
    5b52:	19 c0       	rjmp	.+50     	; 0x5b86 <xQueueGenericSend+0x2f6>
    5b54:	f8 01       	movw	r30, r16
    5b56:	86 8d       	ldd	r24, Z+30	; 0x1e
    5b58:	81 50       	subi	r24, 0x01	; 1
    5b5a:	86 8f       	std	Z+30, r24	; 0x1e
    5b5c:	86 8d       	ldd	r24, Z+30	; 0x1e
    5b5e:	18 16       	cp	r1, r24
    5b60:	94 f4       	brge	.+36     	; 0x5b86 <xQueueGenericSend+0x2f6>
    5b62:	f8 01       	movw	r30, r16
    5b64:	81 89       	ldd	r24, Z+17	; 0x11
    5b66:	88 23       	and	r24, r24
    5b68:	71 f0       	breq	.+28     	; 0x5b86 <xQueueGenericSend+0x2f6>
    5b6a:	c6 01       	movw	r24, r12
    5b6c:	0e 94 63 31 	call	0x62c6	; 0x62c6 <xTaskRemoveFromEventList>
    5b70:	88 23       	and	r24, r24
    5b72:	81 f3       	breq	.-32     	; 0x5b54 <xQueueGenericSend+0x2c4>
    5b74:	0e 94 ad 2f 	call	0x5f5a	; 0x5f5a <vTaskMissedYield>
    5b78:	f8 01       	movw	r30, r16
    5b7a:	86 8d       	ldd	r24, Z+30	; 0x1e
    5b7c:	81 50       	subi	r24, 0x01	; 1
    5b7e:	86 8f       	std	Z+30, r24	; 0x1e
    5b80:	86 8d       	ldd	r24, Z+30	; 0x1e
    5b82:	18 16       	cp	r1, r24
    5b84:	74 f3       	brlt	.-36     	; 0x5b62 <xQueueGenericSend+0x2d2>
    5b86:	8f ef       	ldi	r24, 0xFF	; 255
    5b88:	f8 01       	movw	r30, r16
    5b8a:	86 8f       	std	Z+30, r24	; 0x1e
    5b8c:	0f 90       	pop	r0
    5b8e:	0f be       	out	0x3f, r0	; 63
    5b90:	0f b6       	in	r0, 0x3f	; 63
    5b92:	f8 94       	cli
    5b94:	0f 92       	push	r0
    5b96:	f8 01       	movw	r30, r16
    5b98:	85 8d       	ldd	r24, Z+29	; 0x1d
    5b9a:	18 16       	cp	r1, r24
    5b9c:	4c f0       	brlt	.+18     	; 0x5bb0 <xQueueGenericSend+0x320>
    5b9e:	19 c0       	rjmp	.+50     	; 0x5bd2 <xQueueGenericSend+0x342>
    5ba0:	f8 01       	movw	r30, r16
    5ba2:	85 8d       	ldd	r24, Z+29	; 0x1d
    5ba4:	81 50       	subi	r24, 0x01	; 1
    5ba6:	85 8f       	std	Z+29, r24	; 0x1d
    5ba8:	85 8d       	ldd	r24, Z+29	; 0x1d
    5baa:	18 16       	cp	r1, r24
    5bac:	94 f4       	brge	.+36     	; 0x5bd2 <xQueueGenericSend+0x342>
    5bae:	f8 01       	movw	r30, r16
    5bb0:	80 85       	ldd	r24, Z+8	; 0x08
    5bb2:	88 23       	and	r24, r24
    5bb4:	71 f0       	breq	.+28     	; 0x5bd2 <xQueueGenericSend+0x342>
    5bb6:	c7 01       	movw	r24, r14
    5bb8:	0e 94 63 31 	call	0x62c6	; 0x62c6 <xTaskRemoveFromEventList>
    5bbc:	88 23       	and	r24, r24
    5bbe:	81 f3       	breq	.-32     	; 0x5ba0 <xQueueGenericSend+0x310>
    5bc0:	0e 94 ad 2f 	call	0x5f5a	; 0x5f5a <vTaskMissedYield>
    5bc4:	f8 01       	movw	r30, r16
    5bc6:	85 8d       	ldd	r24, Z+29	; 0x1d
    5bc8:	81 50       	subi	r24, 0x01	; 1
    5bca:	85 8f       	std	Z+29, r24	; 0x1d
    5bcc:	85 8d       	ldd	r24, Z+29	; 0x1d
    5bce:	18 16       	cp	r1, r24
    5bd0:	74 f3       	brlt	.-36     	; 0x5bae <xQueueGenericSend+0x31e>
    5bd2:	8f ef       	ldi	r24, 0xFF	; 255
    5bd4:	f8 01       	movw	r30, r16
    5bd6:	85 8f       	std	Z+29, r24	; 0x1d
    5bd8:	0f 90       	pop	r0
    5bda:	0f be       	out	0x3f, r0	; 63
    5bdc:	0e 94 63 34 	call	0x68c6	; 0x68c6 <xTaskResumeAll>
    5be0:	80 e0       	ldi	r24, 0x00	; 0
    5be2:	25 96       	adiw	r28, 0x05	; 5
    5be4:	e0 e1       	ldi	r30, 0x10	; 16
    5be6:	0c 94 aa 53 	jmp	0xa754	; 0xa754 <__epilogue_restores__+0x4>
    5bea:	2c c0       	rjmp	.+88     	; 0x5c44 <xQueueCreateMutex>
    5bec:	f8 01       	movw	r30, r16
    5bee:	84 81       	ldd	r24, Z+4	; 0x04
    5bf0:	95 81       	ldd	r25, Z+5	; 0x05
    5bf2:	65 2d       	mov	r22, r5
    5bf4:	74 2d       	mov	r23, r4
    5bf6:	50 e0       	ldi	r21, 0x00	; 0
    5bf8:	0e 94 25 08 	call	0x104a	; 0x104a <memcpy>
    5bfc:	f8 01       	movw	r30, r16
    5bfe:	84 8d       	ldd	r24, Z+28	; 0x1c
    5c00:	24 81       	ldd	r18, Z+4	; 0x04
    5c02:	35 81       	ldd	r19, Z+5	; 0x05
    5c04:	28 0f       	add	r18, r24
    5c06:	31 1d       	adc	r19, r1
    5c08:	35 83       	std	Z+5, r19	; 0x05
    5c0a:	24 83       	std	Z+4, r18	; 0x04
    5c0c:	82 81       	ldd	r24, Z+2	; 0x02
    5c0e:	93 81       	ldd	r25, Z+3	; 0x03
    5c10:	28 17       	cp	r18, r24
    5c12:	39 07       	cpc	r19, r25
    5c14:	08 f4       	brcc	.+2      	; 0x5c18 <xQueueGenericSend+0x388>
    5c16:	50 cf       	rjmp	.-352    	; 0x5ab8 <xQueueGenericSend+0x228>
    5c18:	80 81       	ld	r24, Z
    5c1a:	91 81       	ldd	r25, Z+1	; 0x01
    5c1c:	95 83       	std	Z+5, r25	; 0x05
    5c1e:	84 83       	std	Z+4, r24	; 0x04
    5c20:	4b cf       	rjmp	.-362    	; 0x5ab8 <xQueueGenericSend+0x228>
    5c22:	c6 01       	movw	r24, r12
    5c24:	0e 94 63 31 	call	0x62c6	; 0x62c6 <xTaskRemoveFromEventList>
    5c28:	81 30       	cpi	r24, 0x01	; 1
    5c2a:	09 f0       	breq	.+2      	; 0x5c2e <xQueueGenericSend+0x39e>
    5c2c:	4d cf       	rjmp	.-358    	; 0x5ac8 <xQueueGenericSend+0x238>
    5c2e:	0e 94 2a 49 	call	0x9254	; 0x9254 <vPortYield>
    5c32:	4a cf       	rjmp	.-364    	; 0x5ac8 <xQueueGenericSend+0x238>
    5c34:	82 81       	ldd	r24, Z+2	; 0x02
    5c36:	93 81       	ldd	r25, Z+3	; 0x03
    5c38:	0e 94 a9 30 	call	0x6152	; 0x6152 <vTaskPriorityDisinherit>
    5c3c:	f8 01       	movw	r30, r16
    5c3e:	13 82       	std	Z+3, r1	; 0x03
    5c40:	12 82       	std	Z+2, r1	; 0x02
    5c42:	3a cf       	rjmp	.-396    	; 0x5ab8 <xQueueGenericSend+0x228>

00005c44 <xQueueCreateMutex>:
    5c44:	0f 93       	push	r16
    5c46:	1f 93       	push	r17
    5c48:	cf 93       	push	r28
    5c4a:	df 93       	push	r29
    5c4c:	18 2f       	mov	r17, r24
    5c4e:	81 e2       	ldi	r24, 0x21	; 33
    5c50:	90 e0       	ldi	r25, 0x00	; 0
    5c52:	0e 94 48 28 	call	0x5090	; 0x5090 <pvPortMalloc>
    5c56:	ec 01       	movw	r28, r24
    5c58:	00 97       	sbiw	r24, 0x00	; 0
    5c5a:	19 f1       	breq	.+70     	; 0x5ca2 <xQueueCreateMutex+0x5e>
    5c5c:	1b 82       	std	Y+3, r1	; 0x03
    5c5e:	1a 82       	std	Y+2, r1	; 0x02
    5c60:	19 82       	std	Y+1, r1	; 0x01
    5c62:	18 82       	st	Y, r1
    5c64:	1d 82       	std	Y+5, r1	; 0x05
    5c66:	1c 82       	std	Y+4, r1	; 0x04
    5c68:	1f 82       	std	Y+7, r1	; 0x07
    5c6a:	1e 82       	std	Y+6, r1	; 0x06
    5c6c:	1a 8e       	std	Y+26, r1	; 0x1a
    5c6e:	81 e0       	ldi	r24, 0x01	; 1
    5c70:	8b 8f       	std	Y+27, r24	; 0x1b
    5c72:	1c 8e       	std	Y+28, r1	; 0x1c
    5c74:	8f ef       	ldi	r24, 0xFF	; 255
    5c76:	8d 8f       	std	Y+29, r24	; 0x1d
    5c78:	8e 8f       	std	Y+30, r24	; 0x1e
    5c7a:	18 a3       	std	Y+32, r17	; 0x20
    5c7c:	ce 01       	movw	r24, r28
    5c7e:	08 96       	adiw	r24, 0x08	; 8
    5c80:	0e 94 8b 49 	call	0x9316	; 0x9316 <vListInitialise>
    5c84:	8e 01       	movw	r16, r28
    5c86:	0f 5e       	subi	r16, 0xEF	; 239
    5c88:	1f 4f       	sbci	r17, 0xFF	; 255
    5c8a:	c8 01       	movw	r24, r16
    5c8c:	0e 94 8b 49 	call	0x9316	; 0x9316 <vListInitialise>
    5c90:	0f b6       	in	r0, 0x3f	; 63
    5c92:	f8 94       	cli
    5c94:	0f 92       	push	r0
    5c96:	9a 8d       	ldd	r25, Y+26	; 0x1a
    5c98:	8b 8d       	ldd	r24, Y+27	; 0x1b
    5c9a:	98 17       	cp	r25, r24
    5c9c:	40 f0       	brcs	.+16     	; 0x5cae <xQueueCreateMutex+0x6a>
    5c9e:	0f 90       	pop	r0
    5ca0:	0f be       	out	0x3f, r0	; 63
    5ca2:	ce 01       	movw	r24, r28
    5ca4:	df 91       	pop	r29
    5ca6:	cf 91       	pop	r28
    5ca8:	1f 91       	pop	r17
    5caa:	0f 91       	pop	r16
    5cac:	08 95       	ret
    5cae:	4c 8d       	ldd	r20, Y+28	; 0x1c
    5cb0:	44 23       	and	r20, r20
    5cb2:	91 f4       	brne	.+36     	; 0x5cd8 <xQueueCreateMutex+0x94>
    5cb4:	88 81       	ld	r24, Y
    5cb6:	99 81       	ldd	r25, Y+1	; 0x01
    5cb8:	89 2b       	or	r24, r25
    5cba:	71 f1       	breq	.+92     	; 0x5d18 <xQueueCreateMutex+0xd4>
    5cbc:	8a 8d       	ldd	r24, Y+26	; 0x1a
    5cbe:	8f 5f       	subi	r24, 0xFF	; 255
    5cc0:	8a 8f       	std	Y+26, r24	; 0x1a
    5cc2:	89 89       	ldd	r24, Y+17	; 0x11
    5cc4:	88 23       	and	r24, r24
    5cc6:	01 f5       	brne	.+64     	; 0x5d08 <xQueueCreateMutex+0xc4>
    5cc8:	0f 90       	pop	r0
    5cca:	0f be       	out	0x3f, r0	; 63
    5ccc:	ce 01       	movw	r24, r28
    5cce:	df 91       	pop	r29
    5cd0:	cf 91       	pop	r28
    5cd2:	1f 91       	pop	r17
    5cd4:	0f 91       	pop	r16
    5cd6:	08 95       	ret
    5cd8:	8c 81       	ldd	r24, Y+4	; 0x04
    5cda:	9d 81       	ldd	r25, Y+5	; 0x05
    5cdc:	60 e0       	ldi	r22, 0x00	; 0
    5cde:	70 e0       	ldi	r23, 0x00	; 0
    5ce0:	50 e0       	ldi	r21, 0x00	; 0
    5ce2:	0e 94 25 08 	call	0x104a	; 0x104a <memcpy>
    5ce6:	8c 8d       	ldd	r24, Y+28	; 0x1c
    5ce8:	2c 81       	ldd	r18, Y+4	; 0x04
    5cea:	3d 81       	ldd	r19, Y+5	; 0x05
    5cec:	28 0f       	add	r18, r24
    5cee:	31 1d       	adc	r19, r1
    5cf0:	3d 83       	std	Y+5, r19	; 0x05
    5cf2:	2c 83       	std	Y+4, r18	; 0x04
    5cf4:	8a 81       	ldd	r24, Y+2	; 0x02
    5cf6:	9b 81       	ldd	r25, Y+3	; 0x03
    5cf8:	28 17       	cp	r18, r24
    5cfa:	39 07       	cpc	r19, r25
    5cfc:	f8 f2       	brcs	.-66     	; 0x5cbc <xQueueCreateMutex+0x78>
    5cfe:	88 81       	ld	r24, Y
    5d00:	99 81       	ldd	r25, Y+1	; 0x01
    5d02:	9d 83       	std	Y+5, r25	; 0x05
    5d04:	8c 83       	std	Y+4, r24	; 0x04
    5d06:	da cf       	rjmp	.-76     	; 0x5cbc <xQueueCreateMutex+0x78>
    5d08:	c8 01       	movw	r24, r16
    5d0a:	0e 94 63 31 	call	0x62c6	; 0x62c6 <xTaskRemoveFromEventList>
    5d0e:	81 30       	cpi	r24, 0x01	; 1
    5d10:	d9 f6       	brne	.-74     	; 0x5cc8 <xQueueCreateMutex+0x84>
    5d12:	0e 94 2a 49 	call	0x9254	; 0x9254 <vPortYield>
    5d16:	d8 cf       	rjmp	.-80     	; 0x5cc8 <xQueueCreateMutex+0x84>
    5d18:	8a 81       	ldd	r24, Y+2	; 0x02
    5d1a:	9b 81       	ldd	r25, Y+3	; 0x03
    5d1c:	0e 94 a9 30 	call	0x6152	; 0x6152 <vTaskPriorityDisinherit>
    5d20:	1b 82       	std	Y+3, r1	; 0x03
    5d22:	1a 82       	std	Y+2, r1	; 0x02
    5d24:	cb cf       	rjmp	.-106    	; 0x5cbc <xQueueCreateMutex+0x78>

00005d26 <xQueueGenericReset>:
    5d26:	cf 93       	push	r28
    5d28:	df 93       	push	r29
    5d2a:	ec 01       	movw	r28, r24
    5d2c:	0f b6       	in	r0, 0x3f	; 63
    5d2e:	f8 94       	cli
    5d30:	0f 92       	push	r0
    5d32:	ec 8d       	ldd	r30, Y+28	; 0x1c
    5d34:	2b 8d       	ldd	r18, Y+27	; 0x1b
    5d36:	e2 9f       	mul	r30, r18
    5d38:	c0 01       	movw	r24, r0
    5d3a:	11 24       	eor	r1, r1
    5d3c:	48 81       	ld	r20, Y
    5d3e:	59 81       	ldd	r21, Y+1	; 0x01
    5d40:	84 0f       	add	r24, r20
    5d42:	95 1f       	adc	r25, r21
    5d44:	9b 83       	std	Y+3, r25	; 0x03
    5d46:	8a 83       	std	Y+2, r24	; 0x02
    5d48:	1a 8e       	std	Y+26, r1	; 0x1a
    5d4a:	5d 83       	std	Y+5, r21	; 0x05
    5d4c:	4c 83       	std	Y+4, r20	; 0x04
    5d4e:	30 e0       	ldi	r19, 0x00	; 0
    5d50:	21 50       	subi	r18, 0x01	; 1
    5d52:	30 40       	sbci	r19, 0x00	; 0
    5d54:	f0 e0       	ldi	r31, 0x00	; 0
    5d56:	2e 9f       	mul	r18, r30
    5d58:	c0 01       	movw	r24, r0
    5d5a:	2f 9f       	mul	r18, r31
    5d5c:	90 0d       	add	r25, r0
    5d5e:	3e 9f       	mul	r19, r30
    5d60:	90 0d       	add	r25, r0
    5d62:	11 24       	eor	r1, r1
    5d64:	48 0f       	add	r20, r24
    5d66:	59 1f       	adc	r21, r25
    5d68:	5f 83       	std	Y+7, r21	; 0x07
    5d6a:	4e 83       	std	Y+6, r20	; 0x06
    5d6c:	8f ef       	ldi	r24, 0xFF	; 255
    5d6e:	8d 8f       	std	Y+29, r24	; 0x1d
    5d70:	8e 8f       	std	Y+30, r24	; 0x1e
    5d72:	66 23       	and	r22, r22
    5d74:	91 f4       	brne	.+36     	; 0x5d9a <xQueueGenericReset+0x74>
    5d76:	88 85       	ldd	r24, Y+8	; 0x08
    5d78:	88 23       	and	r24, r24
    5d7a:	31 f4       	brne	.+12     	; 0x5d88 <xQueueGenericReset+0x62>
    5d7c:	0f 90       	pop	r0
    5d7e:	0f be       	out	0x3f, r0	; 63
    5d80:	81 e0       	ldi	r24, 0x01	; 1
    5d82:	df 91       	pop	r29
    5d84:	cf 91       	pop	r28
    5d86:	08 95       	ret
    5d88:	ce 01       	movw	r24, r28
    5d8a:	08 96       	adiw	r24, 0x08	; 8
    5d8c:	0e 94 63 31 	call	0x62c6	; 0x62c6 <xTaskRemoveFromEventList>
    5d90:	81 30       	cpi	r24, 0x01	; 1
    5d92:	a1 f7       	brne	.-24     	; 0x5d7c <xQueueGenericReset+0x56>
    5d94:	0e 94 2a 49 	call	0x9254	; 0x9254 <vPortYield>
    5d98:	f1 cf       	rjmp	.-30     	; 0x5d7c <xQueueGenericReset+0x56>
    5d9a:	ce 01       	movw	r24, r28
    5d9c:	08 96       	adiw	r24, 0x08	; 8
    5d9e:	0e 94 8b 49 	call	0x9316	; 0x9316 <vListInitialise>
    5da2:	ce 01       	movw	r24, r28
    5da4:	41 96       	adiw	r24, 0x11	; 17
    5da6:	0e 94 8b 49 	call	0x9316	; 0x9316 <vListInitialise>
    5daa:	0f 90       	pop	r0
    5dac:	0f be       	out	0x3f, r0	; 63
    5dae:	81 e0       	ldi	r24, 0x01	; 1
    5db0:	df 91       	pop	r29
    5db2:	cf 91       	pop	r28
    5db4:	08 95       	ret

00005db6 <xQueueGenericCreate>:
    5db6:	cf 92       	push	r12
    5db8:	df 92       	push	r13
    5dba:	ff 92       	push	r15
    5dbc:	0f 93       	push	r16
    5dbe:	1f 93       	push	r17
    5dc0:	cf 93       	push	r28
    5dc2:	df 93       	push	r29
    5dc4:	18 2f       	mov	r17, r24
    5dc6:	06 2f       	mov	r16, r22
    5dc8:	f4 2e       	mov	r15, r20
    5dca:	88 23       	and	r24, r24
    5dcc:	59 f4       	brne	.+22     	; 0x5de4 <xQueueGenericCreate+0x2e>
    5dce:	40 e0       	ldi	r20, 0x00	; 0
    5dd0:	50 e0       	ldi	r21, 0x00	; 0
    5dd2:	ca 01       	movw	r24, r20
    5dd4:	df 91       	pop	r29
    5dd6:	cf 91       	pop	r28
    5dd8:	1f 91       	pop	r17
    5dda:	0f 91       	pop	r16
    5ddc:	ff 90       	pop	r15
    5dde:	df 90       	pop	r13
    5de0:	cf 90       	pop	r12
    5de2:	08 95       	ret
    5de4:	81 e2       	ldi	r24, 0x21	; 33
    5de6:	90 e0       	ldi	r25, 0x00	; 0
    5de8:	0e 94 48 28 	call	0x5090	; 0x5090 <pvPortMalloc>
    5dec:	ec 01       	movw	r28, r24
    5dee:	00 97       	sbiw	r24, 0x00	; 0
    5df0:	71 f3       	breq	.-36     	; 0x5dce <xQueueGenericCreate+0x18>
    5df2:	c0 2e       	mov	r12, r16
    5df4:	dd 24       	eor	r13, r13
    5df6:	81 2f       	mov	r24, r17
    5df8:	90 e0       	ldi	r25, 0x00	; 0
    5dfa:	9c 01       	movw	r18, r24
    5dfc:	c2 9e       	mul	r12, r18
    5dfe:	c0 01       	movw	r24, r0
    5e00:	c3 9e       	mul	r12, r19
    5e02:	90 0d       	add	r25, r0
    5e04:	d2 9e       	mul	r13, r18
    5e06:	90 0d       	add	r25, r0
    5e08:	11 24       	eor	r1, r1
    5e0a:	01 96       	adiw	r24, 0x01	; 1
    5e0c:	0e 94 48 28 	call	0x5090	; 0x5090 <pvPortMalloc>
    5e10:	99 83       	std	Y+1, r25	; 0x01
    5e12:	88 83       	st	Y, r24
    5e14:	00 97       	sbiw	r24, 0x00	; 0
    5e16:	b9 f1       	breq	.+110    	; 0x5e86 <xQueueGenericCreate+0xd0>
    5e18:	1b 8f       	std	Y+27, r17	; 0x1b
    5e1a:	0c 8f       	std	Y+28, r16	; 0x1c
    5e1c:	0f b6       	in	r0, 0x3f	; 63
    5e1e:	f8 94       	cli
    5e20:	0f 92       	push	r0
    5e22:	2b 8d       	ldd	r18, Y+27	; 0x1b
    5e24:	30 e0       	ldi	r19, 0x00	; 0
    5e26:	c2 9e       	mul	r12, r18
    5e28:	c0 01       	movw	r24, r0
    5e2a:	c3 9e       	mul	r12, r19
    5e2c:	90 0d       	add	r25, r0
    5e2e:	d2 9e       	mul	r13, r18
    5e30:	90 0d       	add	r25, r0
    5e32:	11 24       	eor	r1, r1
    5e34:	48 81       	ld	r20, Y
    5e36:	59 81       	ldd	r21, Y+1	; 0x01
    5e38:	84 0f       	add	r24, r20
    5e3a:	95 1f       	adc	r25, r21
    5e3c:	9b 83       	std	Y+3, r25	; 0x03
    5e3e:	8a 83       	std	Y+2, r24	; 0x02
    5e40:	1a 8e       	std	Y+26, r1	; 0x1a
    5e42:	5d 83       	std	Y+5, r21	; 0x05
    5e44:	4c 83       	std	Y+4, r20	; 0x04
    5e46:	21 50       	subi	r18, 0x01	; 1
    5e48:	30 40       	sbci	r19, 0x00	; 0
    5e4a:	8c 8d       	ldd	r24, Y+28	; 0x1c
    5e4c:	90 e0       	ldi	r25, 0x00	; 0
    5e4e:	bc 01       	movw	r22, r24
    5e50:	26 9f       	mul	r18, r22
    5e52:	c0 01       	movw	r24, r0
    5e54:	27 9f       	mul	r18, r23
    5e56:	90 0d       	add	r25, r0
    5e58:	36 9f       	mul	r19, r22
    5e5a:	90 0d       	add	r25, r0
    5e5c:	11 24       	eor	r1, r1
    5e5e:	48 0f       	add	r20, r24
    5e60:	59 1f       	adc	r21, r25
    5e62:	5f 83       	std	Y+7, r21	; 0x07
    5e64:	4e 83       	std	Y+6, r20	; 0x06
    5e66:	8f ef       	ldi	r24, 0xFF	; 255
    5e68:	8d 8f       	std	Y+29, r24	; 0x1d
    5e6a:	8e 8f       	std	Y+30, r24	; 0x1e
    5e6c:	ce 01       	movw	r24, r28
    5e6e:	08 96       	adiw	r24, 0x08	; 8
    5e70:	0e 94 8b 49 	call	0x9316	; 0x9316 <vListInitialise>
    5e74:	ce 01       	movw	r24, r28
    5e76:	41 96       	adiw	r24, 0x11	; 17
    5e78:	0e 94 8b 49 	call	0x9316	; 0x9316 <vListInitialise>
    5e7c:	0f 90       	pop	r0
    5e7e:	0f be       	out	0x3f, r0	; 63
    5e80:	f8 a2       	std	Y+32, r15	; 0x20
    5e82:	ae 01       	movw	r20, r28
    5e84:	a6 cf       	rjmp	.-180    	; 0x5dd2 <xQueueGenericCreate+0x1c>
    5e86:	ce 01       	movw	r24, r28
    5e88:	0e 94 d5 27 	call	0x4faa	; 0x4faa <vPortFree>
    5e8c:	40 e0       	ldi	r20, 0x00	; 0
    5e8e:	50 e0       	ldi	r21, 0x00	; 0
    5e90:	a0 cf       	rjmp	.-192    	; 0x5dd2 <xQueueGenericCreate+0x1c>

00005e92 <vTaskSuspendAll>:
    5e92:	80 91 74 1c 	lds	r24, 0x1C74
    5e96:	8f 5f       	subi	r24, 0xFF	; 255
    5e98:	80 93 74 1c 	sts	0x1C74, r24
    5e9c:	08 95       	ret

00005e9e <xTaskGetTickCount>:
    5e9e:	0f b6       	in	r0, 0x3f	; 63
    5ea0:	f8 94       	cli
    5ea2:	0f 92       	push	r0
    5ea4:	20 91 71 1c 	lds	r18, 0x1C71
    5ea8:	30 91 72 1c 	lds	r19, 0x1C72
    5eac:	0f 90       	pop	r0
    5eae:	0f be       	out	0x3f, r0	; 63
    5eb0:	c9 01       	movw	r24, r18
    5eb2:	08 95       	ret

00005eb4 <xTaskGetTickCountFromISR>:
    5eb4:	20 91 71 1c 	lds	r18, 0x1C71
    5eb8:	30 91 72 1c 	lds	r19, 0x1C72
    5ebc:	c9 01       	movw	r24, r18
    5ebe:	08 95       	ret

00005ec0 <uxTaskGetNumberOfTasks>:
    5ec0:	80 91 6e 1c 	lds	r24, 0x1C6E
    5ec4:	08 95       	ret

00005ec6 <vTaskSetTimeOutState>:
    5ec6:	fc 01       	movw	r30, r24
    5ec8:	80 91 73 1c 	lds	r24, 0x1C73
    5ecc:	80 83       	st	Z, r24
    5ece:	80 91 71 1c 	lds	r24, 0x1C71
    5ed2:	90 91 72 1c 	lds	r25, 0x1C72
    5ed6:	92 83       	std	Z+2, r25	; 0x02
    5ed8:	81 83       	std	Z+1, r24	; 0x01
    5eda:	08 95       	ret

00005edc <xTaskCheckForTimeOut>:
    5edc:	fc 01       	movw	r30, r24
    5ede:	db 01       	movw	r26, r22
    5ee0:	0f b6       	in	r0, 0x3f	; 63
    5ee2:	f8 94       	cli
    5ee4:	0f 92       	push	r0
    5ee6:	60 91 71 1c 	lds	r22, 0x1C71
    5eea:	70 91 72 1c 	lds	r23, 0x1C72
    5eee:	2d 91       	ld	r18, X+
    5ef0:	3c 91       	ld	r19, X
    5ef2:	11 97       	sbiw	r26, 0x01	; 1
    5ef4:	8f ef       	ldi	r24, 0xFF	; 255
    5ef6:	2f 3f       	cpi	r18, 0xFF	; 255
    5ef8:	38 07       	cpc	r19, r24
    5efa:	f9 f0       	breq	.+62     	; 0x5f3a <xTaskCheckForTimeOut+0x5e>
    5efc:	90 91 73 1c 	lds	r25, 0x1C73
    5f00:	80 81       	ld	r24, Z
    5f02:	89 17       	cp	r24, r25
    5f04:	f1 f0       	breq	.+60     	; 0x5f42 <xTaskCheckForTimeOut+0x66>
    5f06:	41 81       	ldd	r20, Z+1	; 0x01
    5f08:	52 81       	ldd	r21, Z+2	; 0x02
    5f0a:	64 17       	cp	r22, r20
    5f0c:	75 07       	cpc	r23, r21
    5f0e:	08 f5       	brcc	.+66     	; 0x5f52 <xTaskCheckForTimeOut+0x76>
    5f10:	cb 01       	movw	r24, r22
    5f12:	84 1b       	sub	r24, r20
    5f14:	95 0b       	sbc	r25, r21
    5f16:	82 17       	cp	r24, r18
    5f18:	93 07       	cpc	r25, r19
    5f1a:	d8 f4       	brcc	.+54     	; 0x5f52 <xTaskCheckForTimeOut+0x76>
    5f1c:	26 1b       	sub	r18, r22
    5f1e:	37 0b       	sbc	r19, r23
    5f20:	24 0f       	add	r18, r20
    5f22:	35 1f       	adc	r19, r21
    5f24:	2d 93       	st	X+, r18
    5f26:	3c 93       	st	X, r19
    5f28:	80 91 73 1c 	lds	r24, 0x1C73
    5f2c:	80 83       	st	Z, r24
    5f2e:	80 91 71 1c 	lds	r24, 0x1C71
    5f32:	90 91 72 1c 	lds	r25, 0x1C72
    5f36:	92 83       	std	Z+2, r25	; 0x02
    5f38:	81 83       	std	Z+1, r24	; 0x01
    5f3a:	80 e0       	ldi	r24, 0x00	; 0
    5f3c:	0f 90       	pop	r0
    5f3e:	0f be       	out	0x3f, r0	; 63
    5f40:	08 95       	ret
    5f42:	41 81       	ldd	r20, Z+1	; 0x01
    5f44:	52 81       	ldd	r21, Z+2	; 0x02
    5f46:	cb 01       	movw	r24, r22
    5f48:	84 1b       	sub	r24, r20
    5f4a:	95 0b       	sbc	r25, r21
    5f4c:	82 17       	cp	r24, r18
    5f4e:	93 07       	cpc	r25, r19
    5f50:	28 f3       	brcs	.-54     	; 0x5f1c <xTaskCheckForTimeOut+0x40>
    5f52:	81 e0       	ldi	r24, 0x01	; 1
    5f54:	0f 90       	pop	r0
    5f56:	0f be       	out	0x3f, r0	; 63
    5f58:	08 95       	ret

00005f5a <vTaskMissedYield>:
    5f5a:	81 e0       	ldi	r24, 0x01	; 1
    5f5c:	80 93 70 1c 	sts	0x1C70, r24
    5f60:	08 95       	ret

00005f62 <uxTaskGetTaskNumber>:
    5f62:	fc 01       	movw	r30, r24
    5f64:	00 97       	sbiw	r24, 0x00	; 0
    5f66:	11 f0       	breq	.+4      	; 0x5f6c <uxTaskGetTaskNumber+0xa>
    5f68:	82 a1       	ldd	r24, Z+34	; 0x22
    5f6a:	08 95       	ret
    5f6c:	80 e0       	ldi	r24, 0x00	; 0
    5f6e:	08 95       	ret

00005f70 <vTaskSetTaskNumber>:
    5f70:	fc 01       	movw	r30, r24
    5f72:	00 97       	sbiw	r24, 0x00	; 0
    5f74:	09 f0       	breq	.+2      	; 0x5f78 <vTaskSetTaskNumber+0x8>
    5f76:	62 a3       	std	Z+34, r22	; 0x22
    5f78:	08 95       	ret

00005f7a <prvListTaskWithinSingleList>:
    5f7a:	a0 e0       	ldi	r26, 0x00	; 0
    5f7c:	b0 e0       	ldi	r27, 0x00	; 0
    5f7e:	e3 ec       	ldi	r30, 0xC3	; 195
    5f80:	ff e2       	ldi	r31, 0x2F	; 47
    5f82:	0c 94 8e 53 	jmp	0xa71c	; 0xa71c <__prologue_saves__+0x4>
    5f86:	3c 01       	movw	r6, r24
    5f88:	8b 01       	movw	r16, r22
    5f8a:	5a 01       	movw	r10, r20
    5f8c:	db 01       	movw	r26, r22
    5f8e:	8c 91       	ld	r24, X
    5f90:	88 23       	and	r24, r24
    5f92:	09 f4       	brne	.+2      	; 0x5f96 <prvListTaskWithinSingleList+0x1c>
    5f94:	8d c0       	rjmp	.+282    	; 0x60b0 <prvListTaskWithinSingleList+0x136>
    5f96:	11 96       	adiw	r26, 0x01	; 1
    5f98:	ed 91       	ld	r30, X+
    5f9a:	fc 91       	ld	r31, X
    5f9c:	12 97       	sbiw	r26, 0x02	; 2
    5f9e:	02 80       	ldd	r0, Z+2	; 0x02
    5fa0:	f3 81       	ldd	r31, Z+3	; 0x03
    5fa2:	e0 2d       	mov	r30, r0
    5fa4:	12 96       	adiw	r26, 0x02	; 2
    5fa6:	fc 93       	st	X, r31
    5fa8:	ee 93       	st	-X, r30
    5faa:	11 97       	sbiw	r26, 0x01	; 1
    5fac:	23 e0       	ldi	r18, 0x03	; 3
    5fae:	c2 2e       	mov	r12, r18
    5fb0:	d1 2c       	mov	r13, r1
    5fb2:	c6 0e       	add	r12, r22
    5fb4:	d7 1e       	adc	r13, r23
    5fb6:	ec 15       	cp	r30, r12
    5fb8:	fd 05       	cpc	r31, r13
    5fba:	09 f4       	brne	.+2      	; 0x5fbe <prvListTaskWithinSingleList+0x44>
    5fbc:	83 c0       	rjmp	.+262    	; 0x60c4 <prvListTaskWithinSingleList+0x14a>
    5fbe:	86 80       	ldd	r8, Z+6	; 0x06
    5fc0:	97 80       	ldd	r9, Z+7	; 0x07
    5fc2:	ff 24       	eor	r15, r15
    5fc4:	9f e0       	ldi	r25, 0x0F	; 15
    5fc6:	e9 2e       	mov	r14, r25
    5fc8:	82 e0       	ldi	r24, 0x02	; 2
    5fca:	48 2e       	mov	r4, r24
    5fcc:	51 2c       	mov	r5, r1
    5fce:	82 81       	ldd	r24, Z+2	; 0x02
    5fd0:	93 81       	ldd	r25, Z+3	; 0x03
    5fd2:	f8 01       	movw	r30, r16
    5fd4:	92 83       	std	Z+2, r25	; 0x02
    5fd6:	81 83       	std	Z+1, r24	; 0x01
    5fd8:	c8 16       	cp	r12, r24
    5fda:	d9 06       	cpc	r13, r25
    5fdc:	09 f4       	brne	.+2      	; 0x5fe0 <prvListTaskWithinSingleList+0x66>
    5fde:	55 c0       	rjmp	.+170    	; 0x608a <prvListTaskWithinSingleList+0x110>
    5fe0:	d8 01       	movw	r26, r16
    5fe2:	11 96       	adiw	r26, 0x01	; 1
    5fe4:	ed 91       	ld	r30, X+
    5fe6:	fc 91       	ld	r31, X
    5fe8:	12 97       	sbiw	r26, 0x02	; 2
    5fea:	c6 81       	ldd	r28, Z+6	; 0x06
    5fec:	d7 81       	ldd	r29, Z+7	; 0x07
    5fee:	fe 9c       	mul	r15, r14
    5ff0:	b0 01       	movw	r22, r0
    5ff2:	11 24       	eor	r1, r1
    5ff4:	66 0d       	add	r22, r6
    5ff6:	77 1d       	adc	r23, r7
    5ff8:	fb 01       	movw	r30, r22
    5ffa:	d1 83       	std	Z+1, r29	; 0x01
    5ffc:	c0 83       	st	Z, r28
    5ffe:	69 96       	adiw	r28, 0x19	; 25
    6000:	d3 83       	std	Z+3, r29	; 0x03
    6002:	c2 83       	std	Z+2, r28	; 0x02
    6004:	69 97       	sbiw	r28, 0x19	; 25
    6006:	89 a1       	ldd	r24, Y+33	; 0x21
    6008:	84 83       	std	Z+4, r24	; 0x04
    600a:	b6 82       	std	Z+6, r11	; 0x06
    600c:	a5 82       	std	Z+5, r10	; 0x05
    600e:	8e 89       	ldd	r24, Y+22	; 0x16
    6010:	87 83       	std	Z+7, r24	; 0x07
    6012:	f3 e0       	ldi	r31, 0x03	; 3
    6014:	af 16       	cp	r10, r31
    6016:	b1 04       	cpc	r11, r1
    6018:	09 f4       	brne	.+2      	; 0x601c <prvListTaskWithinSingleList+0xa2>
    601a:	3f c0       	rjmp	.+126    	; 0x609a <prvListTaskWithinSingleList+0x120>
    601c:	8b a1       	ldd	r24, Y+35	; 0x23
    601e:	fb 01       	movw	r30, r22
    6020:	80 87       	std	Z+8, r24	; 0x08
    6022:	8c a1       	ldd	r24, Y+36	; 0x24
    6024:	9d a1       	ldd	r25, Y+37	; 0x25
    6026:	ae a1       	ldd	r26, Y+38	; 0x26
    6028:	bf a1       	ldd	r27, Y+39	; 0x27
    602a:	81 87       	std	Z+9, r24	; 0x09
    602c:	92 87       	std	Z+10, r25	; 0x0a
    602e:	a3 87       	std	Z+11, r26	; 0x0b
    6030:	b4 87       	std	Z+12, r27	; 0x0c
    6032:	af 89       	ldd	r26, Y+23	; 0x17
    6034:	b8 8d       	ldd	r27, Y+24	; 0x18
    6036:	8c 91       	ld	r24, X
    6038:	85 3a       	cpi	r24, 0xA5	; 165
    603a:	09 f0       	breq	.+2      	; 0x603e <prvListTaskWithinSingleList+0xc4>
    603c:	40 c0       	rjmp	.+128    	; 0x60be <prvListTaskWithinSingleList+0x144>
    603e:	20 e0       	ldi	r18, 0x00	; 0
    6040:	30 e0       	ldi	r19, 0x00	; 0
    6042:	40 e0       	ldi	r20, 0x00	; 0
    6044:	50 e0       	ldi	r21, 0x00	; 0
    6046:	2f 5f       	subi	r18, 0xFF	; 255
    6048:	3f 4f       	sbci	r19, 0xFF	; 255
    604a:	4f 4f       	sbci	r20, 0xFF	; 255
    604c:	5f 4f       	sbci	r21, 0xFF	; 255
    604e:	fd 01       	movw	r30, r26
    6050:	e2 0f       	add	r30, r18
    6052:	f3 1f       	adc	r31, r19
    6054:	80 81       	ld	r24, Z
    6056:	85 3a       	cpi	r24, 0xA5	; 165
    6058:	b1 f3       	breq	.-20     	; 0x6046 <prvListTaskWithinSingleList+0xcc>
    605a:	c9 01       	movw	r24, r18
    605c:	db 01       	movw	r26, r22
    605e:	1e 96       	adiw	r26, 0x0e	; 14
    6060:	9c 93       	st	X, r25
    6062:	8e 93       	st	-X, r24
    6064:	1d 97       	sbiw	r26, 0x0d	; 13
    6066:	f3 94       	inc	r15
    6068:	c8 15       	cp	r28, r8
    606a:	d9 05       	cpc	r29, r9
    606c:	11 f1       	breq	.+68     	; 0x60b2 <prvListTaskWithinSingleList+0x138>
    606e:	d8 01       	movw	r26, r16
    6070:	11 96       	adiw	r26, 0x01	; 1
    6072:	ed 91       	ld	r30, X+
    6074:	fc 91       	ld	r31, X
    6076:	12 97       	sbiw	r26, 0x02	; 2
    6078:	82 81       	ldd	r24, Z+2	; 0x02
    607a:	93 81       	ldd	r25, Z+3	; 0x03
    607c:	f8 01       	movw	r30, r16
    607e:	92 83       	std	Z+2, r25	; 0x02
    6080:	81 83       	std	Z+1, r24	; 0x01
    6082:	c8 16       	cp	r12, r24
    6084:	d9 06       	cpc	r13, r25
    6086:	09 f0       	breq	.+2      	; 0x608a <prvListTaskWithinSingleList+0x110>
    6088:	ab cf       	rjmp	.-170    	; 0x5fe0 <prvListTaskWithinSingleList+0x66>
    608a:	d6 01       	movw	r26, r12
    608c:	12 96       	adiw	r26, 0x02	; 2
    608e:	8d 91       	ld	r24, X+
    6090:	9c 91       	ld	r25, X
    6092:	13 97       	sbiw	r26, 0x03	; 3
    6094:	92 83       	std	Z+2, r25	; 0x02
    6096:	81 83       	std	Z+1, r24	; 0x01
    6098:	a3 cf       	rjmp	.-186    	; 0x5fe0 <prvListTaskWithinSingleList+0x66>
    609a:	8c 89       	ldd	r24, Y+20	; 0x14
    609c:	9d 89       	ldd	r25, Y+21	; 0x15
    609e:	89 2b       	or	r24, r25
    60a0:	09 f4       	brne	.+2      	; 0x60a4 <prvListTaskWithinSingleList+0x12a>
    60a2:	bc cf       	rjmp	.-136    	; 0x601c <prvListTaskWithinSingleList+0xa2>
    60a4:	db 01       	movw	r26, r22
    60a6:	16 96       	adiw	r26, 0x06	; 6
    60a8:	5c 92       	st	X, r5
    60aa:	4e 92       	st	-X, r4
    60ac:	15 97       	sbiw	r26, 0x05	; 5
    60ae:	b6 cf       	rjmp	.-148    	; 0x601c <prvListTaskWithinSingleList+0xa2>
    60b0:	ff 24       	eor	r15, r15
    60b2:	8f 2d       	mov	r24, r15
    60b4:	cd b7       	in	r28, 0x3d	; 61
    60b6:	de b7       	in	r29, 0x3e	; 62
    60b8:	e0 e1       	ldi	r30, 0x10	; 16
    60ba:	0c 94 aa 53 	jmp	0xa754	; 0xa754 <__epilogue_restores__+0x4>
    60be:	80 e0       	ldi	r24, 0x00	; 0
    60c0:	90 e0       	ldi	r25, 0x00	; 0
    60c2:	cc cf       	rjmp	.-104    	; 0x605c <prvListTaskWithinSingleList+0xe2>
    60c4:	82 81       	ldd	r24, Z+2	; 0x02
    60c6:	93 81       	ldd	r25, Z+3	; 0x03
    60c8:	11 96       	adiw	r26, 0x01	; 1
    60ca:	8c 93       	st	X, r24
    60cc:	11 97       	sbiw	r26, 0x01	; 1
    60ce:	12 96       	adiw	r26, 0x02	; 2
    60d0:	9c 93       	st	X, r25
    60d2:	9c 01       	movw	r18, r24
    60d4:	f9 01       	movw	r30, r18
    60d6:	73 cf       	rjmp	.-282    	; 0x5fbe <prvListTaskWithinSingleList+0x44>

000060d8 <uxTaskGetStackHighWaterMark>:
    60d8:	00 97       	sbiw	r24, 0x00	; 0
    60da:	b1 f0       	breq	.+44     	; 0x6108 <uxTaskGetStackHighWaterMark+0x30>
    60dc:	fc 01       	movw	r30, r24
    60de:	a7 89       	ldd	r26, Z+23	; 0x17
    60e0:	b0 8d       	ldd	r27, Z+24	; 0x18
    60e2:	8c 91       	ld	r24, X
    60e4:	85 3a       	cpi	r24, 0xA5	; 165
    60e6:	a9 f4       	brne	.+42     	; 0x6112 <uxTaskGetStackHighWaterMark+0x3a>
    60e8:	20 e0       	ldi	r18, 0x00	; 0
    60ea:	30 e0       	ldi	r19, 0x00	; 0
    60ec:	40 e0       	ldi	r20, 0x00	; 0
    60ee:	50 e0       	ldi	r21, 0x00	; 0
    60f0:	2f 5f       	subi	r18, 0xFF	; 255
    60f2:	3f 4f       	sbci	r19, 0xFF	; 255
    60f4:	4f 4f       	sbci	r20, 0xFF	; 255
    60f6:	5f 4f       	sbci	r21, 0xFF	; 255
    60f8:	fd 01       	movw	r30, r26
    60fa:	e2 0f       	add	r30, r18
    60fc:	f3 1f       	adc	r31, r19
    60fe:	80 81       	ld	r24, Z
    6100:	85 3a       	cpi	r24, 0xA5	; 165
    6102:	b1 f3       	breq	.-20     	; 0x60f0 <uxTaskGetStackHighWaterMark+0x18>
    6104:	82 2f       	mov	r24, r18
    6106:	08 95       	ret
    6108:	e0 91 6c 1c 	lds	r30, 0x1C6C
    610c:	f0 91 6d 1c 	lds	r31, 0x1C6D
    6110:	e6 cf       	rjmp	.-52     	; 0x60de <uxTaskGetStackHighWaterMark+0x6>
    6112:	80 e0       	ldi	r24, 0x00	; 0
    6114:	08 95       	ret

00006116 <xTaskGetCurrentTaskHandle>:
    6116:	20 91 6c 1c 	lds	r18, 0x1C6C
    611a:	30 91 6d 1c 	lds	r19, 0x1C6D
    611e:	c9 01       	movw	r24, r18
    6120:	08 95       	ret

00006122 <uxTaskResetEventItemValue>:
    6122:	e0 91 6c 1c 	lds	r30, 0x1C6C
    6126:	f0 91 6d 1c 	lds	r31, 0x1C6D
    612a:	84 85       	ldd	r24, Z+12	; 0x0c
    612c:	95 85       	ldd	r25, Z+13	; 0x0d
    612e:	a0 91 6c 1c 	lds	r26, 0x1C6C
    6132:	b0 91 6d 1c 	lds	r27, 0x1C6D
    6136:	e0 91 6c 1c 	lds	r30, 0x1C6C
    613a:	f0 91 6d 1c 	lds	r31, 0x1C6D
    613e:	46 89       	ldd	r20, Z+22	; 0x16
    6140:	24 e0       	ldi	r18, 0x04	; 4
    6142:	30 e0       	ldi	r19, 0x00	; 0
    6144:	24 1b       	sub	r18, r20
    6146:	31 09       	sbc	r19, r1
    6148:	1d 96       	adiw	r26, 0x0d	; 13
    614a:	3c 93       	st	X, r19
    614c:	2e 93       	st	-X, r18
    614e:	1c 97       	sbiw	r26, 0x0c	; 12
    6150:	08 95       	ret

00006152 <vTaskPriorityDisinherit>:
    6152:	0f 93       	push	r16
    6154:	1f 93       	push	r17
    6156:	cf 93       	push	r28
    6158:	df 93       	push	r29
    615a:	ec 01       	movw	r28, r24
    615c:	00 97       	sbiw	r24, 0x00	; 0
    615e:	31 f1       	breq	.+76     	; 0x61ac <vTaskPriorityDisinherit+0x5a>
    6160:	9e 89       	ldd	r25, Y+22	; 0x16
    6162:	8b a1       	ldd	r24, Y+35	; 0x23
    6164:	98 17       	cp	r25, r24
    6166:	11 f1       	breq	.+68     	; 0x61ac <vTaskPriorityDisinherit+0x5a>
    6168:	8e 01       	movw	r16, r28
    616a:	0e 5f       	subi	r16, 0xFE	; 254
    616c:	1f 4f       	sbci	r17, 0xFF	; 255
    616e:	c8 01       	movw	r24, r16
    6170:	0e 94 f0 49 	call	0x93e0	; 0x93e0 <uxListRemove>
    6174:	2b a1       	ldd	r18, Y+35	; 0x23
    6176:	2e 8b       	std	Y+22, r18	; 0x16
    6178:	8c 85       	ldd	r24, Y+12	; 0x0c
    617a:	9d 85       	ldd	r25, Y+13	; 0x0d
    617c:	97 fd       	sbrc	r25, 7
    617e:	06 c0       	rjmp	.+12     	; 0x618c <vTaskPriorityDisinherit+0x3a>
    6180:	84 e0       	ldi	r24, 0x04	; 4
    6182:	90 e0       	ldi	r25, 0x00	; 0
    6184:	82 1b       	sub	r24, r18
    6186:	91 09       	sbc	r25, r1
    6188:	9d 87       	std	Y+13, r25	; 0x0d
    618a:	8c 87       	std	Y+12, r24	; 0x0c
    618c:	9e 89       	ldd	r25, Y+22	; 0x16
    618e:	80 91 6f 1c 	lds	r24, 0x1C6F
    6192:	89 17       	cp	r24, r25
    6194:	10 f4       	brcc	.+4      	; 0x619a <vTaskPriorityDisinherit+0x48>
    6196:	90 93 6f 1c 	sts	0x1C6F, r25
    619a:	89 e0       	ldi	r24, 0x09	; 9
    619c:	98 9f       	mul	r25, r24
    619e:	c0 01       	movw	r24, r0
    61a0:	11 24       	eor	r1, r1
    61a2:	8f 57       	subi	r24, 0x7F	; 127
    61a4:	93 4e       	sbci	r25, 0xE3	; 227
    61a6:	b8 01       	movw	r22, r16
    61a8:	0e 94 9f 49 	call	0x933e	; 0x933e <vListInsertEnd>
    61ac:	df 91       	pop	r29
    61ae:	cf 91       	pop	r28
    61b0:	1f 91       	pop	r17
    61b2:	0f 91       	pop	r16
    61b4:	08 95       	ret

000061b6 <vTaskPriorityInherit>:
    61b6:	0f 93       	push	r16
    61b8:	1f 93       	push	r17
    61ba:	cf 93       	push	r28
    61bc:	df 93       	push	r29
    61be:	ec 01       	movw	r28, r24
    61c0:	00 97       	sbiw	r24, 0x00	; 0
    61c2:	41 f1       	breq	.+80     	; 0x6214 <vTaskPriorityInherit+0x5e>
    61c4:	3e 89       	ldd	r19, Y+22	; 0x16
    61c6:	e0 91 6c 1c 	lds	r30, 0x1C6C
    61ca:	f0 91 6d 1c 	lds	r31, 0x1C6D
    61ce:	86 89       	ldd	r24, Z+22	; 0x16
    61d0:	38 17       	cp	r19, r24
    61d2:	00 f5       	brcc	.+64     	; 0x6214 <vTaskPriorityInherit+0x5e>
    61d4:	8c 85       	ldd	r24, Y+12	; 0x0c
    61d6:	9d 85       	ldd	r25, Y+13	; 0x0d
    61d8:	97 fd       	sbrc	r25, 7
    61da:	0b c0       	rjmp	.+22     	; 0x61f2 <vTaskPriorityInherit+0x3c>
    61dc:	e0 91 6c 1c 	lds	r30, 0x1C6C
    61e0:	f0 91 6d 1c 	lds	r31, 0x1C6D
    61e4:	26 89       	ldd	r18, Z+22	; 0x16
    61e6:	84 e0       	ldi	r24, 0x04	; 4
    61e8:	90 e0       	ldi	r25, 0x00	; 0
    61ea:	82 1b       	sub	r24, r18
    61ec:	91 09       	sbc	r25, r1
    61ee:	9d 87       	std	Y+13, r25	; 0x0d
    61f0:	8c 87       	std	Y+12, r24	; 0x0c
    61f2:	89 e0       	ldi	r24, 0x09	; 9
    61f4:	38 9f       	mul	r19, r24
    61f6:	c0 01       	movw	r24, r0
    61f8:	11 24       	eor	r1, r1
    61fa:	8f 57       	subi	r24, 0x7F	; 127
    61fc:	93 4e       	sbci	r25, 0xE3	; 227
    61fe:	2a 85       	ldd	r18, Y+10	; 0x0a
    6200:	3b 85       	ldd	r19, Y+11	; 0x0b
    6202:	28 17       	cp	r18, r24
    6204:	39 07       	cpc	r19, r25
    6206:	59 f0       	breq	.+22     	; 0x621e <vTaskPriorityInherit+0x68>
    6208:	e0 91 6c 1c 	lds	r30, 0x1C6C
    620c:	f0 91 6d 1c 	lds	r31, 0x1C6D
    6210:	86 89       	ldd	r24, Z+22	; 0x16
    6212:	8e 8b       	std	Y+22, r24	; 0x16
    6214:	df 91       	pop	r29
    6216:	cf 91       	pop	r28
    6218:	1f 91       	pop	r17
    621a:	0f 91       	pop	r16
    621c:	08 95       	ret
    621e:	8e 01       	movw	r16, r28
    6220:	0e 5f       	subi	r16, 0xFE	; 254
    6222:	1f 4f       	sbci	r17, 0xFF	; 255
    6224:	c8 01       	movw	r24, r16
    6226:	0e 94 f0 49 	call	0x93e0	; 0x93e0 <uxListRemove>
    622a:	e0 91 6c 1c 	lds	r30, 0x1C6C
    622e:	f0 91 6d 1c 	lds	r31, 0x1C6D
    6232:	96 89       	ldd	r25, Z+22	; 0x16
    6234:	9e 8b       	std	Y+22, r25	; 0x16
    6236:	80 91 6f 1c 	lds	r24, 0x1C6F
    623a:	89 17       	cp	r24, r25
    623c:	10 f4       	brcc	.+4      	; 0x6242 <vTaskPriorityInherit+0x8c>
    623e:	90 93 6f 1c 	sts	0x1C6F, r25
    6242:	89 e0       	ldi	r24, 0x09	; 9
    6244:	98 9f       	mul	r25, r24
    6246:	c0 01       	movw	r24, r0
    6248:	11 24       	eor	r1, r1
    624a:	8f 57       	subi	r24, 0x7F	; 127
    624c:	93 4e       	sbci	r25, 0xE3	; 227
    624e:	b8 01       	movw	r22, r16
    6250:	0e 94 9f 49 	call	0x933e	; 0x933e <vListInsertEnd>
    6254:	df cf       	rjmp	.-66     	; 0x6214 <vTaskPriorityInherit+0x5e>

00006256 <xTaskRemoveFromUnorderedEventList>:
    6256:	0f 93       	push	r16
    6258:	1f 93       	push	r17
    625a:	cf 93       	push	r28
    625c:	df 93       	push	r29
    625e:	fc 01       	movw	r30, r24
    6260:	70 68       	ori	r23, 0x80	; 128
    6262:	71 83       	std	Z+1, r23	; 0x01
    6264:	60 83       	st	Z, r22
    6266:	c6 81       	ldd	r28, Z+6	; 0x06
    6268:	d7 81       	ldd	r29, Z+7	; 0x07
    626a:	0e 94 f0 49 	call	0x93e0	; 0x93e0 <uxListRemove>
    626e:	8e 01       	movw	r16, r28
    6270:	0e 5f       	subi	r16, 0xFE	; 254
    6272:	1f 4f       	sbci	r17, 0xFF	; 255
    6274:	c8 01       	movw	r24, r16
    6276:	0e 94 f0 49 	call	0x93e0	; 0x93e0 <uxListRemove>
    627a:	9e 89       	ldd	r25, Y+22	; 0x16
    627c:	80 91 6f 1c 	lds	r24, 0x1C6F
    6280:	89 17       	cp	r24, r25
    6282:	10 f4       	brcc	.+4      	; 0x6288 <xTaskRemoveFromUnorderedEventList+0x32>
    6284:	90 93 6f 1c 	sts	0x1C6F, r25
    6288:	89 e0       	ldi	r24, 0x09	; 9
    628a:	98 9f       	mul	r25, r24
    628c:	c0 01       	movw	r24, r0
    628e:	11 24       	eor	r1, r1
    6290:	8f 57       	subi	r24, 0x7F	; 127
    6292:	93 4e       	sbci	r25, 0xE3	; 227
    6294:	b8 01       	movw	r22, r16
    6296:	0e 94 9f 49 	call	0x933e	; 0x933e <vListInsertEnd>
    629a:	e0 91 6c 1c 	lds	r30, 0x1C6C
    629e:	f0 91 6d 1c 	lds	r31, 0x1C6D
    62a2:	9e 89       	ldd	r25, Y+22	; 0x16
    62a4:	86 89       	ldd	r24, Z+22	; 0x16
    62a6:	89 17       	cp	r24, r25
    62a8:	40 f4       	brcc	.+16     	; 0x62ba <xTaskRemoveFromUnorderedEventList+0x64>
    62aa:	81 e0       	ldi	r24, 0x01	; 1
    62ac:	80 93 70 1c 	sts	0x1C70, r24
    62b0:	df 91       	pop	r29
    62b2:	cf 91       	pop	r28
    62b4:	1f 91       	pop	r17
    62b6:	0f 91       	pop	r16
    62b8:	08 95       	ret
    62ba:	80 e0       	ldi	r24, 0x00	; 0
    62bc:	df 91       	pop	r29
    62be:	cf 91       	pop	r28
    62c0:	1f 91       	pop	r17
    62c2:	0f 91       	pop	r16
    62c4:	08 95       	ret

000062c6 <xTaskRemoveFromEventList>:
    62c6:	0f 93       	push	r16
    62c8:	1f 93       	push	r17
    62ca:	cf 93       	push	r28
    62cc:	df 93       	push	r29
    62ce:	dc 01       	movw	r26, r24
    62d0:	15 96       	adiw	r26, 0x05	; 5
    62d2:	ed 91       	ld	r30, X+
    62d4:	fc 91       	ld	r31, X
    62d6:	16 97       	sbiw	r26, 0x06	; 6
    62d8:	06 81       	ldd	r16, Z+6	; 0x06
    62da:	17 81       	ldd	r17, Z+7	; 0x07
    62dc:	e8 01       	movw	r28, r16
    62de:	2c 96       	adiw	r28, 0x0c	; 12
    62e0:	ce 01       	movw	r24, r28
    62e2:	0e 94 f0 49 	call	0x93e0	; 0x93e0 <uxListRemove>
    62e6:	80 91 74 1c 	lds	r24, 0x1C74
    62ea:	88 23       	and	r24, r24
    62ec:	31 f5       	brne	.+76     	; 0x633a <xTaskRemoveFromEventList+0x74>
    62ee:	e8 01       	movw	r28, r16
    62f0:	22 96       	adiw	r28, 0x02	; 2
    62f2:	ce 01       	movw	r24, r28
    62f4:	0e 94 f0 49 	call	0x93e0	; 0x93e0 <uxListRemove>
    62f8:	f8 01       	movw	r30, r16
    62fa:	96 89       	ldd	r25, Z+22	; 0x16
    62fc:	80 91 6f 1c 	lds	r24, 0x1C6F
    6300:	89 17       	cp	r24, r25
    6302:	08 f1       	brcs	.+66     	; 0x6346 <xTaskRemoveFromEventList+0x80>
    6304:	89 e0       	ldi	r24, 0x09	; 9
    6306:	98 9f       	mul	r25, r24
    6308:	c0 01       	movw	r24, r0
    630a:	11 24       	eor	r1, r1
    630c:	8f 57       	subi	r24, 0x7F	; 127
    630e:	93 4e       	sbci	r25, 0xE3	; 227
    6310:	be 01       	movw	r22, r28
    6312:	0e 94 9f 49 	call	0x933e	; 0x933e <vListInsertEnd>
    6316:	e0 91 6c 1c 	lds	r30, 0x1C6C
    631a:	f0 91 6d 1c 	lds	r31, 0x1C6D
    631e:	d8 01       	movw	r26, r16
    6320:	56 96       	adiw	r26, 0x16	; 22
    6322:	9c 91       	ld	r25, X
    6324:	86 89       	ldd	r24, Z+22	; 0x16
    6326:	89 17       	cp	r24, r25
    6328:	88 f4       	brcc	.+34     	; 0x634c <xTaskRemoveFromEventList+0x86>
    632a:	81 e0       	ldi	r24, 0x01	; 1
    632c:	80 93 70 1c 	sts	0x1C70, r24
    6330:	df 91       	pop	r29
    6332:	cf 91       	pop	r28
    6334:	1f 91       	pop	r17
    6336:	0f 91       	pop	r16
    6338:	08 95       	ret
    633a:	8b eb       	ldi	r24, 0xBB	; 187
    633c:	9c e1       	ldi	r25, 0x1C	; 28
    633e:	be 01       	movw	r22, r28
    6340:	0e 94 9f 49 	call	0x933e	; 0x933e <vListInsertEnd>
    6344:	e8 cf       	rjmp	.-48     	; 0x6316 <xTaskRemoveFromEventList+0x50>
    6346:	90 93 6f 1c 	sts	0x1C6F, r25
    634a:	dc cf       	rjmp	.-72     	; 0x6304 <xTaskRemoveFromEventList+0x3e>
    634c:	80 e0       	ldi	r24, 0x00	; 0
    634e:	df 91       	pop	r29
    6350:	cf 91       	pop	r28
    6352:	1f 91       	pop	r17
    6354:	0f 91       	pop	r16
    6356:	08 95       	ret

00006358 <xTaskIncrementTick>:
    6358:	a0 e0       	ldi	r26, 0x00	; 0
    635a:	b0 e0       	ldi	r27, 0x00	; 0
    635c:	e2 eb       	ldi	r30, 0xB2	; 178
    635e:	f1 e3       	ldi	r31, 0x31	; 49
    6360:	0c 94 96 53 	jmp	0xa72c	; 0xa72c <__prologue_saves__+0x14>
    6364:	80 91 74 1c 	lds	r24, 0x1C74
    6368:	88 23       	and	r24, r24
    636a:	09 f0       	breq	.+2      	; 0x636e <xTaskIncrementTick+0x16>
    636c:	89 c0       	rjmp	.+274    	; 0x6480 <xTaskIncrementTick+0x128>
    636e:	80 91 71 1c 	lds	r24, 0x1C71
    6372:	90 91 72 1c 	lds	r25, 0x1C72
    6376:	01 96       	adiw	r24, 0x01	; 1
    6378:	90 93 72 1c 	sts	0x1C72, r25
    637c:	80 93 71 1c 	sts	0x1C71, r24
    6380:	e0 90 71 1c 	lds	r14, 0x1C71
    6384:	f0 90 72 1c 	lds	r15, 0x1C72
    6388:	e1 14       	cp	r14, r1
    638a:	f1 04       	cpc	r15, r1
    638c:	19 f5       	brne	.+70     	; 0x63d4 <xTaskIncrementTick+0x7c>
    638e:	20 91 b7 1c 	lds	r18, 0x1CB7
    6392:	30 91 b8 1c 	lds	r19, 0x1CB8
    6396:	80 91 b9 1c 	lds	r24, 0x1CB9
    639a:	90 91 ba 1c 	lds	r25, 0x1CBA
    639e:	90 93 b8 1c 	sts	0x1CB8, r25
    63a2:	80 93 b7 1c 	sts	0x1CB7, r24
    63a6:	30 93 ba 1c 	sts	0x1CBA, r19
    63aa:	20 93 b9 1c 	sts	0x1CB9, r18
    63ae:	80 91 73 1c 	lds	r24, 0x1C73
    63b2:	8f 5f       	subi	r24, 0xFF	; 255
    63b4:	80 93 73 1c 	sts	0x1C73, r24
    63b8:	e0 91 b7 1c 	lds	r30, 0x1CB7
    63bc:	f0 91 b8 1c 	lds	r31, 0x1CB8
    63c0:	80 81       	ld	r24, Z
    63c2:	88 23       	and	r24, r24
    63c4:	09 f0       	breq	.+2      	; 0x63c8 <xTaskIncrementTick+0x70>
    63c6:	86 c0       	rjmp	.+268    	; 0x64d4 <xTaskIncrementTick+0x17c>
    63c8:	8f ef       	ldi	r24, 0xFF	; 255
    63ca:	9f ef       	ldi	r25, 0xFF	; 255
    63cc:	90 93 ad 09 	sts	0x09AD, r25
    63d0:	80 93 ac 09 	sts	0x09AC, r24
    63d4:	80 91 ac 09 	lds	r24, 0x09AC
    63d8:	90 91 ad 09 	lds	r25, 0x09AD
    63dc:	e8 16       	cp	r14, r24
    63de:	f9 06       	cpc	r15, r25
    63e0:	08 f4       	brcc	.+2      	; 0x63e4 <xTaskIncrementTick+0x8c>
    63e2:	60 c0       	rjmp	.+192    	; 0x64a4 <xTaskIncrementTick+0x14c>
    63e4:	dd 24       	eor	r13, r13
    63e6:	49 e0       	ldi	r20, 0x09	; 9
    63e8:	c4 2e       	mov	r12, r20
    63ea:	e0 91 b7 1c 	lds	r30, 0x1CB7
    63ee:	f0 91 b8 1c 	lds	r31, 0x1CB8
    63f2:	80 81       	ld	r24, Z
    63f4:	88 23       	and	r24, r24
    63f6:	e9 f1       	breq	.+122    	; 0x6472 <xTaskIncrementTick+0x11a>
    63f8:	e0 91 b7 1c 	lds	r30, 0x1CB7
    63fc:	f0 91 b8 1c 	lds	r31, 0x1CB8
    6400:	05 80       	ldd	r0, Z+5	; 0x05
    6402:	f6 81       	ldd	r31, Z+6	; 0x06
    6404:	e0 2d       	mov	r30, r0
    6406:	c6 81       	ldd	r28, Z+6	; 0x06
    6408:	d7 81       	ldd	r29, Z+7	; 0x07
    640a:	8a 81       	ldd	r24, Y+2	; 0x02
    640c:	9b 81       	ldd	r25, Y+3	; 0x03
    640e:	e8 16       	cp	r14, r24
    6410:	f9 06       	cpc	r15, r25
    6412:	08 f4       	brcc	.+2      	; 0x6416 <xTaskIncrementTick+0xbe>
    6414:	77 c0       	rjmp	.+238    	; 0x6504 <xTaskIncrementTick+0x1ac>
    6416:	8e 01       	movw	r16, r28
    6418:	0e 5f       	subi	r16, 0xFE	; 254
    641a:	1f 4f       	sbci	r17, 0xFF	; 255
    641c:	c8 01       	movw	r24, r16
    641e:	0e 94 f0 49 	call	0x93e0	; 0x93e0 <uxListRemove>
    6422:	8c 89       	ldd	r24, Y+20	; 0x14
    6424:	9d 89       	ldd	r25, Y+21	; 0x15
    6426:	89 2b       	or	r24, r25
    6428:	21 f0       	breq	.+8      	; 0x6432 <xTaskIncrementTick+0xda>
    642a:	ce 01       	movw	r24, r28
    642c:	0c 96       	adiw	r24, 0x0c	; 12
    642e:	0e 94 f0 49 	call	0x93e0	; 0x93e0 <uxListRemove>
    6432:	9e 89       	ldd	r25, Y+22	; 0x16
    6434:	80 91 6f 1c 	lds	r24, 0x1C6F
    6438:	89 17       	cp	r24, r25
    643a:	10 f4       	brcc	.+4      	; 0x6440 <xTaskIncrementTick+0xe8>
    643c:	90 93 6f 1c 	sts	0x1C6F, r25
    6440:	9c 9d       	mul	r25, r12
    6442:	c0 01       	movw	r24, r0
    6444:	11 24       	eor	r1, r1
    6446:	8f 57       	subi	r24, 0x7F	; 127
    6448:	93 4e       	sbci	r25, 0xE3	; 227
    644a:	b8 01       	movw	r22, r16
    644c:	0e 94 9f 49 	call	0x933e	; 0x933e <vListInsertEnd>
    6450:	e0 91 6c 1c 	lds	r30, 0x1C6C
    6454:	f0 91 6d 1c 	lds	r31, 0x1C6D
    6458:	9e 89       	ldd	r25, Y+22	; 0x16
    645a:	86 89       	ldd	r24, Z+22	; 0x16
    645c:	98 17       	cp	r25, r24
    645e:	28 f2       	brcs	.-118    	; 0x63ea <xTaskIncrementTick+0x92>
    6460:	dd 24       	eor	r13, r13
    6462:	d3 94       	inc	r13
    6464:	e0 91 b7 1c 	lds	r30, 0x1CB7
    6468:	f0 91 b8 1c 	lds	r31, 0x1CB8
    646c:	80 81       	ld	r24, Z
    646e:	88 23       	and	r24, r24
    6470:	19 f6       	brne	.-122    	; 0x63f8 <xTaskIncrementTick+0xa0>
    6472:	8f ef       	ldi	r24, 0xFF	; 255
    6474:	9f ef       	ldi	r25, 0xFF	; 255
    6476:	90 93 ad 09 	sts	0x09AD, r25
    647a:	80 93 ac 09 	sts	0x09AC, r24
    647e:	13 c0       	rjmp	.+38     	; 0x64a6 <xTaskIncrementTick+0x14e>
    6480:	80 91 7d 1c 	lds	r24, 0x1C7D
    6484:	8f 5f       	subi	r24, 0xFF	; 255
    6486:	80 93 7d 1c 	sts	0x1C7D, r24
    648a:	dd 24       	eor	r13, r13
    648c:	80 91 70 1c 	lds	r24, 0x1C70
    6490:	88 23       	and	r24, r24
    6492:	11 f0       	breq	.+4      	; 0x6498 <xTaskIncrementTick+0x140>
    6494:	dd 24       	eor	r13, r13
    6496:	d3 94       	inc	r13
    6498:	8d 2d       	mov	r24, r13
    649a:	cd b7       	in	r28, 0x3d	; 61
    649c:	de b7       	in	r29, 0x3e	; 62
    649e:	e8 e0       	ldi	r30, 0x08	; 8
    64a0:	0c 94 b2 53 	jmp	0xa764	; 0xa764 <__epilogue_restores__+0x14>
    64a4:	dd 24       	eor	r13, r13
    64a6:	e0 91 6c 1c 	lds	r30, 0x1C6C
    64aa:	f0 91 6d 1c 	lds	r31, 0x1C6D
    64ae:	86 89       	ldd	r24, Z+22	; 0x16
    64b0:	90 e0       	ldi	r25, 0x00	; 0
    64b2:	fc 01       	movw	r30, r24
    64b4:	ee 0f       	add	r30, r30
    64b6:	ff 1f       	adc	r31, r31
    64b8:	ee 0f       	add	r30, r30
    64ba:	ff 1f       	adc	r31, r31
    64bc:	ee 0f       	add	r30, r30
    64be:	ff 1f       	adc	r31, r31
    64c0:	e8 0f       	add	r30, r24
    64c2:	f9 1f       	adc	r31, r25
    64c4:	ef 57       	subi	r30, 0x7F	; 127
    64c6:	f3 4e       	sbci	r31, 0xE3	; 227
    64c8:	80 81       	ld	r24, Z
    64ca:	82 30       	cpi	r24, 0x02	; 2
    64cc:	f8 f2       	brcs	.-66     	; 0x648c <xTaskIncrementTick+0x134>
    64ce:	dd 24       	eor	r13, r13
    64d0:	d3 94       	inc	r13
    64d2:	dc cf       	rjmp	.-72     	; 0x648c <xTaskIncrementTick+0x134>
    64d4:	e0 91 b7 1c 	lds	r30, 0x1CB7
    64d8:	f0 91 b8 1c 	lds	r31, 0x1CB8
    64dc:	05 80       	ldd	r0, Z+5	; 0x05
    64de:	f6 81       	ldd	r31, Z+6	; 0x06
    64e0:	e0 2d       	mov	r30, r0
    64e2:	06 80       	ldd	r0, Z+6	; 0x06
    64e4:	f7 81       	ldd	r31, Z+7	; 0x07
    64e6:	e0 2d       	mov	r30, r0
    64e8:	82 81       	ldd	r24, Z+2	; 0x02
    64ea:	93 81       	ldd	r25, Z+3	; 0x03
    64ec:	90 93 ad 09 	sts	0x09AD, r25
    64f0:	80 93 ac 09 	sts	0x09AC, r24
    64f4:	80 91 ac 09 	lds	r24, 0x09AC
    64f8:	90 91 ad 09 	lds	r25, 0x09AD
    64fc:	e8 16       	cp	r14, r24
    64fe:	f9 06       	cpc	r15, r25
    6500:	88 f2       	brcs	.-94     	; 0x64a4 <xTaskIncrementTick+0x14c>
    6502:	70 cf       	rjmp	.-288    	; 0x63e4 <xTaskIncrementTick+0x8c>
    6504:	90 93 ad 09 	sts	0x09AD, r25
    6508:	80 93 ac 09 	sts	0x09AC, r24
    650c:	cc cf       	rjmp	.-104    	; 0x64a6 <xTaskIncrementTick+0x14e>

0000650e <xTaskResumeFromISR>:
    650e:	df 92       	push	r13
    6510:	ef 92       	push	r14
    6512:	ff 92       	push	r15
    6514:	0f 93       	push	r16
    6516:	1f 93       	push	r17
    6518:	cf 93       	push	r28
    651a:	df 93       	push	r29
    651c:	ec 01       	movw	r28, r24
    651e:	8a 85       	ldd	r24, Y+10	; 0x0a
    6520:	9b 85       	ldd	r25, Y+11	; 0x0b
    6522:	8d 5c       	subi	r24, 0xCD	; 205
    6524:	9c 41       	sbci	r25, 0x1C	; 28
    6526:	41 f0       	breq	.+16     	; 0x6538 <xTaskResumeFromISR+0x2a>
    6528:	10 e0       	ldi	r17, 0x00	; 0
    652a:	81 2f       	mov	r24, r17
    652c:	cd b7       	in	r28, 0x3d	; 61
    652e:	de b7       	in	r29, 0x3e	; 62
    6530:	e7 e0       	ldi	r30, 0x07	; 7
    6532:	0c 94 b3 53 	jmp	0xa766	; 0xa766 <__epilogue_restores__+0x16>
    6536:	42 c0       	rjmp	.+132    	; 0x65bc <vTaskPlaceOnUnorderedEventList>
    6538:	8c 89       	ldd	r24, Y+20	; 0x14
    653a:	9d 89       	ldd	r25, Y+21	; 0x15
    653c:	2c e1       	ldi	r18, 0x1C	; 28
    653e:	8b 3b       	cpi	r24, 0xBB	; 187
    6540:	92 07       	cpc	r25, r18
    6542:	91 f3       	breq	.-28     	; 0x6528 <xTaskResumeFromISR+0x1a>
    6544:	89 2b       	or	r24, r25
    6546:	81 f7       	brne	.-32     	; 0x6528 <xTaskResumeFromISR+0x1a>
    6548:	80 91 74 1c 	lds	r24, 0x1C74
    654c:	88 23       	and	r24, r24
    654e:	49 f5       	brne	.+82     	; 0x65a2 <xTaskResumeFromISR+0x94>
    6550:	de 88       	ldd	r13, Y+22	; 0x16
    6552:	e0 91 6c 1c 	lds	r30, 0x1C6C
    6556:	f0 91 6d 1c 	lds	r31, 0x1C6D
    655a:	06 89       	ldd	r16, Z+22	; 0x16
    655c:	52 e0       	ldi	r21, 0x02	; 2
    655e:	e5 2e       	mov	r14, r21
    6560:	f1 2c       	mov	r15, r1
    6562:	ec 0e       	add	r14, r28
    6564:	fd 1e       	adc	r15, r29
    6566:	c7 01       	movw	r24, r14
    6568:	0e 94 f0 49 	call	0x93e0	; 0x93e0 <uxListRemove>
    656c:	6e 89       	ldd	r22, Y+22	; 0x16
    656e:	80 91 6f 1c 	lds	r24, 0x1C6F
    6572:	86 17       	cp	r24, r22
    6574:	10 f4       	brcc	.+4      	; 0x657a <xTaskResumeFromISR+0x6c>
    6576:	60 93 6f 1c 	sts	0x1C6F, r22
    657a:	10 e0       	ldi	r17, 0x00	; 0
    657c:	d0 16       	cp	r13, r16
    657e:	08 f0       	brcs	.+2      	; 0x6582 <xTaskResumeFromISR+0x74>
    6580:	11 e0       	ldi	r17, 0x01	; 1
    6582:	89 e0       	ldi	r24, 0x09	; 9
    6584:	68 9f       	mul	r22, r24
    6586:	c0 01       	movw	r24, r0
    6588:	11 24       	eor	r1, r1
    658a:	8f 57       	subi	r24, 0x7F	; 127
    658c:	93 4e       	sbci	r25, 0xE3	; 227
    658e:	b7 01       	movw	r22, r14
    6590:	0e 94 9f 49 	call	0x933e	; 0x933e <vListInsertEnd>
    6594:	81 2f       	mov	r24, r17
    6596:	cd b7       	in	r28, 0x3d	; 61
    6598:	de b7       	in	r29, 0x3e	; 62
    659a:	e7 e0       	ldi	r30, 0x07	; 7
    659c:	0c 94 b3 53 	jmp	0xa766	; 0xa766 <__epilogue_restores__+0x16>
    65a0:	0d c0       	rjmp	.+26     	; 0x65bc <vTaskPlaceOnUnorderedEventList>
    65a2:	2c 96       	adiw	r28, 0x0c	; 12
    65a4:	8b eb       	ldi	r24, 0xBB	; 187
    65a6:	9c e1       	ldi	r25, 0x1C	; 28
    65a8:	be 01       	movw	r22, r28
    65aa:	0e 94 9f 49 	call	0x933e	; 0x933e <vListInsertEnd>
    65ae:	10 e0       	ldi	r17, 0x00	; 0
    65b0:	81 2f       	mov	r24, r17
    65b2:	cd b7       	in	r28, 0x3d	; 61
    65b4:	de b7       	in	r29, 0x3e	; 62
    65b6:	e7 e0       	ldi	r30, 0x07	; 7
    65b8:	0c 94 b3 53 	jmp	0xa766	; 0xa766 <__epilogue_restores__+0x16>

000065bc <vTaskPlaceOnUnorderedEventList>:
    65bc:	0f 93       	push	r16
    65be:	1f 93       	push	r17
    65c0:	cf 93       	push	r28
    65c2:	df 93       	push	r29
    65c4:	8a 01       	movw	r16, r20
    65c6:	e0 91 6c 1c 	lds	r30, 0x1C6C
    65ca:	f0 91 6d 1c 	lds	r31, 0x1C6D
    65ce:	70 68       	ori	r23, 0x80	; 128
    65d0:	75 87       	std	Z+13, r23	; 0x0d
    65d2:	64 87       	std	Z+12, r22	; 0x0c
    65d4:	60 91 6c 1c 	lds	r22, 0x1C6C
    65d8:	70 91 6d 1c 	lds	r23, 0x1C6D
    65dc:	64 5f       	subi	r22, 0xF4	; 244
    65de:	7f 4f       	sbci	r23, 0xFF	; 255
    65e0:	0e 94 9f 49 	call	0x933e	; 0x933e <vListInsertEnd>
    65e4:	80 91 6c 1c 	lds	r24, 0x1C6C
    65e8:	90 91 6d 1c 	lds	r25, 0x1C6D
    65ec:	02 96       	adiw	r24, 0x02	; 2
    65ee:	0e 94 f0 49 	call	0x93e0	; 0x93e0 <uxListRemove>
    65f2:	8f ef       	ldi	r24, 0xFF	; 255
    65f4:	0f 3f       	cpi	r16, 0xFF	; 255
    65f6:	18 07       	cpc	r17, r24
    65f8:	09 f4       	brne	.+2      	; 0x65fc <vTaskPlaceOnUnorderedEventList+0x40>
    65fa:	40 c0       	rjmp	.+128    	; 0x667c <vTaskPlaceOnUnorderedEventList+0xc0>
    65fc:	c0 91 71 1c 	lds	r28, 0x1C71
    6600:	d0 91 72 1c 	lds	r29, 0x1C72
    6604:	c0 0f       	add	r28, r16
    6606:	d1 1f       	adc	r29, r17
    6608:	e0 91 6c 1c 	lds	r30, 0x1C6C
    660c:	f0 91 6d 1c 	lds	r31, 0x1C6D
    6610:	d3 83       	std	Z+3, r29	; 0x03
    6612:	c2 83       	std	Z+2, r28	; 0x02
    6614:	80 91 71 1c 	lds	r24, 0x1C71
    6618:	90 91 72 1c 	lds	r25, 0x1C72
    661c:	c8 17       	cp	r28, r24
    661e:	d9 07       	cpc	r29, r25
    6620:	e0 f0       	brcs	.+56     	; 0x665a <vTaskPlaceOnUnorderedEventList+0x9e>
    6622:	80 91 b7 1c 	lds	r24, 0x1CB7
    6626:	90 91 b8 1c 	lds	r25, 0x1CB8
    662a:	60 91 6c 1c 	lds	r22, 0x1C6C
    662e:	70 91 6d 1c 	lds	r23, 0x1C6D
    6632:	6e 5f       	subi	r22, 0xFE	; 254
    6634:	7f 4f       	sbci	r23, 0xFF	; 255
    6636:	0e 94 be 49 	call	0x937c	; 0x937c <vListInsert>
    663a:	80 91 ac 09 	lds	r24, 0x09AC
    663e:	90 91 ad 09 	lds	r25, 0x09AD
    6642:	c8 17       	cp	r28, r24
    6644:	d9 07       	cpc	r29, r25
    6646:	20 f4       	brcc	.+8      	; 0x6650 <vTaskPlaceOnUnorderedEventList+0x94>
    6648:	d0 93 ad 09 	sts	0x09AD, r29
    664c:	c0 93 ac 09 	sts	0x09AC, r28
    6650:	df 91       	pop	r29
    6652:	cf 91       	pop	r28
    6654:	1f 91       	pop	r17
    6656:	0f 91       	pop	r16
    6658:	08 95       	ret
    665a:	80 91 b9 1c 	lds	r24, 0x1CB9
    665e:	90 91 ba 1c 	lds	r25, 0x1CBA
    6662:	60 91 6c 1c 	lds	r22, 0x1C6C
    6666:	70 91 6d 1c 	lds	r23, 0x1C6D
    666a:	6e 5f       	subi	r22, 0xFE	; 254
    666c:	7f 4f       	sbci	r23, 0xFF	; 255
    666e:	0e 94 be 49 	call	0x937c	; 0x937c <vListInsert>
    6672:	df 91       	pop	r29
    6674:	cf 91       	pop	r28
    6676:	1f 91       	pop	r17
    6678:	0f 91       	pop	r16
    667a:	08 95       	ret
    667c:	60 91 6c 1c 	lds	r22, 0x1C6C
    6680:	70 91 6d 1c 	lds	r23, 0x1C6D
    6684:	6e 5f       	subi	r22, 0xFE	; 254
    6686:	7f 4f       	sbci	r23, 0xFF	; 255
    6688:	8d ec       	ldi	r24, 0xCD	; 205
    668a:	9c e1       	ldi	r25, 0x1C	; 28
    668c:	0e 94 9f 49 	call	0x933e	; 0x933e <vListInsertEnd>
    6690:	df 91       	pop	r29
    6692:	cf 91       	pop	r28
    6694:	1f 91       	pop	r17
    6696:	0f 91       	pop	r16
    6698:	08 95       	ret

0000669a <vTaskPlaceOnEventList>:
    669a:	0f 93       	push	r16
    669c:	1f 93       	push	r17
    669e:	cf 93       	push	r28
    66a0:	df 93       	push	r29
    66a2:	8b 01       	movw	r16, r22
    66a4:	60 91 6c 1c 	lds	r22, 0x1C6C
    66a8:	70 91 6d 1c 	lds	r23, 0x1C6D
    66ac:	64 5f       	subi	r22, 0xF4	; 244
    66ae:	7f 4f       	sbci	r23, 0xFF	; 255
    66b0:	0e 94 be 49 	call	0x937c	; 0x937c <vListInsert>
    66b4:	80 91 6c 1c 	lds	r24, 0x1C6C
    66b8:	90 91 6d 1c 	lds	r25, 0x1C6D
    66bc:	02 96       	adiw	r24, 0x02	; 2
    66be:	0e 94 f0 49 	call	0x93e0	; 0x93e0 <uxListRemove>
    66c2:	8f ef       	ldi	r24, 0xFF	; 255
    66c4:	0f 3f       	cpi	r16, 0xFF	; 255
    66c6:	18 07       	cpc	r17, r24
    66c8:	09 f4       	brne	.+2      	; 0x66cc <vTaskPlaceOnEventList+0x32>
    66ca:	40 c0       	rjmp	.+128    	; 0x674c <vTaskPlaceOnEventList+0xb2>
    66cc:	c0 91 71 1c 	lds	r28, 0x1C71
    66d0:	d0 91 72 1c 	lds	r29, 0x1C72
    66d4:	c0 0f       	add	r28, r16
    66d6:	d1 1f       	adc	r29, r17
    66d8:	e0 91 6c 1c 	lds	r30, 0x1C6C
    66dc:	f0 91 6d 1c 	lds	r31, 0x1C6D
    66e0:	d3 83       	std	Z+3, r29	; 0x03
    66e2:	c2 83       	std	Z+2, r28	; 0x02
    66e4:	80 91 71 1c 	lds	r24, 0x1C71
    66e8:	90 91 72 1c 	lds	r25, 0x1C72
    66ec:	c8 17       	cp	r28, r24
    66ee:	d9 07       	cpc	r29, r25
    66f0:	e0 f0       	brcs	.+56     	; 0x672a <vTaskPlaceOnEventList+0x90>
    66f2:	80 91 b7 1c 	lds	r24, 0x1CB7
    66f6:	90 91 b8 1c 	lds	r25, 0x1CB8
    66fa:	60 91 6c 1c 	lds	r22, 0x1C6C
    66fe:	70 91 6d 1c 	lds	r23, 0x1C6D
    6702:	6e 5f       	subi	r22, 0xFE	; 254
    6704:	7f 4f       	sbci	r23, 0xFF	; 255
    6706:	0e 94 be 49 	call	0x937c	; 0x937c <vListInsert>
    670a:	80 91 ac 09 	lds	r24, 0x09AC
    670e:	90 91 ad 09 	lds	r25, 0x09AD
    6712:	c8 17       	cp	r28, r24
    6714:	d9 07       	cpc	r29, r25
    6716:	20 f4       	brcc	.+8      	; 0x6720 <vTaskPlaceOnEventList+0x86>
    6718:	d0 93 ad 09 	sts	0x09AD, r29
    671c:	c0 93 ac 09 	sts	0x09AC, r28
    6720:	df 91       	pop	r29
    6722:	cf 91       	pop	r28
    6724:	1f 91       	pop	r17
    6726:	0f 91       	pop	r16
    6728:	08 95       	ret
    672a:	80 91 b9 1c 	lds	r24, 0x1CB9
    672e:	90 91 ba 1c 	lds	r25, 0x1CBA
    6732:	60 91 6c 1c 	lds	r22, 0x1C6C
    6736:	70 91 6d 1c 	lds	r23, 0x1C6D
    673a:	6e 5f       	subi	r22, 0xFE	; 254
    673c:	7f 4f       	sbci	r23, 0xFF	; 255
    673e:	0e 94 be 49 	call	0x937c	; 0x937c <vListInsert>
    6742:	df 91       	pop	r29
    6744:	cf 91       	pop	r28
    6746:	1f 91       	pop	r17
    6748:	0f 91       	pop	r16
    674a:	08 95       	ret
    674c:	60 91 6c 1c 	lds	r22, 0x1C6C
    6750:	70 91 6d 1c 	lds	r23, 0x1C6D
    6754:	6e 5f       	subi	r22, 0xFE	; 254
    6756:	7f 4f       	sbci	r23, 0xFF	; 255
    6758:	8d ec       	ldi	r24, 0xCD	; 205
    675a:	9c e1       	ldi	r25, 0x1C	; 28
    675c:	0e 94 9f 49 	call	0x933e	; 0x933e <vListInsertEnd>
    6760:	df 91       	pop	r29
    6762:	cf 91       	pop	r28
    6764:	1f 91       	pop	r17
    6766:	0f 91       	pop	r16
    6768:	08 95       	ret

0000676a <vTaskSwitchContext>:
    676a:	ef 92       	push	r14
    676c:	ff 92       	push	r15
    676e:	0f 93       	push	r16
    6770:	1f 93       	push	r17
    6772:	80 91 74 1c 	lds	r24, 0x1C74
    6776:	88 23       	and	r24, r24
    6778:	09 f0       	breq	.+2      	; 0x677c <vTaskSwitchContext+0x12>
    677a:	93 c0       	rjmp	.+294    	; 0x68a2 <vTaskSwitchContext+0x138>
    677c:	10 92 70 1c 	sts	0x1C70, r1
    6780:	80 91 84 00 	lds	r24, 0x0084
    6784:	90 91 85 00 	lds	r25, 0x0085
    6788:	7c 01       	movw	r14, r24
    678a:	00 e0       	ldi	r16, 0x00	; 0
    678c:	10 e0       	ldi	r17, 0x00	; 0
    678e:	e0 92 75 1c 	sts	0x1C75, r14
    6792:	f0 92 76 1c 	sts	0x1C76, r15
    6796:	00 93 77 1c 	sts	0x1C77, r16
    679a:	10 93 78 1c 	sts	0x1C78, r17
    679e:	80 91 79 1c 	lds	r24, 0x1C79
    67a2:	90 91 7a 1c 	lds	r25, 0x1C7A
    67a6:	a0 91 7b 1c 	lds	r26, 0x1C7B
    67aa:	b0 91 7c 1c 	lds	r27, 0x1C7C
    67ae:	8e 15       	cp	r24, r14
    67b0:	9f 05       	cpc	r25, r15
    67b2:	a0 07       	cpc	r26, r16
    67b4:	b1 07       	cpc	r27, r17
    67b6:	b0 f4       	brcc	.+44     	; 0x67e4 <vTaskSwitchContext+0x7a>
    67b8:	e0 91 6c 1c 	lds	r30, 0x1C6C
    67bc:	f0 91 6d 1c 	lds	r31, 0x1C6D
    67c0:	a8 01       	movw	r20, r16
    67c2:	97 01       	movw	r18, r14
    67c4:	28 1b       	sub	r18, r24
    67c6:	39 0b       	sbc	r19, r25
    67c8:	4a 0b       	sbc	r20, r26
    67ca:	5b 0b       	sbc	r21, r27
    67cc:	84 a1       	ldd	r24, Z+36	; 0x24
    67ce:	95 a1       	ldd	r25, Z+37	; 0x25
    67d0:	a6 a1       	ldd	r26, Z+38	; 0x26
    67d2:	b7 a1       	ldd	r27, Z+39	; 0x27
    67d4:	82 0f       	add	r24, r18
    67d6:	93 1f       	adc	r25, r19
    67d8:	a4 1f       	adc	r26, r20
    67da:	b5 1f       	adc	r27, r21
    67dc:	84 a3       	std	Z+36, r24	; 0x24
    67de:	95 a3       	std	Z+37, r25	; 0x25
    67e0:	a6 a3       	std	Z+38, r26	; 0x26
    67e2:	b7 a3       	std	Z+39, r27	; 0x27
    67e4:	e0 92 79 1c 	sts	0x1C79, r14
    67e8:	f0 92 7a 1c 	sts	0x1C7A, r15
    67ec:	00 93 7b 1c 	sts	0x1C7B, r16
    67f0:	10 93 7c 1c 	sts	0x1C7C, r17
    67f4:	e0 91 6c 1c 	lds	r30, 0x1C6C
    67f8:	f0 91 6d 1c 	lds	r31, 0x1C6D
    67fc:	a0 91 6c 1c 	lds	r26, 0x1C6C
    6800:	b0 91 6d 1c 	lds	r27, 0x1C6D
    6804:	20 81       	ld	r18, Z
    6806:	31 81       	ldd	r19, Z+1	; 0x01
    6808:	57 96       	adiw	r26, 0x17	; 23
    680a:	8d 91       	ld	r24, X+
    680c:	9c 91       	ld	r25, X
    680e:	58 97       	sbiw	r26, 0x18	; 24
    6810:	82 17       	cp	r24, r18
    6812:	93 07       	cpc	r25, r19
    6814:	90 f0       	brcs	.+36     	; 0x683a <vTaskSwitchContext+0xd0>
    6816:	80 91 6c 1c 	lds	r24, 0x1C6C
    681a:	90 91 6d 1c 	lds	r25, 0x1C6D
    681e:	60 91 6c 1c 	lds	r22, 0x1C6C
    6822:	70 91 6d 1c 	lds	r23, 0x1C6D
    6826:	67 5e       	subi	r22, 0xE7	; 231
    6828:	7f 4f       	sbci	r23, 0xFF	; 255
    682a:	0e 94 2b 0c 	call	0x1856	; 0x1856 <vApplicationStackOverflowHook>
    682e:	05 c0       	rjmp	.+10     	; 0x683a <vTaskSwitchContext+0xd0>
    6830:	80 91 6f 1c 	lds	r24, 0x1C6F
    6834:	81 50       	subi	r24, 0x01	; 1
    6836:	80 93 6f 1c 	sts	0x1C6F, r24
    683a:	80 91 6f 1c 	lds	r24, 0x1C6F
    683e:	90 e0       	ldi	r25, 0x00	; 0
    6840:	fc 01       	movw	r30, r24
    6842:	ee 0f       	add	r30, r30
    6844:	ff 1f       	adc	r31, r31
    6846:	ee 0f       	add	r30, r30
    6848:	ff 1f       	adc	r31, r31
    684a:	ee 0f       	add	r30, r30
    684c:	ff 1f       	adc	r31, r31
    684e:	e8 0f       	add	r30, r24
    6850:	f9 1f       	adc	r31, r25
    6852:	ef 57       	subi	r30, 0x7F	; 127
    6854:	f3 4e       	sbci	r31, 0xE3	; 227
    6856:	80 81       	ld	r24, Z
    6858:	88 23       	and	r24, r24
    685a:	51 f3       	breq	.-44     	; 0x6830 <vTaskSwitchContext+0xc6>
    685c:	90 91 6f 1c 	lds	r25, 0x1C6F
    6860:	89 e0       	ldi	r24, 0x09	; 9
    6862:	98 9f       	mul	r25, r24
    6864:	d0 01       	movw	r26, r0
    6866:	11 24       	eor	r1, r1
    6868:	af 57       	subi	r26, 0x7F	; 127
    686a:	b3 4e       	sbci	r27, 0xE3	; 227
    686c:	11 96       	adiw	r26, 0x01	; 1
    686e:	ed 91       	ld	r30, X+
    6870:	fc 91       	ld	r31, X
    6872:	12 97       	sbiw	r26, 0x02	; 2
    6874:	02 80       	ldd	r0, Z+2	; 0x02
    6876:	f3 81       	ldd	r31, Z+3	; 0x03
    6878:	e0 2d       	mov	r30, r0
    687a:	12 96       	adiw	r26, 0x02	; 2
    687c:	fc 93       	st	X, r31
    687e:	ee 93       	st	-X, r30
    6880:	11 97       	sbiw	r26, 0x01	; 1
    6882:	cd 01       	movw	r24, r26
    6884:	03 96       	adiw	r24, 0x03	; 3
    6886:	e8 17       	cp	r30, r24
    6888:	f9 07       	cpc	r31, r25
    688a:	99 f0       	breq	.+38     	; 0x68b2 <vTaskSwitchContext+0x148>
    688c:	86 81       	ldd	r24, Z+6	; 0x06
    688e:	97 81       	ldd	r25, Z+7	; 0x07
    6890:	90 93 6d 1c 	sts	0x1C6D, r25
    6894:	80 93 6c 1c 	sts	0x1C6C, r24
    6898:	1f 91       	pop	r17
    689a:	0f 91       	pop	r16
    689c:	ff 90       	pop	r15
    689e:	ef 90       	pop	r14
    68a0:	08 95       	ret
    68a2:	81 e0       	ldi	r24, 0x01	; 1
    68a4:	80 93 70 1c 	sts	0x1C70, r24
    68a8:	1f 91       	pop	r17
    68aa:	0f 91       	pop	r16
    68ac:	ff 90       	pop	r15
    68ae:	ef 90       	pop	r14
    68b0:	08 95       	ret
    68b2:	82 81       	ldd	r24, Z+2	; 0x02
    68b4:	93 81       	ldd	r25, Z+3	; 0x03
    68b6:	11 96       	adiw	r26, 0x01	; 1
    68b8:	8c 93       	st	X, r24
    68ba:	11 97       	sbiw	r26, 0x01	; 1
    68bc:	12 96       	adiw	r26, 0x02	; 2
    68be:	9c 93       	st	X, r25
    68c0:	9c 01       	movw	r18, r24
    68c2:	f9 01       	movw	r30, r18
    68c4:	e3 cf       	rjmp	.-58     	; 0x688c <vTaskSwitchContext+0x122>

000068c6 <xTaskResumeAll>:
    68c6:	a0 e0       	ldi	r26, 0x00	; 0
    68c8:	b0 e0       	ldi	r27, 0x00	; 0
    68ca:	e9 e6       	ldi	r30, 0x69	; 105
    68cc:	f4 e3       	ldi	r31, 0x34	; 52
    68ce:	0c 94 93 53 	jmp	0xa726	; 0xa726 <__prologue_saves__+0xe>
    68d2:	0f b6       	in	r0, 0x3f	; 63
    68d4:	f8 94       	cli
    68d6:	0f 92       	push	r0
    68d8:	80 91 74 1c 	lds	r24, 0x1C74
    68dc:	81 50       	subi	r24, 0x01	; 1
    68de:	80 93 74 1c 	sts	0x1C74, r24
    68e2:	80 91 74 1c 	lds	r24, 0x1C74
    68e6:	88 23       	and	r24, r24
    68e8:	09 f0       	breq	.+2      	; 0x68ec <xTaskResumeAll+0x26>
    68ea:	ed c0       	rjmp	.+474    	; 0x6ac6 <xTaskResumeAll+0x200>
    68ec:	80 91 6e 1c 	lds	r24, 0x1C6E
    68f0:	88 23       	and	r24, r24
    68f2:	09 f4       	brne	.+2      	; 0x68f6 <xTaskResumeAll+0x30>
    68f4:	e8 c0       	rjmp	.+464    	; 0x6ac6 <xTaskResumeAll+0x200>
    68f6:	f9 e0       	ldi	r31, 0x09	; 9
    68f8:	ff 2e       	mov	r15, r31
    68fa:	ee 24       	eor	r14, r14
    68fc:	e3 94       	inc	r14
    68fe:	80 91 bb 1c 	lds	r24, 0x1CBB
    6902:	88 23       	and	r24, r24
    6904:	69 f1       	breq	.+90     	; 0x6960 <xTaskResumeAll+0x9a>
    6906:	e0 91 c0 1c 	lds	r30, 0x1CC0
    690a:	f0 91 c1 1c 	lds	r31, 0x1CC1
    690e:	c6 81       	ldd	r28, Z+6	; 0x06
    6910:	d7 81       	ldd	r29, Z+7	; 0x07
    6912:	ce 01       	movw	r24, r28
    6914:	0c 96       	adiw	r24, 0x0c	; 12
    6916:	0e 94 f0 49 	call	0x93e0	; 0x93e0 <uxListRemove>
    691a:	8e 01       	movw	r16, r28
    691c:	0e 5f       	subi	r16, 0xFE	; 254
    691e:	1f 4f       	sbci	r17, 0xFF	; 255
    6920:	c8 01       	movw	r24, r16
    6922:	0e 94 f0 49 	call	0x93e0	; 0x93e0 <uxListRemove>
    6926:	9e 89       	ldd	r25, Y+22	; 0x16
    6928:	80 91 6f 1c 	lds	r24, 0x1C6F
    692c:	89 17       	cp	r24, r25
    692e:	10 f4       	brcc	.+4      	; 0x6934 <xTaskResumeAll+0x6e>
    6930:	90 93 6f 1c 	sts	0x1C6F, r25
    6934:	9f 9d       	mul	r25, r15
    6936:	c0 01       	movw	r24, r0
    6938:	11 24       	eor	r1, r1
    693a:	8f 57       	subi	r24, 0x7F	; 127
    693c:	93 4e       	sbci	r25, 0xE3	; 227
    693e:	b8 01       	movw	r22, r16
    6940:	0e 94 9f 49 	call	0x933e	; 0x933e <vListInsertEnd>
    6944:	e0 91 6c 1c 	lds	r30, 0x1C6C
    6948:	f0 91 6d 1c 	lds	r31, 0x1C6D
    694c:	9e 89       	ldd	r25, Y+22	; 0x16
    694e:	86 89       	ldd	r24, Z+22	; 0x16
    6950:	98 17       	cp	r25, r24
    6952:	a8 f2       	brcs	.-86     	; 0x68fe <xTaskResumeAll+0x38>
    6954:	e0 92 70 1c 	sts	0x1C70, r14
    6958:	80 91 bb 1c 	lds	r24, 0x1CBB
    695c:	88 23       	and	r24, r24
    695e:	99 f6       	brne	.-90     	; 0x6906 <xTaskResumeAll+0x40>
    6960:	80 91 7d 1c 	lds	r24, 0x1C7D
    6964:	88 23       	and	r24, r24
    6966:	09 f4       	brne	.+2      	; 0x696a <xTaskResumeAll+0xa4>
    6968:	aa c0       	rjmp	.+340    	; 0x6abe <xTaskResumeAll+0x1f8>
    696a:	80 91 7d 1c 	lds	r24, 0x1C7D
    696e:	88 23       	and	r24, r24
    6970:	09 f4       	brne	.+2      	; 0x6974 <xTaskResumeAll+0xae>
    6972:	a5 c0       	rjmp	.+330    	; 0x6abe <xTaskResumeAll+0x1f8>
    6974:	e9 e0       	ldi	r30, 0x09	; 9
    6976:	ce 2e       	mov	r12, r30
    6978:	aa 24       	eor	r10, r10
    697a:	aa 94       	dec	r10
    697c:	ba 2c       	mov	r11, r10
    697e:	99 24       	eor	r9, r9
    6980:	93 94       	inc	r9
    6982:	80 91 74 1c 	lds	r24, 0x1C74
    6986:	88 23       	and	r24, r24
    6988:	09 f0       	breq	.+2      	; 0x698c <xTaskResumeAll+0xc6>
    698a:	83 c0       	rjmp	.+262    	; 0x6a92 <xTaskResumeAll+0x1cc>
    698c:	80 91 71 1c 	lds	r24, 0x1C71
    6990:	90 91 72 1c 	lds	r25, 0x1C72
    6994:	01 96       	adiw	r24, 0x01	; 1
    6996:	90 93 72 1c 	sts	0x1C72, r25
    699a:	80 93 71 1c 	sts	0x1C71, r24
    699e:	e0 90 71 1c 	lds	r14, 0x1C71
    69a2:	f0 90 72 1c 	lds	r15, 0x1C72
    69a6:	e1 14       	cp	r14, r1
    69a8:	f1 04       	cpc	r15, r1
    69aa:	09 f5       	brne	.+66     	; 0x69ee <xTaskResumeAll+0x128>
    69ac:	20 91 b7 1c 	lds	r18, 0x1CB7
    69b0:	30 91 b8 1c 	lds	r19, 0x1CB8
    69b4:	80 91 b9 1c 	lds	r24, 0x1CB9
    69b8:	90 91 ba 1c 	lds	r25, 0x1CBA
    69bc:	90 93 b8 1c 	sts	0x1CB8, r25
    69c0:	80 93 b7 1c 	sts	0x1CB7, r24
    69c4:	30 93 ba 1c 	sts	0x1CBA, r19
    69c8:	20 93 b9 1c 	sts	0x1CB9, r18
    69cc:	80 91 73 1c 	lds	r24, 0x1C73
    69d0:	8f 5f       	subi	r24, 0xFF	; 255
    69d2:	80 93 73 1c 	sts	0x1C73, r24
    69d6:	e0 91 b7 1c 	lds	r30, 0x1CB7
    69da:	f0 91 b8 1c 	lds	r31, 0x1CB8
    69de:	80 81       	ld	r24, Z
    69e0:	88 23       	and	r24, r24
    69e2:	09 f0       	breq	.+2      	; 0x69e6 <xTaskResumeAll+0x120>
    69e4:	97 c0       	rjmp	.+302    	; 0x6b14 <xTaskResumeAll+0x24e>
    69e6:	b0 92 ad 09 	sts	0x09AD, r11
    69ea:	a0 92 ac 09 	sts	0x09AC, r10
    69ee:	80 91 ac 09 	lds	r24, 0x09AC
    69f2:	90 91 ad 09 	lds	r25, 0x09AD
    69f6:	e8 16       	cp	r14, r24
    69f8:	f9 06       	cpc	r15, r25
    69fa:	08 f4       	brcc	.+2      	; 0x69fe <xTaskResumeAll+0x138>
    69fc:	73 c0       	rjmp	.+230    	; 0x6ae4 <xTaskResumeAll+0x21e>
    69fe:	dd 24       	eor	r13, r13
    6a00:	e0 91 b7 1c 	lds	r30, 0x1CB7
    6a04:	f0 91 b8 1c 	lds	r31, 0x1CB8
    6a08:	80 81       	ld	r24, Z
    6a0a:	88 23       	and	r24, r24
    6a0c:	e9 f1       	breq	.+122    	; 0x6a88 <xTaskResumeAll+0x1c2>
    6a0e:	e0 91 b7 1c 	lds	r30, 0x1CB7
    6a12:	f0 91 b8 1c 	lds	r31, 0x1CB8
    6a16:	05 80       	ldd	r0, Z+5	; 0x05
    6a18:	f6 81       	ldd	r31, Z+6	; 0x06
    6a1a:	e0 2d       	mov	r30, r0
    6a1c:	c6 81       	ldd	r28, Z+6	; 0x06
    6a1e:	d7 81       	ldd	r29, Z+7	; 0x07
    6a20:	8a 81       	ldd	r24, Y+2	; 0x02
    6a22:	9b 81       	ldd	r25, Y+3	; 0x03
    6a24:	e8 16       	cp	r14, r24
    6a26:	f9 06       	cpc	r15, r25
    6a28:	08 f4       	brcc	.+2      	; 0x6a2c <xTaskResumeAll+0x166>
    6a2a:	85 c0       	rjmp	.+266    	; 0x6b36 <xTaskResumeAll+0x270>
    6a2c:	8e 01       	movw	r16, r28
    6a2e:	0e 5f       	subi	r16, 0xFE	; 254
    6a30:	1f 4f       	sbci	r17, 0xFF	; 255
    6a32:	c8 01       	movw	r24, r16
    6a34:	0e 94 f0 49 	call	0x93e0	; 0x93e0 <uxListRemove>
    6a38:	8c 89       	ldd	r24, Y+20	; 0x14
    6a3a:	9d 89       	ldd	r25, Y+21	; 0x15
    6a3c:	89 2b       	or	r24, r25
    6a3e:	21 f0       	breq	.+8      	; 0x6a48 <xTaskResumeAll+0x182>
    6a40:	ce 01       	movw	r24, r28
    6a42:	0c 96       	adiw	r24, 0x0c	; 12
    6a44:	0e 94 f0 49 	call	0x93e0	; 0x93e0 <uxListRemove>
    6a48:	9e 89       	ldd	r25, Y+22	; 0x16
    6a4a:	80 91 6f 1c 	lds	r24, 0x1C6F
    6a4e:	89 17       	cp	r24, r25
    6a50:	10 f4       	brcc	.+4      	; 0x6a56 <xTaskResumeAll+0x190>
    6a52:	90 93 6f 1c 	sts	0x1C6F, r25
    6a56:	9c 9d       	mul	r25, r12
    6a58:	c0 01       	movw	r24, r0
    6a5a:	11 24       	eor	r1, r1
    6a5c:	8f 57       	subi	r24, 0x7F	; 127
    6a5e:	93 4e       	sbci	r25, 0xE3	; 227
    6a60:	b8 01       	movw	r22, r16
    6a62:	0e 94 9f 49 	call	0x933e	; 0x933e <vListInsertEnd>
    6a66:	e0 91 6c 1c 	lds	r30, 0x1C6C
    6a6a:	f0 91 6d 1c 	lds	r31, 0x1C6D
    6a6e:	9e 89       	ldd	r25, Y+22	; 0x16
    6a70:	86 89       	ldd	r24, Z+22	; 0x16
    6a72:	98 17       	cp	r25, r24
    6a74:	28 f2       	brcs	.-118    	; 0x6a00 <xTaskResumeAll+0x13a>
    6a76:	dd 24       	eor	r13, r13
    6a78:	d3 94       	inc	r13
    6a7a:	e0 91 b7 1c 	lds	r30, 0x1CB7
    6a7e:	f0 91 b8 1c 	lds	r31, 0x1CB8
    6a82:	80 81       	ld	r24, Z
    6a84:	88 23       	and	r24, r24
    6a86:	19 f6       	brne	.-122    	; 0x6a0e <xTaskResumeAll+0x148>
    6a88:	b0 92 ad 09 	sts	0x09AD, r11
    6a8c:	a0 92 ac 09 	sts	0x09AC, r10
    6a90:	2a c0       	rjmp	.+84     	; 0x6ae6 <xTaskResumeAll+0x220>
    6a92:	80 91 7d 1c 	lds	r24, 0x1C7D
    6a96:	8f 5f       	subi	r24, 0xFF	; 255
    6a98:	80 93 7d 1c 	sts	0x1C7D, r24
    6a9c:	dd 24       	eor	r13, r13
    6a9e:	80 91 70 1c 	lds	r24, 0x1C70
    6aa2:	88 23       	and	r24, r24
    6aa4:	e1 f4       	brne	.+56     	; 0x6ade <xTaskResumeAll+0x218>
    6aa6:	dd 20       	and	r13, r13
    6aa8:	d1 f4       	brne	.+52     	; 0x6ade <xTaskResumeAll+0x218>
    6aaa:	80 91 7d 1c 	lds	r24, 0x1C7D
    6aae:	81 50       	subi	r24, 0x01	; 1
    6ab0:	80 93 7d 1c 	sts	0x1C7D, r24
    6ab4:	80 91 7d 1c 	lds	r24, 0x1C7D
    6ab8:	88 23       	and	r24, r24
    6aba:	09 f0       	breq	.+2      	; 0x6abe <xTaskResumeAll+0x1f8>
    6abc:	62 cf       	rjmp	.-316    	; 0x6982 <xTaskResumeAll+0xbc>
    6abe:	80 91 70 1c 	lds	r24, 0x1C70
    6ac2:	81 30       	cpi	r24, 0x01	; 1
    6ac4:	41 f0       	breq	.+16     	; 0x6ad6 <xTaskResumeAll+0x210>
    6ac6:	80 e0       	ldi	r24, 0x00	; 0
    6ac8:	0f 90       	pop	r0
    6aca:	0f be       	out	0x3f, r0	; 63
    6acc:	cd b7       	in	r28, 0x3d	; 61
    6ace:	de b7       	in	r29, 0x3e	; 62
    6ad0:	eb e0       	ldi	r30, 0x0B	; 11
    6ad2:	0c 94 af 53 	jmp	0xa75e	; 0xa75e <__epilogue_restores__+0xe>
    6ad6:	0e 94 2a 49 	call	0x9254	; 0x9254 <vPortYield>
    6ada:	81 e0       	ldi	r24, 0x01	; 1
    6adc:	f5 cf       	rjmp	.-22     	; 0x6ac8 <xTaskResumeAll+0x202>
    6ade:	90 92 70 1c 	sts	0x1C70, r9
    6ae2:	e3 cf       	rjmp	.-58     	; 0x6aaa <xTaskResumeAll+0x1e4>
    6ae4:	dd 24       	eor	r13, r13
    6ae6:	e0 91 6c 1c 	lds	r30, 0x1C6C
    6aea:	f0 91 6d 1c 	lds	r31, 0x1C6D
    6aee:	86 89       	ldd	r24, Z+22	; 0x16
    6af0:	90 e0       	ldi	r25, 0x00	; 0
    6af2:	fc 01       	movw	r30, r24
    6af4:	ee 0f       	add	r30, r30
    6af6:	ff 1f       	adc	r31, r31
    6af8:	ee 0f       	add	r30, r30
    6afa:	ff 1f       	adc	r31, r31
    6afc:	ee 0f       	add	r30, r30
    6afe:	ff 1f       	adc	r31, r31
    6b00:	e8 0f       	add	r30, r24
    6b02:	f9 1f       	adc	r31, r25
    6b04:	ef 57       	subi	r30, 0x7F	; 127
    6b06:	f3 4e       	sbci	r31, 0xE3	; 227
    6b08:	80 81       	ld	r24, Z
    6b0a:	82 30       	cpi	r24, 0x02	; 2
    6b0c:	40 f2       	brcs	.-112    	; 0x6a9e <xTaskResumeAll+0x1d8>
    6b0e:	dd 24       	eor	r13, r13
    6b10:	d3 94       	inc	r13
    6b12:	c5 cf       	rjmp	.-118    	; 0x6a9e <xTaskResumeAll+0x1d8>
    6b14:	e0 91 b7 1c 	lds	r30, 0x1CB7
    6b18:	f0 91 b8 1c 	lds	r31, 0x1CB8
    6b1c:	05 80       	ldd	r0, Z+5	; 0x05
    6b1e:	f6 81       	ldd	r31, Z+6	; 0x06
    6b20:	e0 2d       	mov	r30, r0
    6b22:	06 80       	ldd	r0, Z+6	; 0x06
    6b24:	f7 81       	ldd	r31, Z+7	; 0x07
    6b26:	e0 2d       	mov	r30, r0
    6b28:	82 81       	ldd	r24, Z+2	; 0x02
    6b2a:	93 81       	ldd	r25, Z+3	; 0x03
    6b2c:	90 93 ad 09 	sts	0x09AD, r25
    6b30:	80 93 ac 09 	sts	0x09AC, r24
    6b34:	5c cf       	rjmp	.-328    	; 0x69ee <xTaskResumeAll+0x128>
    6b36:	90 93 ad 09 	sts	0x09AD, r25
    6b3a:	80 93 ac 09 	sts	0x09AC, r24
    6b3e:	d3 cf       	rjmp	.-90     	; 0x6ae6 <xTaskResumeAll+0x220>

00006b40 <vTaskGetRunTimeStats>:
    6b40:	a4 e0       	ldi	r26, 0x04	; 4
    6b42:	b0 e0       	ldi	r27, 0x00	; 0
    6b44:	e6 ea       	ldi	r30, 0xA6	; 166
    6b46:	f5 e3       	ldi	r31, 0x35	; 53
    6b48:	0c 94 8c 53 	jmp	0xa718	; 0xa718 <__prologue_saves__>
    6b4c:	1c 01       	movw	r2, r24
    6b4e:	dc 01       	movw	r26, r24
    6b50:	1c 92       	st	X, r1
    6b52:	80 91 6e 1c 	lds	r24, 0x1C6E
    6b56:	89 83       	std	Y+1, r24	; 0x01
    6b58:	90 91 6e 1c 	lds	r25, 0x1C6E
    6b5c:	8f e0       	ldi	r24, 0x0F	; 15
    6b5e:	98 9f       	mul	r25, r24
    6b60:	c0 01       	movw	r24, r0
    6b62:	11 24       	eor	r1, r1
    6b64:	0e 94 48 28 	call	0x5090	; 0x5090 <pvPortMalloc>
    6b68:	2c 01       	movw	r4, r24
    6b6a:	00 97       	sbiw	r24, 0x00	; 0
    6b6c:	09 f4       	brne	.+2      	; 0x6b70 <vTaskGetRunTimeStats+0x30>
    6b6e:	ad c0       	rjmp	.+346    	; 0x6cca <vTaskGetRunTimeStats+0x18a>
    6b70:	89 81       	ldd	r24, Y+1	; 0x01
    6b72:	90 91 74 1c 	lds	r25, 0x1C74
    6b76:	9f 5f       	subi	r25, 0xFF	; 255
    6b78:	90 93 74 1c 	sts	0x1C74, r25
    6b7c:	90 91 6e 1c 	lds	r25, 0x1C6E
    6b80:	89 17       	cp	r24, r25
    6b82:	08 f4       	brcc	.+2      	; 0x6b86 <vTaskGetRunTimeStats+0x46>
    6b84:	a6 c0       	rjmp	.+332    	; 0x6cd2 <vTaskGetRunTimeStats+0x192>
    6b86:	84 e0       	ldi	r24, 0x04	; 4
    6b88:	c8 2e       	mov	r12, r24
    6b8a:	1c 82       	std	Y+4, r1	; 0x04
    6b8c:	ca 94       	dec	r12
    6b8e:	bc 81       	ldd	r27, Y+4	; 0x04
    6b90:	ef e0       	ldi	r30, 0x0F	; 15
    6b92:	be 9f       	mul	r27, r30
    6b94:	50 01       	movw	r10, r0
    6b96:	11 24       	eor	r1, r1
    6b98:	a4 0c       	add	r10, r4
    6b9a:	b5 1c       	adc	r11, r5
    6b9c:	f9 e0       	ldi	r31, 0x09	; 9
    6b9e:	cf 9e       	mul	r12, r31
    6ba0:	70 01       	movw	r14, r0
    6ba2:	11 24       	eor	r1, r1
    6ba4:	41 e8       	ldi	r20, 0x81	; 129
    6ba6:	5c e1       	ldi	r21, 0x1C	; 28
    6ba8:	e4 0e       	add	r14, r20
    6baa:	f5 1e       	adc	r15, r21
    6bac:	d7 01       	movw	r26, r14
    6bae:	8c 91       	ld	r24, X
    6bb0:	88 23       	and	r24, r24
    6bb2:	09 f4       	brne	.+2      	; 0x6bb6 <vTaskGetRunTimeStats+0x76>
    6bb4:	84 c1       	rjmp	.+776    	; 0x6ebe <vTaskGetRunTimeStats+0x37e>
    6bb6:	11 96       	adiw	r26, 0x01	; 1
    6bb8:	ed 91       	ld	r30, X+
    6bba:	fc 91       	ld	r31, X
    6bbc:	12 97       	sbiw	r26, 0x02	; 2
    6bbe:	02 80       	ldd	r0, Z+2	; 0x02
    6bc0:	f3 81       	ldd	r31, Z+3	; 0x03
    6bc2:	e0 2d       	mov	r30, r0
    6bc4:	12 96       	adiw	r26, 0x02	; 2
    6bc6:	fc 93       	st	X, r31
    6bc8:	ee 93       	st	-X, r30
    6bca:	11 97       	sbiw	r26, 0x01	; 1
    6bcc:	03 e0       	ldi	r16, 0x03	; 3
    6bce:	80 2e       	mov	r8, r16
    6bd0:	91 2c       	mov	r9, r1
    6bd2:	8e 0c       	add	r8, r14
    6bd4:	9f 1c       	adc	r9, r15
    6bd6:	e8 15       	cp	r30, r8
    6bd8:	f9 05       	cpc	r31, r9
    6bda:	09 f4       	brne	.+2      	; 0x6bde <vTaskGetRunTimeStats+0x9e>
    6bdc:	2c c5       	rjmp	.+2648   	; 0x7636 <vTaskGetRunTimeStats+0xaf6>
    6bde:	66 80       	ldd	r6, Z+6	; 0x06
    6be0:	77 80       	ldd	r7, Z+7	; 0x07
    6be2:	dd 24       	eor	r13, r13
    6be4:	82 81       	ldd	r24, Z+2	; 0x02
    6be6:	93 81       	ldd	r25, Z+3	; 0x03
    6be8:	f7 01       	movw	r30, r14
    6bea:	92 83       	std	Z+2, r25	; 0x02
    6bec:	81 83       	std	Z+1, r24	; 0x01
    6bee:	88 16       	cp	r8, r24
    6bf0:	99 06       	cpc	r9, r25
    6bf2:	09 f4       	brne	.+2      	; 0x6bf6 <vTaskGetRunTimeStats+0xb6>
    6bf4:	5f c0       	rjmp	.+190    	; 0x6cb4 <vTaskGetRunTimeStats+0x174>
    6bf6:	d7 01       	movw	r26, r14
    6bf8:	11 96       	adiw	r26, 0x01	; 1
    6bfa:	ed 91       	ld	r30, X+
    6bfc:	fc 91       	ld	r31, X
    6bfe:	12 97       	sbiw	r26, 0x02	; 2
    6c00:	66 81       	ldd	r22, Z+6	; 0x06
    6c02:	77 81       	ldd	r23, Z+7	; 0x07
    6c04:	bf e0       	ldi	r27, 0x0F	; 15
    6c06:	db 9e       	mul	r13, r27
    6c08:	80 01       	movw	r16, r0
    6c0a:	11 24       	eor	r1, r1
    6c0c:	0a 0d       	add	r16, r10
    6c0e:	1b 1d       	adc	r17, r11
    6c10:	f8 01       	movw	r30, r16
    6c12:	71 83       	std	Z+1, r23	; 0x01
    6c14:	60 83       	st	Z, r22
    6c16:	67 5e       	subi	r22, 0xE7	; 231
    6c18:	7f 4f       	sbci	r23, 0xFF	; 255
    6c1a:	73 83       	std	Z+3, r23	; 0x03
    6c1c:	62 83       	std	Z+2, r22	; 0x02
    6c1e:	69 51       	subi	r22, 0x19	; 25
    6c20:	70 40       	sbci	r23, 0x00	; 0
    6c22:	db 01       	movw	r26, r22
    6c24:	91 96       	adiw	r26, 0x21	; 33
    6c26:	8c 91       	ld	r24, X
    6c28:	91 97       	sbiw	r26, 0x21	; 33
    6c2a:	84 83       	std	Z+4, r24	; 0x04
    6c2c:	41 e0       	ldi	r20, 0x01	; 1
    6c2e:	50 e0       	ldi	r21, 0x00	; 0
    6c30:	56 83       	std	Z+6, r21	; 0x06
    6c32:	45 83       	std	Z+5, r20	; 0x05
    6c34:	56 96       	adiw	r26, 0x16	; 22
    6c36:	8c 91       	ld	r24, X
    6c38:	56 97       	sbiw	r26, 0x16	; 22
    6c3a:	87 83       	std	Z+7, r24	; 0x07
    6c3c:	93 96       	adiw	r26, 0x23	; 35
    6c3e:	8c 91       	ld	r24, X
    6c40:	93 97       	sbiw	r26, 0x23	; 35
    6c42:	80 87       	std	Z+8, r24	; 0x08
    6c44:	94 96       	adiw	r26, 0x24	; 36
    6c46:	8d 91       	ld	r24, X+
    6c48:	9d 91       	ld	r25, X+
    6c4a:	0d 90       	ld	r0, X+
    6c4c:	bc 91       	ld	r27, X
    6c4e:	a0 2d       	mov	r26, r0
    6c50:	81 87       	std	Z+9, r24	; 0x09
    6c52:	92 87       	std	Z+10, r25	; 0x0a
    6c54:	a3 87       	std	Z+11, r26	; 0x0b
    6c56:	b4 87       	std	Z+12, r27	; 0x0c
    6c58:	fb 01       	movw	r30, r22
    6c5a:	a7 89       	ldd	r26, Z+23	; 0x17
    6c5c:	b0 8d       	ldd	r27, Z+24	; 0x18
    6c5e:	8c 91       	ld	r24, X
    6c60:	85 3a       	cpi	r24, 0xA5	; 165
    6c62:	09 f0       	breq	.+2      	; 0x6c66 <vTaskGetRunTimeStats+0x126>
    6c64:	d4 c2       	rjmp	.+1448   	; 0x720e <vTaskGetRunTimeStats+0x6ce>
    6c66:	20 e0       	ldi	r18, 0x00	; 0
    6c68:	30 e0       	ldi	r19, 0x00	; 0
    6c6a:	40 e0       	ldi	r20, 0x00	; 0
    6c6c:	50 e0       	ldi	r21, 0x00	; 0
    6c6e:	2f 5f       	subi	r18, 0xFF	; 255
    6c70:	3f 4f       	sbci	r19, 0xFF	; 255
    6c72:	4f 4f       	sbci	r20, 0xFF	; 255
    6c74:	5f 4f       	sbci	r21, 0xFF	; 255
    6c76:	fd 01       	movw	r30, r26
    6c78:	e2 0f       	add	r30, r18
    6c7a:	f3 1f       	adc	r31, r19
    6c7c:	80 81       	ld	r24, Z
    6c7e:	85 3a       	cpi	r24, 0xA5	; 165
    6c80:	b1 f3       	breq	.-20     	; 0x6c6e <vTaskGetRunTimeStats+0x12e>
    6c82:	c9 01       	movw	r24, r18
    6c84:	d8 01       	movw	r26, r16
    6c86:	1e 96       	adiw	r26, 0x0e	; 14
    6c88:	9c 93       	st	X, r25
    6c8a:	8e 93       	st	-X, r24
    6c8c:	1d 97       	sbiw	r26, 0x0d	; 13
    6c8e:	d3 94       	inc	r13
    6c90:	66 16       	cp	r6, r22
    6c92:	77 06       	cpc	r7, r23
    6c94:	09 f4       	brne	.+2      	; 0x6c98 <vTaskGetRunTimeStats+0x158>
    6c96:	14 c1       	rjmp	.+552    	; 0x6ec0 <vTaskGetRunTimeStats+0x380>
    6c98:	d7 01       	movw	r26, r14
    6c9a:	11 96       	adiw	r26, 0x01	; 1
    6c9c:	ed 91       	ld	r30, X+
    6c9e:	fc 91       	ld	r31, X
    6ca0:	12 97       	sbiw	r26, 0x02	; 2
    6ca2:	82 81       	ldd	r24, Z+2	; 0x02
    6ca4:	93 81       	ldd	r25, Z+3	; 0x03
    6ca6:	f7 01       	movw	r30, r14
    6ca8:	92 83       	std	Z+2, r25	; 0x02
    6caa:	81 83       	std	Z+1, r24	; 0x01
    6cac:	88 16       	cp	r8, r24
    6cae:	99 06       	cpc	r9, r25
    6cb0:	09 f0       	breq	.+2      	; 0x6cb4 <vTaskGetRunTimeStats+0x174>
    6cb2:	a1 cf       	rjmp	.-190    	; 0x6bf6 <vTaskGetRunTimeStats+0xb6>
    6cb4:	d4 01       	movw	r26, r8
    6cb6:	12 96       	adiw	r26, 0x02	; 2
    6cb8:	8d 91       	ld	r24, X+
    6cba:	9c 91       	ld	r25, X
    6cbc:	13 97       	sbiw	r26, 0x03	; 3
    6cbe:	92 83       	std	Z+2, r25	; 0x02
    6cc0:	81 83       	std	Z+1, r24	; 0x01
    6cc2:	99 cf       	rjmp	.-206    	; 0x6bf6 <vTaskGetRunTimeStats+0xb6>
    6cc4:	c2 01       	movw	r24, r4
    6cc6:	0e 94 d5 27 	call	0x4faa	; 0x4faa <vPortFree>
    6cca:	24 96       	adiw	r28, 0x04	; 4
    6ccc:	e2 e1       	ldi	r30, 0x12	; 18
    6cce:	0c 94 a8 53 	jmp	0xa750	; 0xa750 <__epilogue_restores__>
    6cd2:	1b 82       	std	Y+3, r1	; 0x03
    6cd4:	0f b6       	in	r0, 0x3f	; 63
    6cd6:	f8 94       	cli
    6cd8:	0f 92       	push	r0
    6cda:	80 91 74 1c 	lds	r24, 0x1C74
    6cde:	81 50       	subi	r24, 0x01	; 1
    6ce0:	80 93 74 1c 	sts	0x1C74, r24
    6ce4:	80 91 74 1c 	lds	r24, 0x1C74
    6ce8:	88 23       	and	r24, r24
    6cea:	09 f0       	breq	.+2      	; 0x6cee <vTaskGetRunTimeStats+0x1ae>
    6cec:	a4 c1       	rjmp	.+840    	; 0x7036 <vTaskGetRunTimeStats+0x4f6>
    6cee:	80 91 6e 1c 	lds	r24, 0x1C6E
    6cf2:	88 23       	and	r24, r24
    6cf4:	09 f4       	brne	.+2      	; 0x6cf8 <vTaskGetRunTimeStats+0x1b8>
    6cf6:	9f c1       	rjmp	.+830    	; 0x7036 <vTaskGetRunTimeStats+0x4f6>
    6cf8:	99 e0       	ldi	r25, 0x09	; 9
    6cfa:	d9 2e       	mov	r13, r25
    6cfc:	cc 24       	eor	r12, r12
    6cfe:	c3 94       	inc	r12
    6d00:	80 91 bb 1c 	lds	r24, 0x1CBB
    6d04:	88 23       	and	r24, r24
    6d06:	99 f1       	breq	.+102    	; 0x6d6e <vTaskGetRunTimeStats+0x22e>
    6d08:	e0 91 c0 1c 	lds	r30, 0x1CC0
    6d0c:	f0 91 c1 1c 	lds	r31, 0x1CC1
    6d10:	06 81       	ldd	r16, Z+6	; 0x06
    6d12:	17 81       	ldd	r17, Z+7	; 0x07
    6d14:	c8 01       	movw	r24, r16
    6d16:	0c 96       	adiw	r24, 0x0c	; 12
    6d18:	0e 94 f0 49 	call	0x93e0	; 0x93e0 <uxListRemove>
    6d1c:	22 e0       	ldi	r18, 0x02	; 2
    6d1e:	e2 2e       	mov	r14, r18
    6d20:	f1 2c       	mov	r15, r1
    6d22:	e0 0e       	add	r14, r16
    6d24:	f1 1e       	adc	r15, r17
    6d26:	c7 01       	movw	r24, r14
    6d28:	0e 94 f0 49 	call	0x93e0	; 0x93e0 <uxListRemove>
    6d2c:	f8 01       	movw	r30, r16
    6d2e:	96 89       	ldd	r25, Z+22	; 0x16
    6d30:	80 91 6f 1c 	lds	r24, 0x1C6F
    6d34:	89 17       	cp	r24, r25
    6d36:	18 f4       	brcc	.+6      	; 0x6d3e <vTaskGetRunTimeStats+0x1fe>
    6d38:	90 93 6f 1c 	sts	0x1C6F, r25
    6d3c:	96 89       	ldd	r25, Z+22	; 0x16
    6d3e:	9d 9d       	mul	r25, r13
    6d40:	c0 01       	movw	r24, r0
    6d42:	11 24       	eor	r1, r1
    6d44:	8f 57       	subi	r24, 0x7F	; 127
    6d46:	93 4e       	sbci	r25, 0xE3	; 227
    6d48:	b7 01       	movw	r22, r14
    6d4a:	0e 94 9f 49 	call	0x933e	; 0x933e <vListInsertEnd>
    6d4e:	e0 91 6c 1c 	lds	r30, 0x1C6C
    6d52:	f0 91 6d 1c 	lds	r31, 0x1C6D
    6d56:	d8 01       	movw	r26, r16
    6d58:	56 96       	adiw	r26, 0x16	; 22
    6d5a:	9c 91       	ld	r25, X
    6d5c:	86 89       	ldd	r24, Z+22	; 0x16
    6d5e:	98 17       	cp	r25, r24
    6d60:	78 f2       	brcs	.-98     	; 0x6d00 <vTaskGetRunTimeStats+0x1c0>
    6d62:	c0 92 70 1c 	sts	0x1C70, r12
    6d66:	80 91 bb 1c 	lds	r24, 0x1CBB
    6d6a:	88 23       	and	r24, r24
    6d6c:	69 f6       	brne	.-102    	; 0x6d08 <vTaskGetRunTimeStats+0x1c8>
    6d6e:	80 91 7d 1c 	lds	r24, 0x1C7D
    6d72:	88 23       	and	r24, r24
    6d74:	09 f4       	brne	.+2      	; 0x6d78 <vTaskGetRunTimeStats+0x238>
    6d76:	59 c1       	rjmp	.+690    	; 0x702a <vTaskGetRunTimeStats+0x4ea>
    6d78:	80 91 7d 1c 	lds	r24, 0x1C7D
    6d7c:	88 23       	and	r24, r24
    6d7e:	09 f4       	brne	.+2      	; 0x6d82 <vTaskGetRunTimeStats+0x242>
    6d80:	54 c1       	rjmp	.+680    	; 0x702a <vTaskGetRunTimeStats+0x4ea>
    6d82:	89 e0       	ldi	r24, 0x09	; 9
    6d84:	a8 2e       	mov	r10, r24
    6d86:	80 91 74 1c 	lds	r24, 0x1C74
    6d8a:	88 23       	and	r24, r24
    6d8c:	09 f0       	breq	.+2      	; 0x6d90 <vTaskGetRunTimeStats+0x250>
    6d8e:	35 c1       	rjmp	.+618    	; 0x6ffa <vTaskGetRunTimeStats+0x4ba>
    6d90:	80 91 71 1c 	lds	r24, 0x1C71
    6d94:	90 91 72 1c 	lds	r25, 0x1C72
    6d98:	01 96       	adiw	r24, 0x01	; 1
    6d9a:	90 93 72 1c 	sts	0x1C72, r25
    6d9e:	80 93 71 1c 	sts	0x1C71, r24
    6da2:	c0 90 71 1c 	lds	r12, 0x1C71
    6da6:	d0 90 72 1c 	lds	r13, 0x1C72
    6daa:	c1 14       	cp	r12, r1
    6dac:	d1 04       	cpc	r13, r1
    6dae:	19 f5       	brne	.+70     	; 0x6df6 <vTaskGetRunTimeStats+0x2b6>
    6db0:	20 91 b7 1c 	lds	r18, 0x1CB7
    6db4:	30 91 b8 1c 	lds	r19, 0x1CB8
    6db8:	80 91 b9 1c 	lds	r24, 0x1CB9
    6dbc:	90 91 ba 1c 	lds	r25, 0x1CBA
    6dc0:	90 93 b8 1c 	sts	0x1CB8, r25
    6dc4:	80 93 b7 1c 	sts	0x1CB7, r24
    6dc8:	30 93 ba 1c 	sts	0x1CBA, r19
    6dcc:	20 93 b9 1c 	sts	0x1CB9, r18
    6dd0:	80 91 73 1c 	lds	r24, 0x1C73
    6dd4:	8f 5f       	subi	r24, 0xFF	; 255
    6dd6:	80 93 73 1c 	sts	0x1C73, r24
    6dda:	e0 91 b7 1c 	lds	r30, 0x1CB7
    6dde:	f0 91 b8 1c 	lds	r31, 0x1CB8
    6de2:	80 81       	ld	r24, Z
    6de4:	88 23       	and	r24, r24
    6de6:	09 f0       	breq	.+2      	; 0x6dea <vTaskGetRunTimeStats+0x2aa>
    6de8:	04 c4       	rjmp	.+2056   	; 0x75f2 <vTaskGetRunTimeStats+0xab2>
    6dea:	ef ef       	ldi	r30, 0xFF	; 255
    6dec:	ff ef       	ldi	r31, 0xFF	; 255
    6dee:	f0 93 ad 09 	sts	0x09AD, r31
    6df2:	e0 93 ac 09 	sts	0x09AC, r30
    6df6:	80 91 ac 09 	lds	r24, 0x09AC
    6dfa:	90 91 ad 09 	lds	r25, 0x09AD
    6dfe:	c8 16       	cp	r12, r24
    6e00:	d9 06       	cpc	r13, r25
    6e02:	08 f4       	brcc	.+2      	; 0x6e06 <vTaskGetRunTimeStats+0x2c6>
    6e04:	dd c3       	rjmp	.+1978   	; 0x75c0 <vTaskGetRunTimeStats+0xa80>
    6e06:	bb 24       	eor	r11, r11
    6e08:	e0 91 b7 1c 	lds	r30, 0x1CB7
    6e0c:	f0 91 b8 1c 	lds	r31, 0x1CB8
    6e10:	80 81       	ld	r24, Z
    6e12:	88 23       	and	r24, r24
    6e14:	09 f4       	brne	.+2      	; 0x6e18 <vTaskGetRunTimeStats+0x2d8>
    6e16:	4c c0       	rjmp	.+152    	; 0x6eb0 <vTaskGetRunTimeStats+0x370>
    6e18:	e0 91 b7 1c 	lds	r30, 0x1CB7
    6e1c:	f0 91 b8 1c 	lds	r31, 0x1CB8
    6e20:	05 80       	ldd	r0, Z+5	; 0x05
    6e22:	f6 81       	ldd	r31, Z+6	; 0x06
    6e24:	e0 2d       	mov	r30, r0
    6e26:	06 81       	ldd	r16, Z+6	; 0x06
    6e28:	17 81       	ldd	r17, Z+7	; 0x07
    6e2a:	d8 01       	movw	r26, r16
    6e2c:	12 96       	adiw	r26, 0x02	; 2
    6e2e:	8d 91       	ld	r24, X+
    6e30:	9c 91       	ld	r25, X
    6e32:	13 97       	sbiw	r26, 0x03	; 3
    6e34:	c8 16       	cp	r12, r24
    6e36:	d9 06       	cpc	r13, r25
    6e38:	08 f4       	brcc	.+2      	; 0x6e3c <vTaskGetRunTimeStats+0x2fc>
    6e3a:	f5 c3       	rjmp	.+2026   	; 0x7626 <vTaskGetRunTimeStats+0xae6>
    6e3c:	b2 e0       	ldi	r27, 0x02	; 2
    6e3e:	eb 2e       	mov	r14, r27
    6e40:	f1 2c       	mov	r15, r1
    6e42:	e0 0e       	add	r14, r16
    6e44:	f1 1e       	adc	r15, r17
    6e46:	c7 01       	movw	r24, r14
    6e48:	0e 94 f0 49 	call	0x93e0	; 0x93e0 <uxListRemove>
    6e4c:	f8 01       	movw	r30, r16
    6e4e:	84 89       	ldd	r24, Z+20	; 0x14
    6e50:	95 89       	ldd	r25, Z+21	; 0x15
    6e52:	89 2b       	or	r24, r25
    6e54:	21 f0       	breq	.+8      	; 0x6e5e <vTaskGetRunTimeStats+0x31e>
    6e56:	c8 01       	movw	r24, r16
    6e58:	0c 96       	adiw	r24, 0x0c	; 12
    6e5a:	0e 94 f0 49 	call	0x93e0	; 0x93e0 <uxListRemove>
    6e5e:	d8 01       	movw	r26, r16
    6e60:	56 96       	adiw	r26, 0x16	; 22
    6e62:	9c 91       	ld	r25, X
    6e64:	56 97       	sbiw	r26, 0x16	; 22
    6e66:	80 91 6f 1c 	lds	r24, 0x1C6F
    6e6a:	89 17       	cp	r24, r25
    6e6c:	20 f4       	brcc	.+8      	; 0x6e76 <vTaskGetRunTimeStats+0x336>
    6e6e:	90 93 6f 1c 	sts	0x1C6F, r25
    6e72:	56 96       	adiw	r26, 0x16	; 22
    6e74:	9c 91       	ld	r25, X
    6e76:	9a 9d       	mul	r25, r10
    6e78:	c0 01       	movw	r24, r0
    6e7a:	11 24       	eor	r1, r1
    6e7c:	8f 57       	subi	r24, 0x7F	; 127
    6e7e:	93 4e       	sbci	r25, 0xE3	; 227
    6e80:	b7 01       	movw	r22, r14
    6e82:	0e 94 9f 49 	call	0x933e	; 0x933e <vListInsertEnd>
    6e86:	e0 91 6c 1c 	lds	r30, 0x1C6C
    6e8a:	f0 91 6d 1c 	lds	r31, 0x1C6D
    6e8e:	d8 01       	movw	r26, r16
    6e90:	56 96       	adiw	r26, 0x16	; 22
    6e92:	9c 91       	ld	r25, X
    6e94:	86 89       	ldd	r24, Z+22	; 0x16
    6e96:	98 17       	cp	r25, r24
    6e98:	08 f4       	brcc	.+2      	; 0x6e9c <vTaskGetRunTimeStats+0x35c>
    6e9a:	b6 cf       	rjmp	.-148    	; 0x6e08 <vTaskGetRunTimeStats+0x2c8>
    6e9c:	bb 24       	eor	r11, r11
    6e9e:	b3 94       	inc	r11
    6ea0:	e0 91 b7 1c 	lds	r30, 0x1CB7
    6ea4:	f0 91 b8 1c 	lds	r31, 0x1CB8
    6ea8:	80 81       	ld	r24, Z
    6eaa:	88 23       	and	r24, r24
    6eac:	09 f0       	breq	.+2      	; 0x6eb0 <vTaskGetRunTimeStats+0x370>
    6eae:	b4 cf       	rjmp	.-152    	; 0x6e18 <vTaskGetRunTimeStats+0x2d8>
    6eb0:	4f ef       	ldi	r20, 0xFF	; 255
    6eb2:	5f ef       	ldi	r21, 0xFF	; 255
    6eb4:	50 93 ad 09 	sts	0x09AD, r21
    6eb8:	40 93 ac 09 	sts	0x09AC, r20
    6ebc:	82 c3       	rjmp	.+1796   	; 0x75c2 <vTaskGetRunTimeStats+0xa82>
    6ebe:	dd 24       	eor	r13, r13
    6ec0:	bc 81       	ldd	r27, Y+4	; 0x04
    6ec2:	bd 0d       	add	r27, r13
    6ec4:	bc 83       	std	Y+4, r27	; 0x04
    6ec6:	cc 20       	and	r12, r12
    6ec8:	09 f0       	breq	.+2      	; 0x6ecc <vTaskGetRunTimeStats+0x38c>
    6eca:	60 ce       	rjmp	.-832    	; 0x6b8c <vTaskGetRunTimeStats+0x4c>
    6ecc:	8f e0       	ldi	r24, 0x0F	; 15
    6ece:	b8 9f       	mul	r27, r24
    6ed0:	50 01       	movw	r10, r0
    6ed2:	11 24       	eor	r1, r1
    6ed4:	a4 0c       	add	r10, r4
    6ed6:	b5 1c       	adc	r11, r5
    6ed8:	e0 90 b7 1c 	lds	r14, 0x1CB7
    6edc:	f0 90 b8 1c 	lds	r15, 0x1CB8
    6ee0:	f7 01       	movw	r30, r14
    6ee2:	80 81       	ld	r24, Z
    6ee4:	88 23       	and	r24, r24
    6ee6:	09 f4       	brne	.+2      	; 0x6eea <vTaskGetRunTimeStats+0x3aa>
    6ee8:	95 c1       	rjmp	.+810    	; 0x7214 <vTaskGetRunTimeStats+0x6d4>
    6eea:	01 80       	ldd	r0, Z+1	; 0x01
    6eec:	f2 81       	ldd	r31, Z+2	; 0x02
    6eee:	e0 2d       	mov	r30, r0
    6ef0:	02 80       	ldd	r0, Z+2	; 0x02
    6ef2:	f3 81       	ldd	r31, Z+3	; 0x03
    6ef4:	e0 2d       	mov	r30, r0
    6ef6:	d7 01       	movw	r26, r14
    6ef8:	12 96       	adiw	r26, 0x02	; 2
    6efa:	fc 93       	st	X, r31
    6efc:	ee 93       	st	-X, r30
    6efe:	11 97       	sbiw	r26, 0x01	; 1
    6f00:	13 e0       	ldi	r17, 0x03	; 3
    6f02:	81 2e       	mov	r8, r17
    6f04:	91 2c       	mov	r9, r1
    6f06:	8e 0c       	add	r8, r14
    6f08:	9f 1c       	adc	r9, r15
    6f0a:	e8 15       	cp	r30, r8
    6f0c:	f9 05       	cpc	r31, r9
    6f0e:	09 f4       	brne	.+2      	; 0x6f12 <vTaskGetRunTimeStats+0x3d2>
    6f10:	a3 c3       	rjmp	.+1862   	; 0x7658 <vTaskGetRunTimeStats+0xb18>
    6f12:	66 80       	ldd	r6, Z+6	; 0x06
    6f14:	77 80       	ldd	r7, Z+7	; 0x07
    6f16:	dd 24       	eor	r13, r13
    6f18:	af e0       	ldi	r26, 0x0F	; 15
    6f1a:	ca 2e       	mov	r12, r26
    6f1c:	82 81       	ldd	r24, Z+2	; 0x02
    6f1e:	93 81       	ldd	r25, Z+3	; 0x03
    6f20:	f7 01       	movw	r30, r14
    6f22:	92 83       	std	Z+2, r25	; 0x02
    6f24:	81 83       	std	Z+1, r24	; 0x01
    6f26:	88 16       	cp	r8, r24
    6f28:	99 06       	cpc	r9, r25
    6f2a:	09 f4       	brne	.+2      	; 0x6f2e <vTaskGetRunTimeStats+0x3ee>
    6f2c:	5e c0       	rjmp	.+188    	; 0x6fea <vTaskGetRunTimeStats+0x4aa>
    6f2e:	d7 01       	movw	r26, r14
    6f30:	11 96       	adiw	r26, 0x01	; 1
    6f32:	ed 91       	ld	r30, X+
    6f34:	fc 91       	ld	r31, X
    6f36:	12 97       	sbiw	r26, 0x02	; 2
    6f38:	66 81       	ldd	r22, Z+6	; 0x06
    6f3a:	77 81       	ldd	r23, Z+7	; 0x07
    6f3c:	dc 9c       	mul	r13, r12
    6f3e:	80 01       	movw	r16, r0
    6f40:	11 24       	eor	r1, r1
    6f42:	0a 0d       	add	r16, r10
    6f44:	1b 1d       	adc	r17, r11
    6f46:	f8 01       	movw	r30, r16
    6f48:	71 83       	std	Z+1, r23	; 0x01
    6f4a:	60 83       	st	Z, r22
    6f4c:	67 5e       	subi	r22, 0xE7	; 231
    6f4e:	7f 4f       	sbci	r23, 0xFF	; 255
    6f50:	73 83       	std	Z+3, r23	; 0x03
    6f52:	62 83       	std	Z+2, r22	; 0x02
    6f54:	69 51       	subi	r22, 0x19	; 25
    6f56:	70 40       	sbci	r23, 0x00	; 0
    6f58:	db 01       	movw	r26, r22
    6f5a:	91 96       	adiw	r26, 0x21	; 33
    6f5c:	8c 91       	ld	r24, X
    6f5e:	91 97       	sbiw	r26, 0x21	; 33
    6f60:	84 83       	std	Z+4, r24	; 0x04
    6f62:	42 e0       	ldi	r20, 0x02	; 2
    6f64:	50 e0       	ldi	r21, 0x00	; 0
    6f66:	56 83       	std	Z+6, r21	; 0x06
    6f68:	45 83       	std	Z+5, r20	; 0x05
    6f6a:	56 96       	adiw	r26, 0x16	; 22
    6f6c:	8c 91       	ld	r24, X
    6f6e:	56 97       	sbiw	r26, 0x16	; 22
    6f70:	87 83       	std	Z+7, r24	; 0x07
    6f72:	93 96       	adiw	r26, 0x23	; 35
    6f74:	8c 91       	ld	r24, X
    6f76:	93 97       	sbiw	r26, 0x23	; 35
    6f78:	80 87       	std	Z+8, r24	; 0x08
    6f7a:	94 96       	adiw	r26, 0x24	; 36
    6f7c:	8d 91       	ld	r24, X+
    6f7e:	9d 91       	ld	r25, X+
    6f80:	0d 90       	ld	r0, X+
    6f82:	bc 91       	ld	r27, X
    6f84:	a0 2d       	mov	r26, r0
    6f86:	81 87       	std	Z+9, r24	; 0x09
    6f88:	92 87       	std	Z+10, r25	; 0x0a
    6f8a:	a3 87       	std	Z+11, r26	; 0x0b
    6f8c:	b4 87       	std	Z+12, r27	; 0x0c
    6f8e:	fb 01       	movw	r30, r22
    6f90:	a7 89       	ldd	r26, Z+23	; 0x17
    6f92:	b0 8d       	ldd	r27, Z+24	; 0x18
    6f94:	8c 91       	ld	r24, X
    6f96:	85 3a       	cpi	r24, 0xA5	; 165
    6f98:	09 f0       	breq	.+2      	; 0x6f9c <vTaskGetRunTimeStats+0x45c>
    6f9a:	42 c3       	rjmp	.+1668   	; 0x7620 <vTaskGetRunTimeStats+0xae0>
    6f9c:	20 e0       	ldi	r18, 0x00	; 0
    6f9e:	30 e0       	ldi	r19, 0x00	; 0
    6fa0:	40 e0       	ldi	r20, 0x00	; 0
    6fa2:	50 e0       	ldi	r21, 0x00	; 0
    6fa4:	2f 5f       	subi	r18, 0xFF	; 255
    6fa6:	3f 4f       	sbci	r19, 0xFF	; 255
    6fa8:	4f 4f       	sbci	r20, 0xFF	; 255
    6faa:	5f 4f       	sbci	r21, 0xFF	; 255
    6fac:	fd 01       	movw	r30, r26
    6fae:	e2 0f       	add	r30, r18
    6fb0:	f3 1f       	adc	r31, r19
    6fb2:	80 81       	ld	r24, Z
    6fb4:	85 3a       	cpi	r24, 0xA5	; 165
    6fb6:	b1 f3       	breq	.-20     	; 0x6fa4 <vTaskGetRunTimeStats+0x464>
    6fb8:	c9 01       	movw	r24, r18
    6fba:	d8 01       	movw	r26, r16
    6fbc:	1e 96       	adiw	r26, 0x0e	; 14
    6fbe:	9c 93       	st	X, r25
    6fc0:	8e 93       	st	-X, r24
    6fc2:	1d 97       	sbiw	r26, 0x0d	; 13
    6fc4:	d3 94       	inc	r13
    6fc6:	66 16       	cp	r6, r22
    6fc8:	77 06       	cpc	r7, r23
    6fca:	09 f4       	brne	.+2      	; 0x6fce <vTaskGetRunTimeStats+0x48e>
    6fcc:	24 c1       	rjmp	.+584    	; 0x7216 <vTaskGetRunTimeStats+0x6d6>
    6fce:	d7 01       	movw	r26, r14
    6fd0:	11 96       	adiw	r26, 0x01	; 1
    6fd2:	ed 91       	ld	r30, X+
    6fd4:	fc 91       	ld	r31, X
    6fd6:	12 97       	sbiw	r26, 0x02	; 2
    6fd8:	82 81       	ldd	r24, Z+2	; 0x02
    6fda:	93 81       	ldd	r25, Z+3	; 0x03
    6fdc:	f7 01       	movw	r30, r14
    6fde:	92 83       	std	Z+2, r25	; 0x02
    6fe0:	81 83       	std	Z+1, r24	; 0x01
    6fe2:	88 16       	cp	r8, r24
    6fe4:	99 06       	cpc	r9, r25
    6fe6:	09 f0       	breq	.+2      	; 0x6fea <vTaskGetRunTimeStats+0x4aa>
    6fe8:	a2 cf       	rjmp	.-188    	; 0x6f2e <vTaskGetRunTimeStats+0x3ee>
    6fea:	d4 01       	movw	r26, r8
    6fec:	12 96       	adiw	r26, 0x02	; 2
    6fee:	8d 91       	ld	r24, X+
    6ff0:	9c 91       	ld	r25, X
    6ff2:	13 97       	sbiw	r26, 0x03	; 3
    6ff4:	92 83       	std	Z+2, r25	; 0x02
    6ff6:	81 83       	std	Z+1, r24	; 0x01
    6ff8:	9a cf       	rjmp	.-204    	; 0x6f2e <vTaskGetRunTimeStats+0x3ee>
    6ffa:	80 91 7d 1c 	lds	r24, 0x1C7D
    6ffe:	8f 5f       	subi	r24, 0xFF	; 255
    7000:	80 93 7d 1c 	sts	0x1C7D, r24
    7004:	bb 24       	eor	r11, r11
    7006:	80 91 70 1c 	lds	r24, 0x1C70
    700a:	88 23       	and	r24, r24
    700c:	09 f0       	breq	.+2      	; 0x7010 <vTaskGetRunTimeStats+0x4d0>
    700e:	d4 c2       	rjmp	.+1448   	; 0x75b8 <vTaskGetRunTimeStats+0xa78>
    7010:	bb 20       	and	r11, r11
    7012:	09 f0       	breq	.+2      	; 0x7016 <vTaskGetRunTimeStats+0x4d6>
    7014:	d1 c2       	rjmp	.+1442   	; 0x75b8 <vTaskGetRunTimeStats+0xa78>
    7016:	80 91 7d 1c 	lds	r24, 0x1C7D
    701a:	81 50       	subi	r24, 0x01	; 1
    701c:	80 93 7d 1c 	sts	0x1C7D, r24
    7020:	80 91 7d 1c 	lds	r24, 0x1C7D
    7024:	88 23       	and	r24, r24
    7026:	09 f0       	breq	.+2      	; 0x702a <vTaskGetRunTimeStats+0x4ea>
    7028:	ae ce       	rjmp	.-676    	; 0x6d86 <vTaskGetRunTimeStats+0x246>
    702a:	80 91 70 1c 	lds	r24, 0x1C70
    702e:	81 30       	cpi	r24, 0x01	; 1
    7030:	11 f4       	brne	.+4      	; 0x7036 <vTaskGetRunTimeStats+0x4f6>
    7032:	0e 94 2a 49 	call	0x9254	; 0x9254 <vPortYield>
    7036:	0f 90       	pop	r0
    7038:	0f be       	out	0x3f, r0	; 63
    703a:	eb 81       	ldd	r30, Y+3	; 0x03
    703c:	e9 83       	std	Y+1, r30	; 0x01
    703e:	c4 01       	movw	r24, r8
    7040:	b3 01       	movw	r22, r6
    7042:	24 e6       	ldi	r18, 0x64	; 100
    7044:	30 e0       	ldi	r19, 0x00	; 0
    7046:	40 e0       	ldi	r20, 0x00	; 0
    7048:	50 e0       	ldi	r21, 0x00	; 0
    704a:	0e 94 6a 53 	call	0xa6d4	; 0xa6d4 <__udivmodsi4>
    704e:	59 01       	movw	r10, r18
    7050:	6a 01       	movw	r12, r20
    7052:	a1 14       	cp	r10, r1
    7054:	b1 04       	cpc	r11, r1
    7056:	c1 04       	cpc	r12, r1
    7058:	d1 04       	cpc	r13, r1
    705a:	09 f4       	brne	.+2      	; 0x705e <vTaskGetRunTimeStats+0x51e>
    705c:	33 ce       	rjmp	.-922    	; 0x6cc4 <vTaskGetRunTimeStats+0x184>
    705e:	1a 82       	std	Y+2, r1	; 0x02
    7060:	9a 81       	ldd	r25, Y+2	; 0x02
    7062:	89 81       	ldd	r24, Y+1	; 0x01
    7064:	98 17       	cp	r25, r24
    7066:	08 f0       	brcs	.+2      	; 0x706a <vTaskGetRunTimeStats+0x52a>
    7068:	2d ce       	rjmp	.-934    	; 0x6cc4 <vTaskGetRunTimeStats+0x184>
    706a:	ec e1       	ldi	r30, 0x1C	; 28
    706c:	8e 2e       	mov	r8, r30
    706e:	e9 e0       	ldi	r30, 0x09	; 9
    7070:	9e 2e       	mov	r9, r30
    7072:	7b e2       	ldi	r23, 0x2B	; 43
    7074:	67 2e       	mov	r6, r23
    7076:	79 e0       	ldi	r23, 0x09	; 9
    7078:	77 2e       	mov	r7, r23
    707a:	60 c0       	rjmp	.+192    	; 0x713c <vTaskGetRunTimeStats+0x5fc>
    707c:	8a 81       	ldd	r24, Y+2	; 0x02
    707e:	2a 81       	ldd	r18, Y+2	; 0x02
    7080:	4d b7       	in	r20, 0x3d	; 61
    7082:	5e b7       	in	r21, 0x3e	; 62
    7084:	4a 50       	subi	r20, 0x0A	; 10
    7086:	50 40       	sbci	r21, 0x00	; 0
    7088:	0f b6       	in	r0, 0x3f	; 63
    708a:	f8 94       	cli
    708c:	5e bf       	out	0x3e, r21	; 62
    708e:	0f be       	out	0x3f, r0	; 63
    7090:	4d bf       	out	0x3d, r20	; 61
    7092:	ad b7       	in	r26, 0x3d	; 61
    7094:	be b7       	in	r27, 0x3e	; 62
    7096:	11 96       	adiw	r26, 0x01	; 1
    7098:	ed b7       	in	r30, 0x3d	; 61
    709a:	fe b7       	in	r31, 0x3e	; 62
    709c:	32 82       	std	Z+2, r3	; 0x02
    709e:	21 82       	std	Z+1, r2	; 0x01
    70a0:	13 96       	adiw	r26, 0x03	; 3
    70a2:	9c 92       	st	X, r9
    70a4:	8e 92       	st	-X, r8
    70a6:	12 97       	sbiw	r26, 0x02	; 2
    70a8:	90 e0       	ldi	r25, 0x00	; 0
    70aa:	fc 01       	movw	r30, r24
    70ac:	ee 0f       	add	r30, r30
    70ae:	ff 1f       	adc	r31, r31
    70b0:	e8 0f       	add	r30, r24
    70b2:	f9 1f       	adc	r31, r25
    70b4:	cf 01       	movw	r24, r30
    70b6:	88 0f       	add	r24, r24
    70b8:	99 1f       	adc	r25, r25
    70ba:	88 0f       	add	r24, r24
    70bc:	99 1f       	adc	r25, r25
    70be:	e8 0f       	add	r30, r24
    70c0:	f9 1f       	adc	r31, r25
    70c2:	e4 0d       	add	r30, r4
    70c4:	f5 1d       	adc	r31, r5
    70c6:	82 81       	ldd	r24, Z+2	; 0x02
    70c8:	93 81       	ldd	r25, Z+3	; 0x03
    70ca:	15 96       	adiw	r26, 0x05	; 5
    70cc:	9c 93       	st	X, r25
    70ce:	8e 93       	st	-X, r24
    70d0:	14 97       	sbiw	r26, 0x04	; 4
    70d2:	30 e0       	ldi	r19, 0x00	; 0
    70d4:	f9 01       	movw	r30, r18
    70d6:	ee 0f       	add	r30, r30
    70d8:	ff 1f       	adc	r31, r31
    70da:	e2 0f       	add	r30, r18
    70dc:	f3 1f       	adc	r31, r19
    70de:	cf 01       	movw	r24, r30
    70e0:	88 0f       	add	r24, r24
    70e2:	99 1f       	adc	r25, r25
    70e4:	88 0f       	add	r24, r24
    70e6:	99 1f       	adc	r25, r25
    70e8:	e8 0f       	add	r30, r24
    70ea:	f9 1f       	adc	r31, r25
    70ec:	e4 0d       	add	r30, r4
    70ee:	f5 1d       	adc	r31, r5
    70f0:	81 85       	ldd	r24, Z+9	; 0x09
    70f2:	92 85       	ldd	r25, Z+10	; 0x0a
    70f4:	17 96       	adiw	r26, 0x07	; 7
    70f6:	9c 93       	st	X, r25
    70f8:	8e 93       	st	-X, r24
    70fa:	16 97       	sbiw	r26, 0x06	; 6
    70fc:	19 96       	adiw	r26, 0x09	; 9
    70fe:	fc 92       	st	X, r15
    7100:	ee 92       	st	-X, r14
    7102:	18 97       	sbiw	r26, 0x08	; 8
    7104:	0e 94 c5 08 	call	0x118a	; 0x118a <sprintf>
    7108:	4d b7       	in	r20, 0x3d	; 61
    710a:	5e b7       	in	r21, 0x3e	; 62
    710c:	46 5f       	subi	r20, 0xF6	; 246
    710e:	5f 4f       	sbci	r21, 0xFF	; 255
    7110:	0f b6       	in	r0, 0x3f	; 63
    7112:	f8 94       	cli
    7114:	5e bf       	out	0x3e, r21	; 62
    7116:	0f be       	out	0x3f, r0	; 63
    7118:	4d bf       	out	0x3d, r20	; 61
    711a:	d1 01       	movw	r26, r2
    711c:	0d 90       	ld	r0, X+
    711e:	00 20       	and	r0, r0
    7120:	e9 f7       	brne	.-6      	; 0x711c <vTaskGetRunTimeStats+0x5dc>
    7122:	11 97       	sbiw	r26, 0x01	; 1
    7124:	a2 19       	sub	r26, r2
    7126:	b3 09       	sbc	r27, r3
    7128:	8a 81       	ldd	r24, Y+2	; 0x02
    712a:	8f 5f       	subi	r24, 0xFF	; 255
    712c:	8a 83       	std	Y+2, r24	; 0x02
    712e:	9a 81       	ldd	r25, Y+2	; 0x02
    7130:	89 81       	ldd	r24, Y+1	; 0x01
    7132:	98 17       	cp	r25, r24
    7134:	08 f0       	brcs	.+2      	; 0x7138 <vTaskGetRunTimeStats+0x5f8>
    7136:	c6 cd       	rjmp	.-1140   	; 0x6cc4 <vTaskGetRunTimeStats+0x184>
    7138:	2a 0e       	add	r2, r26
    713a:	3b 1e       	adc	r3, r27
    713c:	8a 81       	ldd	r24, Y+2	; 0x02
    713e:	90 e0       	ldi	r25, 0x00	; 0
    7140:	fc 01       	movw	r30, r24
    7142:	ee 0f       	add	r30, r30
    7144:	ff 1f       	adc	r31, r31
    7146:	e8 0f       	add	r30, r24
    7148:	f9 1f       	adc	r31, r25
    714a:	cf 01       	movw	r24, r30
    714c:	88 0f       	add	r24, r24
    714e:	99 1f       	adc	r25, r25
    7150:	88 0f       	add	r24, r24
    7152:	99 1f       	adc	r25, r25
    7154:	e8 0f       	add	r30, r24
    7156:	f9 1f       	adc	r31, r25
    7158:	e4 0d       	add	r30, r4
    715a:	f5 1d       	adc	r31, r5
    715c:	61 85       	ldd	r22, Z+9	; 0x09
    715e:	72 85       	ldd	r23, Z+10	; 0x0a
    7160:	83 85       	ldd	r24, Z+11	; 0x0b
    7162:	94 85       	ldd	r25, Z+12	; 0x0c
    7164:	a6 01       	movw	r20, r12
    7166:	95 01       	movw	r18, r10
    7168:	0e 94 6a 53 	call	0xa6d4	; 0xa6d4 <__udivmodsi4>
    716c:	79 01       	movw	r14, r18
    716e:	8a 01       	movw	r16, r20
    7170:	e1 14       	cp	r14, r1
    7172:	f1 04       	cpc	r15, r1
    7174:	01 05       	cpc	r16, r1
    7176:	11 05       	cpc	r17, r1
    7178:	09 f0       	breq	.+2      	; 0x717c <vTaskGetRunTimeStats+0x63c>
    717a:	80 cf       	rjmp	.-256    	; 0x707c <vTaskGetRunTimeStats+0x53c>
    717c:	8a 81       	ldd	r24, Y+2	; 0x02
    717e:	2a 81       	ldd	r18, Y+2	; 0x02
    7180:	ad b7       	in	r26, 0x3d	; 61
    7182:	be b7       	in	r27, 0x3e	; 62
    7184:	18 97       	sbiw	r26, 0x08	; 8
    7186:	0f b6       	in	r0, 0x3f	; 63
    7188:	f8 94       	cli
    718a:	be bf       	out	0x3e, r27	; 62
    718c:	0f be       	out	0x3f, r0	; 63
    718e:	ad bf       	out	0x3d, r26	; 61
    7190:	11 96       	adiw	r26, 0x01	; 1
    7192:	ed b7       	in	r30, 0x3d	; 61
    7194:	fe b7       	in	r31, 0x3e	; 62
    7196:	32 82       	std	Z+2, r3	; 0x02
    7198:	21 82       	std	Z+1, r2	; 0x01
    719a:	13 96       	adiw	r26, 0x03	; 3
    719c:	7c 92       	st	X, r7
    719e:	6e 92       	st	-X, r6
    71a0:	12 97       	sbiw	r26, 0x02	; 2
    71a2:	90 e0       	ldi	r25, 0x00	; 0
    71a4:	fc 01       	movw	r30, r24
    71a6:	ee 0f       	add	r30, r30
    71a8:	ff 1f       	adc	r31, r31
    71aa:	e8 0f       	add	r30, r24
    71ac:	f9 1f       	adc	r31, r25
    71ae:	cf 01       	movw	r24, r30
    71b0:	88 0f       	add	r24, r24
    71b2:	99 1f       	adc	r25, r25
    71b4:	88 0f       	add	r24, r24
    71b6:	99 1f       	adc	r25, r25
    71b8:	e8 0f       	add	r30, r24
    71ba:	f9 1f       	adc	r31, r25
    71bc:	e4 0d       	add	r30, r4
    71be:	f5 1d       	adc	r31, r5
    71c0:	82 81       	ldd	r24, Z+2	; 0x02
    71c2:	93 81       	ldd	r25, Z+3	; 0x03
    71c4:	15 96       	adiw	r26, 0x05	; 5
    71c6:	9c 93       	st	X, r25
    71c8:	8e 93       	st	-X, r24
    71ca:	14 97       	sbiw	r26, 0x04	; 4
    71cc:	30 e0       	ldi	r19, 0x00	; 0
    71ce:	f9 01       	movw	r30, r18
    71d0:	ee 0f       	add	r30, r30
    71d2:	ff 1f       	adc	r31, r31
    71d4:	e2 0f       	add	r30, r18
    71d6:	f3 1f       	adc	r31, r19
    71d8:	cf 01       	movw	r24, r30
    71da:	88 0f       	add	r24, r24
    71dc:	99 1f       	adc	r25, r25
    71de:	88 0f       	add	r24, r24
    71e0:	99 1f       	adc	r25, r25
    71e2:	e8 0f       	add	r30, r24
    71e4:	f9 1f       	adc	r31, r25
    71e6:	e4 0d       	add	r30, r4
    71e8:	f5 1d       	adc	r31, r5
    71ea:	81 85       	ldd	r24, Z+9	; 0x09
    71ec:	92 85       	ldd	r25, Z+10	; 0x0a
    71ee:	17 96       	adiw	r26, 0x07	; 7
    71f0:	9c 93       	st	X, r25
    71f2:	8e 93       	st	-X, r24
    71f4:	16 97       	sbiw	r26, 0x06	; 6
    71f6:	0e 94 c5 08 	call	0x118a	; 0x118a <sprintf>
    71fa:	4d b7       	in	r20, 0x3d	; 61
    71fc:	5e b7       	in	r21, 0x3e	; 62
    71fe:	48 5f       	subi	r20, 0xF8	; 248
    7200:	5f 4f       	sbci	r21, 0xFF	; 255
    7202:	0f b6       	in	r0, 0x3f	; 63
    7204:	f8 94       	cli
    7206:	5e bf       	out	0x3e, r21	; 62
    7208:	0f be       	out	0x3f, r0	; 63
    720a:	4d bf       	out	0x3d, r20	; 61
    720c:	86 cf       	rjmp	.-244    	; 0x711a <vTaskGetRunTimeStats+0x5da>
    720e:	80 e0       	ldi	r24, 0x00	; 0
    7210:	90 e0       	ldi	r25, 0x00	; 0
    7212:	38 cd       	rjmp	.-1424   	; 0x6c84 <vTaskGetRunTimeStats+0x144>
    7214:	dd 24       	eor	r13, r13
    7216:	cc 80       	ldd	r12, Y+4	; 0x04
    7218:	cd 0c       	add	r12, r13
    721a:	8f e0       	ldi	r24, 0x0F	; 15
    721c:	c8 9e       	mul	r12, r24
    721e:	50 01       	movw	r10, r0
    7220:	11 24       	eor	r1, r1
    7222:	a4 0c       	add	r10, r4
    7224:	b5 1c       	adc	r11, r5
    7226:	e0 90 b9 1c 	lds	r14, 0x1CB9
    722a:	f0 90 ba 1c 	lds	r15, 0x1CBA
    722e:	f7 01       	movw	r30, r14
    7230:	80 81       	ld	r24, Z
    7232:	88 23       	and	r24, r24
    7234:	09 f4       	brne	.+2      	; 0x7238 <vTaskGetRunTimeStats+0x6f8>
    7236:	86 c0       	rjmp	.+268    	; 0x7344 <vTaskGetRunTimeStats+0x804>
    7238:	01 80       	ldd	r0, Z+1	; 0x01
    723a:	f2 81       	ldd	r31, Z+2	; 0x02
    723c:	e0 2d       	mov	r30, r0
    723e:	02 80       	ldd	r0, Z+2	; 0x02
    7240:	f3 81       	ldd	r31, Z+3	; 0x03
    7242:	e0 2d       	mov	r30, r0
    7244:	d7 01       	movw	r26, r14
    7246:	12 96       	adiw	r26, 0x02	; 2
    7248:	fc 93       	st	X, r31
    724a:	ee 93       	st	-X, r30
    724c:	11 97       	sbiw	r26, 0x01	; 1
    724e:	73 e0       	ldi	r23, 0x03	; 3
    7250:	87 2e       	mov	r8, r23
    7252:	91 2c       	mov	r9, r1
    7254:	8e 0c       	add	r8, r14
    7256:	9f 1c       	adc	r9, r15
    7258:	e8 15       	cp	r30, r8
    725a:	f9 05       	cpc	r31, r9
    725c:	09 f4       	brne	.+2      	; 0x7260 <vTaskGetRunTimeStats+0x720>
    725e:	06 c2       	rjmp	.+1036   	; 0x766c <vTaskGetRunTimeStats+0xb2c>
    7260:	66 80       	ldd	r6, Z+6	; 0x06
    7262:	77 80       	ldd	r7, Z+7	; 0x07
    7264:	dd 24       	eor	r13, r13
    7266:	82 81       	ldd	r24, Z+2	; 0x02
    7268:	93 81       	ldd	r25, Z+3	; 0x03
    726a:	f7 01       	movw	r30, r14
    726c:	92 83       	std	Z+2, r25	; 0x02
    726e:	81 83       	std	Z+1, r24	; 0x01
    7270:	88 16       	cp	r8, r24
    7272:	99 06       	cpc	r9, r25
    7274:	09 f4       	brne	.+2      	; 0x7278 <vTaskGetRunTimeStats+0x738>
    7276:	5e c0       	rjmp	.+188    	; 0x7334 <vTaskGetRunTimeStats+0x7f4>
    7278:	d7 01       	movw	r26, r14
    727a:	11 96       	adiw	r26, 0x01	; 1
    727c:	ed 91       	ld	r30, X+
    727e:	fc 91       	ld	r31, X
    7280:	12 97       	sbiw	r26, 0x02	; 2
    7282:	66 81       	ldd	r22, Z+6	; 0x06
    7284:	77 81       	ldd	r23, Z+7	; 0x07
    7286:	bf e0       	ldi	r27, 0x0F	; 15
    7288:	db 9e       	mul	r13, r27
    728a:	80 01       	movw	r16, r0
    728c:	11 24       	eor	r1, r1
    728e:	0a 0d       	add	r16, r10
    7290:	1b 1d       	adc	r17, r11
    7292:	f8 01       	movw	r30, r16
    7294:	71 83       	std	Z+1, r23	; 0x01
    7296:	60 83       	st	Z, r22
    7298:	67 5e       	subi	r22, 0xE7	; 231
    729a:	7f 4f       	sbci	r23, 0xFF	; 255
    729c:	73 83       	std	Z+3, r23	; 0x03
    729e:	62 83       	std	Z+2, r22	; 0x02
    72a0:	69 51       	subi	r22, 0x19	; 25
    72a2:	70 40       	sbci	r23, 0x00	; 0
    72a4:	db 01       	movw	r26, r22
    72a6:	91 96       	adiw	r26, 0x21	; 33
    72a8:	8c 91       	ld	r24, X
    72aa:	91 97       	sbiw	r26, 0x21	; 33
    72ac:	84 83       	std	Z+4, r24	; 0x04
    72ae:	42 e0       	ldi	r20, 0x02	; 2
    72b0:	50 e0       	ldi	r21, 0x00	; 0
    72b2:	56 83       	std	Z+6, r21	; 0x06
    72b4:	45 83       	std	Z+5, r20	; 0x05
    72b6:	56 96       	adiw	r26, 0x16	; 22
    72b8:	8c 91       	ld	r24, X
    72ba:	56 97       	sbiw	r26, 0x16	; 22
    72bc:	87 83       	std	Z+7, r24	; 0x07
    72be:	93 96       	adiw	r26, 0x23	; 35
    72c0:	8c 91       	ld	r24, X
    72c2:	93 97       	sbiw	r26, 0x23	; 35
    72c4:	80 87       	std	Z+8, r24	; 0x08
    72c6:	94 96       	adiw	r26, 0x24	; 36
    72c8:	8d 91       	ld	r24, X+
    72ca:	9d 91       	ld	r25, X+
    72cc:	0d 90       	ld	r0, X+
    72ce:	bc 91       	ld	r27, X
    72d0:	a0 2d       	mov	r26, r0
    72d2:	81 87       	std	Z+9, r24	; 0x09
    72d4:	92 87       	std	Z+10, r25	; 0x0a
    72d6:	a3 87       	std	Z+11, r26	; 0x0b
    72d8:	b4 87       	std	Z+12, r27	; 0x0c
    72da:	fb 01       	movw	r30, r22
    72dc:	a7 89       	ldd	r26, Z+23	; 0x17
    72de:	b0 8d       	ldd	r27, Z+24	; 0x18
    72e0:	8c 91       	ld	r24, X
    72e2:	85 3a       	cpi	r24, 0xA5	; 165
    72e4:	09 f0       	breq	.+2      	; 0x72e8 <vTaskGetRunTimeStats+0x7a8>
    72e6:	99 c1       	rjmp	.+818    	; 0x761a <vTaskGetRunTimeStats+0xada>
    72e8:	20 e0       	ldi	r18, 0x00	; 0
    72ea:	30 e0       	ldi	r19, 0x00	; 0
    72ec:	40 e0       	ldi	r20, 0x00	; 0
    72ee:	50 e0       	ldi	r21, 0x00	; 0
    72f0:	2f 5f       	subi	r18, 0xFF	; 255
    72f2:	3f 4f       	sbci	r19, 0xFF	; 255
    72f4:	4f 4f       	sbci	r20, 0xFF	; 255
    72f6:	5f 4f       	sbci	r21, 0xFF	; 255
    72f8:	fd 01       	movw	r30, r26
    72fa:	e2 0f       	add	r30, r18
    72fc:	f3 1f       	adc	r31, r19
    72fe:	80 81       	ld	r24, Z
    7300:	85 3a       	cpi	r24, 0xA5	; 165
    7302:	b1 f3       	breq	.-20     	; 0x72f0 <vTaskGetRunTimeStats+0x7b0>
    7304:	c9 01       	movw	r24, r18
    7306:	d8 01       	movw	r26, r16
    7308:	1e 96       	adiw	r26, 0x0e	; 14
    730a:	9c 93       	st	X, r25
    730c:	8e 93       	st	-X, r24
    730e:	1d 97       	sbiw	r26, 0x0d	; 13
    7310:	d3 94       	inc	r13
    7312:	66 16       	cp	r6, r22
    7314:	77 06       	cpc	r7, r23
    7316:	b9 f0       	breq	.+46     	; 0x7346 <vTaskGetRunTimeStats+0x806>
    7318:	d7 01       	movw	r26, r14
    731a:	11 96       	adiw	r26, 0x01	; 1
    731c:	ed 91       	ld	r30, X+
    731e:	fc 91       	ld	r31, X
    7320:	12 97       	sbiw	r26, 0x02	; 2
    7322:	82 81       	ldd	r24, Z+2	; 0x02
    7324:	93 81       	ldd	r25, Z+3	; 0x03
    7326:	f7 01       	movw	r30, r14
    7328:	92 83       	std	Z+2, r25	; 0x02
    732a:	81 83       	std	Z+1, r24	; 0x01
    732c:	88 16       	cp	r8, r24
    732e:	99 06       	cpc	r9, r25
    7330:	09 f0       	breq	.+2      	; 0x7334 <vTaskGetRunTimeStats+0x7f4>
    7332:	a2 cf       	rjmp	.-188    	; 0x7278 <vTaskGetRunTimeStats+0x738>
    7334:	d4 01       	movw	r26, r8
    7336:	12 96       	adiw	r26, 0x02	; 2
    7338:	8d 91       	ld	r24, X+
    733a:	9c 91       	ld	r25, X
    733c:	13 97       	sbiw	r26, 0x03	; 3
    733e:	92 83       	std	Z+2, r25	; 0x02
    7340:	81 83       	std	Z+1, r24	; 0x01
    7342:	9a cf       	rjmp	.-204    	; 0x7278 <vTaskGetRunTimeStats+0x738>
    7344:	dd 24       	eor	r13, r13
    7346:	ed 2c       	mov	r14, r13
    7348:	ec 0c       	add	r14, r12
    734a:	8f e0       	ldi	r24, 0x0F	; 15
    734c:	e8 9e       	mul	r14, r24
    734e:	60 01       	movw	r12, r0
    7350:	11 24       	eor	r1, r1
    7352:	c4 0c       	add	r12, r4
    7354:	d5 1c       	adc	r13, r5
    7356:	80 91 c4 1c 	lds	r24, 0x1CC4
    735a:	88 23       	and	r24, r24
    735c:	09 f4       	brne	.+2      	; 0x7360 <vTaskGetRunTimeStats+0x820>
    735e:	7c c0       	rjmp	.+248    	; 0x7458 <vTaskGetRunTimeStats+0x918>
    7360:	e0 91 c5 1c 	lds	r30, 0x1CC5
    7364:	f0 91 c6 1c 	lds	r31, 0x1CC6
    7368:	02 80       	ldd	r0, Z+2	; 0x02
    736a:	f3 81       	ldd	r31, Z+3	; 0x03
    736c:	e0 2d       	mov	r30, r0
    736e:	f0 93 c6 1c 	sts	0x1CC6, r31
    7372:	e0 93 c5 1c 	sts	0x1CC5, r30
    7376:	bc e1       	ldi	r27, 0x1C	; 28
    7378:	e7 3c       	cpi	r30, 0xC7	; 199
    737a:	fb 07       	cpc	r31, r27
    737c:	09 f4       	brne	.+2      	; 0x7380 <vTaskGetRunTimeStats+0x840>
    737e:	80 c1       	rjmp	.+768    	; 0x7680 <vTaskGetRunTimeStats+0xb40>
    7380:	e0 91 c5 1c 	lds	r30, 0x1CC5
    7384:	f0 91 c6 1c 	lds	r31, 0x1CC6
    7388:	a6 80       	ldd	r10, Z+6	; 0x06
    738a:	b7 80       	ldd	r11, Z+7	; 0x07
    738c:	ff 24       	eor	r15, r15
    738e:	6f e0       	ldi	r22, 0x0F	; 15
    7390:	76 2e       	mov	r7, r22
    7392:	54 e0       	ldi	r21, 0x04	; 4
    7394:	85 2e       	mov	r8, r21
    7396:	91 2c       	mov	r9, r1
    7398:	02 80       	ldd	r0, Z+2	; 0x02
    739a:	f3 81       	ldd	r31, Z+3	; 0x03
    739c:	e0 2d       	mov	r30, r0
    739e:	f0 93 c6 1c 	sts	0x1CC6, r31
    73a2:	e0 93 c5 1c 	sts	0x1CC5, r30
    73a6:	4c e1       	ldi	r20, 0x1C	; 28
    73a8:	e7 3c       	cpi	r30, 0xC7	; 199
    73aa:	f4 07       	cpc	r31, r20
    73ac:	09 f4       	brne	.+2      	; 0x73b0 <vTaskGetRunTimeStats+0x870>
    73ae:	fd c0       	rjmp	.+506    	; 0x75aa <vTaskGetRunTimeStats+0xa6a>
    73b0:	e0 91 c5 1c 	lds	r30, 0x1CC5
    73b4:	f0 91 c6 1c 	lds	r31, 0x1CC6
    73b8:	66 81       	ldd	r22, Z+6	; 0x06
    73ba:	77 81       	ldd	r23, Z+7	; 0x07
    73bc:	f7 9c       	mul	r15, r7
    73be:	80 01       	movw	r16, r0
    73c0:	11 24       	eor	r1, r1
    73c2:	0c 0d       	add	r16, r12
    73c4:	1d 1d       	adc	r17, r13
    73c6:	d8 01       	movw	r26, r16
    73c8:	11 96       	adiw	r26, 0x01	; 1
    73ca:	7c 93       	st	X, r23
    73cc:	6e 93       	st	-X, r22
    73ce:	67 5e       	subi	r22, 0xE7	; 231
    73d0:	7f 4f       	sbci	r23, 0xFF	; 255
    73d2:	13 96       	adiw	r26, 0x03	; 3
    73d4:	7c 93       	st	X, r23
    73d6:	6e 93       	st	-X, r22
    73d8:	12 97       	sbiw	r26, 0x02	; 2
    73da:	69 51       	subi	r22, 0x19	; 25
    73dc:	70 40       	sbci	r23, 0x00	; 0
    73de:	fb 01       	movw	r30, r22
    73e0:	81 a1       	ldd	r24, Z+33	; 0x21
    73e2:	14 96       	adiw	r26, 0x04	; 4
    73e4:	8c 93       	st	X, r24
    73e6:	14 97       	sbiw	r26, 0x04	; 4
    73e8:	16 96       	adiw	r26, 0x06	; 6
    73ea:	9c 92       	st	X, r9
    73ec:	8e 92       	st	-X, r8
    73ee:	15 97       	sbiw	r26, 0x05	; 5
    73f0:	86 89       	ldd	r24, Z+22	; 0x16
    73f2:	17 96       	adiw	r26, 0x07	; 7
    73f4:	8c 93       	st	X, r24
    73f6:	17 97       	sbiw	r26, 0x07	; 7
    73f8:	83 a1       	ldd	r24, Z+35	; 0x23
    73fa:	18 96       	adiw	r26, 0x08	; 8
    73fc:	8c 93       	st	X, r24
    73fe:	84 a1       	ldd	r24, Z+36	; 0x24
    7400:	95 a1       	ldd	r25, Z+37	; 0x25
    7402:	a6 a1       	ldd	r26, Z+38	; 0x26
    7404:	b7 a1       	ldd	r27, Z+39	; 0x27
    7406:	f8 01       	movw	r30, r16
    7408:	81 87       	std	Z+9, r24	; 0x09
    740a:	92 87       	std	Z+10, r25	; 0x0a
    740c:	a3 87       	std	Z+11, r26	; 0x0b
    740e:	b4 87       	std	Z+12, r27	; 0x0c
    7410:	fb 01       	movw	r30, r22
    7412:	a7 89       	ldd	r26, Z+23	; 0x17
    7414:	b0 8d       	ldd	r27, Z+24	; 0x18
    7416:	8c 91       	ld	r24, X
    7418:	85 3a       	cpi	r24, 0xA5	; 165
    741a:	09 f0       	breq	.+2      	; 0x741e <vTaskGetRunTimeStats+0x8de>
    741c:	fb c0       	rjmp	.+502    	; 0x7614 <vTaskGetRunTimeStats+0xad4>
    741e:	20 e0       	ldi	r18, 0x00	; 0
    7420:	30 e0       	ldi	r19, 0x00	; 0
    7422:	40 e0       	ldi	r20, 0x00	; 0
    7424:	50 e0       	ldi	r21, 0x00	; 0
    7426:	2f 5f       	subi	r18, 0xFF	; 255
    7428:	3f 4f       	sbci	r19, 0xFF	; 255
    742a:	4f 4f       	sbci	r20, 0xFF	; 255
    742c:	5f 4f       	sbci	r21, 0xFF	; 255
    742e:	fd 01       	movw	r30, r26
    7430:	e2 0f       	add	r30, r18
    7432:	f3 1f       	adc	r31, r19
    7434:	80 81       	ld	r24, Z
    7436:	85 3a       	cpi	r24, 0xA5	; 165
    7438:	b1 f3       	breq	.-20     	; 0x7426 <vTaskGetRunTimeStats+0x8e6>
    743a:	c9 01       	movw	r24, r18
    743c:	d8 01       	movw	r26, r16
    743e:	1e 96       	adiw	r26, 0x0e	; 14
    7440:	9c 93       	st	X, r25
    7442:	8e 93       	st	-X, r24
    7444:	1d 97       	sbiw	r26, 0x0d	; 13
    7446:	f3 94       	inc	r15
    7448:	a6 16       	cp	r10, r22
    744a:	b7 06       	cpc	r11, r23
    744c:	31 f0       	breq	.+12     	; 0x745a <vTaskGetRunTimeStats+0x91a>
    744e:	e0 91 c5 1c 	lds	r30, 0x1CC5
    7452:	f0 91 c6 1c 	lds	r31, 0x1CC6
    7456:	a0 cf       	rjmp	.-192    	; 0x7398 <vTaskGetRunTimeStats+0x858>
    7458:	ff 24       	eor	r15, r15
    745a:	ef 0c       	add	r14, r15
    745c:	8f e0       	ldi	r24, 0x0F	; 15
    745e:	e8 9e       	mul	r14, r24
    7460:	60 01       	movw	r12, r0
    7462:	11 24       	eor	r1, r1
    7464:	c4 0c       	add	r12, r4
    7466:	d5 1c       	adc	r13, r5
    7468:	80 91 cd 1c 	lds	r24, 0x1CCD
    746c:	88 23       	and	r24, r24
    746e:	09 f4       	brne	.+2      	; 0x7472 <vTaskGetRunTimeStats+0x932>
    7470:	8a c0       	rjmp	.+276    	; 0x7586 <vTaskGetRunTimeStats+0xa46>
    7472:	e0 91 ce 1c 	lds	r30, 0x1CCE
    7476:	f0 91 cf 1c 	lds	r31, 0x1CCF
    747a:	02 80       	ldd	r0, Z+2	; 0x02
    747c:	f3 81       	ldd	r31, Z+3	; 0x03
    747e:	e0 2d       	mov	r30, r0
    7480:	f0 93 cf 1c 	sts	0x1CCF, r31
    7484:	e0 93 ce 1c 	sts	0x1CCE, r30
    7488:	bc e1       	ldi	r27, 0x1C	; 28
    748a:	e0 3d       	cpi	r30, 0xD0	; 208
    748c:	fb 07       	cpc	r31, r27
    748e:	09 f4       	brne	.+2      	; 0x7492 <vTaskGetRunTimeStats+0x952>
    7490:	dc c0       	rjmp	.+440    	; 0x764a <vTaskGetRunTimeStats+0xb0a>
    7492:	e0 91 ce 1c 	lds	r30, 0x1CCE
    7496:	f0 91 cf 1c 	lds	r31, 0x1CCF
    749a:	a6 80       	ldd	r10, Z+6	; 0x06
    749c:	b7 80       	ldd	r11, Z+7	; 0x07
    749e:	ff 24       	eor	r15, r15
    74a0:	43 e0       	ldi	r20, 0x03	; 3
    74a2:	84 2e       	mov	r8, r20
    74a4:	91 2c       	mov	r9, r1
    74a6:	32 e0       	ldi	r19, 0x02	; 2
    74a8:	63 2e       	mov	r6, r19
    74aa:	71 2c       	mov	r7, r1
    74ac:	02 80       	ldd	r0, Z+2	; 0x02
    74ae:	f3 81       	ldd	r31, Z+3	; 0x03
    74b0:	e0 2d       	mov	r30, r0
    74b2:	f0 93 cf 1c 	sts	0x1CCF, r31
    74b6:	e0 93 ce 1c 	sts	0x1CCE, r30
    74ba:	4c e1       	ldi	r20, 0x1C	; 28
    74bc:	e0 3d       	cpi	r30, 0xD0	; 208
    74be:	f4 07       	cpc	r31, r20
    74c0:	09 f4       	brne	.+2      	; 0x74c4 <vTaskGetRunTimeStats+0x984>
    74c2:	6c c0       	rjmp	.+216    	; 0x759c <vTaskGetRunTimeStats+0xa5c>
    74c4:	e0 91 ce 1c 	lds	r30, 0x1CCE
    74c8:	f0 91 cf 1c 	lds	r31, 0x1CCF
    74cc:	66 81       	ldd	r22, Z+6	; 0x06
    74ce:	77 81       	ldd	r23, Z+7	; 0x07
    74d0:	5f e0       	ldi	r21, 0x0F	; 15
    74d2:	f5 9e       	mul	r15, r21
    74d4:	80 01       	movw	r16, r0
    74d6:	11 24       	eor	r1, r1
    74d8:	0c 0d       	add	r16, r12
    74da:	1d 1d       	adc	r17, r13
    74dc:	d8 01       	movw	r26, r16
    74de:	11 96       	adiw	r26, 0x01	; 1
    74e0:	7c 93       	st	X, r23
    74e2:	6e 93       	st	-X, r22
    74e4:	67 5e       	subi	r22, 0xE7	; 231
    74e6:	7f 4f       	sbci	r23, 0xFF	; 255
    74e8:	13 96       	adiw	r26, 0x03	; 3
    74ea:	7c 93       	st	X, r23
    74ec:	6e 93       	st	-X, r22
    74ee:	12 97       	sbiw	r26, 0x02	; 2
    74f0:	69 51       	subi	r22, 0x19	; 25
    74f2:	70 40       	sbci	r23, 0x00	; 0
    74f4:	fb 01       	movw	r30, r22
    74f6:	81 a1       	ldd	r24, Z+33	; 0x21
    74f8:	14 96       	adiw	r26, 0x04	; 4
    74fa:	8c 93       	st	X, r24
    74fc:	14 97       	sbiw	r26, 0x04	; 4
    74fe:	16 96       	adiw	r26, 0x06	; 6
    7500:	9c 92       	st	X, r9
    7502:	8e 92       	st	-X, r8
    7504:	15 97       	sbiw	r26, 0x05	; 5
    7506:	86 89       	ldd	r24, Z+22	; 0x16
    7508:	17 96       	adiw	r26, 0x07	; 7
    750a:	8c 93       	st	X, r24
    750c:	17 97       	sbiw	r26, 0x07	; 7
    750e:	84 89       	ldd	r24, Z+20	; 0x14
    7510:	95 89       	ldd	r25, Z+21	; 0x15
    7512:	89 2b       	or	r24, r25
    7514:	21 f0       	breq	.+8      	; 0x751e <vTaskGetRunTimeStats+0x9de>
    7516:	16 96       	adiw	r26, 0x06	; 6
    7518:	7c 92       	st	X, r7
    751a:	6e 92       	st	-X, r6
    751c:	15 97       	sbiw	r26, 0x05	; 5
    751e:	db 01       	movw	r26, r22
    7520:	93 96       	adiw	r26, 0x23	; 35
    7522:	8c 91       	ld	r24, X
    7524:	93 97       	sbiw	r26, 0x23	; 35
    7526:	f8 01       	movw	r30, r16
    7528:	80 87       	std	Z+8, r24	; 0x08
    752a:	94 96       	adiw	r26, 0x24	; 36
    752c:	8d 91       	ld	r24, X+
    752e:	9d 91       	ld	r25, X+
    7530:	0d 90       	ld	r0, X+
    7532:	bc 91       	ld	r27, X
    7534:	a0 2d       	mov	r26, r0
    7536:	81 87       	std	Z+9, r24	; 0x09
    7538:	92 87       	std	Z+10, r25	; 0x0a
    753a:	a3 87       	std	Z+11, r26	; 0x0b
    753c:	b4 87       	std	Z+12, r27	; 0x0c
    753e:	fb 01       	movw	r30, r22
    7540:	a7 89       	ldd	r26, Z+23	; 0x17
    7542:	b0 8d       	ldd	r27, Z+24	; 0x18
    7544:	8c 91       	ld	r24, X
    7546:	85 3a       	cpi	r24, 0xA5	; 165
    7548:	09 f0       	breq	.+2      	; 0x754c <vTaskGetRunTimeStats+0xa0c>
    754a:	72 c0       	rjmp	.+228    	; 0x7630 <vTaskGetRunTimeStats+0xaf0>
    754c:	20 e0       	ldi	r18, 0x00	; 0
    754e:	30 e0       	ldi	r19, 0x00	; 0
    7550:	40 e0       	ldi	r20, 0x00	; 0
    7552:	50 e0       	ldi	r21, 0x00	; 0
    7554:	2f 5f       	subi	r18, 0xFF	; 255
    7556:	3f 4f       	sbci	r19, 0xFF	; 255
    7558:	4f 4f       	sbci	r20, 0xFF	; 255
    755a:	5f 4f       	sbci	r21, 0xFF	; 255
    755c:	fd 01       	movw	r30, r26
    755e:	e2 0f       	add	r30, r18
    7560:	f3 1f       	adc	r31, r19
    7562:	80 81       	ld	r24, Z
    7564:	85 3a       	cpi	r24, 0xA5	; 165
    7566:	b1 f3       	breq	.-20     	; 0x7554 <vTaskGetRunTimeStats+0xa14>
    7568:	c9 01       	movw	r24, r18
    756a:	d8 01       	movw	r26, r16
    756c:	1e 96       	adiw	r26, 0x0e	; 14
    756e:	9c 93       	st	X, r25
    7570:	8e 93       	st	-X, r24
    7572:	1d 97       	sbiw	r26, 0x0d	; 13
    7574:	f3 94       	inc	r15
    7576:	a6 16       	cp	r10, r22
    7578:	b7 06       	cpc	r11, r23
    757a:	31 f0       	breq	.+12     	; 0x7588 <vTaskGetRunTimeStats+0xa48>
    757c:	e0 91 ce 1c 	lds	r30, 0x1CCE
    7580:	f0 91 cf 1c 	lds	r31, 0x1CCF
    7584:	93 cf       	rjmp	.-218    	; 0x74ac <vTaskGetRunTimeStats+0x96c>
    7586:	ff 24       	eor	r15, r15
    7588:	fe 0c       	add	r15, r14
    758a:	fb 82       	std	Y+3, r15	; 0x03
    758c:	80 91 84 00 	lds	r24, 0x0084
    7590:	90 91 85 00 	lds	r25, 0x0085
    7594:	3c 01       	movw	r6, r24
    7596:	88 24       	eor	r8, r8
    7598:	99 24       	eor	r9, r9
    759a:	9c cb       	rjmp	.-2248   	; 0x6cd4 <vTaskGetRunTimeStats+0x194>
    759c:	82 81       	ldd	r24, Z+2	; 0x02
    759e:	93 81       	ldd	r25, Z+3	; 0x03
    75a0:	90 93 cf 1c 	sts	0x1CCF, r25
    75a4:	80 93 ce 1c 	sts	0x1CCE, r24
    75a8:	8d cf       	rjmp	.-230    	; 0x74c4 <vTaskGetRunTimeStats+0x984>
    75aa:	82 81       	ldd	r24, Z+2	; 0x02
    75ac:	93 81       	ldd	r25, Z+3	; 0x03
    75ae:	90 93 c6 1c 	sts	0x1CC6, r25
    75b2:	80 93 c5 1c 	sts	0x1CC5, r24
    75b6:	fc ce       	rjmp	.-520    	; 0x73b0 <vTaskGetRunTimeStats+0x870>
    75b8:	b1 e0       	ldi	r27, 0x01	; 1
    75ba:	b0 93 70 1c 	sts	0x1C70, r27
    75be:	2b cd       	rjmp	.-1450   	; 0x7016 <vTaskGetRunTimeStats+0x4d6>
    75c0:	bb 24       	eor	r11, r11
    75c2:	e0 91 6c 1c 	lds	r30, 0x1C6C
    75c6:	f0 91 6d 1c 	lds	r31, 0x1C6D
    75ca:	86 89       	ldd	r24, Z+22	; 0x16
    75cc:	90 e0       	ldi	r25, 0x00	; 0
    75ce:	fc 01       	movw	r30, r24
    75d0:	ee 0f       	add	r30, r30
    75d2:	ff 1f       	adc	r31, r31
    75d4:	ee 0f       	add	r30, r30
    75d6:	ff 1f       	adc	r31, r31
    75d8:	ee 0f       	add	r30, r30
    75da:	ff 1f       	adc	r31, r31
    75dc:	e8 0f       	add	r30, r24
    75de:	f9 1f       	adc	r31, r25
    75e0:	ef 57       	subi	r30, 0x7F	; 127
    75e2:	f3 4e       	sbci	r31, 0xE3	; 227
    75e4:	80 81       	ld	r24, Z
    75e6:	82 30       	cpi	r24, 0x02	; 2
    75e8:	08 f4       	brcc	.+2      	; 0x75ec <vTaskGetRunTimeStats+0xaac>
    75ea:	0d cd       	rjmp	.-1510   	; 0x7006 <vTaskGetRunTimeStats+0x4c6>
    75ec:	bb 24       	eor	r11, r11
    75ee:	b3 94       	inc	r11
    75f0:	0a cd       	rjmp	.-1516   	; 0x7006 <vTaskGetRunTimeStats+0x4c6>
    75f2:	e0 91 b7 1c 	lds	r30, 0x1CB7
    75f6:	f0 91 b8 1c 	lds	r31, 0x1CB8
    75fa:	05 80       	ldd	r0, Z+5	; 0x05
    75fc:	f6 81       	ldd	r31, Z+6	; 0x06
    75fe:	e0 2d       	mov	r30, r0
    7600:	06 80       	ldd	r0, Z+6	; 0x06
    7602:	f7 81       	ldd	r31, Z+7	; 0x07
    7604:	e0 2d       	mov	r30, r0
    7606:	82 81       	ldd	r24, Z+2	; 0x02
    7608:	93 81       	ldd	r25, Z+3	; 0x03
    760a:	90 93 ad 09 	sts	0x09AD, r25
    760e:	80 93 ac 09 	sts	0x09AC, r24
    7612:	f1 cb       	rjmp	.-2078   	; 0x6df6 <vTaskGetRunTimeStats+0x2b6>
    7614:	80 e0       	ldi	r24, 0x00	; 0
    7616:	90 e0       	ldi	r25, 0x00	; 0
    7618:	11 cf       	rjmp	.-478    	; 0x743c <vTaskGetRunTimeStats+0x8fc>
    761a:	80 e0       	ldi	r24, 0x00	; 0
    761c:	90 e0       	ldi	r25, 0x00	; 0
    761e:	73 ce       	rjmp	.-794    	; 0x7306 <vTaskGetRunTimeStats+0x7c6>
    7620:	80 e0       	ldi	r24, 0x00	; 0
    7622:	90 e0       	ldi	r25, 0x00	; 0
    7624:	ca cc       	rjmp	.-1644   	; 0x6fba <vTaskGetRunTimeStats+0x47a>
    7626:	90 93 ad 09 	sts	0x09AD, r25
    762a:	80 93 ac 09 	sts	0x09AC, r24
    762e:	c9 cf       	rjmp	.-110    	; 0x75c2 <vTaskGetRunTimeStats+0xa82>
    7630:	80 e0       	ldi	r24, 0x00	; 0
    7632:	90 e0       	ldi	r25, 0x00	; 0
    7634:	9a cf       	rjmp	.-204    	; 0x756a <vTaskGetRunTimeStats+0xa2a>
    7636:	82 81       	ldd	r24, Z+2	; 0x02
    7638:	93 81       	ldd	r25, Z+3	; 0x03
    763a:	11 96       	adiw	r26, 0x01	; 1
    763c:	8c 93       	st	X, r24
    763e:	11 97       	sbiw	r26, 0x01	; 1
    7640:	12 96       	adiw	r26, 0x02	; 2
    7642:	9c 93       	st	X, r25
    7644:	9c 01       	movw	r18, r24
    7646:	f9 01       	movw	r30, r18
    7648:	ca ca       	rjmp	.-2668   	; 0x6bde <vTaskGetRunTimeStats+0x9e>
    764a:	82 81       	ldd	r24, Z+2	; 0x02
    764c:	93 81       	ldd	r25, Z+3	; 0x03
    764e:	90 93 cf 1c 	sts	0x1CCF, r25
    7652:	80 93 ce 1c 	sts	0x1CCE, r24
    7656:	1d cf       	rjmp	.-454    	; 0x7492 <vTaskGetRunTimeStats+0x952>
    7658:	82 81       	ldd	r24, Z+2	; 0x02
    765a:	93 81       	ldd	r25, Z+3	; 0x03
    765c:	11 96       	adiw	r26, 0x01	; 1
    765e:	8c 93       	st	X, r24
    7660:	11 97       	sbiw	r26, 0x01	; 1
    7662:	12 96       	adiw	r26, 0x02	; 2
    7664:	9c 93       	st	X, r25
    7666:	9c 01       	movw	r18, r24
    7668:	f9 01       	movw	r30, r18
    766a:	53 cc       	rjmp	.-1882   	; 0x6f12 <vTaskGetRunTimeStats+0x3d2>
    766c:	82 81       	ldd	r24, Z+2	; 0x02
    766e:	93 81       	ldd	r25, Z+3	; 0x03
    7670:	11 96       	adiw	r26, 0x01	; 1
    7672:	8c 93       	st	X, r24
    7674:	11 97       	sbiw	r26, 0x01	; 1
    7676:	12 96       	adiw	r26, 0x02	; 2
    7678:	9c 93       	st	X, r25
    767a:	9c 01       	movw	r18, r24
    767c:	f9 01       	movw	r30, r18
    767e:	f0 cd       	rjmp	.-1056   	; 0x7260 <vTaskGetRunTimeStats+0x720>
    7680:	82 81       	ldd	r24, Z+2	; 0x02
    7682:	93 81       	ldd	r25, Z+3	; 0x03
    7684:	90 93 c6 1c 	sts	0x1CC6, r25
    7688:	80 93 c5 1c 	sts	0x1CC5, r24
    768c:	79 ce       	rjmp	.-782    	; 0x7380 <vTaskGetRunTimeStats+0x840>

0000768e <vTaskList>:
    768e:	a3 e0       	ldi	r26, 0x03	; 3
    7690:	b0 e0       	ldi	r27, 0x00	; 0
    7692:	ed e4       	ldi	r30, 0x4D	; 77
    7694:	fb e3       	ldi	r31, 0x3B	; 59
    7696:	0c 94 8c 53 	jmp	0xa718	; 0xa718 <__prologue_saves__>
    769a:	1c 01       	movw	r2, r24
    769c:	dc 01       	movw	r26, r24
    769e:	1c 92       	st	X, r1
    76a0:	80 91 6e 1c 	lds	r24, 0x1C6E
    76a4:	89 83       	std	Y+1, r24	; 0x01
    76a6:	90 91 6e 1c 	lds	r25, 0x1C6E
    76aa:	8f e0       	ldi	r24, 0x0F	; 15
    76ac:	98 9f       	mul	r25, r24
    76ae:	c0 01       	movw	r24, r0
    76b0:	11 24       	eor	r1, r1
    76b2:	0e 94 48 28 	call	0x5090	; 0x5090 <pvPortMalloc>
    76b6:	5c 01       	movw	r10, r24
    76b8:	00 97       	sbiw	r24, 0x00	; 0
    76ba:	09 f4       	brne	.+2      	; 0x76be <vTaskList+0x30>
    76bc:	ad c0       	rjmp	.+346    	; 0x7818 <vTaskList+0x18a>
    76be:	89 81       	ldd	r24, Y+1	; 0x01
    76c0:	90 91 74 1c 	lds	r25, 0x1C74
    76c4:	9f 5f       	subi	r25, 0xFF	; 255
    76c6:	90 93 74 1c 	sts	0x1C74, r25
    76ca:	90 91 6e 1c 	lds	r25, 0x1C6E
    76ce:	89 17       	cp	r24, r25
    76d0:	08 f4       	brcc	.+2      	; 0x76d4 <vTaskList+0x46>
    76d2:	a6 c0       	rjmp	.+332    	; 0x7820 <vTaskList+0x192>
    76d4:	64 e0       	ldi	r22, 0x04	; 4
    76d6:	c6 2e       	mov	r12, r22
    76d8:	1b 82       	std	Y+3, r1	; 0x03
    76da:	ca 94       	dec	r12
    76dc:	bb 81       	ldd	r27, Y+3	; 0x03
    76de:	ef e0       	ldi	r30, 0x0F	; 15
    76e0:	be 9f       	mul	r27, r30
    76e2:	40 01       	movw	r8, r0
    76e4:	11 24       	eor	r1, r1
    76e6:	8a 0c       	add	r8, r10
    76e8:	9b 1c       	adc	r9, r11
    76ea:	f9 e0       	ldi	r31, 0x09	; 9
    76ec:	cf 9e       	mul	r12, r31
    76ee:	70 01       	movw	r14, r0
    76f0:	11 24       	eor	r1, r1
    76f2:	21 e8       	ldi	r18, 0x81	; 129
    76f4:	3c e1       	ldi	r19, 0x1C	; 28
    76f6:	e2 0e       	add	r14, r18
    76f8:	f3 1e       	adc	r15, r19
    76fa:	d7 01       	movw	r26, r14
    76fc:	8c 91       	ld	r24, X
    76fe:	88 23       	and	r24, r24
    7700:	09 f4       	brne	.+2      	; 0x7704 <vTaskList+0x76>
    7702:	82 c1       	rjmp	.+772    	; 0x7a08 <vTaskList+0x37a>
    7704:	11 96       	adiw	r26, 0x01	; 1
    7706:	ed 91       	ld	r30, X+
    7708:	fc 91       	ld	r31, X
    770a:	12 97       	sbiw	r26, 0x02	; 2
    770c:	02 80       	ldd	r0, Z+2	; 0x02
    770e:	f3 81       	ldd	r31, Z+3	; 0x03
    7710:	e0 2d       	mov	r30, r0
    7712:	12 96       	adiw	r26, 0x02	; 2
    7714:	fc 93       	st	X, r31
    7716:	ee 93       	st	-X, r30
    7718:	11 97       	sbiw	r26, 0x01	; 1
    771a:	53 e0       	ldi	r21, 0x03	; 3
    771c:	65 2e       	mov	r6, r21
    771e:	71 2c       	mov	r7, r1
    7720:	6e 0c       	add	r6, r14
    7722:	7f 1c       	adc	r7, r15
    7724:	e6 15       	cp	r30, r6
    7726:	f7 05       	cpc	r31, r7
    7728:	09 f4       	brne	.+2      	; 0x772c <vTaskList+0x9e>
    772a:	fe c4       	rjmp	.+2556   	; 0x8128 <vTaskList+0xa9a>
    772c:	46 80       	ldd	r4, Z+6	; 0x06
    772e:	57 80       	ldd	r5, Z+7	; 0x07
    7730:	dd 24       	eor	r13, r13
    7732:	82 81       	ldd	r24, Z+2	; 0x02
    7734:	93 81       	ldd	r25, Z+3	; 0x03
    7736:	f7 01       	movw	r30, r14
    7738:	92 83       	std	Z+2, r25	; 0x02
    773a:	81 83       	std	Z+1, r24	; 0x01
    773c:	68 16       	cp	r6, r24
    773e:	79 06       	cpc	r7, r25
    7740:	09 f4       	brne	.+2      	; 0x7744 <vTaskList+0xb6>
    7742:	5f c0       	rjmp	.+190    	; 0x7802 <vTaskList+0x174>
    7744:	d7 01       	movw	r26, r14
    7746:	11 96       	adiw	r26, 0x01	; 1
    7748:	ed 91       	ld	r30, X+
    774a:	fc 91       	ld	r31, X
    774c:	12 97       	sbiw	r26, 0x02	; 2
    774e:	66 81       	ldd	r22, Z+6	; 0x06
    7750:	77 81       	ldd	r23, Z+7	; 0x07
    7752:	bf e0       	ldi	r27, 0x0F	; 15
    7754:	db 9e       	mul	r13, r27
    7756:	80 01       	movw	r16, r0
    7758:	11 24       	eor	r1, r1
    775a:	08 0d       	add	r16, r8
    775c:	19 1d       	adc	r17, r9
    775e:	f8 01       	movw	r30, r16
    7760:	71 83       	std	Z+1, r23	; 0x01
    7762:	60 83       	st	Z, r22
    7764:	67 5e       	subi	r22, 0xE7	; 231
    7766:	7f 4f       	sbci	r23, 0xFF	; 255
    7768:	73 83       	std	Z+3, r23	; 0x03
    776a:	62 83       	std	Z+2, r22	; 0x02
    776c:	69 51       	subi	r22, 0x19	; 25
    776e:	70 40       	sbci	r23, 0x00	; 0
    7770:	db 01       	movw	r26, r22
    7772:	91 96       	adiw	r26, 0x21	; 33
    7774:	8c 91       	ld	r24, X
    7776:	91 97       	sbiw	r26, 0x21	; 33
    7778:	84 83       	std	Z+4, r24	; 0x04
    777a:	21 e0       	ldi	r18, 0x01	; 1
    777c:	30 e0       	ldi	r19, 0x00	; 0
    777e:	36 83       	std	Z+6, r19	; 0x06
    7780:	25 83       	std	Z+5, r18	; 0x05
    7782:	56 96       	adiw	r26, 0x16	; 22
    7784:	8c 91       	ld	r24, X
    7786:	56 97       	sbiw	r26, 0x16	; 22
    7788:	87 83       	std	Z+7, r24	; 0x07
    778a:	93 96       	adiw	r26, 0x23	; 35
    778c:	8c 91       	ld	r24, X
    778e:	93 97       	sbiw	r26, 0x23	; 35
    7790:	80 87       	std	Z+8, r24	; 0x08
    7792:	94 96       	adiw	r26, 0x24	; 36
    7794:	8d 91       	ld	r24, X+
    7796:	9d 91       	ld	r25, X+
    7798:	0d 90       	ld	r0, X+
    779a:	bc 91       	ld	r27, X
    779c:	a0 2d       	mov	r26, r0
    779e:	81 87       	std	Z+9, r24	; 0x09
    77a0:	92 87       	std	Z+10, r25	; 0x0a
    77a2:	a3 87       	std	Z+11, r26	; 0x0b
    77a4:	b4 87       	std	Z+12, r27	; 0x0c
    77a6:	fb 01       	movw	r30, r22
    77a8:	a7 89       	ldd	r26, Z+23	; 0x17
    77aa:	b0 8d       	ldd	r27, Z+24	; 0x18
    77ac:	8c 91       	ld	r24, X
    77ae:	85 3a       	cpi	r24, 0xA5	; 165
    77b0:	09 f0       	breq	.+2      	; 0x77b4 <vTaskList+0x126>
    77b2:	ae c2       	rjmp	.+1372   	; 0x7d10 <vTaskList+0x682>
    77b4:	20 e0       	ldi	r18, 0x00	; 0
    77b6:	30 e0       	ldi	r19, 0x00	; 0
    77b8:	40 e0       	ldi	r20, 0x00	; 0
    77ba:	50 e0       	ldi	r21, 0x00	; 0
    77bc:	2f 5f       	subi	r18, 0xFF	; 255
    77be:	3f 4f       	sbci	r19, 0xFF	; 255
    77c0:	4f 4f       	sbci	r20, 0xFF	; 255
    77c2:	5f 4f       	sbci	r21, 0xFF	; 255
    77c4:	fd 01       	movw	r30, r26
    77c6:	e2 0f       	add	r30, r18
    77c8:	f3 1f       	adc	r31, r19
    77ca:	80 81       	ld	r24, Z
    77cc:	85 3a       	cpi	r24, 0xA5	; 165
    77ce:	b1 f3       	breq	.-20     	; 0x77bc <vTaskList+0x12e>
    77d0:	c9 01       	movw	r24, r18
    77d2:	d8 01       	movw	r26, r16
    77d4:	1e 96       	adiw	r26, 0x0e	; 14
    77d6:	9c 93       	st	X, r25
    77d8:	8e 93       	st	-X, r24
    77da:	1d 97       	sbiw	r26, 0x0d	; 13
    77dc:	d3 94       	inc	r13
    77de:	46 16       	cp	r4, r22
    77e0:	57 06       	cpc	r5, r23
    77e2:	09 f4       	brne	.+2      	; 0x77e6 <vTaskList+0x158>
    77e4:	12 c1       	rjmp	.+548    	; 0x7a0a <vTaskList+0x37c>
    77e6:	d7 01       	movw	r26, r14
    77e8:	11 96       	adiw	r26, 0x01	; 1
    77ea:	ed 91       	ld	r30, X+
    77ec:	fc 91       	ld	r31, X
    77ee:	12 97       	sbiw	r26, 0x02	; 2
    77f0:	82 81       	ldd	r24, Z+2	; 0x02
    77f2:	93 81       	ldd	r25, Z+3	; 0x03
    77f4:	f7 01       	movw	r30, r14
    77f6:	92 83       	std	Z+2, r25	; 0x02
    77f8:	81 83       	std	Z+1, r24	; 0x01
    77fa:	68 16       	cp	r6, r24
    77fc:	79 06       	cpc	r7, r25
    77fe:	09 f0       	breq	.+2      	; 0x7802 <vTaskList+0x174>
    7800:	a1 cf       	rjmp	.-190    	; 0x7744 <vTaskList+0xb6>
    7802:	d3 01       	movw	r26, r6
    7804:	12 96       	adiw	r26, 0x02	; 2
    7806:	8d 91       	ld	r24, X+
    7808:	9c 91       	ld	r25, X
    780a:	13 97       	sbiw	r26, 0x03	; 3
    780c:	92 83       	std	Z+2, r25	; 0x02
    780e:	81 83       	std	Z+1, r24	; 0x01
    7810:	99 cf       	rjmp	.-206    	; 0x7744 <vTaskList+0xb6>
    7812:	c5 01       	movw	r24, r10
    7814:	0e 94 d5 27 	call	0x4faa	; 0x4faa <vPortFree>
    7818:	23 96       	adiw	r28, 0x03	; 3
    781a:	e2 e1       	ldi	r30, 0x12	; 18
    781c:	0c 94 a8 53 	jmp	0xa750	; 0xa750 <__epilogue_restores__>
    7820:	77 24       	eor	r7, r7
    7822:	0f b6       	in	r0, 0x3f	; 63
    7824:	f8 94       	cli
    7826:	0f 92       	push	r0
    7828:	80 91 74 1c 	lds	r24, 0x1C74
    782c:	81 50       	subi	r24, 0x01	; 1
    782e:	80 93 74 1c 	sts	0x1C74, r24
    7832:	80 91 74 1c 	lds	r24, 0x1C74
    7836:	88 23       	and	r24, r24
    7838:	09 f0       	breq	.+2      	; 0x783c <vTaskList+0x1ae>
    783a:	a2 c1       	rjmp	.+836    	; 0x7b80 <vTaskList+0x4f2>
    783c:	80 91 6e 1c 	lds	r24, 0x1C6E
    7840:	88 23       	and	r24, r24
    7842:	09 f4       	brne	.+2      	; 0x7846 <vTaskList+0x1b8>
    7844:	9d c1       	rjmp	.+826    	; 0x7b80 <vTaskList+0x4f2>
    7846:	a9 e0       	ldi	r26, 0x09	; 9
    7848:	da 2e       	mov	r13, r26
    784a:	cc 24       	eor	r12, r12
    784c:	c3 94       	inc	r12
    784e:	80 91 bb 1c 	lds	r24, 0x1CBB
    7852:	88 23       	and	r24, r24
    7854:	99 f1       	breq	.+102    	; 0x78bc <vTaskList+0x22e>
    7856:	e0 91 c0 1c 	lds	r30, 0x1CC0
    785a:	f0 91 c1 1c 	lds	r31, 0x1CC1
    785e:	06 81       	ldd	r16, Z+6	; 0x06
    7860:	17 81       	ldd	r17, Z+7	; 0x07
    7862:	c8 01       	movw	r24, r16
    7864:	0c 96       	adiw	r24, 0x0c	; 12
    7866:	0e 94 f0 49 	call	0x93e0	; 0x93e0 <uxListRemove>
    786a:	b2 e0       	ldi	r27, 0x02	; 2
    786c:	eb 2e       	mov	r14, r27
    786e:	f1 2c       	mov	r15, r1
    7870:	e0 0e       	add	r14, r16
    7872:	f1 1e       	adc	r15, r17
    7874:	c7 01       	movw	r24, r14
    7876:	0e 94 f0 49 	call	0x93e0	; 0x93e0 <uxListRemove>
    787a:	f8 01       	movw	r30, r16
    787c:	96 89       	ldd	r25, Z+22	; 0x16
    787e:	80 91 6f 1c 	lds	r24, 0x1C6F
    7882:	89 17       	cp	r24, r25
    7884:	18 f4       	brcc	.+6      	; 0x788c <vTaskList+0x1fe>
    7886:	90 93 6f 1c 	sts	0x1C6F, r25
    788a:	96 89       	ldd	r25, Z+22	; 0x16
    788c:	9d 9d       	mul	r25, r13
    788e:	c0 01       	movw	r24, r0
    7890:	11 24       	eor	r1, r1
    7892:	8f 57       	subi	r24, 0x7F	; 127
    7894:	93 4e       	sbci	r25, 0xE3	; 227
    7896:	b7 01       	movw	r22, r14
    7898:	0e 94 9f 49 	call	0x933e	; 0x933e <vListInsertEnd>
    789c:	e0 91 6c 1c 	lds	r30, 0x1C6C
    78a0:	f0 91 6d 1c 	lds	r31, 0x1C6D
    78a4:	d8 01       	movw	r26, r16
    78a6:	56 96       	adiw	r26, 0x16	; 22
    78a8:	9c 91       	ld	r25, X
    78aa:	86 89       	ldd	r24, Z+22	; 0x16
    78ac:	98 17       	cp	r25, r24
    78ae:	78 f2       	brcs	.-98     	; 0x784e <vTaskList+0x1c0>
    78b0:	c0 92 70 1c 	sts	0x1C70, r12
    78b4:	80 91 bb 1c 	lds	r24, 0x1CBB
    78b8:	88 23       	and	r24, r24
    78ba:	69 f6       	brne	.-102    	; 0x7856 <vTaskList+0x1c8>
    78bc:	80 91 7d 1c 	lds	r24, 0x1C7D
    78c0:	88 23       	and	r24, r24
    78c2:	09 f4       	brne	.+2      	; 0x78c6 <vTaskList+0x238>
    78c4:	57 c1       	rjmp	.+686    	; 0x7b74 <vTaskList+0x4e6>
    78c6:	80 91 7d 1c 	lds	r24, 0x1C7D
    78ca:	88 23       	and	r24, r24
    78cc:	09 f4       	brne	.+2      	; 0x78d0 <vTaskList+0x242>
    78ce:	52 c1       	rjmp	.+676    	; 0x7b74 <vTaskList+0x4e6>
    78d0:	f9 e0       	ldi	r31, 0x09	; 9
    78d2:	cf 2e       	mov	r12, r31
    78d4:	44 24       	eor	r4, r4
    78d6:	4a 94       	dec	r4
    78d8:	54 2c       	mov	r5, r4
    78da:	66 24       	eor	r6, r6
    78dc:	63 94       	inc	r6
    78de:	80 91 74 1c 	lds	r24, 0x1C74
    78e2:	88 23       	and	r24, r24
    78e4:	09 f0       	breq	.+2      	; 0x78e8 <vTaskList+0x25a>
    78e6:	2e c1       	rjmp	.+604    	; 0x7b44 <vTaskList+0x4b6>
    78e8:	80 91 71 1c 	lds	r24, 0x1C71
    78ec:	90 91 72 1c 	lds	r25, 0x1C72
    78f0:	01 96       	adiw	r24, 0x01	; 1
    78f2:	90 93 72 1c 	sts	0x1C72, r25
    78f6:	80 93 71 1c 	sts	0x1C71, r24
    78fa:	80 90 71 1c 	lds	r8, 0x1C71
    78fe:	90 90 72 1c 	lds	r9, 0x1C72
    7902:	81 14       	cp	r8, r1
    7904:	91 04       	cpc	r9, r1
    7906:	09 f5       	brne	.+66     	; 0x794a <vTaskList+0x2bc>
    7908:	20 91 b7 1c 	lds	r18, 0x1CB7
    790c:	30 91 b8 1c 	lds	r19, 0x1CB8
    7910:	80 91 b9 1c 	lds	r24, 0x1CB9
    7914:	90 91 ba 1c 	lds	r25, 0x1CBA
    7918:	90 93 b8 1c 	sts	0x1CB8, r25
    791c:	80 93 b7 1c 	sts	0x1CB7, r24
    7920:	30 93 ba 1c 	sts	0x1CBA, r19
    7924:	20 93 b9 1c 	sts	0x1CB9, r18
    7928:	80 91 73 1c 	lds	r24, 0x1C73
    792c:	8f 5f       	subi	r24, 0xFF	; 255
    792e:	80 93 73 1c 	sts	0x1C73, r24
    7932:	e0 91 b7 1c 	lds	r30, 0x1CB7
    7936:	f0 91 b8 1c 	lds	r31, 0x1CB8
    793a:	80 81       	ld	r24, Z
    793c:	88 23       	and	r24, r24
    793e:	09 f0       	breq	.+2      	; 0x7942 <vTaskList+0x2b4>
    7940:	d1 c3       	rjmp	.+1954   	; 0x80e4 <vTaskList+0xa56>
    7942:	50 92 ad 09 	sts	0x09AD, r5
    7946:	40 92 ac 09 	sts	0x09AC, r4
    794a:	80 91 ac 09 	lds	r24, 0x09AC
    794e:	90 91 ad 09 	lds	r25, 0x09AD
    7952:	88 16       	cp	r8, r24
    7954:	99 06       	cpc	r9, r25
    7956:	08 f4       	brcc	.+2      	; 0x795a <vTaskList+0x2cc>
    7958:	ac c3       	rjmp	.+1880   	; 0x80b2 <vTaskList+0xa24>
    795a:	dd 24       	eor	r13, r13
    795c:	e0 91 b7 1c 	lds	r30, 0x1CB7
    7960:	f0 91 b8 1c 	lds	r31, 0x1CB8
    7964:	80 81       	ld	r24, Z
    7966:	88 23       	and	r24, r24
    7968:	09 f4       	brne	.+2      	; 0x796c <vTaskList+0x2de>
    796a:	49 c0       	rjmp	.+146    	; 0x79fe <vTaskList+0x370>
    796c:	e0 91 b7 1c 	lds	r30, 0x1CB7
    7970:	f0 91 b8 1c 	lds	r31, 0x1CB8
    7974:	05 80       	ldd	r0, Z+5	; 0x05
    7976:	f6 81       	ldd	r31, Z+6	; 0x06
    7978:	e0 2d       	mov	r30, r0
    797a:	06 81       	ldd	r16, Z+6	; 0x06
    797c:	17 81       	ldd	r17, Z+7	; 0x07
    797e:	f8 01       	movw	r30, r16
    7980:	82 81       	ldd	r24, Z+2	; 0x02
    7982:	93 81       	ldd	r25, Z+3	; 0x03
    7984:	88 16       	cp	r8, r24
    7986:	99 06       	cpc	r9, r25
    7988:	08 f4       	brcc	.+2      	; 0x798c <vTaskList+0x2fe>
    798a:	c6 c3       	rjmp	.+1932   	; 0x8118 <vTaskList+0xa8a>
    798c:	e2 e0       	ldi	r30, 0x02	; 2
    798e:	ee 2e       	mov	r14, r30
    7990:	f1 2c       	mov	r15, r1
    7992:	e0 0e       	add	r14, r16
    7994:	f1 1e       	adc	r15, r17
    7996:	c7 01       	movw	r24, r14
    7998:	0e 94 f0 49 	call	0x93e0	; 0x93e0 <uxListRemove>
    799c:	d8 01       	movw	r26, r16
    799e:	54 96       	adiw	r26, 0x14	; 20
    79a0:	8d 91       	ld	r24, X+
    79a2:	9c 91       	ld	r25, X
    79a4:	55 97       	sbiw	r26, 0x15	; 21
    79a6:	89 2b       	or	r24, r25
    79a8:	21 f0       	breq	.+8      	; 0x79b2 <vTaskList+0x324>
    79aa:	c8 01       	movw	r24, r16
    79ac:	0c 96       	adiw	r24, 0x0c	; 12
    79ae:	0e 94 f0 49 	call	0x93e0	; 0x93e0 <uxListRemove>
    79b2:	f8 01       	movw	r30, r16
    79b4:	96 89       	ldd	r25, Z+22	; 0x16
    79b6:	80 91 6f 1c 	lds	r24, 0x1C6F
    79ba:	89 17       	cp	r24, r25
    79bc:	18 f4       	brcc	.+6      	; 0x79c4 <vTaskList+0x336>
    79be:	90 93 6f 1c 	sts	0x1C6F, r25
    79c2:	96 89       	ldd	r25, Z+22	; 0x16
    79c4:	9c 9d       	mul	r25, r12
    79c6:	c0 01       	movw	r24, r0
    79c8:	11 24       	eor	r1, r1
    79ca:	8f 57       	subi	r24, 0x7F	; 127
    79cc:	93 4e       	sbci	r25, 0xE3	; 227
    79ce:	b7 01       	movw	r22, r14
    79d0:	0e 94 9f 49 	call	0x933e	; 0x933e <vListInsertEnd>
    79d4:	e0 91 6c 1c 	lds	r30, 0x1C6C
    79d8:	f0 91 6d 1c 	lds	r31, 0x1C6D
    79dc:	d8 01       	movw	r26, r16
    79de:	56 96       	adiw	r26, 0x16	; 22
    79e0:	9c 91       	ld	r25, X
    79e2:	86 89       	ldd	r24, Z+22	; 0x16
    79e4:	98 17       	cp	r25, r24
    79e6:	08 f4       	brcc	.+2      	; 0x79ea <vTaskList+0x35c>
    79e8:	b9 cf       	rjmp	.-142    	; 0x795c <vTaskList+0x2ce>
    79ea:	dd 24       	eor	r13, r13
    79ec:	d3 94       	inc	r13
    79ee:	e0 91 b7 1c 	lds	r30, 0x1CB7
    79f2:	f0 91 b8 1c 	lds	r31, 0x1CB8
    79f6:	80 81       	ld	r24, Z
    79f8:	88 23       	and	r24, r24
    79fa:	09 f0       	breq	.+2      	; 0x79fe <vTaskList+0x370>
    79fc:	b7 cf       	rjmp	.-146    	; 0x796c <vTaskList+0x2de>
    79fe:	50 92 ad 09 	sts	0x09AD, r5
    7a02:	40 92 ac 09 	sts	0x09AC, r4
    7a06:	56 c3       	rjmp	.+1708   	; 0x80b4 <vTaskList+0xa26>
    7a08:	dd 24       	eor	r13, r13
    7a0a:	bb 81       	ldd	r27, Y+3	; 0x03
    7a0c:	bd 0d       	add	r27, r13
    7a0e:	bb 83       	std	Y+3, r27	; 0x03
    7a10:	cc 20       	and	r12, r12
    7a12:	09 f0       	breq	.+2      	; 0x7a16 <vTaskList+0x388>
    7a14:	62 ce       	rjmp	.-828    	; 0x76da <vTaskList+0x4c>
    7a16:	8f e0       	ldi	r24, 0x0F	; 15
    7a18:	b8 9f       	mul	r27, r24
    7a1a:	40 01       	movw	r8, r0
    7a1c:	11 24       	eor	r1, r1
    7a1e:	8a 0c       	add	r8, r10
    7a20:	9b 1c       	adc	r9, r11
    7a22:	e0 90 b7 1c 	lds	r14, 0x1CB7
    7a26:	f0 90 b8 1c 	lds	r15, 0x1CB8
    7a2a:	f7 01       	movw	r30, r14
    7a2c:	80 81       	ld	r24, Z
    7a2e:	88 23       	and	r24, r24
    7a30:	09 f4       	brne	.+2      	; 0x7a34 <vTaskList+0x3a6>
    7a32:	71 c1       	rjmp	.+738    	; 0x7d16 <vTaskList+0x688>
    7a34:	01 80       	ldd	r0, Z+1	; 0x01
    7a36:	f2 81       	ldd	r31, Z+2	; 0x02
    7a38:	e0 2d       	mov	r30, r0
    7a3a:	02 80       	ldd	r0, Z+2	; 0x02
    7a3c:	f3 81       	ldd	r31, Z+3	; 0x03
    7a3e:	e0 2d       	mov	r30, r0
    7a40:	d7 01       	movw	r26, r14
    7a42:	12 96       	adiw	r26, 0x02	; 2
    7a44:	fc 93       	st	X, r31
    7a46:	ee 93       	st	-X, r30
    7a48:	11 97       	sbiw	r26, 0x01	; 1
    7a4a:	43 e0       	ldi	r20, 0x03	; 3
    7a4c:	64 2e       	mov	r6, r20
    7a4e:	71 2c       	mov	r7, r1
    7a50:	6e 0c       	add	r6, r14
    7a52:	7f 1c       	adc	r7, r15
    7a54:	e6 15       	cp	r30, r6
    7a56:	f7 05       	cpc	r31, r7
    7a58:	09 f4       	brne	.+2      	; 0x7a5c <vTaskList+0x3ce>
    7a5a:	77 c3       	rjmp	.+1774   	; 0x814a <vTaskList+0xabc>
    7a5c:	46 80       	ldd	r4, Z+6	; 0x06
    7a5e:	57 80       	ldd	r5, Z+7	; 0x07
    7a60:	dd 24       	eor	r13, r13
    7a62:	3f e0       	ldi	r19, 0x0F	; 15
    7a64:	c3 2e       	mov	r12, r19
    7a66:	82 81       	ldd	r24, Z+2	; 0x02
    7a68:	93 81       	ldd	r25, Z+3	; 0x03
    7a6a:	f7 01       	movw	r30, r14
    7a6c:	92 83       	std	Z+2, r25	; 0x02
    7a6e:	81 83       	std	Z+1, r24	; 0x01
    7a70:	68 16       	cp	r6, r24
    7a72:	79 06       	cpc	r7, r25
    7a74:	09 f4       	brne	.+2      	; 0x7a78 <vTaskList+0x3ea>
    7a76:	5e c0       	rjmp	.+188    	; 0x7b34 <vTaskList+0x4a6>
    7a78:	d7 01       	movw	r26, r14
    7a7a:	11 96       	adiw	r26, 0x01	; 1
    7a7c:	ed 91       	ld	r30, X+
    7a7e:	fc 91       	ld	r31, X
    7a80:	12 97       	sbiw	r26, 0x02	; 2
    7a82:	66 81       	ldd	r22, Z+6	; 0x06
    7a84:	77 81       	ldd	r23, Z+7	; 0x07
    7a86:	dc 9c       	mul	r13, r12
    7a88:	80 01       	movw	r16, r0
    7a8a:	11 24       	eor	r1, r1
    7a8c:	08 0d       	add	r16, r8
    7a8e:	19 1d       	adc	r17, r9
    7a90:	f8 01       	movw	r30, r16
    7a92:	71 83       	std	Z+1, r23	; 0x01
    7a94:	60 83       	st	Z, r22
    7a96:	67 5e       	subi	r22, 0xE7	; 231
    7a98:	7f 4f       	sbci	r23, 0xFF	; 255
    7a9a:	73 83       	std	Z+3, r23	; 0x03
    7a9c:	62 83       	std	Z+2, r22	; 0x02
    7a9e:	69 51       	subi	r22, 0x19	; 25
    7aa0:	70 40       	sbci	r23, 0x00	; 0
    7aa2:	db 01       	movw	r26, r22
    7aa4:	91 96       	adiw	r26, 0x21	; 33
    7aa6:	8c 91       	ld	r24, X
    7aa8:	91 97       	sbiw	r26, 0x21	; 33
    7aaa:	84 83       	std	Z+4, r24	; 0x04
    7aac:	22 e0       	ldi	r18, 0x02	; 2
    7aae:	30 e0       	ldi	r19, 0x00	; 0
    7ab0:	36 83       	std	Z+6, r19	; 0x06
    7ab2:	25 83       	std	Z+5, r18	; 0x05
    7ab4:	56 96       	adiw	r26, 0x16	; 22
    7ab6:	8c 91       	ld	r24, X
    7ab8:	56 97       	sbiw	r26, 0x16	; 22
    7aba:	87 83       	std	Z+7, r24	; 0x07
    7abc:	93 96       	adiw	r26, 0x23	; 35
    7abe:	8c 91       	ld	r24, X
    7ac0:	93 97       	sbiw	r26, 0x23	; 35
    7ac2:	80 87       	std	Z+8, r24	; 0x08
    7ac4:	94 96       	adiw	r26, 0x24	; 36
    7ac6:	8d 91       	ld	r24, X+
    7ac8:	9d 91       	ld	r25, X+
    7aca:	0d 90       	ld	r0, X+
    7acc:	bc 91       	ld	r27, X
    7ace:	a0 2d       	mov	r26, r0
    7ad0:	81 87       	std	Z+9, r24	; 0x09
    7ad2:	92 87       	std	Z+10, r25	; 0x0a
    7ad4:	a3 87       	std	Z+11, r26	; 0x0b
    7ad6:	b4 87       	std	Z+12, r27	; 0x0c
    7ad8:	fb 01       	movw	r30, r22
    7ada:	a7 89       	ldd	r26, Z+23	; 0x17
    7adc:	b0 8d       	ldd	r27, Z+24	; 0x18
    7ade:	8c 91       	ld	r24, X
    7ae0:	85 3a       	cpi	r24, 0xA5	; 165
    7ae2:	09 f0       	breq	.+2      	; 0x7ae6 <vTaskList+0x458>
    7ae4:	16 c3       	rjmp	.+1580   	; 0x8112 <vTaskList+0xa84>
    7ae6:	20 e0       	ldi	r18, 0x00	; 0
    7ae8:	30 e0       	ldi	r19, 0x00	; 0
    7aea:	40 e0       	ldi	r20, 0x00	; 0
    7aec:	50 e0       	ldi	r21, 0x00	; 0
    7aee:	2f 5f       	subi	r18, 0xFF	; 255
    7af0:	3f 4f       	sbci	r19, 0xFF	; 255
    7af2:	4f 4f       	sbci	r20, 0xFF	; 255
    7af4:	5f 4f       	sbci	r21, 0xFF	; 255
    7af6:	fd 01       	movw	r30, r26
    7af8:	e2 0f       	add	r30, r18
    7afa:	f3 1f       	adc	r31, r19
    7afc:	80 81       	ld	r24, Z
    7afe:	85 3a       	cpi	r24, 0xA5	; 165
    7b00:	b1 f3       	breq	.-20     	; 0x7aee <vTaskList+0x460>
    7b02:	c9 01       	movw	r24, r18
    7b04:	d8 01       	movw	r26, r16
    7b06:	1e 96       	adiw	r26, 0x0e	; 14
    7b08:	9c 93       	st	X, r25
    7b0a:	8e 93       	st	-X, r24
    7b0c:	1d 97       	sbiw	r26, 0x0d	; 13
    7b0e:	d3 94       	inc	r13
    7b10:	46 16       	cp	r4, r22
    7b12:	57 06       	cpc	r5, r23
    7b14:	09 f4       	brne	.+2      	; 0x7b18 <vTaskList+0x48a>
    7b16:	00 c1       	rjmp	.+512    	; 0x7d18 <vTaskList+0x68a>
    7b18:	d7 01       	movw	r26, r14
    7b1a:	11 96       	adiw	r26, 0x01	; 1
    7b1c:	ed 91       	ld	r30, X+
    7b1e:	fc 91       	ld	r31, X
    7b20:	12 97       	sbiw	r26, 0x02	; 2
    7b22:	82 81       	ldd	r24, Z+2	; 0x02
    7b24:	93 81       	ldd	r25, Z+3	; 0x03
    7b26:	f7 01       	movw	r30, r14
    7b28:	92 83       	std	Z+2, r25	; 0x02
    7b2a:	81 83       	std	Z+1, r24	; 0x01
    7b2c:	68 16       	cp	r6, r24
    7b2e:	79 06       	cpc	r7, r25
    7b30:	09 f0       	breq	.+2      	; 0x7b34 <vTaskList+0x4a6>
    7b32:	a2 cf       	rjmp	.-188    	; 0x7a78 <vTaskList+0x3ea>
    7b34:	d3 01       	movw	r26, r6
    7b36:	12 96       	adiw	r26, 0x02	; 2
    7b38:	8d 91       	ld	r24, X+
    7b3a:	9c 91       	ld	r25, X
    7b3c:	13 97       	sbiw	r26, 0x03	; 3
    7b3e:	92 83       	std	Z+2, r25	; 0x02
    7b40:	81 83       	std	Z+1, r24	; 0x01
    7b42:	9a cf       	rjmp	.-204    	; 0x7a78 <vTaskList+0x3ea>
    7b44:	80 91 7d 1c 	lds	r24, 0x1C7D
    7b48:	8f 5f       	subi	r24, 0xFF	; 255
    7b4a:	80 93 7d 1c 	sts	0x1C7D, r24
    7b4e:	dd 24       	eor	r13, r13
    7b50:	80 91 70 1c 	lds	r24, 0x1C70
    7b54:	88 23       	and	r24, r24
    7b56:	09 f0       	breq	.+2      	; 0x7b5a <vTaskList+0x4cc>
    7b58:	a9 c2       	rjmp	.+1362   	; 0x80ac <vTaskList+0xa1e>
    7b5a:	dd 20       	and	r13, r13
    7b5c:	09 f0       	breq	.+2      	; 0x7b60 <vTaskList+0x4d2>
    7b5e:	a6 c2       	rjmp	.+1356   	; 0x80ac <vTaskList+0xa1e>
    7b60:	80 91 7d 1c 	lds	r24, 0x1C7D
    7b64:	81 50       	subi	r24, 0x01	; 1
    7b66:	80 93 7d 1c 	sts	0x1C7D, r24
    7b6a:	80 91 7d 1c 	lds	r24, 0x1C7D
    7b6e:	88 23       	and	r24, r24
    7b70:	09 f0       	breq	.+2      	; 0x7b74 <vTaskList+0x4e6>
    7b72:	b5 ce       	rjmp	.-662    	; 0x78de <vTaskList+0x250>
    7b74:	80 91 70 1c 	lds	r24, 0x1C70
    7b78:	81 30       	cpi	r24, 0x01	; 1
    7b7a:	11 f4       	brne	.+4      	; 0x7b80 <vTaskList+0x4f2>
    7b7c:	0e 94 2a 49 	call	0x9254	; 0x9254 <vPortYield>
    7b80:	0f 90       	pop	r0
    7b82:	0f be       	out	0x3f, r0	; 63
    7b84:	79 82       	std	Y+1, r7	; 0x01
    7b86:	1a 82       	std	Y+2, r1	; 0x02
    7b88:	9a 81       	ldd	r25, Y+2	; 0x02
    7b8a:	89 81       	ldd	r24, Y+1	; 0x01
    7b8c:	98 17       	cp	r25, r24
    7b8e:	08 f0       	brcs	.+2      	; 0x7b92 <vTaskList+0x504>
    7b90:	40 ce       	rjmp	.-896    	; 0x7812 <vTaskList+0x184>
    7b92:	6a e3       	ldi	r22, 0x3A	; 58
    7b94:	e6 2e       	mov	r14, r22
    7b96:	69 e0       	ldi	r22, 0x09	; 9
    7b98:	f6 2e       	mov	r15, r22
    7b9a:	8f c0       	rjmp	.+286    	; 0x7cba <vTaskList+0x62c>
    7b9c:	01 97       	sbiw	r24, 0x01	; 1
    7b9e:	09 f4       	brne	.+2      	; 0x7ba2 <vTaskList+0x514>
    7ba0:	b4 c0       	rjmp	.+360    	; 0x7d0a <vTaskList+0x67c>
    7ba2:	00 e0       	ldi	r16, 0x00	; 0
    7ba4:	10 e0       	ldi	r17, 0x00	; 0
    7ba6:	8a 81       	ldd	r24, Y+2	; 0x02
    7ba8:	2a 81       	ldd	r18, Y+2	; 0x02
    7baa:	4a 81       	ldd	r20, Y+2	; 0x02
    7bac:	6a 81       	ldd	r22, Y+2	; 0x02
    7bae:	ed b7       	in	r30, 0x3d	; 61
    7bb0:	fe b7       	in	r31, 0x3e	; 62
    7bb2:	3e 97       	sbiw	r30, 0x0e	; 14
    7bb4:	0f b6       	in	r0, 0x3f	; 63
    7bb6:	f8 94       	cli
    7bb8:	fe bf       	out	0x3e, r31	; 62
    7bba:	0f be       	out	0x3f, r0	; 63
    7bbc:	ed bf       	out	0x3d, r30	; 61
    7bbe:	ad b7       	in	r26, 0x3d	; 61
    7bc0:	be b7       	in	r27, 0x3e	; 62
    7bc2:	11 96       	adiw	r26, 0x01	; 1
    7bc4:	32 82       	std	Z+2, r3	; 0x02
    7bc6:	21 82       	std	Z+1, r2	; 0x01
    7bc8:	13 96       	adiw	r26, 0x03	; 3
    7bca:	fc 92       	st	X, r15
    7bcc:	ee 92       	st	-X, r14
    7bce:	12 97       	sbiw	r26, 0x02	; 2
    7bd0:	90 e0       	ldi	r25, 0x00	; 0
    7bd2:	fc 01       	movw	r30, r24
    7bd4:	ee 0f       	add	r30, r30
    7bd6:	ff 1f       	adc	r31, r31
    7bd8:	e8 0f       	add	r30, r24
    7bda:	f9 1f       	adc	r31, r25
    7bdc:	cf 01       	movw	r24, r30
    7bde:	88 0f       	add	r24, r24
    7be0:	99 1f       	adc	r25, r25
    7be2:	88 0f       	add	r24, r24
    7be4:	99 1f       	adc	r25, r25
    7be6:	e8 0f       	add	r30, r24
    7be8:	f9 1f       	adc	r31, r25
    7bea:	ea 0d       	add	r30, r10
    7bec:	fb 1d       	adc	r31, r11
    7bee:	82 81       	ldd	r24, Z+2	; 0x02
    7bf0:	93 81       	ldd	r25, Z+3	; 0x03
    7bf2:	15 96       	adiw	r26, 0x05	; 5
    7bf4:	9c 93       	st	X, r25
    7bf6:	8e 93       	st	-X, r24
    7bf8:	14 97       	sbiw	r26, 0x04	; 4
    7bfa:	17 96       	adiw	r26, 0x07	; 7
    7bfc:	1c 93       	st	X, r17
    7bfe:	0e 93       	st	-X, r16
    7c00:	16 97       	sbiw	r26, 0x06	; 6
    7c02:	30 e0       	ldi	r19, 0x00	; 0
    7c04:	f9 01       	movw	r30, r18
    7c06:	ee 0f       	add	r30, r30
    7c08:	ff 1f       	adc	r31, r31
    7c0a:	e2 0f       	add	r30, r18
    7c0c:	f3 1f       	adc	r31, r19
    7c0e:	cf 01       	movw	r24, r30
    7c10:	88 0f       	add	r24, r24
    7c12:	99 1f       	adc	r25, r25
    7c14:	88 0f       	add	r24, r24
    7c16:	99 1f       	adc	r25, r25
    7c18:	e8 0f       	add	r30, r24
    7c1a:	f9 1f       	adc	r31, r25
    7c1c:	ea 0d       	add	r30, r10
    7c1e:	fb 1d       	adc	r31, r11
    7c20:	87 81       	ldd	r24, Z+7	; 0x07
    7c22:	18 96       	adiw	r26, 0x08	; 8
    7c24:	8c 93       	st	X, r24
    7c26:	18 97       	sbiw	r26, 0x08	; 8
    7c28:	19 96       	adiw	r26, 0x09	; 9
    7c2a:	1c 92       	st	X, r1
    7c2c:	19 97       	sbiw	r26, 0x09	; 9
    7c2e:	50 e0       	ldi	r21, 0x00	; 0
    7c30:	fa 01       	movw	r30, r20
    7c32:	ee 0f       	add	r30, r30
    7c34:	ff 1f       	adc	r31, r31
    7c36:	e4 0f       	add	r30, r20
    7c38:	f5 1f       	adc	r31, r21
    7c3a:	cf 01       	movw	r24, r30
    7c3c:	88 0f       	add	r24, r24
    7c3e:	99 1f       	adc	r25, r25
    7c40:	88 0f       	add	r24, r24
    7c42:	99 1f       	adc	r25, r25
    7c44:	e8 0f       	add	r30, r24
    7c46:	f9 1f       	adc	r31, r25
    7c48:	ea 0d       	add	r30, r10
    7c4a:	fb 1d       	adc	r31, r11
    7c4c:	85 85       	ldd	r24, Z+13	; 0x0d
    7c4e:	96 85       	ldd	r25, Z+14	; 0x0e
    7c50:	1b 96       	adiw	r26, 0x0b	; 11
    7c52:	9c 93       	st	X, r25
    7c54:	8e 93       	st	-X, r24
    7c56:	1a 97       	sbiw	r26, 0x0a	; 10
    7c58:	70 e0       	ldi	r23, 0x00	; 0
    7c5a:	fb 01       	movw	r30, r22
    7c5c:	ee 0f       	add	r30, r30
    7c5e:	ff 1f       	adc	r31, r31
    7c60:	e6 0f       	add	r30, r22
    7c62:	f7 1f       	adc	r31, r23
    7c64:	cf 01       	movw	r24, r30
    7c66:	88 0f       	add	r24, r24
    7c68:	99 1f       	adc	r25, r25
    7c6a:	88 0f       	add	r24, r24
    7c6c:	99 1f       	adc	r25, r25
    7c6e:	e8 0f       	add	r30, r24
    7c70:	f9 1f       	adc	r31, r25
    7c72:	ea 0d       	add	r30, r10
    7c74:	fb 1d       	adc	r31, r11
    7c76:	84 81       	ldd	r24, Z+4	; 0x04
    7c78:	1c 96       	adiw	r26, 0x0c	; 12
    7c7a:	8c 93       	st	X, r24
    7c7c:	1c 97       	sbiw	r26, 0x0c	; 12
    7c7e:	1d 96       	adiw	r26, 0x0d	; 13
    7c80:	1c 92       	st	X, r1
    7c82:	0e 94 c5 08 	call	0x118a	; 0x118a <sprintf>
    7c86:	d1 01       	movw	r26, r2
    7c88:	0d 90       	ld	r0, X+
    7c8a:	00 20       	and	r0, r0
    7c8c:	e9 f7       	brne	.-6      	; 0x7c88 <vTaskList+0x5fa>
    7c8e:	11 97       	sbiw	r26, 0x01	; 1
    7c90:	a2 19       	sub	r26, r2
    7c92:	b3 09       	sbc	r27, r3
    7c94:	8a 81       	ldd	r24, Y+2	; 0x02
    7c96:	8f 5f       	subi	r24, 0xFF	; 255
    7c98:	8a 83       	std	Y+2, r24	; 0x02
    7c9a:	9a 81       	ldd	r25, Y+2	; 0x02
    7c9c:	89 81       	ldd	r24, Y+1	; 0x01
    7c9e:	2d b7       	in	r18, 0x3d	; 61
    7ca0:	3e b7       	in	r19, 0x3e	; 62
    7ca2:	22 5f       	subi	r18, 0xF2	; 242
    7ca4:	3f 4f       	sbci	r19, 0xFF	; 255
    7ca6:	0f b6       	in	r0, 0x3f	; 63
    7ca8:	f8 94       	cli
    7caa:	3e bf       	out	0x3e, r19	; 62
    7cac:	0f be       	out	0x3f, r0	; 63
    7cae:	2d bf       	out	0x3d, r18	; 61
    7cb0:	98 17       	cp	r25, r24
    7cb2:	08 f0       	brcs	.+2      	; 0x7cb6 <vTaskList+0x628>
    7cb4:	ae cd       	rjmp	.-1188   	; 0x7812 <vTaskList+0x184>
    7cb6:	2a 0e       	add	r2, r26
    7cb8:	3b 1e       	adc	r3, r27
    7cba:	8a 81       	ldd	r24, Y+2	; 0x02
    7cbc:	90 e0       	ldi	r25, 0x00	; 0
    7cbe:	fc 01       	movw	r30, r24
    7cc0:	ee 0f       	add	r30, r30
    7cc2:	ff 1f       	adc	r31, r31
    7cc4:	e8 0f       	add	r30, r24
    7cc6:	f9 1f       	adc	r31, r25
    7cc8:	cf 01       	movw	r24, r30
    7cca:	88 0f       	add	r24, r24
    7ccc:	99 1f       	adc	r25, r25
    7cce:	88 0f       	add	r24, r24
    7cd0:	99 1f       	adc	r25, r25
    7cd2:	e8 0f       	add	r30, r24
    7cd4:	f9 1f       	adc	r31, r25
    7cd6:	ea 0d       	add	r30, r10
    7cd8:	fb 1d       	adc	r31, r11
    7cda:	85 81       	ldd	r24, Z+5	; 0x05
    7cdc:	96 81       	ldd	r25, Z+6	; 0x06
    7cde:	82 30       	cpi	r24, 0x02	; 2
    7ce0:	91 05       	cpc	r25, r1
    7ce2:	69 f0       	breq	.+26     	; 0x7cfe <vTaskList+0x670>
    7ce4:	83 30       	cpi	r24, 0x03	; 3
    7ce6:	91 05       	cpc	r25, r1
    7ce8:	08 f4       	brcc	.+2      	; 0x7cec <vTaskList+0x65e>
    7cea:	58 cf       	rjmp	.-336    	; 0x7b9c <vTaskList+0x50e>
    7cec:	83 30       	cpi	r24, 0x03	; 3
    7cee:	91 05       	cpc	r25, r1
    7cf0:	49 f0       	breq	.+18     	; 0x7d04 <vTaskList+0x676>
    7cf2:	04 97       	sbiw	r24, 0x04	; 4
    7cf4:	09 f0       	breq	.+2      	; 0x7cf8 <vTaskList+0x66a>
    7cf6:	55 cf       	rjmp	.-342    	; 0x7ba2 <vTaskList+0x514>
    7cf8:	04 e4       	ldi	r16, 0x44	; 68
    7cfa:	10 e0       	ldi	r17, 0x00	; 0
    7cfc:	54 cf       	rjmp	.-344    	; 0x7ba6 <vTaskList+0x518>
    7cfe:	02 e4       	ldi	r16, 0x42	; 66
    7d00:	10 e0       	ldi	r17, 0x00	; 0
    7d02:	51 cf       	rjmp	.-350    	; 0x7ba6 <vTaskList+0x518>
    7d04:	03 e5       	ldi	r16, 0x53	; 83
    7d06:	10 e0       	ldi	r17, 0x00	; 0
    7d08:	4e cf       	rjmp	.-356    	; 0x7ba6 <vTaskList+0x518>
    7d0a:	02 e5       	ldi	r16, 0x52	; 82
    7d0c:	10 e0       	ldi	r17, 0x00	; 0
    7d0e:	4b cf       	rjmp	.-362    	; 0x7ba6 <vTaskList+0x518>
    7d10:	80 e0       	ldi	r24, 0x00	; 0
    7d12:	90 e0       	ldi	r25, 0x00	; 0
    7d14:	5e cd       	rjmp	.-1348   	; 0x77d2 <vTaskList+0x144>
    7d16:	dd 24       	eor	r13, r13
    7d18:	cb 80       	ldd	r12, Y+3	; 0x03
    7d1a:	cd 0c       	add	r12, r13
    7d1c:	8f e0       	ldi	r24, 0x0F	; 15
    7d1e:	c8 9e       	mul	r12, r24
    7d20:	40 01       	movw	r8, r0
    7d22:	11 24       	eor	r1, r1
    7d24:	8a 0c       	add	r8, r10
    7d26:	9b 1c       	adc	r9, r11
    7d28:	e0 90 b9 1c 	lds	r14, 0x1CB9
    7d2c:	f0 90 ba 1c 	lds	r15, 0x1CBA
    7d30:	f7 01       	movw	r30, r14
    7d32:	80 81       	ld	r24, Z
    7d34:	88 23       	and	r24, r24
    7d36:	09 f4       	brne	.+2      	; 0x7d3a <vTaskList+0x6ac>
    7d38:	86 c0       	rjmp	.+268    	; 0x7e46 <vTaskList+0x7b8>
    7d3a:	01 80       	ldd	r0, Z+1	; 0x01
    7d3c:	f2 81       	ldd	r31, Z+2	; 0x02
    7d3e:	e0 2d       	mov	r30, r0
    7d40:	02 80       	ldd	r0, Z+2	; 0x02
    7d42:	f3 81       	ldd	r31, Z+3	; 0x03
    7d44:	e0 2d       	mov	r30, r0
    7d46:	d7 01       	movw	r26, r14
    7d48:	12 96       	adiw	r26, 0x02	; 2
    7d4a:	fc 93       	st	X, r31
    7d4c:	ee 93       	st	-X, r30
    7d4e:	11 97       	sbiw	r26, 0x01	; 1
    7d50:	23 e0       	ldi	r18, 0x03	; 3
    7d52:	62 2e       	mov	r6, r18
    7d54:	71 2c       	mov	r7, r1
    7d56:	6e 0c       	add	r6, r14
    7d58:	7f 1c       	adc	r7, r15
    7d5a:	e6 15       	cp	r30, r6
    7d5c:	f7 05       	cpc	r31, r7
    7d5e:	09 f4       	brne	.+2      	; 0x7d62 <vTaskList+0x6d4>
    7d60:	fe c1       	rjmp	.+1020   	; 0x815e <vTaskList+0xad0>
    7d62:	46 80       	ldd	r4, Z+6	; 0x06
    7d64:	57 80       	ldd	r5, Z+7	; 0x07
    7d66:	dd 24       	eor	r13, r13
    7d68:	82 81       	ldd	r24, Z+2	; 0x02
    7d6a:	93 81       	ldd	r25, Z+3	; 0x03
    7d6c:	f7 01       	movw	r30, r14
    7d6e:	92 83       	std	Z+2, r25	; 0x02
    7d70:	81 83       	std	Z+1, r24	; 0x01
    7d72:	68 16       	cp	r6, r24
    7d74:	79 06       	cpc	r7, r25
    7d76:	09 f4       	brne	.+2      	; 0x7d7a <vTaskList+0x6ec>
    7d78:	5e c0       	rjmp	.+188    	; 0x7e36 <vTaskList+0x7a8>
    7d7a:	d7 01       	movw	r26, r14
    7d7c:	11 96       	adiw	r26, 0x01	; 1
    7d7e:	ed 91       	ld	r30, X+
    7d80:	fc 91       	ld	r31, X
    7d82:	12 97       	sbiw	r26, 0x02	; 2
    7d84:	66 81       	ldd	r22, Z+6	; 0x06
    7d86:	77 81       	ldd	r23, Z+7	; 0x07
    7d88:	bf e0       	ldi	r27, 0x0F	; 15
    7d8a:	db 9e       	mul	r13, r27
    7d8c:	80 01       	movw	r16, r0
    7d8e:	11 24       	eor	r1, r1
    7d90:	08 0d       	add	r16, r8
    7d92:	19 1d       	adc	r17, r9
    7d94:	f8 01       	movw	r30, r16
    7d96:	71 83       	std	Z+1, r23	; 0x01
    7d98:	60 83       	st	Z, r22
    7d9a:	67 5e       	subi	r22, 0xE7	; 231
    7d9c:	7f 4f       	sbci	r23, 0xFF	; 255
    7d9e:	73 83       	std	Z+3, r23	; 0x03
    7da0:	62 83       	std	Z+2, r22	; 0x02
    7da2:	69 51       	subi	r22, 0x19	; 25
    7da4:	70 40       	sbci	r23, 0x00	; 0
    7da6:	db 01       	movw	r26, r22
    7da8:	91 96       	adiw	r26, 0x21	; 33
    7daa:	8c 91       	ld	r24, X
    7dac:	91 97       	sbiw	r26, 0x21	; 33
    7dae:	84 83       	std	Z+4, r24	; 0x04
    7db0:	22 e0       	ldi	r18, 0x02	; 2
    7db2:	30 e0       	ldi	r19, 0x00	; 0
    7db4:	36 83       	std	Z+6, r19	; 0x06
    7db6:	25 83       	std	Z+5, r18	; 0x05
    7db8:	56 96       	adiw	r26, 0x16	; 22
    7dba:	8c 91       	ld	r24, X
    7dbc:	56 97       	sbiw	r26, 0x16	; 22
    7dbe:	87 83       	std	Z+7, r24	; 0x07
    7dc0:	93 96       	adiw	r26, 0x23	; 35
    7dc2:	8c 91       	ld	r24, X
    7dc4:	93 97       	sbiw	r26, 0x23	; 35
    7dc6:	80 87       	std	Z+8, r24	; 0x08
    7dc8:	94 96       	adiw	r26, 0x24	; 36
    7dca:	8d 91       	ld	r24, X+
    7dcc:	9d 91       	ld	r25, X+
    7dce:	0d 90       	ld	r0, X+
    7dd0:	bc 91       	ld	r27, X
    7dd2:	a0 2d       	mov	r26, r0
    7dd4:	81 87       	std	Z+9, r24	; 0x09
    7dd6:	92 87       	std	Z+10, r25	; 0x0a
    7dd8:	a3 87       	std	Z+11, r26	; 0x0b
    7dda:	b4 87       	std	Z+12, r27	; 0x0c
    7ddc:	fb 01       	movw	r30, r22
    7dde:	a7 89       	ldd	r26, Z+23	; 0x17
    7de0:	b0 8d       	ldd	r27, Z+24	; 0x18
    7de2:	8c 91       	ld	r24, X
    7de4:	85 3a       	cpi	r24, 0xA5	; 165
    7de6:	09 f0       	breq	.+2      	; 0x7dea <vTaskList+0x75c>
    7de8:	91 c1       	rjmp	.+802    	; 0x810c <vTaskList+0xa7e>
    7dea:	20 e0       	ldi	r18, 0x00	; 0
    7dec:	30 e0       	ldi	r19, 0x00	; 0
    7dee:	40 e0       	ldi	r20, 0x00	; 0
    7df0:	50 e0       	ldi	r21, 0x00	; 0
    7df2:	2f 5f       	subi	r18, 0xFF	; 255
    7df4:	3f 4f       	sbci	r19, 0xFF	; 255
    7df6:	4f 4f       	sbci	r20, 0xFF	; 255
    7df8:	5f 4f       	sbci	r21, 0xFF	; 255
    7dfa:	fd 01       	movw	r30, r26
    7dfc:	e2 0f       	add	r30, r18
    7dfe:	f3 1f       	adc	r31, r19
    7e00:	80 81       	ld	r24, Z
    7e02:	85 3a       	cpi	r24, 0xA5	; 165
    7e04:	b1 f3       	breq	.-20     	; 0x7df2 <vTaskList+0x764>
    7e06:	c9 01       	movw	r24, r18
    7e08:	d8 01       	movw	r26, r16
    7e0a:	1e 96       	adiw	r26, 0x0e	; 14
    7e0c:	9c 93       	st	X, r25
    7e0e:	8e 93       	st	-X, r24
    7e10:	1d 97       	sbiw	r26, 0x0d	; 13
    7e12:	d3 94       	inc	r13
    7e14:	46 16       	cp	r4, r22
    7e16:	57 06       	cpc	r5, r23
    7e18:	b9 f0       	breq	.+46     	; 0x7e48 <vTaskList+0x7ba>
    7e1a:	d7 01       	movw	r26, r14
    7e1c:	11 96       	adiw	r26, 0x01	; 1
    7e1e:	ed 91       	ld	r30, X+
    7e20:	fc 91       	ld	r31, X
    7e22:	12 97       	sbiw	r26, 0x02	; 2
    7e24:	82 81       	ldd	r24, Z+2	; 0x02
    7e26:	93 81       	ldd	r25, Z+3	; 0x03
    7e28:	f7 01       	movw	r30, r14
    7e2a:	92 83       	std	Z+2, r25	; 0x02
    7e2c:	81 83       	std	Z+1, r24	; 0x01
    7e2e:	68 16       	cp	r6, r24
    7e30:	79 06       	cpc	r7, r25
    7e32:	09 f0       	breq	.+2      	; 0x7e36 <vTaskList+0x7a8>
    7e34:	a2 cf       	rjmp	.-188    	; 0x7d7a <vTaskList+0x6ec>
    7e36:	d3 01       	movw	r26, r6
    7e38:	12 96       	adiw	r26, 0x02	; 2
    7e3a:	8d 91       	ld	r24, X+
    7e3c:	9c 91       	ld	r25, X
    7e3e:	13 97       	sbiw	r26, 0x03	; 3
    7e40:	92 83       	std	Z+2, r25	; 0x02
    7e42:	81 83       	std	Z+1, r24	; 0x01
    7e44:	9a cf       	rjmp	.-204    	; 0x7d7a <vTaskList+0x6ec>
    7e46:	dd 24       	eor	r13, r13
    7e48:	ed 2c       	mov	r14, r13
    7e4a:	ec 0c       	add	r14, r12
    7e4c:	8f e0       	ldi	r24, 0x0F	; 15
    7e4e:	e8 9e       	mul	r14, r24
    7e50:	60 01       	movw	r12, r0
    7e52:	11 24       	eor	r1, r1
    7e54:	ca 0c       	add	r12, r10
    7e56:	db 1c       	adc	r13, r11
    7e58:	80 91 c4 1c 	lds	r24, 0x1CC4
    7e5c:	88 23       	and	r24, r24
    7e5e:	09 f4       	brne	.+2      	; 0x7e62 <vTaskList+0x7d4>
    7e60:	7c c0       	rjmp	.+248    	; 0x7f5a <vTaskList+0x8cc>
    7e62:	e0 91 c5 1c 	lds	r30, 0x1CC5
    7e66:	f0 91 c6 1c 	lds	r31, 0x1CC6
    7e6a:	02 80       	ldd	r0, Z+2	; 0x02
    7e6c:	f3 81       	ldd	r31, Z+3	; 0x03
    7e6e:	e0 2d       	mov	r30, r0
    7e70:	f0 93 c6 1c 	sts	0x1CC6, r31
    7e74:	e0 93 c5 1c 	sts	0x1CC5, r30
    7e78:	bc e1       	ldi	r27, 0x1C	; 28
    7e7a:	e7 3c       	cpi	r30, 0xC7	; 199
    7e7c:	fb 07       	cpc	r31, r27
    7e7e:	09 f4       	brne	.+2      	; 0x7e82 <vTaskList+0x7f4>
    7e80:	78 c1       	rjmp	.+752    	; 0x8172 <vTaskList+0xae4>
    7e82:	e0 91 c5 1c 	lds	r30, 0x1CC5
    7e86:	f0 91 c6 1c 	lds	r31, 0x1CC6
    7e8a:	86 80       	ldd	r8, Z+6	; 0x06
    7e8c:	97 80       	ldd	r9, Z+7	; 0x07
    7e8e:	ff 24       	eor	r15, r15
    7e90:	9f e0       	ldi	r25, 0x0F	; 15
    7e92:	59 2e       	mov	r5, r25
    7e94:	84 e0       	ldi	r24, 0x04	; 4
    7e96:	68 2e       	mov	r6, r24
    7e98:	71 2c       	mov	r7, r1
    7e9a:	02 80       	ldd	r0, Z+2	; 0x02
    7e9c:	f3 81       	ldd	r31, Z+3	; 0x03
    7e9e:	e0 2d       	mov	r30, r0
    7ea0:	f0 93 c6 1c 	sts	0x1CC6, r31
    7ea4:	e0 93 c5 1c 	sts	0x1CC5, r30
    7ea8:	2c e1       	ldi	r18, 0x1C	; 28
    7eaa:	e7 3c       	cpi	r30, 0xC7	; 199
    7eac:	f2 07       	cpc	r31, r18
    7eae:	09 f4       	brne	.+2      	; 0x7eb2 <vTaskList+0x824>
    7eb0:	f6 c0       	rjmp	.+492    	; 0x809e <vTaskList+0xa10>
    7eb2:	e0 91 c5 1c 	lds	r30, 0x1CC5
    7eb6:	f0 91 c6 1c 	lds	r31, 0x1CC6
    7eba:	66 81       	ldd	r22, Z+6	; 0x06
    7ebc:	77 81       	ldd	r23, Z+7	; 0x07
    7ebe:	f5 9c       	mul	r15, r5
    7ec0:	80 01       	movw	r16, r0
    7ec2:	11 24       	eor	r1, r1
    7ec4:	0c 0d       	add	r16, r12
    7ec6:	1d 1d       	adc	r17, r13
    7ec8:	d8 01       	movw	r26, r16
    7eca:	11 96       	adiw	r26, 0x01	; 1
    7ecc:	7c 93       	st	X, r23
    7ece:	6e 93       	st	-X, r22
    7ed0:	67 5e       	subi	r22, 0xE7	; 231
    7ed2:	7f 4f       	sbci	r23, 0xFF	; 255
    7ed4:	13 96       	adiw	r26, 0x03	; 3
    7ed6:	7c 93       	st	X, r23
    7ed8:	6e 93       	st	-X, r22
    7eda:	12 97       	sbiw	r26, 0x02	; 2
    7edc:	69 51       	subi	r22, 0x19	; 25
    7ede:	70 40       	sbci	r23, 0x00	; 0
    7ee0:	fb 01       	movw	r30, r22
    7ee2:	81 a1       	ldd	r24, Z+33	; 0x21
    7ee4:	14 96       	adiw	r26, 0x04	; 4
    7ee6:	8c 93       	st	X, r24
    7ee8:	14 97       	sbiw	r26, 0x04	; 4
    7eea:	16 96       	adiw	r26, 0x06	; 6
    7eec:	7c 92       	st	X, r7
    7eee:	6e 92       	st	-X, r6
    7ef0:	15 97       	sbiw	r26, 0x05	; 5
    7ef2:	86 89       	ldd	r24, Z+22	; 0x16
    7ef4:	17 96       	adiw	r26, 0x07	; 7
    7ef6:	8c 93       	st	X, r24
    7ef8:	17 97       	sbiw	r26, 0x07	; 7
    7efa:	83 a1       	ldd	r24, Z+35	; 0x23
    7efc:	18 96       	adiw	r26, 0x08	; 8
    7efe:	8c 93       	st	X, r24
    7f00:	84 a1       	ldd	r24, Z+36	; 0x24
    7f02:	95 a1       	ldd	r25, Z+37	; 0x25
    7f04:	a6 a1       	ldd	r26, Z+38	; 0x26
    7f06:	b7 a1       	ldd	r27, Z+39	; 0x27
    7f08:	f8 01       	movw	r30, r16
    7f0a:	81 87       	std	Z+9, r24	; 0x09
    7f0c:	92 87       	std	Z+10, r25	; 0x0a
    7f0e:	a3 87       	std	Z+11, r26	; 0x0b
    7f10:	b4 87       	std	Z+12, r27	; 0x0c
    7f12:	fb 01       	movw	r30, r22
    7f14:	a7 89       	ldd	r26, Z+23	; 0x17
    7f16:	b0 8d       	ldd	r27, Z+24	; 0x18
    7f18:	8c 91       	ld	r24, X
    7f1a:	85 3a       	cpi	r24, 0xA5	; 165
    7f1c:	09 f0       	breq	.+2      	; 0x7f20 <vTaskList+0x892>
    7f1e:	f3 c0       	rjmp	.+486    	; 0x8106 <vTaskList+0xa78>
    7f20:	20 e0       	ldi	r18, 0x00	; 0
    7f22:	30 e0       	ldi	r19, 0x00	; 0
    7f24:	40 e0       	ldi	r20, 0x00	; 0
    7f26:	50 e0       	ldi	r21, 0x00	; 0
    7f28:	2f 5f       	subi	r18, 0xFF	; 255
    7f2a:	3f 4f       	sbci	r19, 0xFF	; 255
    7f2c:	4f 4f       	sbci	r20, 0xFF	; 255
    7f2e:	5f 4f       	sbci	r21, 0xFF	; 255
    7f30:	fd 01       	movw	r30, r26
    7f32:	e2 0f       	add	r30, r18
    7f34:	f3 1f       	adc	r31, r19
    7f36:	80 81       	ld	r24, Z
    7f38:	85 3a       	cpi	r24, 0xA5	; 165
    7f3a:	b1 f3       	breq	.-20     	; 0x7f28 <vTaskList+0x89a>
    7f3c:	c9 01       	movw	r24, r18
    7f3e:	d8 01       	movw	r26, r16
    7f40:	1e 96       	adiw	r26, 0x0e	; 14
    7f42:	9c 93       	st	X, r25
    7f44:	8e 93       	st	-X, r24
    7f46:	1d 97       	sbiw	r26, 0x0d	; 13
    7f48:	f3 94       	inc	r15
    7f4a:	86 16       	cp	r8, r22
    7f4c:	97 06       	cpc	r9, r23
    7f4e:	31 f0       	breq	.+12     	; 0x7f5c <vTaskList+0x8ce>
    7f50:	e0 91 c5 1c 	lds	r30, 0x1CC5
    7f54:	f0 91 c6 1c 	lds	r31, 0x1CC6
    7f58:	a0 cf       	rjmp	.-192    	; 0x7e9a <vTaskList+0x80c>
    7f5a:	ff 24       	eor	r15, r15
    7f5c:	ef 0c       	add	r14, r15
    7f5e:	8f e0       	ldi	r24, 0x0F	; 15
    7f60:	e8 9e       	mul	r14, r24
    7f62:	60 01       	movw	r12, r0
    7f64:	11 24       	eor	r1, r1
    7f66:	ca 0c       	add	r12, r10
    7f68:	db 1c       	adc	r13, r11
    7f6a:	80 91 cd 1c 	lds	r24, 0x1CCD
    7f6e:	88 23       	and	r24, r24
    7f70:	09 f4       	brne	.+2      	; 0x7f74 <vTaskList+0x8e6>
    7f72:	8a c0       	rjmp	.+276    	; 0x8088 <vTaskList+0x9fa>
    7f74:	e0 91 ce 1c 	lds	r30, 0x1CCE
    7f78:	f0 91 cf 1c 	lds	r31, 0x1CCF
    7f7c:	02 80       	ldd	r0, Z+2	; 0x02
    7f7e:	f3 81       	ldd	r31, Z+3	; 0x03
    7f80:	e0 2d       	mov	r30, r0
    7f82:	f0 93 cf 1c 	sts	0x1CCF, r31
    7f86:	e0 93 ce 1c 	sts	0x1CCE, r30
    7f8a:	bc e1       	ldi	r27, 0x1C	; 28
    7f8c:	e0 3d       	cpi	r30, 0xD0	; 208
    7f8e:	fb 07       	cpc	r31, r27
    7f90:	09 f4       	brne	.+2      	; 0x7f94 <vTaskList+0x906>
    7f92:	d4 c0       	rjmp	.+424    	; 0x813c <vTaskList+0xaae>
    7f94:	e0 91 ce 1c 	lds	r30, 0x1CCE
    7f98:	f0 91 cf 1c 	lds	r31, 0x1CCF
    7f9c:	86 80       	ldd	r8, Z+6	; 0x06
    7f9e:	97 80       	ldd	r9, Z+7	; 0x07
    7fa0:	ff 24       	eor	r15, r15
    7fa2:	03 e0       	ldi	r16, 0x03	; 3
    7fa4:	60 2e       	mov	r6, r16
    7fa6:	71 2c       	mov	r7, r1
    7fa8:	12 e0       	ldi	r17, 0x02	; 2
    7faa:	41 2e       	mov	r4, r17
    7fac:	51 2c       	mov	r5, r1
    7fae:	02 80       	ldd	r0, Z+2	; 0x02
    7fb0:	f3 81       	ldd	r31, Z+3	; 0x03
    7fb2:	e0 2d       	mov	r30, r0
    7fb4:	f0 93 cf 1c 	sts	0x1CCF, r31
    7fb8:	e0 93 ce 1c 	sts	0x1CCE, r30
    7fbc:	2c e1       	ldi	r18, 0x1C	; 28
    7fbe:	e0 3d       	cpi	r30, 0xD0	; 208
    7fc0:	f2 07       	cpc	r31, r18
    7fc2:	09 f4       	brne	.+2      	; 0x7fc6 <vTaskList+0x938>
    7fc4:	65 c0       	rjmp	.+202    	; 0x8090 <vTaskList+0xa02>
    7fc6:	e0 91 ce 1c 	lds	r30, 0x1CCE
    7fca:	f0 91 cf 1c 	lds	r31, 0x1CCF
    7fce:	66 81       	ldd	r22, Z+6	; 0x06
    7fd0:	77 81       	ldd	r23, Z+7	; 0x07
    7fd2:	3f e0       	ldi	r19, 0x0F	; 15
    7fd4:	f3 9e       	mul	r15, r19
    7fd6:	80 01       	movw	r16, r0
    7fd8:	11 24       	eor	r1, r1
    7fda:	0c 0d       	add	r16, r12
    7fdc:	1d 1d       	adc	r17, r13
    7fde:	d8 01       	movw	r26, r16
    7fe0:	11 96       	adiw	r26, 0x01	; 1
    7fe2:	7c 93       	st	X, r23
    7fe4:	6e 93       	st	-X, r22
    7fe6:	67 5e       	subi	r22, 0xE7	; 231
    7fe8:	7f 4f       	sbci	r23, 0xFF	; 255
    7fea:	13 96       	adiw	r26, 0x03	; 3
    7fec:	7c 93       	st	X, r23
    7fee:	6e 93       	st	-X, r22
    7ff0:	12 97       	sbiw	r26, 0x02	; 2
    7ff2:	69 51       	subi	r22, 0x19	; 25
    7ff4:	70 40       	sbci	r23, 0x00	; 0
    7ff6:	fb 01       	movw	r30, r22
    7ff8:	81 a1       	ldd	r24, Z+33	; 0x21
    7ffa:	14 96       	adiw	r26, 0x04	; 4
    7ffc:	8c 93       	st	X, r24
    7ffe:	14 97       	sbiw	r26, 0x04	; 4
    8000:	16 96       	adiw	r26, 0x06	; 6
    8002:	7c 92       	st	X, r7
    8004:	6e 92       	st	-X, r6
    8006:	15 97       	sbiw	r26, 0x05	; 5
    8008:	86 89       	ldd	r24, Z+22	; 0x16
    800a:	17 96       	adiw	r26, 0x07	; 7
    800c:	8c 93       	st	X, r24
    800e:	17 97       	sbiw	r26, 0x07	; 7
    8010:	84 89       	ldd	r24, Z+20	; 0x14
    8012:	95 89       	ldd	r25, Z+21	; 0x15
    8014:	89 2b       	or	r24, r25
    8016:	21 f0       	breq	.+8      	; 0x8020 <vTaskList+0x992>
    8018:	16 96       	adiw	r26, 0x06	; 6
    801a:	5c 92       	st	X, r5
    801c:	4e 92       	st	-X, r4
    801e:	15 97       	sbiw	r26, 0x05	; 5
    8020:	db 01       	movw	r26, r22
    8022:	93 96       	adiw	r26, 0x23	; 35
    8024:	8c 91       	ld	r24, X
    8026:	93 97       	sbiw	r26, 0x23	; 35
    8028:	f8 01       	movw	r30, r16
    802a:	80 87       	std	Z+8, r24	; 0x08
    802c:	94 96       	adiw	r26, 0x24	; 36
    802e:	8d 91       	ld	r24, X+
    8030:	9d 91       	ld	r25, X+
    8032:	0d 90       	ld	r0, X+
    8034:	bc 91       	ld	r27, X
    8036:	a0 2d       	mov	r26, r0
    8038:	81 87       	std	Z+9, r24	; 0x09
    803a:	92 87       	std	Z+10, r25	; 0x0a
    803c:	a3 87       	std	Z+11, r26	; 0x0b
    803e:	b4 87       	std	Z+12, r27	; 0x0c
    8040:	fb 01       	movw	r30, r22
    8042:	a7 89       	ldd	r26, Z+23	; 0x17
    8044:	b0 8d       	ldd	r27, Z+24	; 0x18
    8046:	8c 91       	ld	r24, X
    8048:	85 3a       	cpi	r24, 0xA5	; 165
    804a:	09 f0       	breq	.+2      	; 0x804e <vTaskList+0x9c0>
    804c:	6a c0       	rjmp	.+212    	; 0x8122 <vTaskList+0xa94>
    804e:	20 e0       	ldi	r18, 0x00	; 0
    8050:	30 e0       	ldi	r19, 0x00	; 0
    8052:	40 e0       	ldi	r20, 0x00	; 0
    8054:	50 e0       	ldi	r21, 0x00	; 0
    8056:	2f 5f       	subi	r18, 0xFF	; 255
    8058:	3f 4f       	sbci	r19, 0xFF	; 255
    805a:	4f 4f       	sbci	r20, 0xFF	; 255
    805c:	5f 4f       	sbci	r21, 0xFF	; 255
    805e:	fd 01       	movw	r30, r26
    8060:	e2 0f       	add	r30, r18
    8062:	f3 1f       	adc	r31, r19
    8064:	80 81       	ld	r24, Z
    8066:	85 3a       	cpi	r24, 0xA5	; 165
    8068:	b1 f3       	breq	.-20     	; 0x8056 <vTaskList+0x9c8>
    806a:	c9 01       	movw	r24, r18
    806c:	d8 01       	movw	r26, r16
    806e:	1e 96       	adiw	r26, 0x0e	; 14
    8070:	9c 93       	st	X, r25
    8072:	8e 93       	st	-X, r24
    8074:	1d 97       	sbiw	r26, 0x0d	; 13
    8076:	f3 94       	inc	r15
    8078:	86 16       	cp	r8, r22
    807a:	97 06       	cpc	r9, r23
    807c:	31 f0       	breq	.+12     	; 0x808a <vTaskList+0x9fc>
    807e:	e0 91 ce 1c 	lds	r30, 0x1CCE
    8082:	f0 91 cf 1c 	lds	r31, 0x1CCF
    8086:	93 cf       	rjmp	.-218    	; 0x7fae <vTaskList+0x920>
    8088:	ff 24       	eor	r15, r15
    808a:	7f 2c       	mov	r7, r15
    808c:	7e 0c       	add	r7, r14
    808e:	c9 cb       	rjmp	.-2158   	; 0x7822 <vTaskList+0x194>
    8090:	82 81       	ldd	r24, Z+2	; 0x02
    8092:	93 81       	ldd	r25, Z+3	; 0x03
    8094:	90 93 cf 1c 	sts	0x1CCF, r25
    8098:	80 93 ce 1c 	sts	0x1CCE, r24
    809c:	94 cf       	rjmp	.-216    	; 0x7fc6 <vTaskList+0x938>
    809e:	82 81       	ldd	r24, Z+2	; 0x02
    80a0:	93 81       	ldd	r25, Z+3	; 0x03
    80a2:	90 93 c6 1c 	sts	0x1CC6, r25
    80a6:	80 93 c5 1c 	sts	0x1CC5, r24
    80aa:	03 cf       	rjmp	.-506    	; 0x7eb2 <vTaskList+0x824>
    80ac:	60 92 70 1c 	sts	0x1C70, r6
    80b0:	57 cd       	rjmp	.-1362   	; 0x7b60 <vTaskList+0x4d2>
    80b2:	dd 24       	eor	r13, r13
    80b4:	e0 91 6c 1c 	lds	r30, 0x1C6C
    80b8:	f0 91 6d 1c 	lds	r31, 0x1C6D
    80bc:	86 89       	ldd	r24, Z+22	; 0x16
    80be:	90 e0       	ldi	r25, 0x00	; 0
    80c0:	fc 01       	movw	r30, r24
    80c2:	ee 0f       	add	r30, r30
    80c4:	ff 1f       	adc	r31, r31
    80c6:	ee 0f       	add	r30, r30
    80c8:	ff 1f       	adc	r31, r31
    80ca:	ee 0f       	add	r30, r30
    80cc:	ff 1f       	adc	r31, r31
    80ce:	e8 0f       	add	r30, r24
    80d0:	f9 1f       	adc	r31, r25
    80d2:	ef 57       	subi	r30, 0x7F	; 127
    80d4:	f3 4e       	sbci	r31, 0xE3	; 227
    80d6:	80 81       	ld	r24, Z
    80d8:	82 30       	cpi	r24, 0x02	; 2
    80da:	08 f4       	brcc	.+2      	; 0x80de <vTaskList+0xa50>
    80dc:	39 cd       	rjmp	.-1422   	; 0x7b50 <vTaskList+0x4c2>
    80de:	dd 24       	eor	r13, r13
    80e0:	d3 94       	inc	r13
    80e2:	36 cd       	rjmp	.-1428   	; 0x7b50 <vTaskList+0x4c2>
    80e4:	e0 91 b7 1c 	lds	r30, 0x1CB7
    80e8:	f0 91 b8 1c 	lds	r31, 0x1CB8
    80ec:	05 80       	ldd	r0, Z+5	; 0x05
    80ee:	f6 81       	ldd	r31, Z+6	; 0x06
    80f0:	e0 2d       	mov	r30, r0
    80f2:	06 80       	ldd	r0, Z+6	; 0x06
    80f4:	f7 81       	ldd	r31, Z+7	; 0x07
    80f6:	e0 2d       	mov	r30, r0
    80f8:	82 81       	ldd	r24, Z+2	; 0x02
    80fa:	93 81       	ldd	r25, Z+3	; 0x03
    80fc:	90 93 ad 09 	sts	0x09AD, r25
    8100:	80 93 ac 09 	sts	0x09AC, r24
    8104:	22 cc       	rjmp	.-1980   	; 0x794a <vTaskList+0x2bc>
    8106:	80 e0       	ldi	r24, 0x00	; 0
    8108:	90 e0       	ldi	r25, 0x00	; 0
    810a:	19 cf       	rjmp	.-462    	; 0x7f3e <vTaskList+0x8b0>
    810c:	80 e0       	ldi	r24, 0x00	; 0
    810e:	90 e0       	ldi	r25, 0x00	; 0
    8110:	7b ce       	rjmp	.-778    	; 0x7e08 <vTaskList+0x77a>
    8112:	80 e0       	ldi	r24, 0x00	; 0
    8114:	90 e0       	ldi	r25, 0x00	; 0
    8116:	f6 cc       	rjmp	.-1556   	; 0x7b04 <vTaskList+0x476>
    8118:	90 93 ad 09 	sts	0x09AD, r25
    811c:	80 93 ac 09 	sts	0x09AC, r24
    8120:	c9 cf       	rjmp	.-110    	; 0x80b4 <vTaskList+0xa26>
    8122:	80 e0       	ldi	r24, 0x00	; 0
    8124:	90 e0       	ldi	r25, 0x00	; 0
    8126:	a2 cf       	rjmp	.-188    	; 0x806c <vTaskList+0x9de>
    8128:	82 81       	ldd	r24, Z+2	; 0x02
    812a:	93 81       	ldd	r25, Z+3	; 0x03
    812c:	11 96       	adiw	r26, 0x01	; 1
    812e:	8c 93       	st	X, r24
    8130:	11 97       	sbiw	r26, 0x01	; 1
    8132:	12 96       	adiw	r26, 0x02	; 2
    8134:	9c 93       	st	X, r25
    8136:	9c 01       	movw	r18, r24
    8138:	f9 01       	movw	r30, r18
    813a:	f8 ca       	rjmp	.-2576   	; 0x772c <vTaskList+0x9e>
    813c:	82 81       	ldd	r24, Z+2	; 0x02
    813e:	93 81       	ldd	r25, Z+3	; 0x03
    8140:	90 93 cf 1c 	sts	0x1CCF, r25
    8144:	80 93 ce 1c 	sts	0x1CCE, r24
    8148:	25 cf       	rjmp	.-438    	; 0x7f94 <vTaskList+0x906>
    814a:	82 81       	ldd	r24, Z+2	; 0x02
    814c:	93 81       	ldd	r25, Z+3	; 0x03
    814e:	11 96       	adiw	r26, 0x01	; 1
    8150:	8c 93       	st	X, r24
    8152:	11 97       	sbiw	r26, 0x01	; 1
    8154:	12 96       	adiw	r26, 0x02	; 2
    8156:	9c 93       	st	X, r25
    8158:	9c 01       	movw	r18, r24
    815a:	f9 01       	movw	r30, r18
    815c:	7f cc       	rjmp	.-1794   	; 0x7a5c <vTaskList+0x3ce>
    815e:	82 81       	ldd	r24, Z+2	; 0x02
    8160:	93 81       	ldd	r25, Z+3	; 0x03
    8162:	11 96       	adiw	r26, 0x01	; 1
    8164:	8c 93       	st	X, r24
    8166:	11 97       	sbiw	r26, 0x01	; 1
    8168:	12 96       	adiw	r26, 0x02	; 2
    816a:	9c 93       	st	X, r25
    816c:	9c 01       	movw	r18, r24
    816e:	f9 01       	movw	r30, r18
    8170:	f8 cd       	rjmp	.-1040   	; 0x7d62 <vTaskList+0x6d4>
    8172:	82 81       	ldd	r24, Z+2	; 0x02
    8174:	93 81       	ldd	r25, Z+3	; 0x03
    8176:	90 93 c6 1c 	sts	0x1CC6, r25
    817a:	80 93 c5 1c 	sts	0x1CC5, r24
    817e:	81 ce       	rjmp	.-766    	; 0x7e82 <vTaskList+0x7f4>

00008180 <vTaskResume>:
    8180:	0f 93       	push	r16
    8182:	1f 93       	push	r17
    8184:	cf 93       	push	r28
    8186:	df 93       	push	r29
    8188:	ec 01       	movw	r28, r24
    818a:	00 97       	sbiw	r24, 0x00	; 0
    818c:	89 f0       	breq	.+34     	; 0x81b0 <vTaskResume+0x30>
    818e:	80 91 6c 1c 	lds	r24, 0x1C6C
    8192:	90 91 6d 1c 	lds	r25, 0x1C6D
    8196:	c8 17       	cp	r28, r24
    8198:	d9 07       	cpc	r29, r25
    819a:	51 f0       	breq	.+20     	; 0x81b0 <vTaskResume+0x30>
    819c:	0f b6       	in	r0, 0x3f	; 63
    819e:	f8 94       	cli
    81a0:	0f 92       	push	r0
    81a2:	8a 85       	ldd	r24, Y+10	; 0x0a
    81a4:	9b 85       	ldd	r25, Y+11	; 0x0b
    81a6:	8d 5c       	subi	r24, 0xCD	; 205
    81a8:	9c 41       	sbci	r25, 0x1C	; 28
    81aa:	39 f0       	breq	.+14     	; 0x81ba <vTaskResume+0x3a>
    81ac:	0f 90       	pop	r0
    81ae:	0f be       	out	0x3f, r0	; 63
    81b0:	df 91       	pop	r29
    81b2:	cf 91       	pop	r28
    81b4:	1f 91       	pop	r17
    81b6:	0f 91       	pop	r16
    81b8:	08 95       	ret
    81ba:	8c 89       	ldd	r24, Y+20	; 0x14
    81bc:	9d 89       	ldd	r25, Y+21	; 0x15
    81be:	2c e1       	ldi	r18, 0x1C	; 28
    81c0:	8b 3b       	cpi	r24, 0xBB	; 187
    81c2:	92 07       	cpc	r25, r18
    81c4:	99 f3       	breq	.-26     	; 0x81ac <vTaskResume+0x2c>
    81c6:	89 2b       	or	r24, r25
    81c8:	89 f7       	brne	.-30     	; 0x81ac <vTaskResume+0x2c>
    81ca:	8e 01       	movw	r16, r28
    81cc:	0e 5f       	subi	r16, 0xFE	; 254
    81ce:	1f 4f       	sbci	r17, 0xFF	; 255
    81d0:	c8 01       	movw	r24, r16
    81d2:	0e 94 f0 49 	call	0x93e0	; 0x93e0 <uxListRemove>
    81d6:	9e 89       	ldd	r25, Y+22	; 0x16
    81d8:	80 91 6f 1c 	lds	r24, 0x1C6F
    81dc:	89 17       	cp	r24, r25
    81de:	10 f4       	brcc	.+4      	; 0x81e4 <vTaskResume+0x64>
    81e0:	90 93 6f 1c 	sts	0x1C6F, r25
    81e4:	89 e0       	ldi	r24, 0x09	; 9
    81e6:	98 9f       	mul	r25, r24
    81e8:	c0 01       	movw	r24, r0
    81ea:	11 24       	eor	r1, r1
    81ec:	8f 57       	subi	r24, 0x7F	; 127
    81ee:	93 4e       	sbci	r25, 0xE3	; 227
    81f0:	b8 01       	movw	r22, r16
    81f2:	0e 94 9f 49 	call	0x933e	; 0x933e <vListInsertEnd>
    81f6:	e0 91 6c 1c 	lds	r30, 0x1C6C
    81fa:	f0 91 6d 1c 	lds	r31, 0x1C6D
    81fe:	9e 89       	ldd	r25, Y+22	; 0x16
    8200:	86 89       	ldd	r24, Z+22	; 0x16
    8202:	98 17       	cp	r25, r24
    8204:	98 f2       	brcs	.-90     	; 0x81ac <vTaskResume+0x2c>
    8206:	0e 94 2a 49 	call	0x9254	; 0x9254 <vPortYield>
    820a:	d0 cf       	rjmp	.-96     	; 0x81ac <vTaskResume+0x2c>

0000820c <vTaskSuspend>:
    820c:	ef 92       	push	r14
    820e:	ff 92       	push	r15
    8210:	0f 93       	push	r16
    8212:	1f 93       	push	r17
    8214:	cf 93       	push	r28
    8216:	df 93       	push	r29
    8218:	0f b6       	in	r0, 0x3f	; 63
    821a:	f8 94       	cli
    821c:	0f 92       	push	r0
    821e:	00 97       	sbiw	r24, 0x00	; 0
    8220:	09 f4       	brne	.+2      	; 0x8224 <vTaskSuspend+0x18>
    8222:	dd c0       	rjmp	.+442    	; 0x83de <vTaskSuspend+0x1d2>
    8224:	ec 01       	movw	r28, r24
    8226:	8e 01       	movw	r16, r28
    8228:	0e 5f       	subi	r16, 0xFE	; 254
    822a:	1f 4f       	sbci	r17, 0xFF	; 255
    822c:	c8 01       	movw	r24, r16
    822e:	0e 94 f0 49 	call	0x93e0	; 0x93e0 <uxListRemove>
    8232:	8c 89       	ldd	r24, Y+20	; 0x14
    8234:	9d 89       	ldd	r25, Y+21	; 0x15
    8236:	89 2b       	or	r24, r25
    8238:	21 f0       	breq	.+8      	; 0x8242 <vTaskSuspend+0x36>
    823a:	ce 01       	movw	r24, r28
    823c:	0c 96       	adiw	r24, 0x0c	; 12
    823e:	0e 94 f0 49 	call	0x93e0	; 0x93e0 <uxListRemove>
    8242:	8d ec       	ldi	r24, 0xCD	; 205
    8244:	9c e1       	ldi	r25, 0x1C	; 28
    8246:	b8 01       	movw	r22, r16
    8248:	0e 94 9f 49 	call	0x933e	; 0x933e <vListInsertEnd>
    824c:	0f 90       	pop	r0
    824e:	0f be       	out	0x3f, r0	; 63
    8250:	80 91 6c 1c 	lds	r24, 0x1C6C
    8254:	90 91 6d 1c 	lds	r25, 0x1C6D
    8258:	c8 17       	cp	r28, r24
    825a:	d9 07       	cpc	r29, r25
    825c:	61 f1       	breq	.+88     	; 0x82b6 <vTaskSuspend+0xaa>
    825e:	80 91 7e 1c 	lds	r24, 0x1C7E
    8262:	88 23       	and	r24, r24
    8264:	91 f0       	breq	.+36     	; 0x828a <vTaskSuspend+0x7e>
    8266:	0f b6       	in	r0, 0x3f	; 63
    8268:	f8 94       	cli
    826a:	0f 92       	push	r0
    826c:	e0 91 b7 1c 	lds	r30, 0x1CB7
    8270:	f0 91 b8 1c 	lds	r31, 0x1CB8
    8274:	80 81       	ld	r24, Z
    8276:	88 23       	and	r24, r24
    8278:	69 f4       	brne	.+26     	; 0x8294 <vTaskSuspend+0x88>
    827a:	8f ef       	ldi	r24, 0xFF	; 255
    827c:	9f ef       	ldi	r25, 0xFF	; 255
    827e:	90 93 ad 09 	sts	0x09AD, r25
    8282:	80 93 ac 09 	sts	0x09AC, r24
    8286:	0f 90       	pop	r0
    8288:	0f be       	out	0x3f, r0	; 63
    828a:	cd b7       	in	r28, 0x3d	; 61
    828c:	de b7       	in	r29, 0x3e	; 62
    828e:	e6 e0       	ldi	r30, 0x06	; 6
    8290:	0c 94 b4 53 	jmp	0xa768	; 0xa768 <__epilogue_restores__+0x18>
    8294:	e0 91 b7 1c 	lds	r30, 0x1CB7
    8298:	f0 91 b8 1c 	lds	r31, 0x1CB8
    829c:	05 80       	ldd	r0, Z+5	; 0x05
    829e:	f6 81       	ldd	r31, Z+6	; 0x06
    82a0:	e0 2d       	mov	r30, r0
    82a2:	06 80       	ldd	r0, Z+6	; 0x06
    82a4:	f7 81       	ldd	r31, Z+7	; 0x07
    82a6:	e0 2d       	mov	r30, r0
    82a8:	82 81       	ldd	r24, Z+2	; 0x02
    82aa:	93 81       	ldd	r25, Z+3	; 0x03
    82ac:	90 93 ad 09 	sts	0x09AD, r25
    82b0:	80 93 ac 09 	sts	0x09AC, r24
    82b4:	e8 cf       	rjmp	.-48     	; 0x8286 <vTaskSuspend+0x7a>
    82b6:	80 91 7e 1c 	lds	r24, 0x1C7E
    82ba:	88 23       	and	r24, r24
    82bc:	09 f0       	breq	.+2      	; 0x82c0 <vTaskSuspend+0xb4>
    82be:	98 c0       	rjmp	.+304    	; 0x83f0 <vTaskSuspend+0x1e4>
    82c0:	90 91 6e 1c 	lds	r25, 0x1C6E
    82c4:	80 91 cd 1c 	lds	r24, 0x1CCD
    82c8:	89 17       	cp	r24, r25
    82ca:	09 f4       	brne	.+2      	; 0x82ce <vTaskSuspend+0xc2>
    82cc:	94 c0       	rjmp	.+296    	; 0x83f6 <vTaskSuspend+0x1ea>
    82ce:	80 91 74 1c 	lds	r24, 0x1C74
    82d2:	88 23       	and	r24, r24
    82d4:	09 f0       	breq	.+2      	; 0x82d8 <vTaskSuspend+0xcc>
    82d6:	88 c0       	rjmp	.+272    	; 0x83e8 <vTaskSuspend+0x1dc>
    82d8:	10 92 70 1c 	sts	0x1C70, r1
    82dc:	80 91 84 00 	lds	r24, 0x0084
    82e0:	90 91 85 00 	lds	r25, 0x0085
    82e4:	7c 01       	movw	r14, r24
    82e6:	00 e0       	ldi	r16, 0x00	; 0
    82e8:	10 e0       	ldi	r17, 0x00	; 0
    82ea:	e0 92 75 1c 	sts	0x1C75, r14
    82ee:	f0 92 76 1c 	sts	0x1C76, r15
    82f2:	00 93 77 1c 	sts	0x1C77, r16
    82f6:	10 93 78 1c 	sts	0x1C78, r17
    82fa:	80 91 79 1c 	lds	r24, 0x1C79
    82fe:	90 91 7a 1c 	lds	r25, 0x1C7A
    8302:	a0 91 7b 1c 	lds	r26, 0x1C7B
    8306:	b0 91 7c 1c 	lds	r27, 0x1C7C
    830a:	8e 15       	cp	r24, r14
    830c:	9f 05       	cpc	r25, r15
    830e:	a0 07       	cpc	r26, r16
    8310:	b1 07       	cpc	r27, r17
    8312:	b0 f4       	brcc	.+44     	; 0x8340 <vTaskSuspend+0x134>
    8314:	e0 91 6c 1c 	lds	r30, 0x1C6C
    8318:	f0 91 6d 1c 	lds	r31, 0x1C6D
    831c:	a8 01       	movw	r20, r16
    831e:	97 01       	movw	r18, r14
    8320:	28 1b       	sub	r18, r24
    8322:	39 0b       	sbc	r19, r25
    8324:	4a 0b       	sbc	r20, r26
    8326:	5b 0b       	sbc	r21, r27
    8328:	84 a1       	ldd	r24, Z+36	; 0x24
    832a:	95 a1       	ldd	r25, Z+37	; 0x25
    832c:	a6 a1       	ldd	r26, Z+38	; 0x26
    832e:	b7 a1       	ldd	r27, Z+39	; 0x27
    8330:	82 0f       	add	r24, r18
    8332:	93 1f       	adc	r25, r19
    8334:	a4 1f       	adc	r26, r20
    8336:	b5 1f       	adc	r27, r21
    8338:	84 a3       	std	Z+36, r24	; 0x24
    833a:	95 a3       	std	Z+37, r25	; 0x25
    833c:	a6 a3       	std	Z+38, r26	; 0x26
    833e:	b7 a3       	std	Z+39, r27	; 0x27
    8340:	e0 92 79 1c 	sts	0x1C79, r14
    8344:	f0 92 7a 1c 	sts	0x1C7A, r15
    8348:	00 93 7b 1c 	sts	0x1C7B, r16
    834c:	10 93 7c 1c 	sts	0x1C7C, r17
    8350:	e0 91 6c 1c 	lds	r30, 0x1C6C
    8354:	f0 91 6d 1c 	lds	r31, 0x1C6D
    8358:	a0 91 6c 1c 	lds	r26, 0x1C6C
    835c:	b0 91 6d 1c 	lds	r27, 0x1C6D
    8360:	20 81       	ld	r18, Z
    8362:	31 81       	ldd	r19, Z+1	; 0x01
    8364:	57 96       	adiw	r26, 0x17	; 23
    8366:	8d 91       	ld	r24, X+
    8368:	9c 91       	ld	r25, X
    836a:	58 97       	sbiw	r26, 0x18	; 24
    836c:	82 17       	cp	r24, r18
    836e:	93 07       	cpc	r25, r19
    8370:	30 f0       	brcs	.+12     	; 0x837e <vTaskSuspend+0x172>
    8372:	46 c0       	rjmp	.+140    	; 0x8400 <vTaskSuspend+0x1f4>
    8374:	80 91 6f 1c 	lds	r24, 0x1C6F
    8378:	81 50       	subi	r24, 0x01	; 1
    837a:	80 93 6f 1c 	sts	0x1C6F, r24
    837e:	80 91 6f 1c 	lds	r24, 0x1C6F
    8382:	90 e0       	ldi	r25, 0x00	; 0
    8384:	fc 01       	movw	r30, r24
    8386:	ee 0f       	add	r30, r30
    8388:	ff 1f       	adc	r31, r31
    838a:	ee 0f       	add	r30, r30
    838c:	ff 1f       	adc	r31, r31
    838e:	ee 0f       	add	r30, r30
    8390:	ff 1f       	adc	r31, r31
    8392:	e8 0f       	add	r30, r24
    8394:	f9 1f       	adc	r31, r25
    8396:	ef 57       	subi	r30, 0x7F	; 127
    8398:	f3 4e       	sbci	r31, 0xE3	; 227
    839a:	80 81       	ld	r24, Z
    839c:	88 23       	and	r24, r24
    839e:	51 f3       	breq	.-44     	; 0x8374 <vTaskSuspend+0x168>
    83a0:	90 91 6f 1c 	lds	r25, 0x1C6F
    83a4:	89 e0       	ldi	r24, 0x09	; 9
    83a6:	98 9f       	mul	r25, r24
    83a8:	d0 01       	movw	r26, r0
    83aa:	11 24       	eor	r1, r1
    83ac:	af 57       	subi	r26, 0x7F	; 127
    83ae:	b3 4e       	sbci	r27, 0xE3	; 227
    83b0:	11 96       	adiw	r26, 0x01	; 1
    83b2:	ed 91       	ld	r30, X+
    83b4:	fc 91       	ld	r31, X
    83b6:	12 97       	sbiw	r26, 0x02	; 2
    83b8:	02 80       	ldd	r0, Z+2	; 0x02
    83ba:	f3 81       	ldd	r31, Z+3	; 0x03
    83bc:	e0 2d       	mov	r30, r0
    83be:	12 96       	adiw	r26, 0x02	; 2
    83c0:	fc 93       	st	X, r31
    83c2:	ee 93       	st	-X, r30
    83c4:	11 97       	sbiw	r26, 0x01	; 1
    83c6:	cd 01       	movw	r24, r26
    83c8:	03 96       	adiw	r24, 0x03	; 3
    83ca:	e8 17       	cp	r30, r24
    83cc:	f9 07       	cpc	r31, r25
    83ce:	29 f1       	breq	.+74     	; 0x841a <vTaskSuspend+0x20e>
    83d0:	86 81       	ldd	r24, Z+6	; 0x06
    83d2:	97 81       	ldd	r25, Z+7	; 0x07
    83d4:	90 93 6d 1c 	sts	0x1C6D, r25
    83d8:	80 93 6c 1c 	sts	0x1C6C, r24
    83dc:	56 cf       	rjmp	.-340    	; 0x828a <vTaskSuspend+0x7e>
    83de:	c0 91 6c 1c 	lds	r28, 0x1C6C
    83e2:	d0 91 6d 1c 	lds	r29, 0x1C6D
    83e6:	1f cf       	rjmp	.-450    	; 0x8226 <vTaskSuspend+0x1a>
    83e8:	81 e0       	ldi	r24, 0x01	; 1
    83ea:	80 93 70 1c 	sts	0x1C70, r24
    83ee:	4d cf       	rjmp	.-358    	; 0x828a <vTaskSuspend+0x7e>
    83f0:	0e 94 2a 49 	call	0x9254	; 0x9254 <vPortYield>
    83f4:	4a cf       	rjmp	.-364    	; 0x828a <vTaskSuspend+0x7e>
    83f6:	10 92 6d 1c 	sts	0x1C6D, r1
    83fa:	10 92 6c 1c 	sts	0x1C6C, r1
    83fe:	45 cf       	rjmp	.-374    	; 0x828a <vTaskSuspend+0x7e>
    8400:	80 91 6c 1c 	lds	r24, 0x1C6C
    8404:	90 91 6d 1c 	lds	r25, 0x1C6D
    8408:	60 91 6c 1c 	lds	r22, 0x1C6C
    840c:	70 91 6d 1c 	lds	r23, 0x1C6D
    8410:	67 5e       	subi	r22, 0xE7	; 231
    8412:	7f 4f       	sbci	r23, 0xFF	; 255
    8414:	0e 94 2b 0c 	call	0x1856	; 0x1856 <vApplicationStackOverflowHook>
    8418:	b2 cf       	rjmp	.-156    	; 0x837e <vTaskSuspend+0x172>
    841a:	82 81       	ldd	r24, Z+2	; 0x02
    841c:	93 81       	ldd	r25, Z+3	; 0x03
    841e:	11 96       	adiw	r26, 0x01	; 1
    8420:	8c 93       	st	X, r24
    8422:	11 97       	sbiw	r26, 0x01	; 1
    8424:	12 96       	adiw	r26, 0x02	; 2
    8426:	9c 93       	st	X, r25
    8428:	9c 01       	movw	r18, r24
    842a:	f9 01       	movw	r30, r18
    842c:	d1 cf       	rjmp	.-94     	; 0x83d0 <vTaskSuspend+0x1c4>

0000842e <vTaskDelay>:
    842e:	a0 e0       	ldi	r26, 0x00	; 0
    8430:	b0 e0       	ldi	r27, 0x00	; 0
    8432:	ed e1       	ldi	r30, 0x1D	; 29
    8434:	f2 e4       	ldi	r31, 0x42	; 66
    8436:	0c 94 93 53 	jmp	0xa726	; 0xa726 <__prologue_saves__+0xe>
    843a:	9c 01       	movw	r18, r24
    843c:	00 97       	sbiw	r24, 0x00	; 0
    843e:	41 f4       	brne	.+16     	; 0x8450 <vTaskDelay+0x22>
    8440:	0e 94 2a 49 	call	0x9254	; 0x9254 <vPortYield>
    8444:	cd b7       	in	r28, 0x3d	; 61
    8446:	de b7       	in	r29, 0x3e	; 62
    8448:	eb e0       	ldi	r30, 0x0B	; 11
    844a:	0c 94 af 53 	jmp	0xa75e	; 0xa75e <__epilogue_restores__+0xe>
    844e:	77 c1       	rjmp	.+750    	; 0x873e <vTaskDelayUntil>
    8450:	80 91 74 1c 	lds	r24, 0x1C74
    8454:	8f 5f       	subi	r24, 0xFF	; 255
    8456:	80 93 74 1c 	sts	0x1C74, r24
    845a:	c0 91 71 1c 	lds	r28, 0x1C71
    845e:	d0 91 72 1c 	lds	r29, 0x1C72
    8462:	c2 0f       	add	r28, r18
    8464:	d3 1f       	adc	r29, r19
    8466:	80 91 6c 1c 	lds	r24, 0x1C6C
    846a:	90 91 6d 1c 	lds	r25, 0x1C6D
    846e:	02 96       	adiw	r24, 0x02	; 2
    8470:	0e 94 f0 49 	call	0x93e0	; 0x93e0 <uxListRemove>
    8474:	e0 91 6c 1c 	lds	r30, 0x1C6C
    8478:	f0 91 6d 1c 	lds	r31, 0x1C6D
    847c:	d3 83       	std	Z+3, r29	; 0x03
    847e:	c2 83       	std	Z+2, r28	; 0x02
    8480:	80 91 71 1c 	lds	r24, 0x1C71
    8484:	90 91 72 1c 	lds	r25, 0x1C72
    8488:	c8 17       	cp	r28, r24
    848a:	d9 07       	cpc	r29, r25
    848c:	08 f4       	brcc	.+2      	; 0x8490 <vTaskDelay+0x62>
    848e:	5b c0       	rjmp	.+182    	; 0x8546 <vTaskDelay+0x118>
    8490:	80 91 b7 1c 	lds	r24, 0x1CB7
    8494:	90 91 b8 1c 	lds	r25, 0x1CB8
    8498:	60 91 6c 1c 	lds	r22, 0x1C6C
    849c:	70 91 6d 1c 	lds	r23, 0x1C6D
    84a0:	6e 5f       	subi	r22, 0xFE	; 254
    84a2:	7f 4f       	sbci	r23, 0xFF	; 255
    84a4:	0e 94 be 49 	call	0x937c	; 0x937c <vListInsert>
    84a8:	80 91 ac 09 	lds	r24, 0x09AC
    84ac:	90 91 ad 09 	lds	r25, 0x09AD
    84b0:	c8 17       	cp	r28, r24
    84b2:	d9 07       	cpc	r29, r25
    84b4:	20 f4       	brcc	.+8      	; 0x84be <vTaskDelay+0x90>
    84b6:	d0 93 ad 09 	sts	0x09AD, r29
    84ba:	c0 93 ac 09 	sts	0x09AC, r28
    84be:	0f b6       	in	r0, 0x3f	; 63
    84c0:	f8 94       	cli
    84c2:	0f 92       	push	r0
    84c4:	80 91 74 1c 	lds	r24, 0x1C74
    84c8:	81 50       	subi	r24, 0x01	; 1
    84ca:	80 93 74 1c 	sts	0x1C74, r24
    84ce:	80 91 74 1c 	lds	r24, 0x1C74
    84d2:	88 23       	and	r24, r24
    84d4:	09 f0       	breq	.+2      	; 0x84d8 <vTaskDelay+0xaa>
    84d6:	4d c0       	rjmp	.+154    	; 0x8572 <vTaskDelay+0x144>
    84d8:	80 91 6e 1c 	lds	r24, 0x1C6E
    84dc:	88 23       	and	r24, r24
    84de:	09 f4       	brne	.+2      	; 0x84e2 <vTaskDelay+0xb4>
    84e0:	48 c0       	rjmp	.+144    	; 0x8572 <vTaskDelay+0x144>
    84e2:	99 e0       	ldi	r25, 0x09	; 9
    84e4:	f9 2e       	mov	r15, r25
    84e6:	ee 24       	eor	r14, r14
    84e8:	e3 94       	inc	r14
    84ea:	80 91 bb 1c 	lds	r24, 0x1CBB
    84ee:	88 23       	and	r24, r24
    84f0:	b9 f1       	breq	.+110    	; 0x8560 <vTaskDelay+0x132>
    84f2:	e0 91 c0 1c 	lds	r30, 0x1CC0
    84f6:	f0 91 c1 1c 	lds	r31, 0x1CC1
    84fa:	c6 81       	ldd	r28, Z+6	; 0x06
    84fc:	d7 81       	ldd	r29, Z+7	; 0x07
    84fe:	ce 01       	movw	r24, r28
    8500:	0c 96       	adiw	r24, 0x0c	; 12
    8502:	0e 94 f0 49 	call	0x93e0	; 0x93e0 <uxListRemove>
    8506:	8e 01       	movw	r16, r28
    8508:	0e 5f       	subi	r16, 0xFE	; 254
    850a:	1f 4f       	sbci	r17, 0xFF	; 255
    850c:	c8 01       	movw	r24, r16
    850e:	0e 94 f0 49 	call	0x93e0	; 0x93e0 <uxListRemove>
    8512:	9e 89       	ldd	r25, Y+22	; 0x16
    8514:	80 91 6f 1c 	lds	r24, 0x1C6F
    8518:	89 17       	cp	r24, r25
    851a:	10 f4       	brcc	.+4      	; 0x8520 <vTaskDelay+0xf2>
    851c:	90 93 6f 1c 	sts	0x1C6F, r25
    8520:	9f 9d       	mul	r25, r15
    8522:	c0 01       	movw	r24, r0
    8524:	11 24       	eor	r1, r1
    8526:	8f 57       	subi	r24, 0x7F	; 127
    8528:	93 4e       	sbci	r25, 0xE3	; 227
    852a:	b8 01       	movw	r22, r16
    852c:	0e 94 9f 49 	call	0x933e	; 0x933e <vListInsertEnd>
    8530:	e0 91 6c 1c 	lds	r30, 0x1C6C
    8534:	f0 91 6d 1c 	lds	r31, 0x1C6D
    8538:	9e 89       	ldd	r25, Y+22	; 0x16
    853a:	86 89       	ldd	r24, Z+22	; 0x16
    853c:	98 17       	cp	r25, r24
    853e:	a8 f2       	brcs	.-86     	; 0x84ea <vTaskDelay+0xbc>
    8540:	e0 92 70 1c 	sts	0x1C70, r14
    8544:	d2 cf       	rjmp	.-92     	; 0x84ea <vTaskDelay+0xbc>
    8546:	80 91 b9 1c 	lds	r24, 0x1CB9
    854a:	90 91 ba 1c 	lds	r25, 0x1CBA
    854e:	60 91 6c 1c 	lds	r22, 0x1C6C
    8552:	70 91 6d 1c 	lds	r23, 0x1C6D
    8556:	6e 5f       	subi	r22, 0xFE	; 254
    8558:	7f 4f       	sbci	r23, 0xFF	; 255
    855a:	0e 94 be 49 	call	0x937c	; 0x937c <vListInsert>
    855e:	af cf       	rjmp	.-162    	; 0x84be <vTaskDelay+0x90>
    8560:	80 91 7d 1c 	lds	r24, 0x1C7D
    8564:	88 23       	and	r24, r24
    8566:	89 f4       	brne	.+34     	; 0x858a <vTaskDelay+0x15c>
    8568:	80 91 70 1c 	lds	r24, 0x1C70
    856c:	81 30       	cpi	r24, 0x01	; 1
    856e:	09 f4       	brne	.+2      	; 0x8572 <vTaskDelay+0x144>
    8570:	95 c0       	rjmp	.+298    	; 0x869c <vTaskDelay+0x26e>
    8572:	80 e0       	ldi	r24, 0x00	; 0
    8574:	0f 90       	pop	r0
    8576:	0f be       	out	0x3f, r0	; 63
    8578:	88 23       	and	r24, r24
    857a:	09 f4       	brne	.+2      	; 0x857e <vTaskDelay+0x150>
    857c:	61 cf       	rjmp	.-318    	; 0x8440 <vTaskDelay+0x12>
    857e:	cd b7       	in	r28, 0x3d	; 61
    8580:	de b7       	in	r29, 0x3e	; 62
    8582:	eb e0       	ldi	r30, 0x0B	; 11
    8584:	0c 94 af 53 	jmp	0xa75e	; 0xa75e <__epilogue_restores__+0xe>
    8588:	da c0       	rjmp	.+436    	; 0x873e <vTaskDelayUntil>
    858a:	80 91 7d 1c 	lds	r24, 0x1C7D
    858e:	88 23       	and	r24, r24
    8590:	59 f3       	breq	.-42     	; 0x8568 <vTaskDelay+0x13a>
    8592:	89 e0       	ldi	r24, 0x09	; 9
    8594:	c8 2e       	mov	r12, r24
    8596:	aa 24       	eor	r10, r10
    8598:	aa 94       	dec	r10
    859a:	ba 2c       	mov	r11, r10
    859c:	99 24       	eor	r9, r9
    859e:	93 94       	inc	r9
    85a0:	80 91 74 1c 	lds	r24, 0x1C74
    85a4:	88 23       	and	r24, r24
    85a6:	09 f0       	breq	.+2      	; 0x85aa <vTaskDelay+0x17c>
    85a8:	7d c0       	rjmp	.+250    	; 0x86a4 <vTaskDelay+0x276>
    85aa:	80 91 71 1c 	lds	r24, 0x1C71
    85ae:	90 91 72 1c 	lds	r25, 0x1C72
    85b2:	01 96       	adiw	r24, 0x01	; 1
    85b4:	90 93 72 1c 	sts	0x1C72, r25
    85b8:	80 93 71 1c 	sts	0x1C71, r24
    85bc:	e0 90 71 1c 	lds	r14, 0x1C71
    85c0:	f0 90 72 1c 	lds	r15, 0x1C72
    85c4:	e1 14       	cp	r14, r1
    85c6:	f1 04       	cpc	r15, r1
    85c8:	09 f5       	brne	.+66     	; 0x860c <vTaskDelay+0x1de>
    85ca:	20 91 b7 1c 	lds	r18, 0x1CB7
    85ce:	30 91 b8 1c 	lds	r19, 0x1CB8
    85d2:	80 91 b9 1c 	lds	r24, 0x1CB9
    85d6:	90 91 ba 1c 	lds	r25, 0x1CBA
    85da:	90 93 b8 1c 	sts	0x1CB8, r25
    85de:	80 93 b7 1c 	sts	0x1CB7, r24
    85e2:	30 93 ba 1c 	sts	0x1CBA, r19
    85e6:	20 93 b9 1c 	sts	0x1CB9, r18
    85ea:	80 91 73 1c 	lds	r24, 0x1C73
    85ee:	8f 5f       	subi	r24, 0xFF	; 255
    85f0:	80 93 73 1c 	sts	0x1C73, r24
    85f4:	e0 91 b7 1c 	lds	r30, 0x1CB7
    85f8:	f0 91 b8 1c 	lds	r31, 0x1CB8
    85fc:	80 81       	ld	r24, Z
    85fe:	88 23       	and	r24, r24
    8600:	09 f0       	breq	.+2      	; 0x8604 <vTaskDelay+0x1d6>
    8602:	87 c0       	rjmp	.+270    	; 0x8712 <vTaskDelay+0x2e4>
    8604:	b0 92 ad 09 	sts	0x09AD, r11
    8608:	a0 92 ac 09 	sts	0x09AC, r10
    860c:	80 91 ac 09 	lds	r24, 0x09AC
    8610:	90 91 ad 09 	lds	r25, 0x09AD
    8614:	e8 16       	cp	r14, r24
    8616:	f9 06       	cpc	r15, r25
    8618:	08 f4       	brcc	.+2      	; 0x861c <vTaskDelay+0x1ee>
    861a:	5e c0       	rjmp	.+188    	; 0x86d8 <vTaskDelay+0x2aa>
    861c:	dd 24       	eor	r13, r13
    861e:	e0 91 b7 1c 	lds	r30, 0x1CB7
    8622:	f0 91 b8 1c 	lds	r31, 0x1CB8
    8626:	80 81       	ld	r24, Z
    8628:	88 23       	and	r24, r24
    862a:	09 f4       	brne	.+2      	; 0x862e <vTaskDelay+0x200>
    862c:	6d c0       	rjmp	.+218    	; 0x8708 <vTaskDelay+0x2da>
    862e:	e0 91 b7 1c 	lds	r30, 0x1CB7
    8632:	f0 91 b8 1c 	lds	r31, 0x1CB8
    8636:	05 80       	ldd	r0, Z+5	; 0x05
    8638:	f6 81       	ldd	r31, Z+6	; 0x06
    863a:	e0 2d       	mov	r30, r0
    863c:	c6 81       	ldd	r28, Z+6	; 0x06
    863e:	d7 81       	ldd	r29, Z+7	; 0x07
    8640:	8a 81       	ldd	r24, Y+2	; 0x02
    8642:	9b 81       	ldd	r25, Y+3	; 0x03
    8644:	e8 16       	cp	r14, r24
    8646:	f9 06       	cpc	r15, r25
    8648:	08 f4       	brcc	.+2      	; 0x864c <vTaskDelay+0x21e>
    864a:	74 c0       	rjmp	.+232    	; 0x8734 <vTaskDelay+0x306>
    864c:	8e 01       	movw	r16, r28
    864e:	0e 5f       	subi	r16, 0xFE	; 254
    8650:	1f 4f       	sbci	r17, 0xFF	; 255
    8652:	c8 01       	movw	r24, r16
    8654:	0e 94 f0 49 	call	0x93e0	; 0x93e0 <uxListRemove>
    8658:	8c 89       	ldd	r24, Y+20	; 0x14
    865a:	9d 89       	ldd	r25, Y+21	; 0x15
    865c:	89 2b       	or	r24, r25
    865e:	21 f0       	breq	.+8      	; 0x8668 <vTaskDelay+0x23a>
    8660:	ce 01       	movw	r24, r28
    8662:	0c 96       	adiw	r24, 0x0c	; 12
    8664:	0e 94 f0 49 	call	0x93e0	; 0x93e0 <uxListRemove>
    8668:	9e 89       	ldd	r25, Y+22	; 0x16
    866a:	80 91 6f 1c 	lds	r24, 0x1C6F
    866e:	89 17       	cp	r24, r25
    8670:	10 f4       	brcc	.+4      	; 0x8676 <vTaskDelay+0x248>
    8672:	90 93 6f 1c 	sts	0x1C6F, r25
    8676:	9c 9d       	mul	r25, r12
    8678:	c0 01       	movw	r24, r0
    867a:	11 24       	eor	r1, r1
    867c:	8f 57       	subi	r24, 0x7F	; 127
    867e:	93 4e       	sbci	r25, 0xE3	; 227
    8680:	b8 01       	movw	r22, r16
    8682:	0e 94 9f 49 	call	0x933e	; 0x933e <vListInsertEnd>
    8686:	e0 91 6c 1c 	lds	r30, 0x1C6C
    868a:	f0 91 6d 1c 	lds	r31, 0x1C6D
    868e:	9e 89       	ldd	r25, Y+22	; 0x16
    8690:	86 89       	ldd	r24, Z+22	; 0x16
    8692:	98 17       	cp	r25, r24
    8694:	20 f2       	brcs	.-120    	; 0x861e <vTaskDelay+0x1f0>
    8696:	dd 24       	eor	r13, r13
    8698:	d3 94       	inc	r13
    869a:	c1 cf       	rjmp	.-126    	; 0x861e <vTaskDelay+0x1f0>
    869c:	0e 94 2a 49 	call	0x9254	; 0x9254 <vPortYield>
    86a0:	81 e0       	ldi	r24, 0x01	; 1
    86a2:	68 cf       	rjmp	.-304    	; 0x8574 <vTaskDelay+0x146>
    86a4:	80 91 7d 1c 	lds	r24, 0x1C7D
    86a8:	8f 5f       	subi	r24, 0xFF	; 255
    86aa:	80 93 7d 1c 	sts	0x1C7D, r24
    86ae:	dd 24       	eor	r13, r13
    86b0:	80 91 70 1c 	lds	r24, 0x1C70
    86b4:	88 23       	and	r24, r24
    86b6:	69 f4       	brne	.+26     	; 0x86d2 <vTaskDelay+0x2a4>
    86b8:	dd 20       	and	r13, r13
    86ba:	59 f4       	brne	.+22     	; 0x86d2 <vTaskDelay+0x2a4>
    86bc:	80 91 7d 1c 	lds	r24, 0x1C7D
    86c0:	81 50       	subi	r24, 0x01	; 1
    86c2:	80 93 7d 1c 	sts	0x1C7D, r24
    86c6:	80 91 7d 1c 	lds	r24, 0x1C7D
    86ca:	88 23       	and	r24, r24
    86cc:	09 f0       	breq	.+2      	; 0x86d0 <vTaskDelay+0x2a2>
    86ce:	68 cf       	rjmp	.-304    	; 0x85a0 <vTaskDelay+0x172>
    86d0:	4b cf       	rjmp	.-362    	; 0x8568 <vTaskDelay+0x13a>
    86d2:	90 92 70 1c 	sts	0x1C70, r9
    86d6:	f2 cf       	rjmp	.-28     	; 0x86bc <vTaskDelay+0x28e>
    86d8:	dd 24       	eor	r13, r13
    86da:	e0 91 6c 1c 	lds	r30, 0x1C6C
    86de:	f0 91 6d 1c 	lds	r31, 0x1C6D
    86e2:	86 89       	ldd	r24, Z+22	; 0x16
    86e4:	90 e0       	ldi	r25, 0x00	; 0
    86e6:	fc 01       	movw	r30, r24
    86e8:	ee 0f       	add	r30, r30
    86ea:	ff 1f       	adc	r31, r31
    86ec:	ee 0f       	add	r30, r30
    86ee:	ff 1f       	adc	r31, r31
    86f0:	ee 0f       	add	r30, r30
    86f2:	ff 1f       	adc	r31, r31
    86f4:	e8 0f       	add	r30, r24
    86f6:	f9 1f       	adc	r31, r25
    86f8:	ef 57       	subi	r30, 0x7F	; 127
    86fa:	f3 4e       	sbci	r31, 0xE3	; 227
    86fc:	80 81       	ld	r24, Z
    86fe:	82 30       	cpi	r24, 0x02	; 2
    8700:	b8 f2       	brcs	.-82     	; 0x86b0 <vTaskDelay+0x282>
    8702:	dd 24       	eor	r13, r13
    8704:	d3 94       	inc	r13
    8706:	d4 cf       	rjmp	.-88     	; 0x86b0 <vTaskDelay+0x282>
    8708:	b0 92 ad 09 	sts	0x09AD, r11
    870c:	a0 92 ac 09 	sts	0x09AC, r10
    8710:	e4 cf       	rjmp	.-56     	; 0x86da <vTaskDelay+0x2ac>
    8712:	e0 91 b7 1c 	lds	r30, 0x1CB7
    8716:	f0 91 b8 1c 	lds	r31, 0x1CB8
    871a:	05 80       	ldd	r0, Z+5	; 0x05
    871c:	f6 81       	ldd	r31, Z+6	; 0x06
    871e:	e0 2d       	mov	r30, r0
    8720:	06 80       	ldd	r0, Z+6	; 0x06
    8722:	f7 81       	ldd	r31, Z+7	; 0x07
    8724:	e0 2d       	mov	r30, r0
    8726:	82 81       	ldd	r24, Z+2	; 0x02
    8728:	93 81       	ldd	r25, Z+3	; 0x03
    872a:	90 93 ad 09 	sts	0x09AD, r25
    872e:	80 93 ac 09 	sts	0x09AC, r24
    8732:	6c cf       	rjmp	.-296    	; 0x860c <vTaskDelay+0x1de>
    8734:	90 93 ad 09 	sts	0x09AD, r25
    8738:	80 93 ac 09 	sts	0x09AC, r24
    873c:	ce cf       	rjmp	.-100    	; 0x86da <vTaskDelay+0x2ac>

0000873e <vTaskDelayUntil>:
    873e:	a0 e0       	ldi	r26, 0x00	; 0
    8740:	b0 e0       	ldi	r27, 0x00	; 0
    8742:	e5 ea       	ldi	r30, 0xA5	; 165
    8744:	f3 e4       	ldi	r31, 0x43	; 67
    8746:	0c 94 93 53 	jmp	0xa726	; 0xa726 <__prologue_saves__+0xe>
    874a:	fc 01       	movw	r30, r24
    874c:	eb 01       	movw	r28, r22
    874e:	80 91 74 1c 	lds	r24, 0x1C74
    8752:	8f 5f       	subi	r24, 0xFF	; 255
    8754:	80 93 74 1c 	sts	0x1C74, r24
    8758:	20 91 71 1c 	lds	r18, 0x1C71
    875c:	30 91 72 1c 	lds	r19, 0x1C72
    8760:	80 81       	ld	r24, Z
    8762:	91 81       	ldd	r25, Z+1	; 0x01
    8764:	c8 0f       	add	r28, r24
    8766:	d9 1f       	adc	r29, r25
    8768:	28 17       	cp	r18, r24
    876a:	39 07       	cpc	r19, r25
    876c:	08 f0       	brcs	.+2      	; 0x8770 <vTaskDelayUntil+0x32>
    876e:	16 c1       	rjmp	.+556    	; 0x899c <vTaskDelayUntil+0x25e>
    8770:	c8 17       	cp	r28, r24
    8772:	d9 07       	cpc	r29, r25
    8774:	08 f0       	brcs	.+2      	; 0x8778 <vTaskDelayUntil+0x3a>
    8776:	24 c1       	rjmp	.+584    	; 0x89c0 <vTaskDelayUntil+0x282>
    8778:	2c 17       	cp	r18, r28
    877a:	3d 07       	cpc	r19, r29
    877c:	08 f0       	brcs	.+2      	; 0x8780 <vTaskDelayUntil+0x42>
    877e:	20 c1       	rjmp	.+576    	; 0x89c0 <vTaskDelayUntil+0x282>
    8780:	d1 83       	std	Z+1, r29	; 0x01
    8782:	c0 83       	st	Z, r28
    8784:	80 91 6c 1c 	lds	r24, 0x1C6C
    8788:	90 91 6d 1c 	lds	r25, 0x1C6D
    878c:	02 96       	adiw	r24, 0x02	; 2
    878e:	0e 94 f0 49 	call	0x93e0	; 0x93e0 <uxListRemove>
    8792:	e0 91 6c 1c 	lds	r30, 0x1C6C
    8796:	f0 91 6d 1c 	lds	r31, 0x1C6D
    879a:	d3 83       	std	Z+3, r29	; 0x03
    879c:	c2 83       	std	Z+2, r28	; 0x02
    879e:	80 91 71 1c 	lds	r24, 0x1C71
    87a2:	90 91 72 1c 	lds	r25, 0x1C72
    87a6:	c8 17       	cp	r28, r24
    87a8:	d9 07       	cpc	r29, r25
    87aa:	08 f4       	brcc	.+2      	; 0x87ae <vTaskDelayUntil+0x70>
    87ac:	fc c0       	rjmp	.+504    	; 0x89a6 <vTaskDelayUntil+0x268>
    87ae:	80 91 b7 1c 	lds	r24, 0x1CB7
    87b2:	90 91 b8 1c 	lds	r25, 0x1CB8
    87b6:	60 91 6c 1c 	lds	r22, 0x1C6C
    87ba:	70 91 6d 1c 	lds	r23, 0x1C6D
    87be:	6e 5f       	subi	r22, 0xFE	; 254
    87c0:	7f 4f       	sbci	r23, 0xFF	; 255
    87c2:	0e 94 be 49 	call	0x937c	; 0x937c <vListInsert>
    87c6:	80 91 ac 09 	lds	r24, 0x09AC
    87ca:	90 91 ad 09 	lds	r25, 0x09AD
    87ce:	c8 17       	cp	r28, r24
    87d0:	d9 07       	cpc	r29, r25
    87d2:	20 f4       	brcc	.+8      	; 0x87dc <vTaskDelayUntil+0x9e>
    87d4:	d0 93 ad 09 	sts	0x09AD, r29
    87d8:	c0 93 ac 09 	sts	0x09AC, r28
    87dc:	0f b6       	in	r0, 0x3f	; 63
    87de:	f8 94       	cli
    87e0:	0f 92       	push	r0
    87e2:	80 91 74 1c 	lds	r24, 0x1C74
    87e6:	81 50       	subi	r24, 0x01	; 1
    87e8:	80 93 74 1c 	sts	0x1C74, r24
    87ec:	80 91 74 1c 	lds	r24, 0x1C74
    87f0:	88 23       	and	r24, r24
    87f2:	09 f0       	breq	.+2      	; 0x87f6 <vTaskDelayUntil+0xb8>
    87f4:	03 c1       	rjmp	.+518    	; 0x89fc <vTaskDelayUntil+0x2be>
    87f6:	80 91 6e 1c 	lds	r24, 0x1C6E
    87fa:	88 23       	and	r24, r24
    87fc:	09 f4       	brne	.+2      	; 0x8800 <vTaskDelayUntil+0xc2>
    87fe:	fe c0       	rjmp	.+508    	; 0x89fc <vTaskDelayUntil+0x2be>
    8800:	49 e0       	ldi	r20, 0x09	; 9
    8802:	f4 2e       	mov	r15, r20
    8804:	ee 24       	eor	r14, r14
    8806:	e3 94       	inc	r14
    8808:	80 91 bb 1c 	lds	r24, 0x1CBB
    880c:	88 23       	and	r24, r24
    880e:	69 f1       	breq	.+90     	; 0x886a <vTaskDelayUntil+0x12c>
    8810:	e0 91 c0 1c 	lds	r30, 0x1CC0
    8814:	f0 91 c1 1c 	lds	r31, 0x1CC1
    8818:	c6 81       	ldd	r28, Z+6	; 0x06
    881a:	d7 81       	ldd	r29, Z+7	; 0x07
    881c:	ce 01       	movw	r24, r28
    881e:	0c 96       	adiw	r24, 0x0c	; 12
    8820:	0e 94 f0 49 	call	0x93e0	; 0x93e0 <uxListRemove>
    8824:	8e 01       	movw	r16, r28
    8826:	0e 5f       	subi	r16, 0xFE	; 254
    8828:	1f 4f       	sbci	r17, 0xFF	; 255
    882a:	c8 01       	movw	r24, r16
    882c:	0e 94 f0 49 	call	0x93e0	; 0x93e0 <uxListRemove>
    8830:	9e 89       	ldd	r25, Y+22	; 0x16
    8832:	80 91 6f 1c 	lds	r24, 0x1C6F
    8836:	89 17       	cp	r24, r25
    8838:	10 f4       	brcc	.+4      	; 0x883e <vTaskDelayUntil+0x100>
    883a:	90 93 6f 1c 	sts	0x1C6F, r25
    883e:	9f 9d       	mul	r25, r15
    8840:	c0 01       	movw	r24, r0
    8842:	11 24       	eor	r1, r1
    8844:	8f 57       	subi	r24, 0x7F	; 127
    8846:	93 4e       	sbci	r25, 0xE3	; 227
    8848:	b8 01       	movw	r22, r16
    884a:	0e 94 9f 49 	call	0x933e	; 0x933e <vListInsertEnd>
    884e:	e0 91 6c 1c 	lds	r30, 0x1C6C
    8852:	f0 91 6d 1c 	lds	r31, 0x1C6D
    8856:	9e 89       	ldd	r25, Y+22	; 0x16
    8858:	86 89       	ldd	r24, Z+22	; 0x16
    885a:	98 17       	cp	r25, r24
    885c:	a8 f2       	brcs	.-86     	; 0x8808 <vTaskDelayUntil+0xca>
    885e:	e0 92 70 1c 	sts	0x1C70, r14
    8862:	80 91 bb 1c 	lds	r24, 0x1CBB
    8866:	88 23       	and	r24, r24
    8868:	99 f6       	brne	.-90     	; 0x8810 <vTaskDelayUntil+0xd2>
    886a:	80 91 7d 1c 	lds	r24, 0x1C7D
    886e:	88 23       	and	r24, r24
    8870:	09 f4       	brne	.+2      	; 0x8874 <vTaskDelayUntil+0x136>
    8872:	bf c0       	rjmp	.+382    	; 0x89f2 <vTaskDelayUntil+0x2b4>
    8874:	80 91 7d 1c 	lds	r24, 0x1C7D
    8878:	88 23       	and	r24, r24
    887a:	09 f4       	brne	.+2      	; 0x887e <vTaskDelayUntil+0x140>
    887c:	ba c0       	rjmp	.+372    	; 0x89f2 <vTaskDelayUntil+0x2b4>
    887e:	39 e0       	ldi	r19, 0x09	; 9
    8880:	c3 2e       	mov	r12, r19
    8882:	aa 24       	eor	r10, r10
    8884:	aa 94       	dec	r10
    8886:	ba 2c       	mov	r11, r10
    8888:	99 24       	eor	r9, r9
    888a:	93 94       	inc	r9
    888c:	80 91 74 1c 	lds	r24, 0x1C74
    8890:	88 23       	and	r24, r24
    8892:	09 f0       	breq	.+2      	; 0x8896 <vTaskDelayUntil+0x158>
    8894:	98 c0       	rjmp	.+304    	; 0x89c6 <vTaskDelayUntil+0x288>
    8896:	80 91 71 1c 	lds	r24, 0x1C71
    889a:	90 91 72 1c 	lds	r25, 0x1C72
    889e:	01 96       	adiw	r24, 0x01	; 1
    88a0:	90 93 72 1c 	sts	0x1C72, r25
    88a4:	80 93 71 1c 	sts	0x1C71, r24
    88a8:	e0 90 71 1c 	lds	r14, 0x1C71
    88ac:	f0 90 72 1c 	lds	r15, 0x1C72
    88b0:	e1 14       	cp	r14, r1
    88b2:	f1 04       	cpc	r15, r1
    88b4:	09 f5       	brne	.+66     	; 0x88f8 <vTaskDelayUntil+0x1ba>
    88b6:	20 91 b7 1c 	lds	r18, 0x1CB7
    88ba:	30 91 b8 1c 	lds	r19, 0x1CB8
    88be:	80 91 b9 1c 	lds	r24, 0x1CB9
    88c2:	90 91 ba 1c 	lds	r25, 0x1CBA
    88c6:	90 93 b8 1c 	sts	0x1CB8, r25
    88ca:	80 93 b7 1c 	sts	0x1CB7, r24
    88ce:	30 93 ba 1c 	sts	0x1CBA, r19
    88d2:	20 93 b9 1c 	sts	0x1CB9, r18
    88d6:	80 91 73 1c 	lds	r24, 0x1C73
    88da:	8f 5f       	subi	r24, 0xFF	; 255
    88dc:	80 93 73 1c 	sts	0x1C73, r24
    88e0:	e0 91 b7 1c 	lds	r30, 0x1CB7
    88e4:	f0 91 b8 1c 	lds	r31, 0x1CB8
    88e8:	80 81       	ld	r24, Z
    88ea:	88 23       	and	r24, r24
    88ec:	09 f0       	breq	.+2      	; 0x88f0 <vTaskDelayUntil+0x1b2>
    88ee:	ad c0       	rjmp	.+346    	; 0x8a4a <vTaskDelayUntil+0x30c>
    88f0:	b0 92 ad 09 	sts	0x09AD, r11
    88f4:	a0 92 ac 09 	sts	0x09AC, r10
    88f8:	80 91 ac 09 	lds	r24, 0x09AC
    88fc:	90 91 ad 09 	lds	r25, 0x09AD
    8900:	e8 16       	cp	r14, r24
    8902:	f9 06       	cpc	r15, r25
    8904:	08 f4       	brcc	.+2      	; 0x8908 <vTaskDelayUntil+0x1ca>
    8906:	89 c0       	rjmp	.+274    	; 0x8a1a <vTaskDelayUntil+0x2dc>
    8908:	dd 24       	eor	r13, r13
    890a:	e0 91 b7 1c 	lds	r30, 0x1CB7
    890e:	f0 91 b8 1c 	lds	r31, 0x1CB8
    8912:	80 81       	ld	r24, Z
    8914:	88 23       	and	r24, r24
    8916:	e9 f1       	breq	.+122    	; 0x8992 <vTaskDelayUntil+0x254>
    8918:	e0 91 b7 1c 	lds	r30, 0x1CB7
    891c:	f0 91 b8 1c 	lds	r31, 0x1CB8
    8920:	05 80       	ldd	r0, Z+5	; 0x05
    8922:	f6 81       	ldd	r31, Z+6	; 0x06
    8924:	e0 2d       	mov	r30, r0
    8926:	c6 81       	ldd	r28, Z+6	; 0x06
    8928:	d7 81       	ldd	r29, Z+7	; 0x07
    892a:	8a 81       	ldd	r24, Y+2	; 0x02
    892c:	9b 81       	ldd	r25, Y+3	; 0x03
    892e:	e8 16       	cp	r14, r24
    8930:	f9 06       	cpc	r15, r25
    8932:	08 f4       	brcc	.+2      	; 0x8936 <vTaskDelayUntil+0x1f8>
    8934:	9b c0       	rjmp	.+310    	; 0x8a6c <vTaskDelayUntil+0x32e>
    8936:	8e 01       	movw	r16, r28
    8938:	0e 5f       	subi	r16, 0xFE	; 254
    893a:	1f 4f       	sbci	r17, 0xFF	; 255
    893c:	c8 01       	movw	r24, r16
    893e:	0e 94 f0 49 	call	0x93e0	; 0x93e0 <uxListRemove>
    8942:	8c 89       	ldd	r24, Y+20	; 0x14
    8944:	9d 89       	ldd	r25, Y+21	; 0x15
    8946:	89 2b       	or	r24, r25
    8948:	21 f0       	breq	.+8      	; 0x8952 <vTaskDelayUntil+0x214>
    894a:	ce 01       	movw	r24, r28
    894c:	0c 96       	adiw	r24, 0x0c	; 12
    894e:	0e 94 f0 49 	call	0x93e0	; 0x93e0 <uxListRemove>
    8952:	9e 89       	ldd	r25, Y+22	; 0x16
    8954:	80 91 6f 1c 	lds	r24, 0x1C6F
    8958:	89 17       	cp	r24, r25
    895a:	10 f4       	brcc	.+4      	; 0x8960 <vTaskDelayUntil+0x222>
    895c:	90 93 6f 1c 	sts	0x1C6F, r25
    8960:	9c 9d       	mul	r25, r12
    8962:	c0 01       	movw	r24, r0
    8964:	11 24       	eor	r1, r1
    8966:	8f 57       	subi	r24, 0x7F	; 127
    8968:	93 4e       	sbci	r25, 0xE3	; 227
    896a:	b8 01       	movw	r22, r16
    896c:	0e 94 9f 49 	call	0x933e	; 0x933e <vListInsertEnd>
    8970:	e0 91 6c 1c 	lds	r30, 0x1C6C
    8974:	f0 91 6d 1c 	lds	r31, 0x1C6D
    8978:	9e 89       	ldd	r25, Y+22	; 0x16
    897a:	86 89       	ldd	r24, Z+22	; 0x16
    897c:	98 17       	cp	r25, r24
    897e:	28 f2       	brcs	.-118    	; 0x890a <vTaskDelayUntil+0x1cc>
    8980:	dd 24       	eor	r13, r13
    8982:	d3 94       	inc	r13
    8984:	e0 91 b7 1c 	lds	r30, 0x1CB7
    8988:	f0 91 b8 1c 	lds	r31, 0x1CB8
    898c:	80 81       	ld	r24, Z
    898e:	88 23       	and	r24, r24
    8990:	19 f6       	brne	.-122    	; 0x8918 <vTaskDelayUntil+0x1da>
    8992:	b0 92 ad 09 	sts	0x09AD, r11
    8996:	a0 92 ac 09 	sts	0x09AC, r10
    899a:	40 c0       	rjmp	.+128    	; 0x8a1c <vTaskDelayUntil+0x2de>
    899c:	c8 17       	cp	r28, r24
    899e:	d9 07       	cpc	r29, r25
    89a0:	08 f4       	brcc	.+2      	; 0x89a4 <vTaskDelayUntil+0x266>
    89a2:	ee ce       	rjmp	.-548    	; 0x8780 <vTaskDelayUntil+0x42>
    89a4:	e9 ce       	rjmp	.-558    	; 0x8778 <vTaskDelayUntil+0x3a>
    89a6:	80 91 b9 1c 	lds	r24, 0x1CB9
    89aa:	90 91 ba 1c 	lds	r25, 0x1CBA
    89ae:	60 91 6c 1c 	lds	r22, 0x1C6C
    89b2:	70 91 6d 1c 	lds	r23, 0x1C6D
    89b6:	6e 5f       	subi	r22, 0xFE	; 254
    89b8:	7f 4f       	sbci	r23, 0xFF	; 255
    89ba:	0e 94 be 49 	call	0x937c	; 0x937c <vListInsert>
    89be:	0e cf       	rjmp	.-484    	; 0x87dc <vTaskDelayUntil+0x9e>
    89c0:	d1 83       	std	Z+1, r29	; 0x01
    89c2:	c0 83       	st	Z, r28
    89c4:	0b cf       	rjmp	.-490    	; 0x87dc <vTaskDelayUntil+0x9e>
    89c6:	80 91 7d 1c 	lds	r24, 0x1C7D
    89ca:	8f 5f       	subi	r24, 0xFF	; 255
    89cc:	80 93 7d 1c 	sts	0x1C7D, r24
    89d0:	dd 24       	eor	r13, r13
    89d2:	80 91 70 1c 	lds	r24, 0x1C70
    89d6:	88 23       	and	r24, r24
    89d8:	e9 f4       	brne	.+58     	; 0x8a14 <vTaskDelayUntil+0x2d6>
    89da:	dd 20       	and	r13, r13
    89dc:	d9 f4       	brne	.+54     	; 0x8a14 <vTaskDelayUntil+0x2d6>
    89de:	80 91 7d 1c 	lds	r24, 0x1C7D
    89e2:	81 50       	subi	r24, 0x01	; 1
    89e4:	80 93 7d 1c 	sts	0x1C7D, r24
    89e8:	80 91 7d 1c 	lds	r24, 0x1C7D
    89ec:	88 23       	and	r24, r24
    89ee:	09 f0       	breq	.+2      	; 0x89f2 <vTaskDelayUntil+0x2b4>
    89f0:	4d cf       	rjmp	.-358    	; 0x888c <vTaskDelayUntil+0x14e>
    89f2:	80 91 70 1c 	lds	r24, 0x1C70
    89f6:	81 30       	cpi	r24, 0x01	; 1
    89f8:	09 f4       	brne	.+2      	; 0x89fc <vTaskDelayUntil+0x2be>
    89fa:	3d c0       	rjmp	.+122    	; 0x8a76 <vTaskDelayUntil+0x338>
    89fc:	80 e0       	ldi	r24, 0x00	; 0
    89fe:	0f 90       	pop	r0
    8a00:	0f be       	out	0x3f, r0	; 63
    8a02:	88 23       	and	r24, r24
    8a04:	11 f4       	brne	.+4      	; 0x8a0a <vTaskDelayUntil+0x2cc>
    8a06:	0e 94 2a 49 	call	0x9254	; 0x9254 <vPortYield>
    8a0a:	cd b7       	in	r28, 0x3d	; 61
    8a0c:	de b7       	in	r29, 0x3e	; 62
    8a0e:	eb e0       	ldi	r30, 0x0B	; 11
    8a10:	0c 94 af 53 	jmp	0xa75e	; 0xa75e <__epilogue_restores__+0xe>
    8a14:	90 92 70 1c 	sts	0x1C70, r9
    8a18:	e2 cf       	rjmp	.-60     	; 0x89de <vTaskDelayUntil+0x2a0>
    8a1a:	dd 24       	eor	r13, r13
    8a1c:	e0 91 6c 1c 	lds	r30, 0x1C6C
    8a20:	f0 91 6d 1c 	lds	r31, 0x1C6D
    8a24:	86 89       	ldd	r24, Z+22	; 0x16
    8a26:	90 e0       	ldi	r25, 0x00	; 0
    8a28:	fc 01       	movw	r30, r24
    8a2a:	ee 0f       	add	r30, r30
    8a2c:	ff 1f       	adc	r31, r31
    8a2e:	ee 0f       	add	r30, r30
    8a30:	ff 1f       	adc	r31, r31
    8a32:	ee 0f       	add	r30, r30
    8a34:	ff 1f       	adc	r31, r31
    8a36:	e8 0f       	add	r30, r24
    8a38:	f9 1f       	adc	r31, r25
    8a3a:	ef 57       	subi	r30, 0x7F	; 127
    8a3c:	f3 4e       	sbci	r31, 0xE3	; 227
    8a3e:	80 81       	ld	r24, Z
    8a40:	82 30       	cpi	r24, 0x02	; 2
    8a42:	38 f2       	brcs	.-114    	; 0x89d2 <vTaskDelayUntil+0x294>
    8a44:	dd 24       	eor	r13, r13
    8a46:	d3 94       	inc	r13
    8a48:	c4 cf       	rjmp	.-120    	; 0x89d2 <vTaskDelayUntil+0x294>
    8a4a:	e0 91 b7 1c 	lds	r30, 0x1CB7
    8a4e:	f0 91 b8 1c 	lds	r31, 0x1CB8
    8a52:	05 80       	ldd	r0, Z+5	; 0x05
    8a54:	f6 81       	ldd	r31, Z+6	; 0x06
    8a56:	e0 2d       	mov	r30, r0
    8a58:	06 80       	ldd	r0, Z+6	; 0x06
    8a5a:	f7 81       	ldd	r31, Z+7	; 0x07
    8a5c:	e0 2d       	mov	r30, r0
    8a5e:	82 81       	ldd	r24, Z+2	; 0x02
    8a60:	93 81       	ldd	r25, Z+3	; 0x03
    8a62:	90 93 ad 09 	sts	0x09AD, r25
    8a66:	80 93 ac 09 	sts	0x09AC, r24
    8a6a:	46 cf       	rjmp	.-372    	; 0x88f8 <vTaskDelayUntil+0x1ba>
    8a6c:	90 93 ad 09 	sts	0x09AD, r25
    8a70:	80 93 ac 09 	sts	0x09AC, r24
    8a74:	d3 cf       	rjmp	.-90     	; 0x8a1c <vTaskDelayUntil+0x2de>
    8a76:	0e 94 2a 49 	call	0x9254	; 0x9254 <vPortYield>
    8a7a:	81 e0       	ldi	r24, 0x01	; 1
    8a7c:	c0 cf       	rjmp	.-128    	; 0x89fe <vTaskDelayUntil+0x2c0>

00008a7e <vTaskDelete>:
    8a7e:	0f 93       	push	r16
    8a80:	1f 93       	push	r17
    8a82:	cf 93       	push	r28
    8a84:	df 93       	push	r29
    8a86:	0f b6       	in	r0, 0x3f	; 63
    8a88:	f8 94       	cli
    8a8a:	0f 92       	push	r0
    8a8c:	00 97       	sbiw	r24, 0x00	; 0
    8a8e:	09 f4       	brne	.+2      	; 0x8a92 <vTaskDelete+0x14>
    8a90:	53 c0       	rjmp	.+166    	; 0x8b38 <vTaskDelete+0xba>
    8a92:	ec 01       	movw	r28, r24
    8a94:	8e 01       	movw	r16, r28
    8a96:	0e 5f       	subi	r16, 0xFE	; 254
    8a98:	1f 4f       	sbci	r17, 0xFF	; 255
    8a9a:	c8 01       	movw	r24, r16
    8a9c:	0e 94 f0 49 	call	0x93e0	; 0x93e0 <uxListRemove>
    8aa0:	8c 89       	ldd	r24, Y+20	; 0x14
    8aa2:	9d 89       	ldd	r25, Y+21	; 0x15
    8aa4:	89 2b       	or	r24, r25
    8aa6:	21 f0       	breq	.+8      	; 0x8ab0 <vTaskDelete+0x32>
    8aa8:	ce 01       	movw	r24, r28
    8aaa:	0c 96       	adiw	r24, 0x0c	; 12
    8aac:	0e 94 f0 49 	call	0x93e0	; 0x93e0 <uxListRemove>
    8ab0:	84 ec       	ldi	r24, 0xC4	; 196
    8ab2:	9c e1       	ldi	r25, 0x1C	; 28
    8ab4:	b8 01       	movw	r22, r16
    8ab6:	0e 94 9f 49 	call	0x933e	; 0x933e <vListInsertEnd>
    8aba:	80 91 7f 1c 	lds	r24, 0x1C7F
    8abe:	8f 5f       	subi	r24, 0xFF	; 255
    8ac0:	80 93 7f 1c 	sts	0x1C7F, r24
    8ac4:	80 91 80 1c 	lds	r24, 0x1C80
    8ac8:	8f 5f       	subi	r24, 0xFF	; 255
    8aca:	80 93 80 1c 	sts	0x1C80, r24
    8ace:	0f 90       	pop	r0
    8ad0:	0f be       	out	0x3f, r0	; 63
    8ad2:	80 91 7e 1c 	lds	r24, 0x1C7E
    8ad6:	88 23       	and	r24, r24
    8ad8:	19 f1       	breq	.+70     	; 0x8b20 <vTaskDelete+0xa2>
    8ada:	80 91 6c 1c 	lds	r24, 0x1C6C
    8ade:	90 91 6d 1c 	lds	r25, 0x1C6D
    8ae2:	c8 17       	cp	r28, r24
    8ae4:	d9 07       	cpc	r29, r25
    8ae6:	69 f1       	breq	.+90     	; 0x8b42 <vTaskDelete+0xc4>
    8ae8:	0f b6       	in	r0, 0x3f	; 63
    8aea:	f8 94       	cli
    8aec:	0f 92       	push	r0
    8aee:	e0 91 b7 1c 	lds	r30, 0x1CB7
    8af2:	f0 91 b8 1c 	lds	r31, 0x1CB8
    8af6:	80 81       	ld	r24, Z
    8af8:	88 23       	and	r24, r24
    8afa:	b9 f0       	breq	.+46     	; 0x8b2a <vTaskDelete+0xac>
    8afc:	e0 91 b7 1c 	lds	r30, 0x1CB7
    8b00:	f0 91 b8 1c 	lds	r31, 0x1CB8
    8b04:	05 80       	ldd	r0, Z+5	; 0x05
    8b06:	f6 81       	ldd	r31, Z+6	; 0x06
    8b08:	e0 2d       	mov	r30, r0
    8b0a:	06 80       	ldd	r0, Z+6	; 0x06
    8b0c:	f7 81       	ldd	r31, Z+7	; 0x07
    8b0e:	e0 2d       	mov	r30, r0
    8b10:	82 81       	ldd	r24, Z+2	; 0x02
    8b12:	93 81       	ldd	r25, Z+3	; 0x03
    8b14:	90 93 ad 09 	sts	0x09AD, r25
    8b18:	80 93 ac 09 	sts	0x09AC, r24
    8b1c:	0f 90       	pop	r0
    8b1e:	0f be       	out	0x3f, r0	; 63
    8b20:	df 91       	pop	r29
    8b22:	cf 91       	pop	r28
    8b24:	1f 91       	pop	r17
    8b26:	0f 91       	pop	r16
    8b28:	08 95       	ret
    8b2a:	8f ef       	ldi	r24, 0xFF	; 255
    8b2c:	9f ef       	ldi	r25, 0xFF	; 255
    8b2e:	90 93 ad 09 	sts	0x09AD, r25
    8b32:	80 93 ac 09 	sts	0x09AC, r24
    8b36:	f2 cf       	rjmp	.-28     	; 0x8b1c <vTaskDelete+0x9e>
    8b38:	c0 91 6c 1c 	lds	r28, 0x1C6C
    8b3c:	d0 91 6d 1c 	lds	r29, 0x1C6D
    8b40:	a9 cf       	rjmp	.-174    	; 0x8a94 <vTaskDelete+0x16>
    8b42:	0e 94 2a 49 	call	0x9254	; 0x9254 <vPortYield>
    8b46:	ec cf       	rjmp	.-40     	; 0x8b20 <vTaskDelete+0xa2>

00008b48 <vTaskEndScheduler>:
    8b48:	f8 94       	cli
    8b4a:	10 92 7e 1c 	sts	0x1C7E, r1
    8b4e:	0e 94 aa 48 	call	0x9154	; 0x9154 <vPortEndScheduler>
    8b52:	08 95       	ret

00008b54 <xTaskGenericCreate>:
    8b54:	a0 e0       	ldi	r26, 0x00	; 0
    8b56:	b0 e0       	ldi	r27, 0x00	; 0
    8b58:	e0 eb       	ldi	r30, 0xB0	; 176
    8b5a:	f5 e4       	ldi	r31, 0x45	; 69
    8b5c:	0c 94 8c 53 	jmp	0xa718	; 0xa718 <__prologue_saves__>
    8b60:	2c 01       	movw	r4, r24
    8b62:	36 2e       	mov	r3, r22
    8b64:	27 2e       	mov	r2, r23
    8b66:	5a 01       	movw	r10, r20
    8b68:	39 01       	movw	r6, r18
    8b6a:	10 2f       	mov	r17, r16
    8b6c:	47 01       	movw	r8, r14
    8b6e:	88 e2       	ldi	r24, 0x28	; 40
    8b70:	90 e0       	ldi	r25, 0x00	; 0
    8b72:	0e 94 48 28 	call	0x5090	; 0x5090 <pvPortMalloc>
    8b76:	ec 01       	movw	r28, r24
    8b78:	00 97       	sbiw	r24, 0x00	; 0
    8b7a:	09 f4       	brne	.+2      	; 0x8b7e <xTaskGenericCreate+0x2a>
    8b7c:	ad c0       	rjmp	.+346    	; 0x8cd8 <xTaskGenericCreate+0x184>
    8b7e:	c1 14       	cp	r12, r1
    8b80:	d1 04       	cpc	r13, r1
    8b82:	09 f4       	brne	.+2      	; 0x8b86 <xTaskGenericCreate+0x32>
    8b84:	9d c0       	rjmp	.+314    	; 0x8cc0 <xTaskGenericCreate+0x16c>
    8b86:	d8 8e       	std	Y+24, r13	; 0x18
    8b88:	cf 8a       	std	Y+23, r12	; 0x17
    8b8a:	c6 01       	movw	r24, r12
    8b8c:	65 ea       	ldi	r22, 0xA5	; 165
    8b8e:	70 e0       	ldi	r23, 0x00	; 0
    8b90:	a5 01       	movw	r20, r10
    8b92:	0e 94 2e 08 	call	0x105c	; 0x105c <memset>
    8b96:	ef 88       	ldd	r14, Y+23	; 0x17
    8b98:	f8 8c       	ldd	r15, Y+24	; 0x18
    8b9a:	83 2d       	mov	r24, r3
    8b9c:	92 2d       	mov	r25, r2
    8b9e:	9c 01       	movw	r18, r24
    8ba0:	f9 01       	movw	r30, r18
    8ba2:	de 01       	movw	r26, r28
    8ba4:	90 e0       	ldi	r25, 0x00	; 0
    8ba6:	80 81       	ld	r24, Z
    8ba8:	59 96       	adiw	r26, 0x19	; 25
    8baa:	8c 93       	st	X, r24
    8bac:	59 97       	sbiw	r26, 0x19	; 25
    8bae:	80 81       	ld	r24, Z
    8bb0:	88 23       	and	r24, r24
    8bb2:	29 f0       	breq	.+10     	; 0x8bbe <xTaskGenericCreate+0x6a>
    8bb4:	9f 5f       	subi	r25, 0xFF	; 255
    8bb6:	31 96       	adiw	r30, 0x01	; 1
    8bb8:	11 96       	adiw	r26, 0x01	; 1
    8bba:	98 30       	cpi	r25, 0x08	; 8
    8bbc:	a1 f7       	brne	.-24     	; 0x8ba6 <xTaskGenericCreate+0x52>
    8bbe:	18 a2       	std	Y+32, r1	; 0x20
    8bc0:	01 2f       	mov	r16, r17
    8bc2:	14 30       	cpi	r17, 0x04	; 4
    8bc4:	08 f0       	brcs	.+2      	; 0x8bc8 <xTaskGenericCreate+0x74>
    8bc6:	7a c0       	rjmp	.+244    	; 0x8cbc <xTaskGenericCreate+0x168>
    8bc8:	0e 8b       	std	Y+22, r16	; 0x16
    8bca:	0b a3       	std	Y+35, r16	; 0x23
    8bcc:	72 e0       	ldi	r23, 0x02	; 2
    8bce:	c7 2e       	mov	r12, r23
    8bd0:	d1 2c       	mov	r13, r1
    8bd2:	cc 0e       	add	r12, r28
    8bd4:	dd 1e       	adc	r13, r29
    8bd6:	c6 01       	movw	r24, r12
    8bd8:	0e 94 9b 49 	call	0x9336	; 0x9336 <vListInitialiseItem>
    8bdc:	ce 01       	movw	r24, r28
    8bde:	0c 96       	adiw	r24, 0x0c	; 12
    8be0:	0e 94 9b 49 	call	0x9336	; 0x9336 <vListInitialiseItem>
    8be4:	d9 87       	std	Y+9, r29	; 0x09
    8be6:	c8 87       	std	Y+8, r28	; 0x08
    8be8:	84 e0       	ldi	r24, 0x04	; 4
    8bea:	90 e0       	ldi	r25, 0x00	; 0
    8bec:	80 1b       	sub	r24, r16
    8bee:	91 09       	sbc	r25, r1
    8bf0:	9d 87       	std	Y+13, r25	; 0x0d
    8bf2:	8c 87       	std	Y+12, r24	; 0x0c
    8bf4:	db 8b       	std	Y+19, r29	; 0x13
    8bf6:	ca 8b       	std	Y+18, r28	; 0x12
    8bf8:	1c a2       	std	Y+36, r1	; 0x24
    8bfa:	1d a2       	std	Y+37, r1	; 0x25
    8bfc:	1e a2       	std	Y+38, r1	; 0x26
    8bfe:	1f a2       	std	Y+39, r1	; 0x27
    8c00:	08 94       	sec
    8c02:	a1 08       	sbc	r10, r1
    8c04:	b1 08       	sbc	r11, r1
    8c06:	c7 01       	movw	r24, r14
    8c08:	8a 0d       	add	r24, r10
    8c0a:	9b 1d       	adc	r25, r11
    8c0c:	b2 01       	movw	r22, r4
    8c0e:	a3 01       	movw	r20, r6
    8c10:	0e 94 16 48 	call	0x902c	; 0x902c <pxPortInitialiseStack>
    8c14:	99 83       	std	Y+1, r25	; 0x01
    8c16:	88 83       	st	Y, r24
    8c18:	81 14       	cp	r8, r1
    8c1a:	91 04       	cpc	r9, r1
    8c1c:	19 f0       	breq	.+6      	; 0x8c24 <xTaskGenericCreate+0xd0>
    8c1e:	f4 01       	movw	r30, r8
    8c20:	d1 83       	std	Z+1, r29	; 0x01
    8c22:	c0 83       	st	Z, r28
    8c24:	0f b6       	in	r0, 0x3f	; 63
    8c26:	f8 94       	cli
    8c28:	0f 92       	push	r0
    8c2a:	80 91 6e 1c 	lds	r24, 0x1C6E
    8c2e:	8f 5f       	subi	r24, 0xFF	; 255
    8c30:	80 93 6e 1c 	sts	0x1C6E, r24
    8c34:	80 91 6c 1c 	lds	r24, 0x1C6C
    8c38:	90 91 6d 1c 	lds	r25, 0x1C6D
    8c3c:	89 2b       	or	r24, r25
    8c3e:	09 f4       	brne	.+2      	; 0x8c42 <xTaskGenericCreate+0xee>
    8c40:	52 c0       	rjmp	.+164    	; 0x8ce6 <xTaskGenericCreate+0x192>
    8c42:	80 91 7e 1c 	lds	r24, 0x1C7E
    8c46:	88 23       	and	r24, r24
    8c48:	59 f4       	brne	.+22     	; 0x8c60 <xTaskGenericCreate+0x10c>
    8c4a:	e0 91 6c 1c 	lds	r30, 0x1C6C
    8c4e:	f0 91 6d 1c 	lds	r31, 0x1C6D
    8c52:	86 89       	ldd	r24, Z+22	; 0x16
    8c54:	18 17       	cp	r17, r24
    8c56:	20 f0       	brcs	.+8      	; 0x8c60 <xTaskGenericCreate+0x10c>
    8c58:	d0 93 6d 1c 	sts	0x1C6D, r29
    8c5c:	c0 93 6c 1c 	sts	0x1C6C, r28
    8c60:	80 91 80 1c 	lds	r24, 0x1C80
    8c64:	8f 5f       	subi	r24, 0xFF	; 255
    8c66:	80 93 80 1c 	sts	0x1C80, r24
    8c6a:	89 a3       	std	Y+33, r24	; 0x21
    8c6c:	9e 89       	ldd	r25, Y+22	; 0x16
    8c6e:	80 91 6f 1c 	lds	r24, 0x1C6F
    8c72:	89 17       	cp	r24, r25
    8c74:	10 f4       	brcc	.+4      	; 0x8c7a <xTaskGenericCreate+0x126>
    8c76:	90 93 6f 1c 	sts	0x1C6F, r25
    8c7a:	89 e0       	ldi	r24, 0x09	; 9
    8c7c:	98 9f       	mul	r25, r24
    8c7e:	c0 01       	movw	r24, r0
    8c80:	11 24       	eor	r1, r1
    8c82:	8f 57       	subi	r24, 0x7F	; 127
    8c84:	93 4e       	sbci	r25, 0xE3	; 227
    8c86:	b6 01       	movw	r22, r12
    8c88:	0e 94 9f 49 	call	0x933e	; 0x933e <vListInsertEnd>
    8c8c:	0f 90       	pop	r0
    8c8e:	0f be       	out	0x3f, r0	; 63
    8c90:	80 91 7e 1c 	lds	r24, 0x1C7E
    8c94:	88 23       	and	r24, r24
    8c96:	59 f0       	breq	.+22     	; 0x8cae <xTaskGenericCreate+0x15a>
    8c98:	e0 91 6c 1c 	lds	r30, 0x1C6C
    8c9c:	f0 91 6d 1c 	lds	r31, 0x1C6D
    8ca0:	86 89       	ldd	r24, Z+22	; 0x16
    8ca2:	81 17       	cp	r24, r17
    8ca4:	20 f4       	brcc	.+8      	; 0x8cae <xTaskGenericCreate+0x15a>
    8ca6:	0e 94 2a 49 	call	0x9254	; 0x9254 <vPortYield>
    8caa:	81 e0       	ldi	r24, 0x01	; 1
    8cac:	01 c0       	rjmp	.+2      	; 0x8cb0 <xTaskGenericCreate+0x15c>
    8cae:	81 e0       	ldi	r24, 0x01	; 1
    8cb0:	cd b7       	in	r28, 0x3d	; 61
    8cb2:	de b7       	in	r29, 0x3e	; 62
    8cb4:	e2 e1       	ldi	r30, 0x12	; 18
    8cb6:	0c 94 a8 53 	jmp	0xa750	; 0xa750 <__epilogue_restores__>
    8cba:	51 c0       	rjmp	.+162    	; 0x8d5e <vTaskStartScheduler>
    8cbc:	03 e0       	ldi	r16, 0x03	; 3
    8cbe:	84 cf       	rjmp	.-248    	; 0x8bc8 <xTaskGenericCreate+0x74>
    8cc0:	c5 01       	movw	r24, r10
    8cc2:	0e 94 48 28 	call	0x5090	; 0x5090 <pvPortMalloc>
    8cc6:	6c 01       	movw	r12, r24
    8cc8:	98 8f       	std	Y+24, r25	; 0x18
    8cca:	8f 8b       	std	Y+23, r24	; 0x17
    8ccc:	00 97       	sbiw	r24, 0x00	; 0
    8cce:	09 f0       	breq	.+2      	; 0x8cd2 <xTaskGenericCreate+0x17e>
    8cd0:	5c cf       	rjmp	.-328    	; 0x8b8a <xTaskGenericCreate+0x36>
    8cd2:	ce 01       	movw	r24, r28
    8cd4:	0e 94 d5 27 	call	0x4faa	; 0x4faa <vPortFree>
    8cd8:	8f ef       	ldi	r24, 0xFF	; 255
    8cda:	cd b7       	in	r28, 0x3d	; 61
    8cdc:	de b7       	in	r29, 0x3e	; 62
    8cde:	e2 e1       	ldi	r30, 0x12	; 18
    8ce0:	0c 94 a8 53 	jmp	0xa750	; 0xa750 <__epilogue_restores__>
    8ce4:	3c c0       	rjmp	.+120    	; 0x8d5e <vTaskStartScheduler>
    8ce6:	d0 93 6d 1c 	sts	0x1C6D, r29
    8cea:	c0 93 6c 1c 	sts	0x1C6C, r28
    8cee:	80 91 6e 1c 	lds	r24, 0x1C6E
    8cf2:	81 30       	cpi	r24, 0x01	; 1
    8cf4:	09 f0       	breq	.+2      	; 0x8cf8 <xTaskGenericCreate+0x1a4>
    8cf6:	b4 cf       	rjmp	.-152    	; 0x8c60 <xTaskGenericCreate+0x10c>
    8cf8:	81 e8       	ldi	r24, 0x81	; 129
    8cfa:	9c e1       	ldi	r25, 0x1C	; 28
    8cfc:	0e 94 8b 49 	call	0x9316	; 0x9316 <vListInitialise>
    8d00:	8a e8       	ldi	r24, 0x8A	; 138
    8d02:	9c e1       	ldi	r25, 0x1C	; 28
    8d04:	0e 94 8b 49 	call	0x9316	; 0x9316 <vListInitialise>
    8d08:	83 e9       	ldi	r24, 0x93	; 147
    8d0a:	9c e1       	ldi	r25, 0x1C	; 28
    8d0c:	0e 94 8b 49 	call	0x9316	; 0x9316 <vListInitialise>
    8d10:	8c e9       	ldi	r24, 0x9C	; 156
    8d12:	9c e1       	ldi	r25, 0x1C	; 28
    8d14:	0e 94 8b 49 	call	0x9316	; 0x9316 <vListInitialise>
    8d18:	65 ea       	ldi	r22, 0xA5	; 165
    8d1a:	e6 2e       	mov	r14, r22
    8d1c:	6c e1       	ldi	r22, 0x1C	; 28
    8d1e:	f6 2e       	mov	r15, r22
    8d20:	c7 01       	movw	r24, r14
    8d22:	0e 94 8b 49 	call	0x9316	; 0x9316 <vListInitialise>
    8d26:	5e ea       	ldi	r21, 0xAE	; 174
    8d28:	a5 2e       	mov	r10, r21
    8d2a:	5c e1       	ldi	r21, 0x1C	; 28
    8d2c:	b5 2e       	mov	r11, r21
    8d2e:	c5 01       	movw	r24, r10
    8d30:	0e 94 8b 49 	call	0x9316	; 0x9316 <vListInitialise>
    8d34:	8b eb       	ldi	r24, 0xBB	; 187
    8d36:	9c e1       	ldi	r25, 0x1C	; 28
    8d38:	0e 94 8b 49 	call	0x9316	; 0x9316 <vListInitialise>
    8d3c:	84 ec       	ldi	r24, 0xC4	; 196
    8d3e:	9c e1       	ldi	r25, 0x1C	; 28
    8d40:	0e 94 8b 49 	call	0x9316	; 0x9316 <vListInitialise>
    8d44:	8d ec       	ldi	r24, 0xCD	; 205
    8d46:	9c e1       	ldi	r25, 0x1C	; 28
    8d48:	0e 94 8b 49 	call	0x9316	; 0x9316 <vListInitialise>
    8d4c:	f0 92 b8 1c 	sts	0x1CB8, r15
    8d50:	e0 92 b7 1c 	sts	0x1CB7, r14
    8d54:	b0 92 ba 1c 	sts	0x1CBA, r11
    8d58:	a0 92 b9 1c 	sts	0x1CB9, r10
    8d5c:	81 cf       	rjmp	.-254    	; 0x8c60 <xTaskGenericCreate+0x10c>

00008d5e <vTaskStartScheduler>:
    8d5e:	a0 e0       	ldi	r26, 0x00	; 0
    8d60:	b0 e0       	ldi	r27, 0x00	; 0
    8d62:	e5 eb       	ldi	r30, 0xB5	; 181
    8d64:	f6 e4       	ldi	r31, 0x46	; 70
    8d66:	0c 94 96 53 	jmp	0xa72c	; 0xa72c <__prologue_saves__+0x14>
    8d6a:	88 e2       	ldi	r24, 0x28	; 40
    8d6c:	90 e0       	ldi	r25, 0x00	; 0
    8d6e:	0e 94 48 28 	call	0x5090	; 0x5090 <pvPortMalloc>
    8d72:	ec 01       	movw	r28, r24
    8d74:	00 97       	sbiw	r24, 0x00	; 0
    8d76:	09 f4       	brne	.+2      	; 0x8d7a <vTaskStartScheduler+0x1c>
    8d78:	91 c0       	rjmp	.+290    	; 0x8e9c <vTaskStartScheduler+0x13e>
    8d7a:	85 e5       	ldi	r24, 0x55	; 85
    8d7c:	90 e0       	ldi	r25, 0x00	; 0
    8d7e:	0e 94 48 28 	call	0x5090	; 0x5090 <pvPortMalloc>
    8d82:	98 8f       	std	Y+24, r25	; 0x18
    8d84:	8f 8b       	std	Y+23, r24	; 0x17
    8d86:	00 97       	sbiw	r24, 0x00	; 0
    8d88:	09 f4       	brne	.+2      	; 0x8d8c <vTaskStartScheduler+0x2e>
    8d8a:	c7 c0       	rjmp	.+398    	; 0x8f1a <vTaskStartScheduler+0x1bc>
    8d8c:	65 ea       	ldi	r22, 0xA5	; 165
    8d8e:	70 e0       	ldi	r23, 0x00	; 0
    8d90:	45 e5       	ldi	r20, 0x55	; 85
    8d92:	50 e0       	ldi	r21, 0x00	; 0
    8d94:	0e 94 2e 08 	call	0x105c	; 0x105c <memset>
    8d98:	0f 89       	ldd	r16, Y+23	; 0x17
    8d9a:	18 8d       	ldd	r17, Y+24	; 0x18
    8d9c:	ec e4       	ldi	r30, 0x4C	; 76
    8d9e:	f9 e0       	ldi	r31, 0x09	; 9
    8da0:	de 01       	movw	r26, r28
    8da2:	80 81       	ld	r24, Z
    8da4:	59 96       	adiw	r26, 0x19	; 25
    8da6:	8c 93       	st	X, r24
    8da8:	59 97       	sbiw	r26, 0x19	; 25
    8daa:	80 81       	ld	r24, Z
    8dac:	88 23       	and	r24, r24
    8dae:	31 f0       	breq	.+12     	; 0x8dbc <vTaskStartScheduler+0x5e>
    8db0:	31 96       	adiw	r30, 0x01	; 1
    8db2:	11 96       	adiw	r26, 0x01	; 1
    8db4:	89 e0       	ldi	r24, 0x09	; 9
    8db6:	e4 35       	cpi	r30, 0x54	; 84
    8db8:	f8 07       	cpc	r31, r24
    8dba:	99 f7       	brne	.-26     	; 0x8da2 <vTaskStartScheduler+0x44>
    8dbc:	18 a2       	std	Y+32, r1	; 0x20
    8dbe:	1e 8a       	std	Y+22, r1	; 0x16
    8dc0:	1b a2       	std	Y+35, r1	; 0x23
    8dc2:	f2 e0       	ldi	r31, 0x02	; 2
    8dc4:	cf 2e       	mov	r12, r31
    8dc6:	d1 2c       	mov	r13, r1
    8dc8:	cc 0e       	add	r12, r28
    8dca:	dd 1e       	adc	r13, r29
    8dcc:	c6 01       	movw	r24, r12
    8dce:	0e 94 9b 49 	call	0x9336	; 0x9336 <vListInitialiseItem>
    8dd2:	ce 01       	movw	r24, r28
    8dd4:	0c 96       	adiw	r24, 0x0c	; 12
    8dd6:	0e 94 9b 49 	call	0x9336	; 0x9336 <vListInitialiseItem>
    8dda:	d9 87       	std	Y+9, r29	; 0x09
    8ddc:	c8 87       	std	Y+8, r28	; 0x08
    8dde:	84 e0       	ldi	r24, 0x04	; 4
    8de0:	90 e0       	ldi	r25, 0x00	; 0
    8de2:	9d 87       	std	Y+13, r25	; 0x0d
    8de4:	8c 87       	std	Y+12, r24	; 0x0c
    8de6:	db 8b       	std	Y+19, r29	; 0x13
    8de8:	ca 8b       	std	Y+18, r28	; 0x12
    8dea:	1c a2       	std	Y+36, r1	; 0x24
    8dec:	1d a2       	std	Y+37, r1	; 0x25
    8dee:	1e a2       	std	Y+38, r1	; 0x26
    8df0:	1f a2       	std	Y+39, r1	; 0x27
    8df2:	c8 01       	movw	r24, r16
    8df4:	8c 5a       	subi	r24, 0xAC	; 172
    8df6:	9f 4f       	sbci	r25, 0xFF	; 255
    8df8:	6c ef       	ldi	r22, 0xFC	; 252
    8dfa:	71 e0       	ldi	r23, 0x01	; 1
    8dfc:	40 e0       	ldi	r20, 0x00	; 0
    8dfe:	50 e0       	ldi	r21, 0x00	; 0
    8e00:	0e 94 16 48 	call	0x902c	; 0x902c <pxPortInitialiseStack>
    8e04:	99 83       	std	Y+1, r25	; 0x01
    8e06:	88 83       	st	Y, r24
    8e08:	0f b6       	in	r0, 0x3f	; 63
    8e0a:	f8 94       	cli
    8e0c:	0f 92       	push	r0
    8e0e:	80 91 6e 1c 	lds	r24, 0x1C6E
    8e12:	8f 5f       	subi	r24, 0xFF	; 255
    8e14:	80 93 6e 1c 	sts	0x1C6E, r24
    8e18:	80 91 6c 1c 	lds	r24, 0x1C6C
    8e1c:	90 91 6d 1c 	lds	r25, 0x1C6D
    8e20:	89 2b       	or	r24, r25
    8e22:	09 f4       	brne	.+2      	; 0x8e26 <vTaskStartScheduler+0xc8>
    8e24:	41 c0       	rjmp	.+130    	; 0x8ea8 <vTaskStartScheduler+0x14a>
    8e26:	80 91 7e 1c 	lds	r24, 0x1C7E
    8e2a:	88 23       	and	r24, r24
    8e2c:	59 f4       	brne	.+22     	; 0x8e44 <vTaskStartScheduler+0xe6>
    8e2e:	e0 91 6c 1c 	lds	r30, 0x1C6C
    8e32:	f0 91 6d 1c 	lds	r31, 0x1C6D
    8e36:	86 89       	ldd	r24, Z+22	; 0x16
    8e38:	88 23       	and	r24, r24
    8e3a:	21 f4       	brne	.+8      	; 0x8e44 <vTaskStartScheduler+0xe6>
    8e3c:	d0 93 6d 1c 	sts	0x1C6D, r29
    8e40:	c0 93 6c 1c 	sts	0x1C6C, r28
    8e44:	80 91 80 1c 	lds	r24, 0x1C80
    8e48:	8f 5f       	subi	r24, 0xFF	; 255
    8e4a:	80 93 80 1c 	sts	0x1C80, r24
    8e4e:	89 a3       	std	Y+33, r24	; 0x21
    8e50:	9e 89       	ldd	r25, Y+22	; 0x16
    8e52:	80 91 6f 1c 	lds	r24, 0x1C6F
    8e56:	89 17       	cp	r24, r25
    8e58:	10 f4       	brcc	.+4      	; 0x8e5e <vTaskStartScheduler+0x100>
    8e5a:	90 93 6f 1c 	sts	0x1C6F, r25
    8e5e:	89 e0       	ldi	r24, 0x09	; 9
    8e60:	98 9f       	mul	r25, r24
    8e62:	c0 01       	movw	r24, r0
    8e64:	11 24       	eor	r1, r1
    8e66:	8f 57       	subi	r24, 0x7F	; 127
    8e68:	93 4e       	sbci	r25, 0xE3	; 227
    8e6a:	b6 01       	movw	r22, r12
    8e6c:	0e 94 9f 49 	call	0x933e	; 0x933e <vListInsertEnd>
    8e70:	0f 90       	pop	r0
    8e72:	0f be       	out	0x3f, r0	; 63
    8e74:	80 91 7e 1c 	lds	r24, 0x1C7E
    8e78:	88 23       	and	r24, r24
    8e7a:	21 f0       	breq	.+8      	; 0x8e84 <vTaskStartScheduler+0x126>
    8e7c:	80 91 6c 1c 	lds	r24, 0x1C6C
    8e80:	90 91 6d 1c 	lds	r25, 0x1C6D
    8e84:	f8 94       	cli
    8e86:	81 e0       	ldi	r24, 0x01	; 1
    8e88:	80 93 7e 1c 	sts	0x1C7E, r24
    8e8c:	10 92 72 1c 	sts	0x1C72, r1
    8e90:	10 92 71 1c 	sts	0x1C71, r1
    8e94:	0e 94 1b 4a 	call	0x9436	; 0x9436 <xconfigTimerForRunTimeStats>
    8e98:	0e 94 61 48 	call	0x90c2	; 0x90c2 <xPortStartScheduler>
    8e9c:	cd b7       	in	r28, 0x3d	; 61
    8e9e:	de b7       	in	r29, 0x3e	; 62
    8ea0:	e8 e0       	ldi	r30, 0x08	; 8
    8ea2:	0c 94 b2 53 	jmp	0xa764	; 0xa764 <__epilogue_restores__+0x14>
    8ea6:	41 c0       	rjmp	.+130    	; 0x8f2a <uxTaskGetSystemState>
    8ea8:	d0 93 6d 1c 	sts	0x1C6D, r29
    8eac:	c0 93 6c 1c 	sts	0x1C6C, r28
    8eb0:	80 91 6e 1c 	lds	r24, 0x1C6E
    8eb4:	81 30       	cpi	r24, 0x01	; 1
    8eb6:	31 f6       	brne	.-116    	; 0x8e44 <vTaskStartScheduler+0xe6>
    8eb8:	81 e8       	ldi	r24, 0x81	; 129
    8eba:	9c e1       	ldi	r25, 0x1C	; 28
    8ebc:	0e 94 8b 49 	call	0x9316	; 0x9316 <vListInitialise>
    8ec0:	8a e8       	ldi	r24, 0x8A	; 138
    8ec2:	9c e1       	ldi	r25, 0x1C	; 28
    8ec4:	0e 94 8b 49 	call	0x9316	; 0x9316 <vListInitialise>
    8ec8:	83 e9       	ldi	r24, 0x93	; 147
    8eca:	9c e1       	ldi	r25, 0x1C	; 28
    8ecc:	0e 94 8b 49 	call	0x9316	; 0x9316 <vListInitialise>
    8ed0:	8c e9       	ldi	r24, 0x9C	; 156
    8ed2:	9c e1       	ldi	r25, 0x1C	; 28
    8ed4:	0e 94 8b 49 	call	0x9316	; 0x9316 <vListInitialise>
    8ed8:	e5 ea       	ldi	r30, 0xA5	; 165
    8eda:	ee 2e       	mov	r14, r30
    8edc:	ec e1       	ldi	r30, 0x1C	; 28
    8ede:	fe 2e       	mov	r15, r30
    8ee0:	c7 01       	movw	r24, r14
    8ee2:	0e 94 8b 49 	call	0x9316	; 0x9316 <vListInitialise>
    8ee6:	0e ea       	ldi	r16, 0xAE	; 174
    8ee8:	1c e1       	ldi	r17, 0x1C	; 28
    8eea:	c8 01       	movw	r24, r16
    8eec:	0e 94 8b 49 	call	0x9316	; 0x9316 <vListInitialise>
    8ef0:	8b eb       	ldi	r24, 0xBB	; 187
    8ef2:	9c e1       	ldi	r25, 0x1C	; 28
    8ef4:	0e 94 8b 49 	call	0x9316	; 0x9316 <vListInitialise>
    8ef8:	84 ec       	ldi	r24, 0xC4	; 196
    8efa:	9c e1       	ldi	r25, 0x1C	; 28
    8efc:	0e 94 8b 49 	call	0x9316	; 0x9316 <vListInitialise>
    8f00:	8d ec       	ldi	r24, 0xCD	; 205
    8f02:	9c e1       	ldi	r25, 0x1C	; 28
    8f04:	0e 94 8b 49 	call	0x9316	; 0x9316 <vListInitialise>
    8f08:	f0 92 b8 1c 	sts	0x1CB8, r15
    8f0c:	e0 92 b7 1c 	sts	0x1CB7, r14
    8f10:	10 93 ba 1c 	sts	0x1CBA, r17
    8f14:	00 93 b9 1c 	sts	0x1CB9, r16
    8f18:	95 cf       	rjmp	.-214    	; 0x8e44 <vTaskStartScheduler+0xe6>
    8f1a:	ce 01       	movw	r24, r28
    8f1c:	0e 94 d5 27 	call	0x4faa	; 0x4faa <vPortFree>
    8f20:	cd b7       	in	r28, 0x3d	; 61
    8f22:	de b7       	in	r29, 0x3e	; 62
    8f24:	e8 e0       	ldi	r30, 0x08	; 8
    8f26:	0c 94 b2 53 	jmp	0xa764	; 0xa764 <__epilogue_restores__+0x14>

00008f2a <uxTaskGetSystemState>:
    8f2a:	af 92       	push	r10
    8f2c:	bf 92       	push	r11
    8f2e:	df 92       	push	r13
    8f30:	ef 92       	push	r14
    8f32:	ff 92       	push	r15
    8f34:	0f 93       	push	r16
    8f36:	1f 93       	push	r17
    8f38:	cf 93       	push	r28
    8f3a:	df 93       	push	r29
    8f3c:	ec 01       	movw	r28, r24
    8f3e:	5a 01       	movw	r10, r20
    8f40:	80 91 74 1c 	lds	r24, 0x1C74
    8f44:	8f 5f       	subi	r24, 0xFF	; 255
    8f46:	80 93 74 1c 	sts	0x1C74, r24
    8f4a:	80 91 6e 1c 	lds	r24, 0x1C6E
    8f4e:	68 17       	cp	r22, r24
    8f50:	08 f4       	brcc	.+2      	; 0x8f54 <uxTaskGetSystemState+0x2a>
    8f52:	6a c0       	rjmp	.+212    	; 0x9028 <uxTaskGetSystemState+0xfe>
    8f54:	00 e0       	ldi	r16, 0x00	; 0
    8f56:	14 e0       	ldi	r17, 0x04	; 4
    8f58:	8f e0       	ldi	r24, 0x0F	; 15
    8f5a:	d8 2e       	mov	r13, r24
    8f5c:	b9 e0       	ldi	r27, 0x09	; 9
    8f5e:	eb 2e       	mov	r14, r27
    8f60:	11 50       	subi	r17, 0x01	; 1
    8f62:	af e0       	ldi	r26, 0x0F	; 15
    8f64:	fa 2e       	mov	r15, r26
    8f66:	0d 9d       	mul	r16, r13
    8f68:	c0 01       	movw	r24, r0
    8f6a:	11 24       	eor	r1, r1
    8f6c:	1e 9d       	mul	r17, r14
    8f6e:	b0 01       	movw	r22, r0
    8f70:	11 24       	eor	r1, r1
    8f72:	6f 57       	subi	r22, 0x7F	; 127
    8f74:	73 4e       	sbci	r23, 0xE3	; 227
    8f76:	8c 0f       	add	r24, r28
    8f78:	9d 1f       	adc	r25, r29
    8f7a:	41 e0       	ldi	r20, 0x01	; 1
    8f7c:	50 e0       	ldi	r21, 0x00	; 0
    8f7e:	0e 94 bd 2f 	call	0x5f7a	; 0x5f7a <prvListTaskWithinSingleList>
    8f82:	08 0f       	add	r16, r24
    8f84:	11 23       	and	r17, r17
    8f86:	61 f7       	brne	.-40     	; 0x8f60 <uxTaskGetSystemState+0x36>
    8f88:	60 91 b7 1c 	lds	r22, 0x1CB7
    8f8c:	70 91 b8 1c 	lds	r23, 0x1CB8
    8f90:	0f 9d       	mul	r16, r15
    8f92:	c0 01       	movw	r24, r0
    8f94:	11 24       	eor	r1, r1
    8f96:	8c 0f       	add	r24, r28
    8f98:	9d 1f       	adc	r25, r29
    8f9a:	42 e0       	ldi	r20, 0x02	; 2
    8f9c:	50 e0       	ldi	r21, 0x00	; 0
    8f9e:	0e 94 bd 2f 	call	0x5f7a	; 0x5f7a <prvListTaskWithinSingleList>
    8fa2:	10 2f       	mov	r17, r16
    8fa4:	18 0f       	add	r17, r24
    8fa6:	60 91 b9 1c 	lds	r22, 0x1CB9
    8faa:	70 91 ba 1c 	lds	r23, 0x1CBA
    8fae:	1f 9d       	mul	r17, r15
    8fb0:	c0 01       	movw	r24, r0
    8fb2:	11 24       	eor	r1, r1
    8fb4:	8c 0f       	add	r24, r28
    8fb6:	9d 1f       	adc	r25, r29
    8fb8:	42 e0       	ldi	r20, 0x02	; 2
    8fba:	50 e0       	ldi	r21, 0x00	; 0
    8fbc:	0e 94 bd 2f 	call	0x5f7a	; 0x5f7a <prvListTaskWithinSingleList>
    8fc0:	18 0f       	add	r17, r24
    8fc2:	1f 9d       	mul	r17, r15
    8fc4:	c0 01       	movw	r24, r0
    8fc6:	11 24       	eor	r1, r1
    8fc8:	8c 0f       	add	r24, r28
    8fca:	9d 1f       	adc	r25, r29
    8fcc:	64 ec       	ldi	r22, 0xC4	; 196
    8fce:	7c e1       	ldi	r23, 0x1C	; 28
    8fd0:	44 e0       	ldi	r20, 0x04	; 4
    8fd2:	50 e0       	ldi	r21, 0x00	; 0
    8fd4:	0e 94 bd 2f 	call	0x5f7a	; 0x5f7a <prvListTaskWithinSingleList>
    8fd8:	18 0f       	add	r17, r24
    8fda:	1f 9d       	mul	r17, r15
    8fdc:	c0 01       	movw	r24, r0
    8fde:	11 24       	eor	r1, r1
    8fe0:	8c 0f       	add	r24, r28
    8fe2:	9d 1f       	adc	r25, r29
    8fe4:	6d ec       	ldi	r22, 0xCD	; 205
    8fe6:	7c e1       	ldi	r23, 0x1C	; 28
    8fe8:	43 e0       	ldi	r20, 0x03	; 3
    8fea:	50 e0       	ldi	r21, 0x00	; 0
    8fec:	0e 94 bd 2f 	call	0x5f7a	; 0x5f7a <prvListTaskWithinSingleList>
    8ff0:	18 0f       	add	r17, r24
    8ff2:	a1 14       	cp	r10, r1
    8ff4:	b1 04       	cpc	r11, r1
    8ff6:	59 f0       	breq	.+22     	; 0x900e <uxTaskGetSystemState+0xe4>
    8ff8:	80 91 84 00 	lds	r24, 0x0084
    8ffc:	90 91 85 00 	lds	r25, 0x0085
    9000:	a0 e0       	ldi	r26, 0x00	; 0
    9002:	b0 e0       	ldi	r27, 0x00	; 0
    9004:	f5 01       	movw	r30, r10
    9006:	80 83       	st	Z, r24
    9008:	91 83       	std	Z+1, r25	; 0x01
    900a:	a2 83       	std	Z+2, r26	; 0x02
    900c:	b3 83       	std	Z+3, r27	; 0x03
    900e:	0e 94 63 34 	call	0x68c6	; 0x68c6 <xTaskResumeAll>
    9012:	81 2f       	mov	r24, r17
    9014:	df 91       	pop	r29
    9016:	cf 91       	pop	r28
    9018:	1f 91       	pop	r17
    901a:	0f 91       	pop	r16
    901c:	ff 90       	pop	r15
    901e:	ef 90       	pop	r14
    9020:	df 90       	pop	r13
    9022:	bf 90       	pop	r11
    9024:	af 90       	pop	r10
    9026:	08 95       	ret
    9028:	10 e0       	ldi	r17, 0x00	; 0
    902a:	f1 cf       	rjmp	.-30     	; 0x900e <uxTaskGetSystemState+0xe4>

0000902c <pxPortInitialiseStack>:
    902c:	fc 01       	movw	r30, r24
    902e:	91 e1       	ldi	r25, 0x11	; 17
    9030:	90 83       	st	Z, r25
    9032:	22 e2       	ldi	r18, 0x22	; 34
    9034:	22 93       	st	-Z, r18
    9036:	83 e3       	ldi	r24, 0x33	; 51
    9038:	82 93       	st	-Z, r24
    903a:	62 93       	st	-Z, r22
    903c:	72 93       	st	-Z, r23
    903e:	12 92       	st	-Z, r1
    9040:	12 92       	st	-Z, r1
    9042:	80 e8       	ldi	r24, 0x80	; 128
    9044:	82 93       	st	-Z, r24
    9046:	12 92       	st	-Z, r1
    9048:	12 92       	st	-Z, r1
    904a:	12 92       	st	-Z, r1
    904c:	82 e0       	ldi	r24, 0x02	; 2
    904e:	82 93       	st	-Z, r24
    9050:	83 e0       	ldi	r24, 0x03	; 3
    9052:	82 93       	st	-Z, r24
    9054:	84 e0       	ldi	r24, 0x04	; 4
    9056:	82 93       	st	-Z, r24
    9058:	85 e0       	ldi	r24, 0x05	; 5
    905a:	82 93       	st	-Z, r24
    905c:	86 e0       	ldi	r24, 0x06	; 6
    905e:	82 93       	st	-Z, r24
    9060:	87 e0       	ldi	r24, 0x07	; 7
    9062:	82 93       	st	-Z, r24
    9064:	88 e0       	ldi	r24, 0x08	; 8
    9066:	82 93       	st	-Z, r24
    9068:	89 e0       	ldi	r24, 0x09	; 9
    906a:	82 93       	st	-Z, r24
    906c:	80 e1       	ldi	r24, 0x10	; 16
    906e:	82 93       	st	-Z, r24
    9070:	92 93       	st	-Z, r25
    9072:	82 e1       	ldi	r24, 0x12	; 18
    9074:	82 93       	st	-Z, r24
    9076:	83 e1       	ldi	r24, 0x13	; 19
    9078:	82 93       	st	-Z, r24
    907a:	84 e1       	ldi	r24, 0x14	; 20
    907c:	82 93       	st	-Z, r24
    907e:	85 e1       	ldi	r24, 0x15	; 21
    9080:	82 93       	st	-Z, r24
    9082:	86 e1       	ldi	r24, 0x16	; 22
    9084:	82 93       	st	-Z, r24
    9086:	87 e1       	ldi	r24, 0x17	; 23
    9088:	82 93       	st	-Z, r24
    908a:	88 e1       	ldi	r24, 0x18	; 24
    908c:	82 93       	st	-Z, r24
    908e:	89 e1       	ldi	r24, 0x19	; 25
    9090:	82 93       	st	-Z, r24
    9092:	80 e2       	ldi	r24, 0x20	; 32
    9094:	82 93       	st	-Z, r24
    9096:	81 e2       	ldi	r24, 0x21	; 33
    9098:	82 93       	st	-Z, r24
    909a:	22 93       	st	-Z, r18
    909c:	83 e2       	ldi	r24, 0x23	; 35
    909e:	82 93       	st	-Z, r24
    90a0:	42 93       	st	-Z, r20
    90a2:	52 93       	st	-Z, r21
    90a4:	86 e2       	ldi	r24, 0x26	; 38
    90a6:	82 93       	st	-Z, r24
    90a8:	87 e2       	ldi	r24, 0x27	; 39
    90aa:	82 93       	st	-Z, r24
    90ac:	88 e2       	ldi	r24, 0x28	; 40
    90ae:	82 93       	st	-Z, r24
    90b0:	89 e2       	ldi	r24, 0x29	; 41
    90b2:	82 93       	st	-Z, r24
    90b4:	80 e3       	ldi	r24, 0x30	; 48
    90b6:	82 93       	st	-Z, r24
    90b8:	81 e3       	ldi	r24, 0x31	; 49
    90ba:	82 93       	st	-Z, r24
    90bc:	31 97       	sbiw	r30, 0x01	; 1
    90be:	cf 01       	movw	r24, r30
    90c0:	08 95       	ret

000090c2 <xPortStartScheduler>:
    90c2:	84 ef       	ldi	r24, 0xF4	; 244
    90c4:	91 e0       	ldi	r25, 0x01	; 1
    90c6:	90 93 d7 1c 	sts	0x1CD7, r25
    90ca:	80 93 d6 1c 	sts	0x1CD6, r24
    90ce:	90 93 d9 1c 	sts	0x1CD9, r25
    90d2:	80 93 d8 1c 	sts	0x1CD8, r24
    90d6:	81 e0       	ldi	r24, 0x01	; 1
    90d8:	80 93 99 00 	sts	0x0099, r24
    90dc:	83 ef       	ldi	r24, 0xF3	; 243
    90de:	80 93 98 00 	sts	0x0098, r24
    90e2:	8b e0       	ldi	r24, 0x0B	; 11
    90e4:	80 93 91 00 	sts	0x0091, r24
    90e8:	e1 e7       	ldi	r30, 0x71	; 113
    90ea:	f0 e0       	ldi	r31, 0x00	; 0
    90ec:	80 81       	ld	r24, Z
    90ee:	82 60       	ori	r24, 0x02	; 2
    90f0:	80 83       	st	Z, r24
    90f2:	a0 91 6c 1c 	lds	r26, 0x1C6C
    90f6:	b0 91 6d 1c 	lds	r27, 0x1C6D
    90fa:	cd 91       	ld	r28, X+
    90fc:	cd bf       	out	0x3d, r28	; 61
    90fe:	dd 91       	ld	r29, X+
    9100:	de bf       	out	0x3e, r29	; 62
    9102:	ff 91       	pop	r31
    9104:	ef 91       	pop	r30
    9106:	df 91       	pop	r29
    9108:	cf 91       	pop	r28
    910a:	bf 91       	pop	r27
    910c:	af 91       	pop	r26
    910e:	9f 91       	pop	r25
    9110:	8f 91       	pop	r24
    9112:	7f 91       	pop	r23
    9114:	6f 91       	pop	r22
    9116:	5f 91       	pop	r21
    9118:	4f 91       	pop	r20
    911a:	3f 91       	pop	r19
    911c:	2f 91       	pop	r18
    911e:	1f 91       	pop	r17
    9120:	0f 91       	pop	r16
    9122:	ff 90       	pop	r15
    9124:	ef 90       	pop	r14
    9126:	df 90       	pop	r13
    9128:	cf 90       	pop	r12
    912a:	bf 90       	pop	r11
    912c:	af 90       	pop	r10
    912e:	9f 90       	pop	r9
    9130:	8f 90       	pop	r8
    9132:	7f 90       	pop	r7
    9134:	6f 90       	pop	r6
    9136:	5f 90       	pop	r5
    9138:	4f 90       	pop	r4
    913a:	3f 90       	pop	r3
    913c:	2f 90       	pop	r2
    913e:	1f 90       	pop	r1
    9140:	0f 90       	pop	r0
    9142:	0c be       	out	0x3c, r0	; 60
    9144:	0f 90       	pop	r0
    9146:	0b be       	out	0x3b, r0	; 59
    9148:	0f 90       	pop	r0
    914a:	0f be       	out	0x3f, r0	; 63
    914c:	0f 90       	pop	r0
    914e:	08 95       	ret
    9150:	81 e0       	ldi	r24, 0x01	; 1
    9152:	08 95       	ret

00009154 <vPortEndScheduler>:
    9154:	08 95       	ret

00009156 <vPortYieldFromTick>:
    9156:	0f 92       	push	r0
    9158:	0f b6       	in	r0, 0x3f	; 63
    915a:	f8 94       	cli
    915c:	0f 92       	push	r0
    915e:	0b b6       	in	r0, 0x3b	; 59
    9160:	0f 92       	push	r0
    9162:	0c b6       	in	r0, 0x3c	; 60
    9164:	0f 92       	push	r0
    9166:	1f 92       	push	r1
    9168:	11 24       	eor	r1, r1
    916a:	2f 92       	push	r2
    916c:	3f 92       	push	r3
    916e:	4f 92       	push	r4
    9170:	5f 92       	push	r5
    9172:	6f 92       	push	r6
    9174:	7f 92       	push	r7
    9176:	8f 92       	push	r8
    9178:	9f 92       	push	r9
    917a:	af 92       	push	r10
    917c:	bf 92       	push	r11
    917e:	cf 92       	push	r12
    9180:	df 92       	push	r13
    9182:	ef 92       	push	r14
    9184:	ff 92       	push	r15
    9186:	0f 93       	push	r16
    9188:	1f 93       	push	r17
    918a:	2f 93       	push	r18
    918c:	3f 93       	push	r19
    918e:	4f 93       	push	r20
    9190:	5f 93       	push	r21
    9192:	6f 93       	push	r22
    9194:	7f 93       	push	r23
    9196:	8f 93       	push	r24
    9198:	9f 93       	push	r25
    919a:	af 93       	push	r26
    919c:	bf 93       	push	r27
    919e:	cf 93       	push	r28
    91a0:	df 93       	push	r29
    91a2:	ef 93       	push	r30
    91a4:	ff 93       	push	r31
    91a6:	a0 91 6c 1c 	lds	r26, 0x1C6C
    91aa:	b0 91 6d 1c 	lds	r27, 0x1C6D
    91ae:	0d b6       	in	r0, 0x3d	; 61
    91b0:	0d 92       	st	X+, r0
    91b2:	0e b6       	in	r0, 0x3e	; 62
    91b4:	0d 92       	st	X+, r0
    91b6:	80 91 d8 1c 	lds	r24, 0x1CD8
    91ba:	90 91 d9 1c 	lds	r25, 0x1CD9
    91be:	01 97       	sbiw	r24, 0x01	; 1
    91c0:	90 93 d9 1c 	sts	0x1CD9, r25
    91c4:	80 93 d8 1c 	sts	0x1CD8, r24
    91c8:	89 2b       	or	r24, r25
    91ca:	09 f4       	brne	.+2      	; 0x91ce <vPortYieldFromTick+0x78>
    91cc:	35 c0       	rjmp	.+106    	; 0x9238 <vPortYieldFromTick+0xe2>
    91ce:	0e 94 ac 31 	call	0x6358	; 0x6358 <xTaskIncrementTick>
    91d2:	88 23       	and	r24, r24
    91d4:	11 f0       	breq	.+4      	; 0x91da <vPortYieldFromTick+0x84>
    91d6:	0e 94 b5 33 	call	0x676a	; 0x676a <vTaskSwitchContext>
    91da:	a0 91 6c 1c 	lds	r26, 0x1C6C
    91de:	b0 91 6d 1c 	lds	r27, 0x1C6D
    91e2:	cd 91       	ld	r28, X+
    91e4:	cd bf       	out	0x3d, r28	; 61
    91e6:	dd 91       	ld	r29, X+
    91e8:	de bf       	out	0x3e, r29	; 62
    91ea:	ff 91       	pop	r31
    91ec:	ef 91       	pop	r30
    91ee:	df 91       	pop	r29
    91f0:	cf 91       	pop	r28
    91f2:	bf 91       	pop	r27
    91f4:	af 91       	pop	r26
    91f6:	9f 91       	pop	r25
    91f8:	8f 91       	pop	r24
    91fa:	7f 91       	pop	r23
    91fc:	6f 91       	pop	r22
    91fe:	5f 91       	pop	r21
    9200:	4f 91       	pop	r20
    9202:	3f 91       	pop	r19
    9204:	2f 91       	pop	r18
    9206:	1f 91       	pop	r17
    9208:	0f 91       	pop	r16
    920a:	ff 90       	pop	r15
    920c:	ef 90       	pop	r14
    920e:	df 90       	pop	r13
    9210:	cf 90       	pop	r12
    9212:	bf 90       	pop	r11
    9214:	af 90       	pop	r10
    9216:	9f 90       	pop	r9
    9218:	8f 90       	pop	r8
    921a:	7f 90       	pop	r7
    921c:	6f 90       	pop	r6
    921e:	5f 90       	pop	r5
    9220:	4f 90       	pop	r4
    9222:	3f 90       	pop	r3
    9224:	2f 90       	pop	r2
    9226:	1f 90       	pop	r1
    9228:	0f 90       	pop	r0
    922a:	0c be       	out	0x3c, r0	; 60
    922c:	0f 90       	pop	r0
    922e:	0b be       	out	0x3b, r0	; 59
    9230:	0f 90       	pop	r0
    9232:	0f be       	out	0x3f, r0	; 63
    9234:	0f 90       	pop	r0
    9236:	08 95       	ret
    9238:	0e 94 94 03 	call	0x728	; 0x728 <system_tick>
    923c:	80 91 d6 1c 	lds	r24, 0x1CD6
    9240:	90 91 d7 1c 	lds	r25, 0x1CD7
    9244:	90 93 d9 1c 	sts	0x1CD9, r25
    9248:	80 93 d8 1c 	sts	0x1CD8, r24
    924c:	c0 cf       	rjmp	.-128    	; 0x91ce <vPortYieldFromTick+0x78>

0000924e <__vector_32>:
    924e:	0e 94 ab 48 	call	0x9156	; 0x9156 <vPortYieldFromTick>
    9252:	18 95       	reti

00009254 <vPortYield>:
    9254:	0f 92       	push	r0
    9256:	0f b6       	in	r0, 0x3f	; 63
    9258:	f8 94       	cli
    925a:	0f 92       	push	r0
    925c:	0b b6       	in	r0, 0x3b	; 59
    925e:	0f 92       	push	r0
    9260:	0c b6       	in	r0, 0x3c	; 60
    9262:	0f 92       	push	r0
    9264:	1f 92       	push	r1
    9266:	11 24       	eor	r1, r1
    9268:	2f 92       	push	r2
    926a:	3f 92       	push	r3
    926c:	4f 92       	push	r4
    926e:	5f 92       	push	r5
    9270:	6f 92       	push	r6
    9272:	7f 92       	push	r7
    9274:	8f 92       	push	r8
    9276:	9f 92       	push	r9
    9278:	af 92       	push	r10
    927a:	bf 92       	push	r11
    927c:	cf 92       	push	r12
    927e:	df 92       	push	r13
    9280:	ef 92       	push	r14
    9282:	ff 92       	push	r15
    9284:	0f 93       	push	r16
    9286:	1f 93       	push	r17
    9288:	2f 93       	push	r18
    928a:	3f 93       	push	r19
    928c:	4f 93       	push	r20
    928e:	5f 93       	push	r21
    9290:	6f 93       	push	r22
    9292:	7f 93       	push	r23
    9294:	8f 93       	push	r24
    9296:	9f 93       	push	r25
    9298:	af 93       	push	r26
    929a:	bf 93       	push	r27
    929c:	cf 93       	push	r28
    929e:	df 93       	push	r29
    92a0:	ef 93       	push	r30
    92a2:	ff 93       	push	r31
    92a4:	a0 91 6c 1c 	lds	r26, 0x1C6C
    92a8:	b0 91 6d 1c 	lds	r27, 0x1C6D
    92ac:	0d b6       	in	r0, 0x3d	; 61
    92ae:	0d 92       	st	X+, r0
    92b0:	0e b6       	in	r0, 0x3e	; 62
    92b2:	0d 92       	st	X+, r0
    92b4:	0e 94 b5 33 	call	0x676a	; 0x676a <vTaskSwitchContext>
    92b8:	a0 91 6c 1c 	lds	r26, 0x1C6C
    92bc:	b0 91 6d 1c 	lds	r27, 0x1C6D
    92c0:	cd 91       	ld	r28, X+
    92c2:	cd bf       	out	0x3d, r28	; 61
    92c4:	dd 91       	ld	r29, X+
    92c6:	de bf       	out	0x3e, r29	; 62
    92c8:	ff 91       	pop	r31
    92ca:	ef 91       	pop	r30
    92cc:	df 91       	pop	r29
    92ce:	cf 91       	pop	r28
    92d0:	bf 91       	pop	r27
    92d2:	af 91       	pop	r26
    92d4:	9f 91       	pop	r25
    92d6:	8f 91       	pop	r24
    92d8:	7f 91       	pop	r23
    92da:	6f 91       	pop	r22
    92dc:	5f 91       	pop	r21
    92de:	4f 91       	pop	r20
    92e0:	3f 91       	pop	r19
    92e2:	2f 91       	pop	r18
    92e4:	1f 91       	pop	r17
    92e6:	0f 91       	pop	r16
    92e8:	ff 90       	pop	r15
    92ea:	ef 90       	pop	r14
    92ec:	df 90       	pop	r13
    92ee:	cf 90       	pop	r12
    92f0:	bf 90       	pop	r11
    92f2:	af 90       	pop	r10
    92f4:	9f 90       	pop	r9
    92f6:	8f 90       	pop	r8
    92f8:	7f 90       	pop	r7
    92fa:	6f 90       	pop	r6
    92fc:	5f 90       	pop	r5
    92fe:	4f 90       	pop	r4
    9300:	3f 90       	pop	r3
    9302:	2f 90       	pop	r2
    9304:	1f 90       	pop	r1
    9306:	0f 90       	pop	r0
    9308:	0c be       	out	0x3c, r0	; 60
    930a:	0f 90       	pop	r0
    930c:	0b be       	out	0x3b, r0	; 59
    930e:	0f 90       	pop	r0
    9310:	0f be       	out	0x3f, r0	; 63
    9312:	0f 90       	pop	r0
    9314:	08 95       	ret

00009316 <vListInitialise>:
    9316:	fc 01       	movw	r30, r24
    9318:	9c 01       	movw	r18, r24
    931a:	2d 5f       	subi	r18, 0xFD	; 253
    931c:	3f 4f       	sbci	r19, 0xFF	; 255
    931e:	32 83       	std	Z+2, r19	; 0x02
    9320:	21 83       	std	Z+1, r18	; 0x01
    9322:	8f ef       	ldi	r24, 0xFF	; 255
    9324:	9f ef       	ldi	r25, 0xFF	; 255
    9326:	94 83       	std	Z+4, r25	; 0x04
    9328:	83 83       	std	Z+3, r24	; 0x03
    932a:	36 83       	std	Z+6, r19	; 0x06
    932c:	25 83       	std	Z+5, r18	; 0x05
    932e:	30 87       	std	Z+8, r19	; 0x08
    9330:	27 83       	std	Z+7, r18	; 0x07
    9332:	10 82       	st	Z, r1
    9334:	08 95       	ret

00009336 <vListInitialiseItem>:
    9336:	fc 01       	movw	r30, r24
    9338:	11 86       	std	Z+9, r1	; 0x09
    933a:	10 86       	std	Z+8, r1	; 0x08
    933c:	08 95       	ret

0000933e <vListInsertEnd>:
    933e:	ac 01       	movw	r20, r24
    9340:	fc 01       	movw	r30, r24
    9342:	a1 81       	ldd	r26, Z+1	; 0x01
    9344:	b2 81       	ldd	r27, Z+2	; 0x02
    9346:	fb 01       	movw	r30, r22
    9348:	b3 83       	std	Z+3, r27	; 0x03
    934a:	a2 83       	std	Z+2, r26	; 0x02
    934c:	14 96       	adiw	r26, 0x04	; 4
    934e:	8d 91       	ld	r24, X+
    9350:	9c 91       	ld	r25, X
    9352:	15 97       	sbiw	r26, 0x05	; 5
    9354:	95 83       	std	Z+5, r25	; 0x05
    9356:	84 83       	std	Z+4, r24	; 0x04
    9358:	14 96       	adiw	r26, 0x04	; 4
    935a:	ed 91       	ld	r30, X+
    935c:	fc 91       	ld	r31, X
    935e:	15 97       	sbiw	r26, 0x05	; 5
    9360:	73 83       	std	Z+3, r23	; 0x03
    9362:	62 83       	std	Z+2, r22	; 0x02
    9364:	15 96       	adiw	r26, 0x05	; 5
    9366:	7c 93       	st	X, r23
    9368:	6e 93       	st	-X, r22
    936a:	14 97       	sbiw	r26, 0x04	; 4
    936c:	fb 01       	movw	r30, r22
    936e:	51 87       	std	Z+9, r21	; 0x09
    9370:	40 87       	std	Z+8, r20	; 0x08
    9372:	fa 01       	movw	r30, r20
    9374:	80 81       	ld	r24, Z
    9376:	8f 5f       	subi	r24, 0xFF	; 255
    9378:	80 83       	st	Z, r24
    937a:	08 95       	ret

0000937c <vListInsert>:
    937c:	cf 93       	push	r28
    937e:	df 93       	push	r29
    9380:	ac 01       	movw	r20, r24
    9382:	eb 01       	movw	r28, r22
    9384:	28 81       	ld	r18, Y
    9386:	39 81       	ldd	r19, Y+1	; 0x01
    9388:	8f ef       	ldi	r24, 0xFF	; 255
    938a:	2f 3f       	cpi	r18, 0xFF	; 255
    938c:	38 07       	cpc	r19, r24
    938e:	01 f1       	breq	.+64     	; 0x93d0 <vListInsert+0x54>
    9390:	da 01       	movw	r26, r20
    9392:	13 96       	adiw	r26, 0x03	; 3
    9394:	01 c0       	rjmp	.+2      	; 0x9398 <vListInsert+0x1c>
    9396:	df 01       	movw	r26, r30
    9398:	12 96       	adiw	r26, 0x02	; 2
    939a:	ed 91       	ld	r30, X+
    939c:	fc 91       	ld	r31, X
    939e:	13 97       	sbiw	r26, 0x03	; 3
    93a0:	80 81       	ld	r24, Z
    93a2:	91 81       	ldd	r25, Z+1	; 0x01
    93a4:	28 17       	cp	r18, r24
    93a6:	39 07       	cpc	r19, r25
    93a8:	b0 f7       	brcc	.-20     	; 0x9396 <vListInsert+0x1a>
    93aa:	fb 83       	std	Y+3, r31	; 0x03
    93ac:	ea 83       	std	Y+2, r30	; 0x02
    93ae:	d5 83       	std	Z+5, r29	; 0x05
    93b0:	c4 83       	std	Z+4, r28	; 0x04
    93b2:	bd 83       	std	Y+5, r27	; 0x05
    93b4:	ac 83       	std	Y+4, r26	; 0x04
    93b6:	13 96       	adiw	r26, 0x03	; 3
    93b8:	dc 93       	st	X, r29
    93ba:	ce 93       	st	-X, r28
    93bc:	12 97       	sbiw	r26, 0x02	; 2
    93be:	59 87       	std	Y+9, r21	; 0x09
    93c0:	48 87       	std	Y+8, r20	; 0x08
    93c2:	fa 01       	movw	r30, r20
    93c4:	80 81       	ld	r24, Z
    93c6:	8f 5f       	subi	r24, 0xFF	; 255
    93c8:	80 83       	st	Z, r24
    93ca:	df 91       	pop	r29
    93cc:	cf 91       	pop	r28
    93ce:	08 95       	ret
    93d0:	fa 01       	movw	r30, r20
    93d2:	a7 81       	ldd	r26, Z+7	; 0x07
    93d4:	b0 85       	ldd	r27, Z+8	; 0x08
    93d6:	12 96       	adiw	r26, 0x02	; 2
    93d8:	ed 91       	ld	r30, X+
    93da:	fc 91       	ld	r31, X
    93dc:	13 97       	sbiw	r26, 0x03	; 3
    93de:	e5 cf       	rjmp	.-54     	; 0x93aa <vListInsert+0x2e>

000093e0 <uxListRemove>:
    93e0:	cf 93       	push	r28
    93e2:	df 93       	push	r29
    93e4:	dc 01       	movw	r26, r24
    93e6:	18 96       	adiw	r26, 0x08	; 8
    93e8:	cd 91       	ld	r28, X+
    93ea:	dc 91       	ld	r29, X
    93ec:	19 97       	sbiw	r26, 0x09	; 9
    93ee:	12 96       	adiw	r26, 0x02	; 2
    93f0:	4d 91       	ld	r20, X+
    93f2:	5c 91       	ld	r21, X
    93f4:	13 97       	sbiw	r26, 0x03	; 3
    93f6:	14 96       	adiw	r26, 0x04	; 4
    93f8:	8d 91       	ld	r24, X+
    93fa:	9c 91       	ld	r25, X
    93fc:	15 97       	sbiw	r26, 0x05	; 5
    93fe:	fa 01       	movw	r30, r20
    9400:	95 83       	std	Z+5, r25	; 0x05
    9402:	84 83       	std	Z+4, r24	; 0x04
    9404:	14 96       	adiw	r26, 0x04	; 4
    9406:	2d 91       	ld	r18, X+
    9408:	3c 91       	ld	r19, X
    940a:	15 97       	sbiw	r26, 0x05	; 5
    940c:	f9 01       	movw	r30, r18
    940e:	53 83       	std	Z+3, r21	; 0x03
    9410:	42 83       	std	Z+2, r20	; 0x02
    9412:	89 81       	ldd	r24, Y+1	; 0x01
    9414:	9a 81       	ldd	r25, Y+2	; 0x02
    9416:	8a 17       	cp	r24, r26
    9418:	9b 07       	cpc	r25, r27
    941a:	51 f0       	breq	.+20     	; 0x9430 <uxListRemove+0x50>
    941c:	19 96       	adiw	r26, 0x09	; 9
    941e:	1c 92       	st	X, r1
    9420:	1e 92       	st	-X, r1
    9422:	18 97       	sbiw	r26, 0x08	; 8
    9424:	88 81       	ld	r24, Y
    9426:	81 50       	subi	r24, 0x01	; 1
    9428:	88 83       	st	Y, r24
    942a:	df 91       	pop	r29
    942c:	cf 91       	pop	r28
    942e:	08 95       	ret
    9430:	3a 83       	std	Y+2, r19	; 0x02
    9432:	29 83       	std	Y+1, r18	; 0x01
    9434:	f3 cf       	rjmp	.-26     	; 0x941c <uxListRemove+0x3c>

00009436 <xconfigTimerForRunTimeStats>:
    9436:	10 92 80 00 	sts	0x0080, r1
    943a:	e1 e8       	ldi	r30, 0x81	; 129
    943c:	f0 e0       	ldi	r31, 0x00	; 0
    943e:	10 82       	st	Z, r1
    9440:	10 92 85 00 	sts	0x0085, r1
    9444:	10 92 84 00 	sts	0x0084, r1
    9448:	84 e0       	ldi	r24, 0x04	; 4
    944a:	80 83       	st	Z, r24
    944c:	08 95       	ret

0000944e <__subsf3>:
    944e:	50 58       	subi	r21, 0x80	; 128

00009450 <__addsf3>:
    9450:	bb 27       	eor	r27, r27
    9452:	aa 27       	eor	r26, r26
    9454:	0e d0       	rcall	.+28     	; 0x9472 <__addsf3x>
    9456:	75 c1       	rjmp	.+746    	; 0x9742 <__fp_round>
    9458:	66 d1       	rcall	.+716    	; 0x9726 <__fp_pscA>
    945a:	30 f0       	brcs	.+12     	; 0x9468 <__addsf3+0x18>
    945c:	6b d1       	rcall	.+726    	; 0x9734 <__fp_pscB>
    945e:	20 f0       	brcs	.+8      	; 0x9468 <__addsf3+0x18>
    9460:	31 f4       	brne	.+12     	; 0x946e <__addsf3+0x1e>
    9462:	9f 3f       	cpi	r25, 0xFF	; 255
    9464:	11 f4       	brne	.+4      	; 0x946a <__addsf3+0x1a>
    9466:	1e f4       	brtc	.+6      	; 0x946e <__addsf3+0x1e>
    9468:	5b c1       	rjmp	.+694    	; 0x9720 <__fp_nan>
    946a:	0e f4       	brtc	.+2      	; 0x946e <__addsf3+0x1e>
    946c:	e0 95       	com	r30
    946e:	e7 fb       	bst	r30, 7
    9470:	51 c1       	rjmp	.+674    	; 0x9714 <__fp_inf>

00009472 <__addsf3x>:
    9472:	e9 2f       	mov	r30, r25
    9474:	77 d1       	rcall	.+750    	; 0x9764 <__fp_split3>
    9476:	80 f3       	brcs	.-32     	; 0x9458 <__addsf3+0x8>
    9478:	ba 17       	cp	r27, r26
    947a:	62 07       	cpc	r22, r18
    947c:	73 07       	cpc	r23, r19
    947e:	84 07       	cpc	r24, r20
    9480:	95 07       	cpc	r25, r21
    9482:	18 f0       	brcs	.+6      	; 0x948a <__addsf3x+0x18>
    9484:	71 f4       	brne	.+28     	; 0x94a2 <__addsf3x+0x30>
    9486:	9e f5       	brtc	.+102    	; 0x94ee <__addsf3x+0x7c>
    9488:	8f c1       	rjmp	.+798    	; 0x97a8 <__fp_zero>
    948a:	0e f4       	brtc	.+2      	; 0x948e <__addsf3x+0x1c>
    948c:	e0 95       	com	r30
    948e:	0b 2e       	mov	r0, r27
    9490:	ba 2f       	mov	r27, r26
    9492:	a0 2d       	mov	r26, r0
    9494:	0b 01       	movw	r0, r22
    9496:	b9 01       	movw	r22, r18
    9498:	90 01       	movw	r18, r0
    949a:	0c 01       	movw	r0, r24
    949c:	ca 01       	movw	r24, r20
    949e:	a0 01       	movw	r20, r0
    94a0:	11 24       	eor	r1, r1
    94a2:	ff 27       	eor	r31, r31
    94a4:	59 1b       	sub	r21, r25
    94a6:	99 f0       	breq	.+38     	; 0x94ce <__addsf3x+0x5c>
    94a8:	59 3f       	cpi	r21, 0xF9	; 249
    94aa:	50 f4       	brcc	.+20     	; 0x94c0 <__addsf3x+0x4e>
    94ac:	50 3e       	cpi	r21, 0xE0	; 224
    94ae:	68 f1       	brcs	.+90     	; 0x950a <__addsf3x+0x98>
    94b0:	1a 16       	cp	r1, r26
    94b2:	f0 40       	sbci	r31, 0x00	; 0
    94b4:	a2 2f       	mov	r26, r18
    94b6:	23 2f       	mov	r18, r19
    94b8:	34 2f       	mov	r19, r20
    94ba:	44 27       	eor	r20, r20
    94bc:	58 5f       	subi	r21, 0xF8	; 248
    94be:	f3 cf       	rjmp	.-26     	; 0x94a6 <__addsf3x+0x34>
    94c0:	46 95       	lsr	r20
    94c2:	37 95       	ror	r19
    94c4:	27 95       	ror	r18
    94c6:	a7 95       	ror	r26
    94c8:	f0 40       	sbci	r31, 0x00	; 0
    94ca:	53 95       	inc	r21
    94cc:	c9 f7       	brne	.-14     	; 0x94c0 <__addsf3x+0x4e>
    94ce:	7e f4       	brtc	.+30     	; 0x94ee <__addsf3x+0x7c>
    94d0:	1f 16       	cp	r1, r31
    94d2:	ba 0b       	sbc	r27, r26
    94d4:	62 0b       	sbc	r22, r18
    94d6:	73 0b       	sbc	r23, r19
    94d8:	84 0b       	sbc	r24, r20
    94da:	ba f0       	brmi	.+46     	; 0x950a <__addsf3x+0x98>
    94dc:	91 50       	subi	r25, 0x01	; 1
    94de:	a1 f0       	breq	.+40     	; 0x9508 <__addsf3x+0x96>
    94e0:	ff 0f       	add	r31, r31
    94e2:	bb 1f       	adc	r27, r27
    94e4:	66 1f       	adc	r22, r22
    94e6:	77 1f       	adc	r23, r23
    94e8:	88 1f       	adc	r24, r24
    94ea:	c2 f7       	brpl	.-16     	; 0x94dc <__addsf3x+0x6a>
    94ec:	0e c0       	rjmp	.+28     	; 0x950a <__addsf3x+0x98>
    94ee:	ba 0f       	add	r27, r26
    94f0:	62 1f       	adc	r22, r18
    94f2:	73 1f       	adc	r23, r19
    94f4:	84 1f       	adc	r24, r20
    94f6:	48 f4       	brcc	.+18     	; 0x950a <__addsf3x+0x98>
    94f8:	87 95       	ror	r24
    94fa:	77 95       	ror	r23
    94fc:	67 95       	ror	r22
    94fe:	b7 95       	ror	r27
    9500:	f7 95       	ror	r31
    9502:	9e 3f       	cpi	r25, 0xFE	; 254
    9504:	08 f0       	brcs	.+2      	; 0x9508 <__addsf3x+0x96>
    9506:	b3 cf       	rjmp	.-154    	; 0x946e <__addsf3+0x1e>
    9508:	93 95       	inc	r25
    950a:	88 0f       	add	r24, r24
    950c:	08 f0       	brcs	.+2      	; 0x9510 <__addsf3x+0x9e>
    950e:	99 27       	eor	r25, r25
    9510:	ee 0f       	add	r30, r30
    9512:	97 95       	ror	r25
    9514:	87 95       	ror	r24
    9516:	08 95       	ret

00009518 <__cmpsf2>:
    9518:	d9 d0       	rcall	.+434    	; 0x96cc <__fp_cmp>
    951a:	08 f4       	brcc	.+2      	; 0x951e <__cmpsf2+0x6>
    951c:	81 e0       	ldi	r24, 0x01	; 1
    951e:	08 95       	ret

00009520 <__divsf3>:
    9520:	0c d0       	rcall	.+24     	; 0x953a <__divsf3x>
    9522:	0f c1       	rjmp	.+542    	; 0x9742 <__fp_round>
    9524:	07 d1       	rcall	.+526    	; 0x9734 <__fp_pscB>
    9526:	40 f0       	brcs	.+16     	; 0x9538 <__divsf3+0x18>
    9528:	fe d0       	rcall	.+508    	; 0x9726 <__fp_pscA>
    952a:	30 f0       	brcs	.+12     	; 0x9538 <__divsf3+0x18>
    952c:	21 f4       	brne	.+8      	; 0x9536 <__divsf3+0x16>
    952e:	5f 3f       	cpi	r21, 0xFF	; 255
    9530:	19 f0       	breq	.+6      	; 0x9538 <__divsf3+0x18>
    9532:	f0 c0       	rjmp	.+480    	; 0x9714 <__fp_inf>
    9534:	51 11       	cpse	r21, r1
    9536:	39 c1       	rjmp	.+626    	; 0x97aa <__fp_szero>
    9538:	f3 c0       	rjmp	.+486    	; 0x9720 <__fp_nan>

0000953a <__divsf3x>:
    953a:	14 d1       	rcall	.+552    	; 0x9764 <__fp_split3>
    953c:	98 f3       	brcs	.-26     	; 0x9524 <__divsf3+0x4>

0000953e <__divsf3_pse>:
    953e:	99 23       	and	r25, r25
    9540:	c9 f3       	breq	.-14     	; 0x9534 <__divsf3+0x14>
    9542:	55 23       	and	r21, r21
    9544:	b1 f3       	breq	.-20     	; 0x9532 <__divsf3+0x12>
    9546:	95 1b       	sub	r25, r21
    9548:	55 0b       	sbc	r21, r21
    954a:	bb 27       	eor	r27, r27
    954c:	aa 27       	eor	r26, r26
    954e:	62 17       	cp	r22, r18
    9550:	73 07       	cpc	r23, r19
    9552:	84 07       	cpc	r24, r20
    9554:	38 f0       	brcs	.+14     	; 0x9564 <__divsf3_pse+0x26>
    9556:	9f 5f       	subi	r25, 0xFF	; 255
    9558:	5f 4f       	sbci	r21, 0xFF	; 255
    955a:	22 0f       	add	r18, r18
    955c:	33 1f       	adc	r19, r19
    955e:	44 1f       	adc	r20, r20
    9560:	aa 1f       	adc	r26, r26
    9562:	a9 f3       	breq	.-22     	; 0x954e <__divsf3_pse+0x10>
    9564:	33 d0       	rcall	.+102    	; 0x95cc <__divsf3_pse+0x8e>
    9566:	0e 2e       	mov	r0, r30
    9568:	3a f0       	brmi	.+14     	; 0x9578 <__divsf3_pse+0x3a>
    956a:	e0 e8       	ldi	r30, 0x80	; 128
    956c:	30 d0       	rcall	.+96     	; 0x95ce <__divsf3_pse+0x90>
    956e:	91 50       	subi	r25, 0x01	; 1
    9570:	50 40       	sbci	r21, 0x00	; 0
    9572:	e6 95       	lsr	r30
    9574:	00 1c       	adc	r0, r0
    9576:	ca f7       	brpl	.-14     	; 0x956a <__divsf3_pse+0x2c>
    9578:	29 d0       	rcall	.+82     	; 0x95cc <__divsf3_pse+0x8e>
    957a:	fe 2f       	mov	r31, r30
    957c:	27 d0       	rcall	.+78     	; 0x95cc <__divsf3_pse+0x8e>
    957e:	66 0f       	add	r22, r22
    9580:	77 1f       	adc	r23, r23
    9582:	88 1f       	adc	r24, r24
    9584:	bb 1f       	adc	r27, r27
    9586:	26 17       	cp	r18, r22
    9588:	37 07       	cpc	r19, r23
    958a:	48 07       	cpc	r20, r24
    958c:	ab 07       	cpc	r26, r27
    958e:	b0 e8       	ldi	r27, 0x80	; 128
    9590:	09 f0       	breq	.+2      	; 0x9594 <__divsf3_pse+0x56>
    9592:	bb 0b       	sbc	r27, r27
    9594:	80 2d       	mov	r24, r0
    9596:	bf 01       	movw	r22, r30
    9598:	ff 27       	eor	r31, r31
    959a:	93 58       	subi	r25, 0x83	; 131
    959c:	5f 4f       	sbci	r21, 0xFF	; 255
    959e:	2a f0       	brmi	.+10     	; 0x95aa <__divsf3_pse+0x6c>
    95a0:	9e 3f       	cpi	r25, 0xFE	; 254
    95a2:	51 05       	cpc	r21, r1
    95a4:	68 f0       	brcs	.+26     	; 0x95c0 <__divsf3_pse+0x82>
    95a6:	b6 c0       	rjmp	.+364    	; 0x9714 <__fp_inf>
    95a8:	00 c1       	rjmp	.+512    	; 0x97aa <__fp_szero>
    95aa:	5f 3f       	cpi	r21, 0xFF	; 255
    95ac:	ec f3       	brlt	.-6      	; 0x95a8 <__divsf3_pse+0x6a>
    95ae:	98 3e       	cpi	r25, 0xE8	; 232
    95b0:	dc f3       	brlt	.-10     	; 0x95a8 <__divsf3_pse+0x6a>
    95b2:	86 95       	lsr	r24
    95b4:	77 95       	ror	r23
    95b6:	67 95       	ror	r22
    95b8:	b7 95       	ror	r27
    95ba:	f7 95       	ror	r31
    95bc:	9f 5f       	subi	r25, 0xFF	; 255
    95be:	c9 f7       	brne	.-14     	; 0x95b2 <__divsf3_pse+0x74>
    95c0:	88 0f       	add	r24, r24
    95c2:	91 1d       	adc	r25, r1
    95c4:	96 95       	lsr	r25
    95c6:	87 95       	ror	r24
    95c8:	97 f9       	bld	r25, 7
    95ca:	08 95       	ret
    95cc:	e1 e0       	ldi	r30, 0x01	; 1
    95ce:	66 0f       	add	r22, r22
    95d0:	77 1f       	adc	r23, r23
    95d2:	88 1f       	adc	r24, r24
    95d4:	bb 1f       	adc	r27, r27
    95d6:	62 17       	cp	r22, r18
    95d8:	73 07       	cpc	r23, r19
    95da:	84 07       	cpc	r24, r20
    95dc:	ba 07       	cpc	r27, r26
    95de:	20 f0       	brcs	.+8      	; 0x95e8 <__divsf3_pse+0xaa>
    95e0:	62 1b       	sub	r22, r18
    95e2:	73 0b       	sbc	r23, r19
    95e4:	84 0b       	sbc	r24, r20
    95e6:	ba 0b       	sbc	r27, r26
    95e8:	ee 1f       	adc	r30, r30
    95ea:	88 f7       	brcc	.-30     	; 0x95ce <__divsf3_pse+0x90>
    95ec:	e0 95       	com	r30
    95ee:	08 95       	ret

000095f0 <__fixsfsi>:
    95f0:	04 d0       	rcall	.+8      	; 0x95fa <__fixunssfsi>
    95f2:	68 94       	set
    95f4:	b1 11       	cpse	r27, r1
    95f6:	d9 c0       	rjmp	.+434    	; 0x97aa <__fp_szero>
    95f8:	08 95       	ret

000095fa <__fixunssfsi>:
    95fa:	bc d0       	rcall	.+376    	; 0x9774 <__fp_splitA>
    95fc:	88 f0       	brcs	.+34     	; 0x9620 <__fixunssfsi+0x26>
    95fe:	9f 57       	subi	r25, 0x7F	; 127
    9600:	90 f0       	brcs	.+36     	; 0x9626 <__fixunssfsi+0x2c>
    9602:	b9 2f       	mov	r27, r25
    9604:	99 27       	eor	r25, r25
    9606:	b7 51       	subi	r27, 0x17	; 23
    9608:	a0 f0       	brcs	.+40     	; 0x9632 <__fixunssfsi+0x38>
    960a:	d1 f0       	breq	.+52     	; 0x9640 <__fixunssfsi+0x46>
    960c:	66 0f       	add	r22, r22
    960e:	77 1f       	adc	r23, r23
    9610:	88 1f       	adc	r24, r24
    9612:	99 1f       	adc	r25, r25
    9614:	1a f0       	brmi	.+6      	; 0x961c <__fixunssfsi+0x22>
    9616:	ba 95       	dec	r27
    9618:	c9 f7       	brne	.-14     	; 0x960c <__fixunssfsi+0x12>
    961a:	12 c0       	rjmp	.+36     	; 0x9640 <__fixunssfsi+0x46>
    961c:	b1 30       	cpi	r27, 0x01	; 1
    961e:	81 f0       	breq	.+32     	; 0x9640 <__fixunssfsi+0x46>
    9620:	c3 d0       	rcall	.+390    	; 0x97a8 <__fp_zero>
    9622:	b1 e0       	ldi	r27, 0x01	; 1
    9624:	08 95       	ret
    9626:	c0 c0       	rjmp	.+384    	; 0x97a8 <__fp_zero>
    9628:	67 2f       	mov	r22, r23
    962a:	78 2f       	mov	r23, r24
    962c:	88 27       	eor	r24, r24
    962e:	b8 5f       	subi	r27, 0xF8	; 248
    9630:	39 f0       	breq	.+14     	; 0x9640 <__fixunssfsi+0x46>
    9632:	b9 3f       	cpi	r27, 0xF9	; 249
    9634:	cc f3       	brlt	.-14     	; 0x9628 <__fixunssfsi+0x2e>
    9636:	86 95       	lsr	r24
    9638:	77 95       	ror	r23
    963a:	67 95       	ror	r22
    963c:	b3 95       	inc	r27
    963e:	d9 f7       	brne	.-10     	; 0x9636 <__fixunssfsi+0x3c>
    9640:	3e f4       	brtc	.+14     	; 0x9650 <__fixunssfsi+0x56>
    9642:	90 95       	com	r25
    9644:	80 95       	com	r24
    9646:	70 95       	com	r23
    9648:	61 95       	neg	r22
    964a:	7f 4f       	sbci	r23, 0xFF	; 255
    964c:	8f 4f       	sbci	r24, 0xFF	; 255
    964e:	9f 4f       	sbci	r25, 0xFF	; 255
    9650:	08 95       	ret

00009652 <__floatunsisf>:
    9652:	e8 94       	clt
    9654:	09 c0       	rjmp	.+18     	; 0x9668 <__floatsisf+0x12>

00009656 <__floatsisf>:
    9656:	97 fb       	bst	r25, 7
    9658:	3e f4       	brtc	.+14     	; 0x9668 <__floatsisf+0x12>
    965a:	90 95       	com	r25
    965c:	80 95       	com	r24
    965e:	70 95       	com	r23
    9660:	61 95       	neg	r22
    9662:	7f 4f       	sbci	r23, 0xFF	; 255
    9664:	8f 4f       	sbci	r24, 0xFF	; 255
    9666:	9f 4f       	sbci	r25, 0xFF	; 255
    9668:	99 23       	and	r25, r25
    966a:	a9 f0       	breq	.+42     	; 0x9696 <__floatsisf+0x40>
    966c:	f9 2f       	mov	r31, r25
    966e:	96 e9       	ldi	r25, 0x96	; 150
    9670:	bb 27       	eor	r27, r27
    9672:	93 95       	inc	r25
    9674:	f6 95       	lsr	r31
    9676:	87 95       	ror	r24
    9678:	77 95       	ror	r23
    967a:	67 95       	ror	r22
    967c:	b7 95       	ror	r27
    967e:	f1 11       	cpse	r31, r1
    9680:	f8 cf       	rjmp	.-16     	; 0x9672 <__floatsisf+0x1c>
    9682:	fa f4       	brpl	.+62     	; 0x96c2 <__floatsisf+0x6c>
    9684:	bb 0f       	add	r27, r27
    9686:	11 f4       	brne	.+4      	; 0x968c <__floatsisf+0x36>
    9688:	60 ff       	sbrs	r22, 0
    968a:	1b c0       	rjmp	.+54     	; 0x96c2 <__floatsisf+0x6c>
    968c:	6f 5f       	subi	r22, 0xFF	; 255
    968e:	7f 4f       	sbci	r23, 0xFF	; 255
    9690:	8f 4f       	sbci	r24, 0xFF	; 255
    9692:	9f 4f       	sbci	r25, 0xFF	; 255
    9694:	16 c0       	rjmp	.+44     	; 0x96c2 <__floatsisf+0x6c>
    9696:	88 23       	and	r24, r24
    9698:	11 f0       	breq	.+4      	; 0x969e <__floatsisf+0x48>
    969a:	96 e9       	ldi	r25, 0x96	; 150
    969c:	11 c0       	rjmp	.+34     	; 0x96c0 <__floatsisf+0x6a>
    969e:	77 23       	and	r23, r23
    96a0:	21 f0       	breq	.+8      	; 0x96aa <__floatsisf+0x54>
    96a2:	9e e8       	ldi	r25, 0x8E	; 142
    96a4:	87 2f       	mov	r24, r23
    96a6:	76 2f       	mov	r23, r22
    96a8:	05 c0       	rjmp	.+10     	; 0x96b4 <__floatsisf+0x5e>
    96aa:	66 23       	and	r22, r22
    96ac:	71 f0       	breq	.+28     	; 0x96ca <__floatsisf+0x74>
    96ae:	96 e8       	ldi	r25, 0x86	; 134
    96b0:	86 2f       	mov	r24, r22
    96b2:	70 e0       	ldi	r23, 0x00	; 0
    96b4:	60 e0       	ldi	r22, 0x00	; 0
    96b6:	2a f0       	brmi	.+10     	; 0x96c2 <__floatsisf+0x6c>
    96b8:	9a 95       	dec	r25
    96ba:	66 0f       	add	r22, r22
    96bc:	77 1f       	adc	r23, r23
    96be:	88 1f       	adc	r24, r24
    96c0:	da f7       	brpl	.-10     	; 0x96b8 <__floatsisf+0x62>
    96c2:	88 0f       	add	r24, r24
    96c4:	96 95       	lsr	r25
    96c6:	87 95       	ror	r24
    96c8:	97 f9       	bld	r25, 7
    96ca:	08 95       	ret

000096cc <__fp_cmp>:
    96cc:	99 0f       	add	r25, r25
    96ce:	00 08       	sbc	r0, r0
    96d0:	55 0f       	add	r21, r21
    96d2:	aa 0b       	sbc	r26, r26
    96d4:	e0 e8       	ldi	r30, 0x80	; 128
    96d6:	fe ef       	ldi	r31, 0xFE	; 254
    96d8:	16 16       	cp	r1, r22
    96da:	17 06       	cpc	r1, r23
    96dc:	e8 07       	cpc	r30, r24
    96de:	f9 07       	cpc	r31, r25
    96e0:	c0 f0       	brcs	.+48     	; 0x9712 <__fp_cmp+0x46>
    96e2:	12 16       	cp	r1, r18
    96e4:	13 06       	cpc	r1, r19
    96e6:	e4 07       	cpc	r30, r20
    96e8:	f5 07       	cpc	r31, r21
    96ea:	98 f0       	brcs	.+38     	; 0x9712 <__fp_cmp+0x46>
    96ec:	62 1b       	sub	r22, r18
    96ee:	73 0b       	sbc	r23, r19
    96f0:	84 0b       	sbc	r24, r20
    96f2:	95 0b       	sbc	r25, r21
    96f4:	39 f4       	brne	.+14     	; 0x9704 <__fp_cmp+0x38>
    96f6:	0a 26       	eor	r0, r26
    96f8:	61 f0       	breq	.+24     	; 0x9712 <__fp_cmp+0x46>
    96fa:	23 2b       	or	r18, r19
    96fc:	24 2b       	or	r18, r20
    96fe:	25 2b       	or	r18, r21
    9700:	21 f4       	brne	.+8      	; 0x970a <__fp_cmp+0x3e>
    9702:	08 95       	ret
    9704:	0a 26       	eor	r0, r26
    9706:	09 f4       	brne	.+2      	; 0x970a <__fp_cmp+0x3e>
    9708:	a1 40       	sbci	r26, 0x01	; 1
    970a:	a6 95       	lsr	r26
    970c:	8f ef       	ldi	r24, 0xFF	; 255
    970e:	81 1d       	adc	r24, r1
    9710:	81 1d       	adc	r24, r1
    9712:	08 95       	ret

00009714 <__fp_inf>:
    9714:	97 f9       	bld	r25, 7
    9716:	9f 67       	ori	r25, 0x7F	; 127
    9718:	80 e8       	ldi	r24, 0x80	; 128
    971a:	70 e0       	ldi	r23, 0x00	; 0
    971c:	60 e0       	ldi	r22, 0x00	; 0
    971e:	08 95       	ret

00009720 <__fp_nan>:
    9720:	9f ef       	ldi	r25, 0xFF	; 255
    9722:	80 ec       	ldi	r24, 0xC0	; 192
    9724:	08 95       	ret

00009726 <__fp_pscA>:
    9726:	00 24       	eor	r0, r0
    9728:	0a 94       	dec	r0
    972a:	16 16       	cp	r1, r22
    972c:	17 06       	cpc	r1, r23
    972e:	18 06       	cpc	r1, r24
    9730:	09 06       	cpc	r0, r25
    9732:	08 95       	ret

00009734 <__fp_pscB>:
    9734:	00 24       	eor	r0, r0
    9736:	0a 94       	dec	r0
    9738:	12 16       	cp	r1, r18
    973a:	13 06       	cpc	r1, r19
    973c:	14 06       	cpc	r1, r20
    973e:	05 06       	cpc	r0, r21
    9740:	08 95       	ret

00009742 <__fp_round>:
    9742:	09 2e       	mov	r0, r25
    9744:	03 94       	inc	r0
    9746:	00 0c       	add	r0, r0
    9748:	11 f4       	brne	.+4      	; 0x974e <__fp_round+0xc>
    974a:	88 23       	and	r24, r24
    974c:	52 f0       	brmi	.+20     	; 0x9762 <__fp_round+0x20>
    974e:	bb 0f       	add	r27, r27
    9750:	40 f4       	brcc	.+16     	; 0x9762 <__fp_round+0x20>
    9752:	bf 2b       	or	r27, r31
    9754:	11 f4       	brne	.+4      	; 0x975a <__fp_round+0x18>
    9756:	60 ff       	sbrs	r22, 0
    9758:	04 c0       	rjmp	.+8      	; 0x9762 <__fp_round+0x20>
    975a:	6f 5f       	subi	r22, 0xFF	; 255
    975c:	7f 4f       	sbci	r23, 0xFF	; 255
    975e:	8f 4f       	sbci	r24, 0xFF	; 255
    9760:	9f 4f       	sbci	r25, 0xFF	; 255
    9762:	08 95       	ret

00009764 <__fp_split3>:
    9764:	57 fd       	sbrc	r21, 7
    9766:	90 58       	subi	r25, 0x80	; 128
    9768:	44 0f       	add	r20, r20
    976a:	55 1f       	adc	r21, r21
    976c:	59 f0       	breq	.+22     	; 0x9784 <__fp_splitA+0x10>
    976e:	5f 3f       	cpi	r21, 0xFF	; 255
    9770:	71 f0       	breq	.+28     	; 0x978e <__fp_splitA+0x1a>
    9772:	47 95       	ror	r20

00009774 <__fp_splitA>:
    9774:	88 0f       	add	r24, r24
    9776:	97 fb       	bst	r25, 7
    9778:	99 1f       	adc	r25, r25
    977a:	61 f0       	breq	.+24     	; 0x9794 <__fp_splitA+0x20>
    977c:	9f 3f       	cpi	r25, 0xFF	; 255
    977e:	79 f0       	breq	.+30     	; 0x979e <__fp_splitA+0x2a>
    9780:	87 95       	ror	r24
    9782:	08 95       	ret
    9784:	12 16       	cp	r1, r18
    9786:	13 06       	cpc	r1, r19
    9788:	14 06       	cpc	r1, r20
    978a:	55 1f       	adc	r21, r21
    978c:	f2 cf       	rjmp	.-28     	; 0x9772 <__fp_split3+0xe>
    978e:	46 95       	lsr	r20
    9790:	f1 df       	rcall	.-30     	; 0x9774 <__fp_splitA>
    9792:	08 c0       	rjmp	.+16     	; 0x97a4 <__fp_splitA+0x30>
    9794:	16 16       	cp	r1, r22
    9796:	17 06       	cpc	r1, r23
    9798:	18 06       	cpc	r1, r24
    979a:	99 1f       	adc	r25, r25
    979c:	f1 cf       	rjmp	.-30     	; 0x9780 <__fp_splitA+0xc>
    979e:	86 95       	lsr	r24
    97a0:	71 05       	cpc	r23, r1
    97a2:	61 05       	cpc	r22, r1
    97a4:	08 94       	sec
    97a6:	08 95       	ret

000097a8 <__fp_zero>:
    97a8:	e8 94       	clt

000097aa <__fp_szero>:
    97aa:	bb 27       	eor	r27, r27
    97ac:	66 27       	eor	r22, r22
    97ae:	77 27       	eor	r23, r23
    97b0:	cb 01       	movw	r24, r22
    97b2:	97 f9       	bld	r25, 7
    97b4:	08 95       	ret

000097b6 <__gesf2>:
    97b6:	8a df       	rcall	.-236    	; 0x96cc <__fp_cmp>
    97b8:	08 f4       	brcc	.+2      	; 0x97bc <__gesf2+0x6>
    97ba:	8f ef       	ldi	r24, 0xFF	; 255
    97bc:	08 95       	ret

000097be <__mulsf3>:
    97be:	0b d0       	rcall	.+22     	; 0x97d6 <__mulsf3x>
    97c0:	c0 cf       	rjmp	.-128    	; 0x9742 <__fp_round>
    97c2:	b1 df       	rcall	.-158    	; 0x9726 <__fp_pscA>
    97c4:	28 f0       	brcs	.+10     	; 0x97d0 <__mulsf3+0x12>
    97c6:	b6 df       	rcall	.-148    	; 0x9734 <__fp_pscB>
    97c8:	18 f0       	brcs	.+6      	; 0x97d0 <__mulsf3+0x12>
    97ca:	95 23       	and	r25, r21
    97cc:	09 f0       	breq	.+2      	; 0x97d0 <__mulsf3+0x12>
    97ce:	a2 cf       	rjmp	.-188    	; 0x9714 <__fp_inf>
    97d0:	a7 cf       	rjmp	.-178    	; 0x9720 <__fp_nan>
    97d2:	11 24       	eor	r1, r1
    97d4:	ea cf       	rjmp	.-44     	; 0x97aa <__fp_szero>

000097d6 <__mulsf3x>:
    97d6:	c6 df       	rcall	.-116    	; 0x9764 <__fp_split3>
    97d8:	a0 f3       	brcs	.-24     	; 0x97c2 <__mulsf3+0x4>

000097da <__mulsf3_pse>:
    97da:	95 9f       	mul	r25, r21
    97dc:	d1 f3       	breq	.-12     	; 0x97d2 <__mulsf3+0x14>
    97de:	95 0f       	add	r25, r21
    97e0:	50 e0       	ldi	r21, 0x00	; 0
    97e2:	55 1f       	adc	r21, r21
    97e4:	62 9f       	mul	r22, r18
    97e6:	f0 01       	movw	r30, r0
    97e8:	72 9f       	mul	r23, r18
    97ea:	bb 27       	eor	r27, r27
    97ec:	f0 0d       	add	r31, r0
    97ee:	b1 1d       	adc	r27, r1
    97f0:	63 9f       	mul	r22, r19
    97f2:	aa 27       	eor	r26, r26
    97f4:	f0 0d       	add	r31, r0
    97f6:	b1 1d       	adc	r27, r1
    97f8:	aa 1f       	adc	r26, r26
    97fa:	64 9f       	mul	r22, r20
    97fc:	66 27       	eor	r22, r22
    97fe:	b0 0d       	add	r27, r0
    9800:	a1 1d       	adc	r26, r1
    9802:	66 1f       	adc	r22, r22
    9804:	82 9f       	mul	r24, r18
    9806:	22 27       	eor	r18, r18
    9808:	b0 0d       	add	r27, r0
    980a:	a1 1d       	adc	r26, r1
    980c:	62 1f       	adc	r22, r18
    980e:	73 9f       	mul	r23, r19
    9810:	b0 0d       	add	r27, r0
    9812:	a1 1d       	adc	r26, r1
    9814:	62 1f       	adc	r22, r18
    9816:	83 9f       	mul	r24, r19
    9818:	a0 0d       	add	r26, r0
    981a:	61 1d       	adc	r22, r1
    981c:	22 1f       	adc	r18, r18
    981e:	74 9f       	mul	r23, r20
    9820:	33 27       	eor	r19, r19
    9822:	a0 0d       	add	r26, r0
    9824:	61 1d       	adc	r22, r1
    9826:	23 1f       	adc	r18, r19
    9828:	84 9f       	mul	r24, r20
    982a:	60 0d       	add	r22, r0
    982c:	21 1d       	adc	r18, r1
    982e:	82 2f       	mov	r24, r18
    9830:	76 2f       	mov	r23, r22
    9832:	6a 2f       	mov	r22, r26
    9834:	11 24       	eor	r1, r1
    9836:	9f 57       	subi	r25, 0x7F	; 127
    9838:	50 40       	sbci	r21, 0x00	; 0
    983a:	8a f0       	brmi	.+34     	; 0x985e <__mulsf3_pse+0x84>
    983c:	e1 f0       	breq	.+56     	; 0x9876 <__mulsf3_pse+0x9c>
    983e:	88 23       	and	r24, r24
    9840:	4a f0       	brmi	.+18     	; 0x9854 <__mulsf3_pse+0x7a>
    9842:	ee 0f       	add	r30, r30
    9844:	ff 1f       	adc	r31, r31
    9846:	bb 1f       	adc	r27, r27
    9848:	66 1f       	adc	r22, r22
    984a:	77 1f       	adc	r23, r23
    984c:	88 1f       	adc	r24, r24
    984e:	91 50       	subi	r25, 0x01	; 1
    9850:	50 40       	sbci	r21, 0x00	; 0
    9852:	a9 f7       	brne	.-22     	; 0x983e <__mulsf3_pse+0x64>
    9854:	9e 3f       	cpi	r25, 0xFE	; 254
    9856:	51 05       	cpc	r21, r1
    9858:	70 f0       	brcs	.+28     	; 0x9876 <__mulsf3_pse+0x9c>
    985a:	5c cf       	rjmp	.-328    	; 0x9714 <__fp_inf>
    985c:	a6 cf       	rjmp	.-180    	; 0x97aa <__fp_szero>
    985e:	5f 3f       	cpi	r21, 0xFF	; 255
    9860:	ec f3       	brlt	.-6      	; 0x985c <__mulsf3_pse+0x82>
    9862:	98 3e       	cpi	r25, 0xE8	; 232
    9864:	dc f3       	brlt	.-10     	; 0x985c <__mulsf3_pse+0x82>
    9866:	86 95       	lsr	r24
    9868:	77 95       	ror	r23
    986a:	67 95       	ror	r22
    986c:	b7 95       	ror	r27
    986e:	f7 95       	ror	r31
    9870:	e7 95       	ror	r30
    9872:	9f 5f       	subi	r25, 0xFF	; 255
    9874:	c1 f7       	brne	.-16     	; 0x9866 <__mulsf3_pse+0x8c>
    9876:	fe 2b       	or	r31, r30
    9878:	88 0f       	add	r24, r24
    987a:	91 1d       	adc	r25, r1
    987c:	96 95       	lsr	r25
    987e:	87 95       	ror	r24
    9880:	97 f9       	bld	r25, 7
    9882:	08 95       	ret

00009884 <setDefaultUSART>:
    9884:	80 93 da 1c 	sts	0x1CDA, r24
    9888:	08 95       	ret

0000988a <usartWrite>:
    988a:	28 2f       	mov	r18, r24
    988c:	30 e0       	ldi	r19, 0x00	; 0
    988e:	f9 01       	movw	r30, r18
    9890:	ee 0f       	add	r30, r30
    9892:	ff 1f       	adc	r31, r31
    9894:	ee 0f       	add	r30, r30
    9896:	ff 1f       	adc	r31, r31
    9898:	e2 0f       	add	r30, r18
    989a:	f3 1f       	adc	r31, r19
    989c:	ee 0f       	add	r30, r30
    989e:	ff 1f       	adc	r31, r31
    98a0:	e0 55       	subi	r30, 0x50	; 80
    98a2:	f6 4f       	sbci	r31, 0xF6	; 246
    98a4:	01 90       	ld	r0, Z+
    98a6:	f0 81       	ld	r31, Z
    98a8:	e0 2d       	mov	r30, r0
    98aa:	95 e8       	ldi	r25, 0x85	; 133
    98ac:	03 c0       	rjmp	.+6      	; 0x98b4 <usartWrite+0x2a>
    98ae:	89 2f       	mov	r24, r25
    98b0:	8a 95       	dec	r24
    98b2:	f1 f7       	brne	.-4      	; 0x98b0 <usartWrite+0x26>
    98b4:	80 81       	ld	r24, Z
    98b6:	85 ff       	sbrs	r24, 5
    98b8:	fa cf       	rjmp	.-12     	; 0x98ae <usartWrite+0x24>
    98ba:	f9 01       	movw	r30, r18
    98bc:	93 e0       	ldi	r25, 0x03	; 3
    98be:	ee 0f       	add	r30, r30
    98c0:	ff 1f       	adc	r31, r31
    98c2:	9a 95       	dec	r25
    98c4:	e1 f7       	brne	.-8      	; 0x98be <usartWrite+0x34>
    98c6:	22 0f       	add	r18, r18
    98c8:	33 1f       	adc	r19, r19
    98ca:	e2 0f       	add	r30, r18
    98cc:	f3 1f       	adc	r31, r19
    98ce:	e2 55       	subi	r30, 0x52	; 82
    98d0:	f6 4f       	sbci	r31, 0xF6	; 246
    98d2:	01 90       	ld	r0, Z+
    98d4:	f0 81       	ld	r31, Z
    98d6:	e0 2d       	mov	r30, r0
    98d8:	60 83       	st	Z, r22
    98da:	08 95       	ret

000098dc <usartRead>:
    98dc:	28 2f       	mov	r18, r24
    98de:	30 e0       	ldi	r19, 0x00	; 0
    98e0:	f9 01       	movw	r30, r18
    98e2:	ee 0f       	add	r30, r30
    98e4:	ff 1f       	adc	r31, r31
    98e6:	ee 0f       	add	r30, r30
    98e8:	ff 1f       	adc	r31, r31
    98ea:	e2 0f       	add	r30, r18
    98ec:	f3 1f       	adc	r31, r19
    98ee:	ee 0f       	add	r30, r30
    98f0:	ff 1f       	adc	r31, r31
    98f2:	e0 55       	subi	r30, 0x50	; 80
    98f4:	f6 4f       	sbci	r31, 0xF6	; 246
    98f6:	01 90       	ld	r0, Z+
    98f8:	f0 81       	ld	r31, Z
    98fa:	e0 2d       	mov	r30, r0
    98fc:	95 e8       	ldi	r25, 0x85	; 133
    98fe:	03 c0       	rjmp	.+6      	; 0x9906 <usartRead+0x2a>
    9900:	89 2f       	mov	r24, r25
    9902:	8a 95       	dec	r24
    9904:	f1 f7       	brne	.-4      	; 0x9902 <usartRead+0x26>
    9906:	80 81       	ld	r24, Z
    9908:	87 ff       	sbrs	r24, 7
    990a:	fa cf       	rjmp	.-12     	; 0x9900 <usartRead+0x24>
    990c:	80 81       	ld	r24, Z
    990e:	8c 71       	andi	r24, 0x1C	; 28
    9910:	11 f0       	breq	.+4      	; 0x9916 <usartRead+0x3a>
    9912:	8f ef       	ldi	r24, 0xFF	; 255
    9914:	08 95       	ret
    9916:	f9 01       	movw	r30, r18
    9918:	73 e0       	ldi	r23, 0x03	; 3
    991a:	ee 0f       	add	r30, r30
    991c:	ff 1f       	adc	r31, r31
    991e:	7a 95       	dec	r23
    9920:	e1 f7       	brne	.-8      	; 0x991a <usartRead+0x3e>
    9922:	22 0f       	add	r18, r18
    9924:	33 1f       	adc	r19, r19
    9926:	e2 0f       	add	r30, r18
    9928:	f3 1f       	adc	r31, r19
    992a:	e2 55       	subi	r30, 0x52	; 82
    992c:	f6 4f       	sbci	r31, 0xF6	; 246
    992e:	01 90       	ld	r0, Z+
    9930:	f0 81       	ld	r31, Z
    9932:	e0 2d       	mov	r30, r0
    9934:	80 81       	ld	r24, Z
    9936:	08 95       	ret

00009938 <usart_xflushRx>:
    9938:	cf 93       	push	r28
    993a:	df 93       	push	r29
    993c:	28 2f       	mov	r18, r24
    993e:	30 e0       	ldi	r19, 0x00	; 0
    9940:	f9 01       	movw	r30, r18
    9942:	ee 0f       	add	r30, r30
    9944:	ff 1f       	adc	r31, r31
    9946:	ee 0f       	add	r30, r30
    9948:	ff 1f       	adc	r31, r31
    994a:	e2 0f       	add	r30, r18
    994c:	f3 1f       	adc	r31, r19
    994e:	ee 0f       	add	r30, r30
    9950:	ff 1f       	adc	r31, r31
    9952:	e0 55       	subi	r30, 0x50	; 80
    9954:	f6 4f       	sbci	r31, 0xF6	; 246
    9956:	c0 81       	ld	r28, Z
    9958:	d1 81       	ldd	r29, Z+1	; 0x01
    995a:	d9 01       	movw	r26, r18
    995c:	aa 0f       	add	r26, r26
    995e:	bb 1f       	adc	r27, r27
    9960:	c9 01       	movw	r24, r18
    9962:	43 e0       	ldi	r20, 0x03	; 3
    9964:	88 0f       	add	r24, r24
    9966:	99 1f       	adc	r25, r25
    9968:	4a 95       	dec	r20
    996a:	e1 f7       	brne	.-8      	; 0x9964 <usart_xflushRx+0x2c>
    996c:	a8 0f       	add	r26, r24
    996e:	b9 1f       	adc	r27, r25
    9970:	a2 55       	subi	r26, 0x52	; 82
    9972:	b6 4f       	sbci	r27, 0xF6	; 246
    9974:	04 c0       	rjmp	.+8      	; 0x997e <usart_xflushRx+0x46>
    9976:	ed 91       	ld	r30, X+
    9978:	fc 91       	ld	r31, X
    997a:	11 97       	sbiw	r26, 0x01	; 1
    997c:	e0 81       	ld	r30, Z
    997e:	88 81       	ld	r24, Y
    9980:	87 fd       	sbrc	r24, 7
    9982:	f9 cf       	rjmp	.-14     	; 0x9976 <usart_xflushRx+0x3e>
    9984:	0f b6       	in	r0, 0x3f	; 63
    9986:	f8 94       	cli
    9988:	0f 92       	push	r0
    998a:	8d e1       	ldi	r24, 0x1D	; 29
    998c:	90 e0       	ldi	r25, 0x00	; 0
    998e:	28 9f       	mul	r18, r24
    9990:	f0 01       	movw	r30, r0
    9992:	29 9f       	mul	r18, r25
    9994:	f0 0d       	add	r31, r0
    9996:	38 9f       	mul	r19, r24
    9998:	f0 0d       	add	r31, r0
    999a:	11 24       	eor	r1, r1
    999c:	ed 55       	subi	r30, 0x5D	; 93
    999e:	f2 4e       	sbci	r31, 0xE2	; 226
    99a0:	11 82       	std	Z+1, r1	; 0x01
    99a2:	10 82       	st	Z, r1
    99a4:	86 81       	ldd	r24, Z+6	; 0x06
    99a6:	97 81       	ldd	r25, Z+7	; 0x07
    99a8:	93 83       	std	Z+3, r25	; 0x03
    99aa:	82 83       	std	Z+2, r24	; 0x02
    99ac:	95 83       	std	Z+5, r25	; 0x05
    99ae:	84 83       	std	Z+4, r24	; 0x04
    99b0:	0f 90       	pop	r0
    99b2:	0f be       	out	0x3f, r0	; 63
    99b4:	df 91       	pop	r29
    99b6:	cf 91       	pop	r28
    99b8:	08 95       	ret

000099ba <usart_AvailableCharRx>:
    99ba:	90 e0       	ldi	r25, 0x00	; 0
    99bc:	0f b6       	in	r0, 0x3f	; 63
    99be:	f8 94       	cli
    99c0:	0f 92       	push	r0
    99c2:	2d e1       	ldi	r18, 0x1D	; 29
    99c4:	30 e0       	ldi	r19, 0x00	; 0
    99c6:	82 9f       	mul	r24, r18
    99c8:	f0 01       	movw	r30, r0
    99ca:	83 9f       	mul	r24, r19
    99cc:	f0 0d       	add	r31, r0
    99ce:	92 9f       	mul	r25, r18
    99d0:	f0 0d       	add	r31, r0
    99d2:	11 24       	eor	r1, r1
    99d4:	ed 55       	subi	r30, 0x5D	; 93
    99d6:	f2 4e       	sbci	r31, 0xE2	; 226
    99d8:	20 81       	ld	r18, Z
    99da:	31 81       	ldd	r19, Z+1	; 0x01
    99dc:	0f 90       	pop	r0
    99de:	0f be       	out	0x3f, r0	; 63
    99e0:	c9 01       	movw	r24, r18
    99e2:	08 95       	ret

000099e4 <usart_xgetChar>:
    99e4:	cf 93       	push	r28
    99e6:	df 93       	push	r29
    99e8:	db 01       	movw	r26, r22
    99ea:	28 2f       	mov	r18, r24
    99ec:	30 e0       	ldi	r19, 0x00	; 0
    99ee:	0f b6       	in	r0, 0x3f	; 63
    99f0:	f8 94       	cli
    99f2:	0f 92       	push	r0
    99f4:	8d e1       	ldi	r24, 0x1D	; 29
    99f6:	90 e0       	ldi	r25, 0x00	; 0
    99f8:	28 9f       	mul	r18, r24
    99fa:	f0 01       	movw	r30, r0
    99fc:	29 9f       	mul	r18, r25
    99fe:	f0 0d       	add	r31, r0
    9a00:	38 9f       	mul	r19, r24
    9a02:	f0 0d       	add	r31, r0
    9a04:	11 24       	eor	r1, r1
    9a06:	ed 55       	subi	r30, 0x5D	; 93
    9a08:	f2 4e       	sbci	r31, 0xE2	; 226
    9a0a:	80 81       	ld	r24, Z
    9a0c:	91 81       	ldd	r25, Z+1	; 0x01
    9a0e:	0f 90       	pop	r0
    9a10:	0f be       	out	0x3f, r0	; 63
    9a12:	89 2b       	or	r24, r25
    9a14:	11 f4       	brne	.+4      	; 0x9a1a <usart_xgetChar+0x36>
    9a16:	80 e0       	ldi	r24, 0x00	; 0
    9a18:	27 c0       	rjmp	.+78     	; 0x9a68 <usart_xgetChar+0x84>
    9a1a:	8d e1       	ldi	r24, 0x1D	; 29
    9a1c:	90 e0       	ldi	r25, 0x00	; 0
    9a1e:	ac 01       	movw	r20, r24
    9a20:	24 9f       	mul	r18, r20
    9a22:	c0 01       	movw	r24, r0
    9a24:	25 9f       	mul	r18, r21
    9a26:	90 0d       	add	r25, r0
    9a28:	34 9f       	mul	r19, r20
    9a2a:	90 0d       	add	r25, r0
    9a2c:	11 24       	eor	r1, r1
    9a2e:	8d 55       	subi	r24, 0x5D	; 93
    9a30:	92 4e       	sbci	r25, 0xE2	; 226
    9a32:	ec 01       	movw	r28, r24
    9a34:	ec 81       	ldd	r30, Y+4	; 0x04
    9a36:	fd 81       	ldd	r31, Y+5	; 0x05
    9a38:	21 91       	ld	r18, Z+
    9a3a:	0f b6       	in	r0, 0x3f	; 63
    9a3c:	f8 94       	cli
    9a3e:	0f 92       	push	r0
    9a40:	fd 83       	std	Y+5, r31	; 0x05
    9a42:	ec 83       	std	Y+4, r30	; 0x04
    9a44:	88 85       	ldd	r24, Y+8	; 0x08
    9a46:	99 85       	ldd	r25, Y+9	; 0x09
    9a48:	e8 17       	cp	r30, r24
    9a4a:	f9 07       	cpc	r31, r25
    9a4c:	21 f4       	brne	.+8      	; 0x9a56 <usart_xgetChar+0x72>
    9a4e:	8e 81       	ldd	r24, Y+6	; 0x06
    9a50:	9f 81       	ldd	r25, Y+7	; 0x07
    9a52:	9d 83       	std	Y+5, r25	; 0x05
    9a54:	8c 83       	std	Y+4, r24	; 0x04
    9a56:	88 81       	ld	r24, Y
    9a58:	99 81       	ldd	r25, Y+1	; 0x01
    9a5a:	01 97       	sbiw	r24, 0x01	; 1
    9a5c:	99 83       	std	Y+1, r25	; 0x01
    9a5e:	88 83       	st	Y, r24
    9a60:	0f 90       	pop	r0
    9a62:	0f be       	out	0x3f, r0	; 63
    9a64:	2c 93       	st	X, r18
    9a66:	81 e0       	ldi	r24, 0x01	; 1
    9a68:	df 91       	pop	r29
    9a6a:	cf 91       	pop	r28
    9a6c:	08 95       	ret

00009a6e <usart_xputChar>:
    9a6e:	cf 93       	push	r28
    9a70:	df 93       	push	r29
    9a72:	48 2f       	mov	r20, r24
    9a74:	50 e0       	ldi	r21, 0x00	; 0
    9a76:	0f b6       	in	r0, 0x3f	; 63
    9a78:	f8 94       	cli
    9a7a:	0f 92       	push	r0
    9a7c:	8d e1       	ldi	r24, 0x1D	; 29
    9a7e:	90 e0       	ldi	r25, 0x00	; 0
    9a80:	48 9f       	mul	r20, r24
    9a82:	f0 01       	movw	r30, r0
    9a84:	49 9f       	mul	r20, r25
    9a86:	f0 0d       	add	r31, r0
    9a88:	58 9f       	mul	r21, r24
    9a8a:	f0 0d       	add	r31, r0
    9a8c:	11 24       	eor	r1, r1
    9a8e:	ed 55       	subi	r30, 0x5D	; 93
    9a90:	f2 4e       	sbci	r31, 0xE2	; 226
    9a92:	a4 85       	ldd	r26, Z+12	; 0x0c
    9a94:	b5 85       	ldd	r27, Z+13	; 0x0d
    9a96:	0f 90       	pop	r0
    9a98:	0f be       	out	0x3f, r0	; 63
    9a9a:	8d e1       	ldi	r24, 0x1D	; 29
    9a9c:	90 e0       	ldi	r25, 0x00	; 0
    9a9e:	48 9f       	mul	r20, r24
    9aa0:	90 01       	movw	r18, r0
    9aa2:	49 9f       	mul	r20, r25
    9aa4:	30 0d       	add	r19, r0
    9aa6:	58 9f       	mul	r21, r24
    9aa8:	30 0d       	add	r19, r0
    9aaa:	11 24       	eor	r1, r1
    9aac:	f9 01       	movw	r30, r18
    9aae:	ed 55       	subi	r30, 0x5D	; 93
    9ab0:	f2 4e       	sbci	r31, 0xE2	; 226
    9ab2:	86 89       	ldd	r24, Z+22	; 0x16
    9ab4:	97 89       	ldd	r25, Z+23	; 0x17
    9ab6:	a8 17       	cp	r26, r24
    9ab8:	b9 07       	cpc	r27, r25
    9aba:	11 f0       	breq	.+4      	; 0x9ac0 <usart_xputChar+0x52>
    9abc:	c9 01       	movw	r24, r18
    9abe:	2d c0       	rjmp	.+90     	; 0x9b1a <usart_xputChar+0xac>
    9ac0:	85 e8       	ldi	r24, 0x85	; 133
    9ac2:	98 2f       	mov	r25, r24
    9ac4:	9a 95       	dec	r25
    9ac6:	f1 f7       	brne	.-4      	; 0x9ac4 <usart_xputChar+0x56>
    9ac8:	98 2f       	mov	r25, r24
    9aca:	9a 95       	dec	r25
    9acc:	f1 f7       	brne	.-4      	; 0x9aca <usart_xputChar+0x5c>
    9ace:	98 2f       	mov	r25, r24
    9ad0:	9a 95       	dec	r25
    9ad2:	f1 f7       	brne	.-4      	; 0x9ad0 <usart_xputChar+0x62>
    9ad4:	8a 95       	dec	r24
    9ad6:	f1 f7       	brne	.-4      	; 0x9ad4 <usart_xputChar+0x66>
    9ad8:	0f b6       	in	r0, 0x3f	; 63
    9ada:	f8 94       	cli
    9adc:	0f 92       	push	r0
    9ade:	8d e1       	ldi	r24, 0x1D	; 29
    9ae0:	90 e0       	ldi	r25, 0x00	; 0
    9ae2:	48 9f       	mul	r20, r24
    9ae4:	f0 01       	movw	r30, r0
    9ae6:	49 9f       	mul	r20, r25
    9ae8:	f0 0d       	add	r31, r0
    9aea:	58 9f       	mul	r21, r24
    9aec:	f0 0d       	add	r31, r0
    9aee:	11 24       	eor	r1, r1
    9af0:	ed 55       	subi	r30, 0x5D	; 93
    9af2:	f2 4e       	sbci	r31, 0xE2	; 226
    9af4:	84 85       	ldd	r24, Z+12	; 0x0c
    9af6:	95 85       	ldd	r25, Z+13	; 0x0d
    9af8:	0f 90       	pop	r0
    9afa:	0f be       	out	0x3f, r0	; 63
    9afc:	8a 17       	cp	r24, r26
    9afe:	9b 07       	cpc	r25, r27
    9b00:	11 f4       	brne	.+4      	; 0x9b06 <usart_xputChar+0x98>
    9b02:	90 e0       	ldi	r25, 0x00	; 0
    9b04:	29 c0       	rjmp	.+82     	; 0x9b58 <usart_xputChar+0xea>
    9b06:	8d e1       	ldi	r24, 0x1D	; 29
    9b08:	90 e0       	ldi	r25, 0x00	; 0
    9b0a:	9c 01       	movw	r18, r24
    9b0c:	42 9f       	mul	r20, r18
    9b0e:	c0 01       	movw	r24, r0
    9b10:	43 9f       	mul	r20, r19
    9b12:	90 0d       	add	r25, r0
    9b14:	52 9f       	mul	r21, r18
    9b16:	90 0d       	add	r25, r0
    9b18:	11 24       	eor	r1, r1
    9b1a:	81 55       	subi	r24, 0x51	; 81
    9b1c:	92 4e       	sbci	r25, 0xE2	; 226
    9b1e:	ec 01       	movw	r28, r24
    9b20:	ea 81       	ldd	r30, Y+2	; 0x02
    9b22:	fb 81       	ldd	r31, Y+3	; 0x03
    9b24:	60 83       	st	Z, r22
    9b26:	0f b6       	in	r0, 0x3f	; 63
    9b28:	f8 94       	cli
    9b2a:	0f 92       	push	r0
    9b2c:	8a 81       	ldd	r24, Y+2	; 0x02
    9b2e:	9b 81       	ldd	r25, Y+3	; 0x03
    9b30:	01 96       	adiw	r24, 0x01	; 1
    9b32:	9b 83       	std	Y+3, r25	; 0x03
    9b34:	8a 83       	std	Y+2, r24	; 0x02
    9b36:	28 85       	ldd	r18, Y+8	; 0x08
    9b38:	39 85       	ldd	r19, Y+9	; 0x09
    9b3a:	82 17       	cp	r24, r18
    9b3c:	93 07       	cpc	r25, r19
    9b3e:	21 f4       	brne	.+8      	; 0x9b48 <usart_xputChar+0xda>
    9b40:	8e 81       	ldd	r24, Y+6	; 0x06
    9b42:	9f 81       	ldd	r25, Y+7	; 0x07
    9b44:	9b 83       	std	Y+3, r25	; 0x03
    9b46:	8a 83       	std	Y+2, r24	; 0x02
    9b48:	88 81       	ld	r24, Y
    9b4a:	99 81       	ldd	r25, Y+1	; 0x01
    9b4c:	01 96       	adiw	r24, 0x01	; 1
    9b4e:	99 83       	std	Y+1, r25	; 0x01
    9b50:	88 83       	st	Y, r24
    9b52:	0f 90       	pop	r0
    9b54:	0f be       	out	0x3f, r0	; 63
    9b56:	91 e0       	ldi	r25, 0x01	; 1
    9b58:	fa 01       	movw	r30, r20
    9b5a:	b3 e0       	ldi	r27, 0x03	; 3
    9b5c:	ee 0f       	add	r30, r30
    9b5e:	ff 1f       	adc	r31, r31
    9b60:	ba 95       	dec	r27
    9b62:	e1 f7       	brne	.-8      	; 0x9b5c <usart_xputChar+0xee>
    9b64:	44 0f       	add	r20, r20
    9b66:	55 1f       	adc	r21, r21
    9b68:	e4 0f       	add	r30, r20
    9b6a:	f5 1f       	adc	r31, r21
    9b6c:	e2 55       	subi	r30, 0x52	; 82
    9b6e:	f6 4f       	sbci	r31, 0xF6	; 246
    9b70:	04 80       	ldd	r0, Z+4	; 0x04
    9b72:	f5 81       	ldd	r31, Z+5	; 0x05
    9b74:	e0 2d       	mov	r30, r0
    9b76:	80 81       	ld	r24, Z
    9b78:	80 62       	ori	r24, 0x20	; 32
    9b7a:	80 83       	st	Z, r24
    9b7c:	89 2f       	mov	r24, r25
    9b7e:	df 91       	pop	r29
    9b80:	cf 91       	pop	r28
    9b82:	08 95       	ret

00009b84 <usartCheckRxComplete>:
    9b84:	90 e0       	ldi	r25, 0x00	; 0
    9b86:	fc 01       	movw	r30, r24
    9b88:	ee 0f       	add	r30, r30
    9b8a:	ff 1f       	adc	r31, r31
    9b8c:	ee 0f       	add	r30, r30
    9b8e:	ff 1f       	adc	r31, r31
    9b90:	e8 0f       	add	r30, r24
    9b92:	f9 1f       	adc	r31, r25
    9b94:	ee 0f       	add	r30, r30
    9b96:	ff 1f       	adc	r31, r31
    9b98:	e0 55       	subi	r30, 0x50	; 80
    9b9a:	f6 4f       	sbci	r31, 0xF6	; 246
    9b9c:	01 90       	ld	r0, Z+
    9b9e:	f0 81       	ld	r31, Z
    9ba0:	e0 2d       	mov	r30, r0
    9ba2:	80 81       	ld	r24, Z
    9ba4:	80 78       	andi	r24, 0x80	; 128
    9ba6:	08 95       	ret

00009ba8 <usart_rx_isr>:
    9ba8:	cf 93       	push	r28
    9baa:	df 93       	push	r29
    9bac:	48 2f       	mov	r20, r24
    9bae:	50 e0       	ldi	r21, 0x00	; 0
    9bb0:	fa 01       	movw	r30, r20
    9bb2:	ee 0f       	add	r30, r30
    9bb4:	ff 1f       	adc	r31, r31
    9bb6:	ee 0f       	add	r30, r30
    9bb8:	ff 1f       	adc	r31, r31
    9bba:	e4 0f       	add	r30, r20
    9bbc:	f5 1f       	adc	r31, r21
    9bbe:	ee 0f       	add	r30, r30
    9bc0:	ff 1f       	adc	r31, r31
    9bc2:	e0 55       	subi	r30, 0x50	; 80
    9bc4:	f6 4f       	sbci	r31, 0xF6	; 246
    9bc6:	01 90       	ld	r0, Z+
    9bc8:	f0 81       	ld	r31, Z
    9bca:	e0 2d       	mov	r30, r0
    9bcc:	80 81       	ld	r24, Z
    9bce:	8c 71       	andi	r24, 0x1C	; 28
    9bd0:	09 f0       	breq	.+2      	; 0x9bd4 <usart_rx_isr+0x2c>
    9bd2:	4f c0       	rjmp	.+158    	; 0x9c72 <usart_rx_isr+0xca>
    9bd4:	fa 01       	movw	r30, r20
    9bd6:	ee 0f       	add	r30, r30
    9bd8:	ff 1f       	adc	r31, r31
    9bda:	ca 01       	movw	r24, r20
    9bdc:	33 e0       	ldi	r19, 0x03	; 3
    9bde:	88 0f       	add	r24, r24
    9be0:	99 1f       	adc	r25, r25
    9be2:	3a 95       	dec	r19
    9be4:	e1 f7       	brne	.-8      	; 0x9bde <usart_rx_isr+0x36>
    9be6:	e8 0f       	add	r30, r24
    9be8:	f9 1f       	adc	r31, r25
    9bea:	e2 55       	subi	r30, 0x52	; 82
    9bec:	f6 4f       	sbci	r31, 0xF6	; 246
    9bee:	01 90       	ld	r0, Z+
    9bf0:	f0 81       	ld	r31, Z
    9bf2:	e0 2d       	mov	r30, r0
    9bf4:	60 81       	ld	r22, Z
    9bf6:	0f b6       	in	r0, 0x3f	; 63
    9bf8:	f8 94       	cli
    9bfa:	0f 92       	push	r0
    9bfc:	8d e1       	ldi	r24, 0x1D	; 29
    9bfe:	90 e0       	ldi	r25, 0x00	; 0
    9c00:	48 9f       	mul	r20, r24
    9c02:	f0 01       	movw	r30, r0
    9c04:	49 9f       	mul	r20, r25
    9c06:	f0 0d       	add	r31, r0
    9c08:	58 9f       	mul	r21, r24
    9c0a:	f0 0d       	add	r31, r0
    9c0c:	11 24       	eor	r1, r1
    9c0e:	ed 55       	subi	r30, 0x5D	; 93
    9c10:	f2 4e       	sbci	r31, 0xE2	; 226
    9c12:	20 81       	ld	r18, Z
    9c14:	31 81       	ldd	r19, Z+1	; 0x01
    9c16:	0f 90       	pop	r0
    9c18:	0f be       	out	0x3f, r0	; 63
    9c1a:	8d e1       	ldi	r24, 0x1D	; 29
    9c1c:	90 e0       	ldi	r25, 0x00	; 0
    9c1e:	48 9f       	mul	r20, r24
    9c20:	f0 01       	movw	r30, r0
    9c22:	49 9f       	mul	r20, r25
    9c24:	f0 0d       	add	r31, r0
    9c26:	58 9f       	mul	r21, r24
    9c28:	f0 0d       	add	r31, r0
    9c2a:	11 24       	eor	r1, r1
    9c2c:	ed 55       	subi	r30, 0x5D	; 93
    9c2e:	f2 4e       	sbci	r31, 0xE2	; 226
    9c30:	82 85       	ldd	r24, Z+10	; 0x0a
    9c32:	93 85       	ldd	r25, Z+11	; 0x0b
    9c34:	28 17       	cp	r18, r24
    9c36:	39 07       	cpc	r19, r25
    9c38:	e1 f0       	breq	.+56     	; 0x9c72 <usart_rx_isr+0xca>
    9c3a:	ef 01       	movw	r28, r30
    9c3c:	ea 81       	ldd	r30, Y+2	; 0x02
    9c3e:	fb 81       	ldd	r31, Y+3	; 0x03
    9c40:	60 83       	st	Z, r22
    9c42:	0f b6       	in	r0, 0x3f	; 63
    9c44:	f8 94       	cli
    9c46:	0f 92       	push	r0
    9c48:	8a 81       	ldd	r24, Y+2	; 0x02
    9c4a:	9b 81       	ldd	r25, Y+3	; 0x03
    9c4c:	01 96       	adiw	r24, 0x01	; 1
    9c4e:	9b 83       	std	Y+3, r25	; 0x03
    9c50:	8a 83       	std	Y+2, r24	; 0x02
    9c52:	28 85       	ldd	r18, Y+8	; 0x08
    9c54:	39 85       	ldd	r19, Y+9	; 0x09
    9c56:	82 17       	cp	r24, r18
    9c58:	93 07       	cpc	r25, r19
    9c5a:	21 f4       	brne	.+8      	; 0x9c64 <usart_rx_isr+0xbc>
    9c5c:	8e 81       	ldd	r24, Y+6	; 0x06
    9c5e:	9f 81       	ldd	r25, Y+7	; 0x07
    9c60:	9b 83       	std	Y+3, r25	; 0x03
    9c62:	8a 83       	std	Y+2, r24	; 0x02
    9c64:	88 81       	ld	r24, Y
    9c66:	99 81       	ldd	r25, Y+1	; 0x01
    9c68:	01 96       	adiw	r24, 0x01	; 1
    9c6a:	99 83       	std	Y+1, r25	; 0x01
    9c6c:	88 83       	st	Y, r24
    9c6e:	0f 90       	pop	r0
    9c70:	0f be       	out	0x3f, r0	; 63
    9c72:	df 91       	pop	r29
    9c74:	cf 91       	pop	r28
    9c76:	08 95       	ret

00009c78 <__vector_54>:
    9c78:	1f 92       	push	r1
    9c7a:	0f 92       	push	r0
    9c7c:	0f b6       	in	r0, 0x3f	; 63
    9c7e:	0f 92       	push	r0
    9c80:	0b b6       	in	r0, 0x3b	; 59
    9c82:	0f 92       	push	r0
    9c84:	11 24       	eor	r1, r1
    9c86:	2f 93       	push	r18
    9c88:	3f 93       	push	r19
    9c8a:	4f 93       	push	r20
    9c8c:	5f 93       	push	r21
    9c8e:	6f 93       	push	r22
    9c90:	7f 93       	push	r23
    9c92:	8f 93       	push	r24
    9c94:	9f 93       	push	r25
    9c96:	af 93       	push	r26
    9c98:	bf 93       	push	r27
    9c9a:	ef 93       	push	r30
    9c9c:	ff 93       	push	r31
    9c9e:	83 e0       	ldi	r24, 0x03	; 3
    9ca0:	0e 94 d4 4d 	call	0x9ba8	; 0x9ba8 <usart_rx_isr>
    9ca4:	ff 91       	pop	r31
    9ca6:	ef 91       	pop	r30
    9ca8:	bf 91       	pop	r27
    9caa:	af 91       	pop	r26
    9cac:	9f 91       	pop	r25
    9cae:	8f 91       	pop	r24
    9cb0:	7f 91       	pop	r23
    9cb2:	6f 91       	pop	r22
    9cb4:	5f 91       	pop	r21
    9cb6:	4f 91       	pop	r20
    9cb8:	3f 91       	pop	r19
    9cba:	2f 91       	pop	r18
    9cbc:	0f 90       	pop	r0
    9cbe:	0b be       	out	0x3b, r0	; 59
    9cc0:	0f 90       	pop	r0
    9cc2:	0f be       	out	0x3f, r0	; 63
    9cc4:	0f 90       	pop	r0
    9cc6:	1f 90       	pop	r1
    9cc8:	18 95       	reti

00009cca <__vector_51>:
    9cca:	1f 92       	push	r1
    9ccc:	0f 92       	push	r0
    9cce:	0f b6       	in	r0, 0x3f	; 63
    9cd0:	0f 92       	push	r0
    9cd2:	0b b6       	in	r0, 0x3b	; 59
    9cd4:	0f 92       	push	r0
    9cd6:	11 24       	eor	r1, r1
    9cd8:	2f 93       	push	r18
    9cda:	3f 93       	push	r19
    9cdc:	4f 93       	push	r20
    9cde:	5f 93       	push	r21
    9ce0:	6f 93       	push	r22
    9ce2:	7f 93       	push	r23
    9ce4:	8f 93       	push	r24
    9ce6:	9f 93       	push	r25
    9ce8:	af 93       	push	r26
    9cea:	bf 93       	push	r27
    9cec:	ef 93       	push	r30
    9cee:	ff 93       	push	r31
    9cf0:	82 e0       	ldi	r24, 0x02	; 2
    9cf2:	0e 94 d4 4d 	call	0x9ba8	; 0x9ba8 <usart_rx_isr>
    9cf6:	ff 91       	pop	r31
    9cf8:	ef 91       	pop	r30
    9cfa:	bf 91       	pop	r27
    9cfc:	af 91       	pop	r26
    9cfe:	9f 91       	pop	r25
    9d00:	8f 91       	pop	r24
    9d02:	7f 91       	pop	r23
    9d04:	6f 91       	pop	r22
    9d06:	5f 91       	pop	r21
    9d08:	4f 91       	pop	r20
    9d0a:	3f 91       	pop	r19
    9d0c:	2f 91       	pop	r18
    9d0e:	0f 90       	pop	r0
    9d10:	0b be       	out	0x3b, r0	; 59
    9d12:	0f 90       	pop	r0
    9d14:	0f be       	out	0x3f, r0	; 63
    9d16:	0f 90       	pop	r0
    9d18:	1f 90       	pop	r1
    9d1a:	18 95       	reti

00009d1c <__vector_36>:
    9d1c:	1f 92       	push	r1
    9d1e:	0f 92       	push	r0
    9d20:	0f b6       	in	r0, 0x3f	; 63
    9d22:	0f 92       	push	r0
    9d24:	0b b6       	in	r0, 0x3b	; 59
    9d26:	0f 92       	push	r0
    9d28:	11 24       	eor	r1, r1
    9d2a:	2f 93       	push	r18
    9d2c:	3f 93       	push	r19
    9d2e:	4f 93       	push	r20
    9d30:	5f 93       	push	r21
    9d32:	6f 93       	push	r22
    9d34:	7f 93       	push	r23
    9d36:	8f 93       	push	r24
    9d38:	9f 93       	push	r25
    9d3a:	af 93       	push	r26
    9d3c:	bf 93       	push	r27
    9d3e:	ef 93       	push	r30
    9d40:	ff 93       	push	r31
    9d42:	81 e0       	ldi	r24, 0x01	; 1
    9d44:	0e 94 d4 4d 	call	0x9ba8	; 0x9ba8 <usart_rx_isr>
    9d48:	ff 91       	pop	r31
    9d4a:	ef 91       	pop	r30
    9d4c:	bf 91       	pop	r27
    9d4e:	af 91       	pop	r26
    9d50:	9f 91       	pop	r25
    9d52:	8f 91       	pop	r24
    9d54:	7f 91       	pop	r23
    9d56:	6f 91       	pop	r22
    9d58:	5f 91       	pop	r21
    9d5a:	4f 91       	pop	r20
    9d5c:	3f 91       	pop	r19
    9d5e:	2f 91       	pop	r18
    9d60:	0f 90       	pop	r0
    9d62:	0b be       	out	0x3b, r0	; 59
    9d64:	0f 90       	pop	r0
    9d66:	0f be       	out	0x3f, r0	; 63
    9d68:	0f 90       	pop	r0
    9d6a:	1f 90       	pop	r1
    9d6c:	18 95       	reti

00009d6e <__vector_25>:
    9d6e:	1f 92       	push	r1
    9d70:	0f 92       	push	r0
    9d72:	0f b6       	in	r0, 0x3f	; 63
    9d74:	0f 92       	push	r0
    9d76:	0b b6       	in	r0, 0x3b	; 59
    9d78:	0f 92       	push	r0
    9d7a:	11 24       	eor	r1, r1
    9d7c:	2f 93       	push	r18
    9d7e:	3f 93       	push	r19
    9d80:	4f 93       	push	r20
    9d82:	5f 93       	push	r21
    9d84:	6f 93       	push	r22
    9d86:	7f 93       	push	r23
    9d88:	8f 93       	push	r24
    9d8a:	9f 93       	push	r25
    9d8c:	af 93       	push	r26
    9d8e:	bf 93       	push	r27
    9d90:	ef 93       	push	r30
    9d92:	ff 93       	push	r31
    9d94:	80 e0       	ldi	r24, 0x00	; 0
    9d96:	0e 94 d4 4d 	call	0x9ba8	; 0x9ba8 <usart_rx_isr>
    9d9a:	ff 91       	pop	r31
    9d9c:	ef 91       	pop	r30
    9d9e:	bf 91       	pop	r27
    9da0:	af 91       	pop	r26
    9da2:	9f 91       	pop	r25
    9da4:	8f 91       	pop	r24
    9da6:	7f 91       	pop	r23
    9da8:	6f 91       	pop	r22
    9daa:	5f 91       	pop	r21
    9dac:	4f 91       	pop	r20
    9dae:	3f 91       	pop	r19
    9db0:	2f 91       	pop	r18
    9db2:	0f 90       	pop	r0
    9db4:	0b be       	out	0x3b, r0	; 59
    9db6:	0f 90       	pop	r0
    9db8:	0f be       	out	0x3f, r0	; 63
    9dba:	0f 90       	pop	r0
    9dbc:	1f 90       	pop	r1
    9dbe:	18 95       	reti

00009dc0 <usart_tx_isr>:
    9dc0:	cf 93       	push	r28
    9dc2:	df 93       	push	r29
    9dc4:	48 2f       	mov	r20, r24
    9dc6:	50 e0       	ldi	r21, 0x00	; 0
    9dc8:	0f b6       	in	r0, 0x3f	; 63
    9dca:	f8 94       	cli
    9dcc:	0f 92       	push	r0
    9dce:	8d e1       	ldi	r24, 0x1D	; 29
    9dd0:	90 e0       	ldi	r25, 0x00	; 0
    9dd2:	48 9f       	mul	r20, r24
    9dd4:	f0 01       	movw	r30, r0
    9dd6:	49 9f       	mul	r20, r25
    9dd8:	f0 0d       	add	r31, r0
    9dda:	58 9f       	mul	r21, r24
    9ddc:	f0 0d       	add	r31, r0
    9dde:	11 24       	eor	r1, r1
    9de0:	ed 55       	subi	r30, 0x5D	; 93
    9de2:	f2 4e       	sbci	r31, 0xE2	; 226
    9de4:	84 85       	ldd	r24, Z+12	; 0x0c
    9de6:	95 85       	ldd	r25, Z+13	; 0x0d
    9de8:	0f 90       	pop	r0
    9dea:	0f be       	out	0x3f, r0	; 63
    9dec:	fa 01       	movw	r30, r20
    9dee:	ee 0f       	add	r30, r30
    9df0:	ff 1f       	adc	r31, r31
    9df2:	9a 01       	movw	r18, r20
    9df4:	b3 e0       	ldi	r27, 0x03	; 3
    9df6:	22 0f       	add	r18, r18
    9df8:	33 1f       	adc	r19, r19
    9dfa:	ba 95       	dec	r27
    9dfc:	e1 f7       	brne	.-8      	; 0x9df6 <usart_tx_isr+0x36>
    9dfe:	89 2b       	or	r24, r25
    9e00:	59 f4       	brne	.+22     	; 0x9e18 <usart_tx_isr+0x58>
    9e02:	e2 0f       	add	r30, r18
    9e04:	f3 1f       	adc	r31, r19
    9e06:	e2 55       	subi	r30, 0x52	; 82
    9e08:	f6 4f       	sbci	r31, 0xF6	; 246
    9e0a:	04 80       	ldd	r0, Z+4	; 0x04
    9e0c:	f5 81       	ldd	r31, Z+5	; 0x05
    9e0e:	e0 2d       	mov	r30, r0
    9e10:	80 81       	ld	r24, Z
    9e12:	8f 7d       	andi	r24, 0xDF	; 223
    9e14:	80 83       	st	Z, r24
    9e16:	2c c0       	rjmp	.+88     	; 0x9e70 <usart_tx_isr+0xb0>
    9e18:	e2 0f       	add	r30, r18
    9e1a:	f3 1f       	adc	r31, r19
    9e1c:	e2 55       	subi	r30, 0x52	; 82
    9e1e:	f6 4f       	sbci	r31, 0xF6	; 246
    9e20:	a0 81       	ld	r26, Z
    9e22:	b1 81       	ldd	r27, Z+1	; 0x01
    9e24:	8d e1       	ldi	r24, 0x1D	; 29
    9e26:	90 e0       	ldi	r25, 0x00	; 0
    9e28:	9c 01       	movw	r18, r24
    9e2a:	42 9f       	mul	r20, r18
    9e2c:	c0 01       	movw	r24, r0
    9e2e:	43 9f       	mul	r20, r19
    9e30:	90 0d       	add	r25, r0
    9e32:	52 9f       	mul	r21, r18
    9e34:	90 0d       	add	r25, r0
    9e36:	11 24       	eor	r1, r1
    9e38:	81 55       	subi	r24, 0x51	; 81
    9e3a:	92 4e       	sbci	r25, 0xE2	; 226
    9e3c:	ec 01       	movw	r28, r24
    9e3e:	ec 81       	ldd	r30, Y+4	; 0x04
    9e40:	fd 81       	ldd	r31, Y+5	; 0x05
    9e42:	21 91       	ld	r18, Z+
    9e44:	0f b6       	in	r0, 0x3f	; 63
    9e46:	f8 94       	cli
    9e48:	0f 92       	push	r0
    9e4a:	fd 83       	std	Y+5, r31	; 0x05
    9e4c:	ec 83       	std	Y+4, r30	; 0x04
    9e4e:	88 85       	ldd	r24, Y+8	; 0x08
    9e50:	99 85       	ldd	r25, Y+9	; 0x09
    9e52:	e8 17       	cp	r30, r24
    9e54:	f9 07       	cpc	r31, r25
    9e56:	21 f4       	brne	.+8      	; 0x9e60 <usart_tx_isr+0xa0>
    9e58:	8e 81       	ldd	r24, Y+6	; 0x06
    9e5a:	9f 81       	ldd	r25, Y+7	; 0x07
    9e5c:	9d 83       	std	Y+5, r25	; 0x05
    9e5e:	8c 83       	std	Y+4, r24	; 0x04
    9e60:	88 81       	ld	r24, Y
    9e62:	99 81       	ldd	r25, Y+1	; 0x01
    9e64:	01 97       	sbiw	r24, 0x01	; 1
    9e66:	99 83       	std	Y+1, r25	; 0x01
    9e68:	88 83       	st	Y, r24
    9e6a:	0f 90       	pop	r0
    9e6c:	0f be       	out	0x3f, r0	; 63
    9e6e:	2c 93       	st	X, r18
    9e70:	df 91       	pop	r29
    9e72:	cf 91       	pop	r28
    9e74:	08 95       	ret

00009e76 <__vector_55>:
    9e76:	1f 92       	push	r1
    9e78:	0f 92       	push	r0
    9e7a:	0f b6       	in	r0, 0x3f	; 63
    9e7c:	0f 92       	push	r0
    9e7e:	0b b6       	in	r0, 0x3b	; 59
    9e80:	0f 92       	push	r0
    9e82:	11 24       	eor	r1, r1
    9e84:	2f 93       	push	r18
    9e86:	3f 93       	push	r19
    9e88:	4f 93       	push	r20
    9e8a:	5f 93       	push	r21
    9e8c:	6f 93       	push	r22
    9e8e:	7f 93       	push	r23
    9e90:	8f 93       	push	r24
    9e92:	9f 93       	push	r25
    9e94:	af 93       	push	r26
    9e96:	bf 93       	push	r27
    9e98:	ef 93       	push	r30
    9e9a:	ff 93       	push	r31
    9e9c:	83 e0       	ldi	r24, 0x03	; 3
    9e9e:	0e 94 e0 4e 	call	0x9dc0	; 0x9dc0 <usart_tx_isr>
    9ea2:	ff 91       	pop	r31
    9ea4:	ef 91       	pop	r30
    9ea6:	bf 91       	pop	r27
    9ea8:	af 91       	pop	r26
    9eaa:	9f 91       	pop	r25
    9eac:	8f 91       	pop	r24
    9eae:	7f 91       	pop	r23
    9eb0:	6f 91       	pop	r22
    9eb2:	5f 91       	pop	r21
    9eb4:	4f 91       	pop	r20
    9eb6:	3f 91       	pop	r19
    9eb8:	2f 91       	pop	r18
    9eba:	0f 90       	pop	r0
    9ebc:	0b be       	out	0x3b, r0	; 59
    9ebe:	0f 90       	pop	r0
    9ec0:	0f be       	out	0x3f, r0	; 63
    9ec2:	0f 90       	pop	r0
    9ec4:	1f 90       	pop	r1
    9ec6:	18 95       	reti

00009ec8 <__vector_52>:
    9ec8:	1f 92       	push	r1
    9eca:	0f 92       	push	r0
    9ecc:	0f b6       	in	r0, 0x3f	; 63
    9ece:	0f 92       	push	r0
    9ed0:	0b b6       	in	r0, 0x3b	; 59
    9ed2:	0f 92       	push	r0
    9ed4:	11 24       	eor	r1, r1
    9ed6:	2f 93       	push	r18
    9ed8:	3f 93       	push	r19
    9eda:	4f 93       	push	r20
    9edc:	5f 93       	push	r21
    9ede:	6f 93       	push	r22
    9ee0:	7f 93       	push	r23
    9ee2:	8f 93       	push	r24
    9ee4:	9f 93       	push	r25
    9ee6:	af 93       	push	r26
    9ee8:	bf 93       	push	r27
    9eea:	ef 93       	push	r30
    9eec:	ff 93       	push	r31
    9eee:	82 e0       	ldi	r24, 0x02	; 2
    9ef0:	0e 94 e0 4e 	call	0x9dc0	; 0x9dc0 <usart_tx_isr>
    9ef4:	ff 91       	pop	r31
    9ef6:	ef 91       	pop	r30
    9ef8:	bf 91       	pop	r27
    9efa:	af 91       	pop	r26
    9efc:	9f 91       	pop	r25
    9efe:	8f 91       	pop	r24
    9f00:	7f 91       	pop	r23
    9f02:	6f 91       	pop	r22
    9f04:	5f 91       	pop	r21
    9f06:	4f 91       	pop	r20
    9f08:	3f 91       	pop	r19
    9f0a:	2f 91       	pop	r18
    9f0c:	0f 90       	pop	r0
    9f0e:	0b be       	out	0x3b, r0	; 59
    9f10:	0f 90       	pop	r0
    9f12:	0f be       	out	0x3f, r0	; 63
    9f14:	0f 90       	pop	r0
    9f16:	1f 90       	pop	r1
    9f18:	18 95       	reti

00009f1a <__vector_37>:
    9f1a:	1f 92       	push	r1
    9f1c:	0f 92       	push	r0
    9f1e:	0f b6       	in	r0, 0x3f	; 63
    9f20:	0f 92       	push	r0
    9f22:	0b b6       	in	r0, 0x3b	; 59
    9f24:	0f 92       	push	r0
    9f26:	11 24       	eor	r1, r1
    9f28:	2f 93       	push	r18
    9f2a:	3f 93       	push	r19
    9f2c:	4f 93       	push	r20
    9f2e:	5f 93       	push	r21
    9f30:	6f 93       	push	r22
    9f32:	7f 93       	push	r23
    9f34:	8f 93       	push	r24
    9f36:	9f 93       	push	r25
    9f38:	af 93       	push	r26
    9f3a:	bf 93       	push	r27
    9f3c:	ef 93       	push	r30
    9f3e:	ff 93       	push	r31
    9f40:	81 e0       	ldi	r24, 0x01	; 1
    9f42:	0e 94 e0 4e 	call	0x9dc0	; 0x9dc0 <usart_tx_isr>
    9f46:	ff 91       	pop	r31
    9f48:	ef 91       	pop	r30
    9f4a:	bf 91       	pop	r27
    9f4c:	af 91       	pop	r26
    9f4e:	9f 91       	pop	r25
    9f50:	8f 91       	pop	r24
    9f52:	7f 91       	pop	r23
    9f54:	6f 91       	pop	r22
    9f56:	5f 91       	pop	r21
    9f58:	4f 91       	pop	r20
    9f5a:	3f 91       	pop	r19
    9f5c:	2f 91       	pop	r18
    9f5e:	0f 90       	pop	r0
    9f60:	0b be       	out	0x3b, r0	; 59
    9f62:	0f 90       	pop	r0
    9f64:	0f be       	out	0x3f, r0	; 63
    9f66:	0f 90       	pop	r0
    9f68:	1f 90       	pop	r1
    9f6a:	18 95       	reti

00009f6c <__vector_26>:
    9f6c:	1f 92       	push	r1
    9f6e:	0f 92       	push	r0
    9f70:	0f b6       	in	r0, 0x3f	; 63
    9f72:	0f 92       	push	r0
    9f74:	0b b6       	in	r0, 0x3b	; 59
    9f76:	0f 92       	push	r0
    9f78:	11 24       	eor	r1, r1
    9f7a:	2f 93       	push	r18
    9f7c:	3f 93       	push	r19
    9f7e:	4f 93       	push	r20
    9f80:	5f 93       	push	r21
    9f82:	6f 93       	push	r22
    9f84:	7f 93       	push	r23
    9f86:	8f 93       	push	r24
    9f88:	9f 93       	push	r25
    9f8a:	af 93       	push	r26
    9f8c:	bf 93       	push	r27
    9f8e:	ef 93       	push	r30
    9f90:	ff 93       	push	r31
    9f92:	80 e0       	ldi	r24, 0x00	; 0
    9f94:	0e 94 e0 4e 	call	0x9dc0	; 0x9dc0 <usart_tx_isr>
    9f98:	ff 91       	pop	r31
    9f9a:	ef 91       	pop	r30
    9f9c:	bf 91       	pop	r27
    9f9e:	af 91       	pop	r26
    9fa0:	9f 91       	pop	r25
    9fa2:	8f 91       	pop	r24
    9fa4:	7f 91       	pop	r23
    9fa6:	6f 91       	pop	r22
    9fa8:	5f 91       	pop	r21
    9faa:	4f 91       	pop	r20
    9fac:	3f 91       	pop	r19
    9fae:	2f 91       	pop	r18
    9fb0:	0f 90       	pop	r0
    9fb2:	0b be       	out	0x3b, r0	; 59
    9fb4:	0f 90       	pop	r0
    9fb6:	0f be       	out	0x3f, r0	; 63
    9fb8:	0f 90       	pop	r0
    9fba:	1f 90       	pop	r1
    9fbc:	18 95       	reti

00009fbe <usart_xfprint_P>:
    9fbe:	df 92       	push	r13
    9fc0:	ef 92       	push	r14
    9fc2:	ff 92       	push	r15
    9fc4:	0f 93       	push	r16
    9fc6:	1f 93       	push	r17
    9fc8:	cf 93       	push	r28
    9fca:	df 93       	push	r29
    9fcc:	d8 2e       	mov	r13, r24
    9fce:	8b 01       	movw	r16, r22
    9fd0:	cb 01       	movw	r24, r22
    9fd2:	0e 94 11 08 	call	0x1022	; 0x1022 <strlen_P>
    9fd6:	7c 01       	movw	r14, r24
    9fd8:	c0 e0       	ldi	r28, 0x00	; 0
    9fda:	d0 e0       	ldi	r29, 0x00	; 0
    9fdc:	09 c0       	rjmp	.+18     	; 0x9ff0 <usart_xfprint_P+0x32>
    9fde:	f8 01       	movw	r30, r16
    9fe0:	ec 0f       	add	r30, r28
    9fe2:	fd 1f       	adc	r31, r29
    9fe4:	21 96       	adiw	r28, 0x01	; 1
    9fe6:	e4 91       	lpm	r30, Z+
    9fe8:	8d 2d       	mov	r24, r13
    9fea:	6e 2f       	mov	r22, r30
    9fec:	0e 94 37 4d 	call	0x9a6e	; 0x9a6e <usart_xputChar>
    9ff0:	ce 15       	cp	r28, r14
    9ff2:	df 05       	cpc	r29, r15
    9ff4:	a0 f3       	brcs	.-24     	; 0x9fde <usart_xfprint_P+0x20>
    9ff6:	df 91       	pop	r29
    9ff8:	cf 91       	pop	r28
    9ffa:	1f 91       	pop	r17
    9ffc:	0f 91       	pop	r16
    9ffe:	ff 90       	pop	r15
    a000:	ef 90       	pop	r14
    a002:	df 90       	pop	r13
    a004:	08 95       	ret

0000a006 <usart_xprint_P>:
    a006:	bc 01       	movw	r22, r24
    a008:	80 91 da 1c 	lds	r24, 0x1CDA
    a00c:	0e 94 df 4f 	call	0x9fbe	; 0x9fbe <usart_xfprint_P>
    a010:	08 95       	ret

0000a012 <usart_fprint_P>:
    a012:	ef 92       	push	r14
    a014:	ff 92       	push	r15
    a016:	0f 93       	push	r16
    a018:	1f 93       	push	r17
    a01a:	cf 93       	push	r28
    a01c:	df 93       	push	r29
    a01e:	08 2f       	mov	r16, r24
    a020:	7b 01       	movw	r14, r22
    a022:	cb 01       	movw	r24, r22
    a024:	0e 94 11 08 	call	0x1022	; 0x1022 <strlen_P>
    a028:	bc 01       	movw	r22, r24
    a02a:	20 e0       	ldi	r18, 0x00	; 0
    a02c:	30 e0       	ldi	r19, 0x00	; 0
    a02e:	10 e0       	ldi	r17, 0x00	; 0
    a030:	d8 01       	movw	r26, r16
    a032:	aa 0f       	add	r26, r26
    a034:	bb 1f       	adc	r27, r27
    a036:	aa 0f       	add	r26, r26
    a038:	bb 1f       	adc	r27, r27
    a03a:	a0 0f       	add	r26, r16
    a03c:	b1 1f       	adc	r27, r17
    a03e:	aa 0f       	add	r26, r26
    a040:	bb 1f       	adc	r27, r27
    a042:	a0 55       	subi	r26, 0x50	; 80
    a044:	b6 4f       	sbci	r27, 0xF6	; 246
    a046:	95 e8       	ldi	r25, 0x85	; 133
    a048:	e8 01       	movw	r28, r16
    a04a:	53 e0       	ldi	r21, 0x03	; 3
    a04c:	cc 0f       	add	r28, r28
    a04e:	dd 1f       	adc	r29, r29
    a050:	5a 95       	dec	r21
    a052:	e1 f7       	brne	.-8      	; 0xa04c <usart_fprint_P+0x3a>
    a054:	00 0f       	add	r16, r16
    a056:	11 1f       	adc	r17, r17
    a058:	c0 0f       	add	r28, r16
    a05a:	d1 1f       	adc	r29, r17
    a05c:	c2 55       	subi	r28, 0x52	; 82
    a05e:	d6 4f       	sbci	r29, 0xF6	; 246
    a060:	13 c0       	rjmp	.+38     	; 0xa088 <usart_fprint_P+0x76>
    a062:	f7 01       	movw	r30, r14
    a064:	e2 0f       	add	r30, r18
    a066:	f3 1f       	adc	r31, r19
    a068:	44 91       	lpm	r20, Z+
    a06a:	ed 91       	ld	r30, X+
    a06c:	fc 91       	ld	r31, X
    a06e:	11 97       	sbiw	r26, 0x01	; 1
    a070:	03 c0       	rjmp	.+6      	; 0xa078 <usart_fprint_P+0x66>
    a072:	89 2f       	mov	r24, r25
    a074:	8a 95       	dec	r24
    a076:	f1 f7       	brne	.-4      	; 0xa074 <usart_fprint_P+0x62>
    a078:	80 81       	ld	r24, Z
    a07a:	85 ff       	sbrs	r24, 5
    a07c:	fa cf       	rjmp	.-12     	; 0xa072 <usart_fprint_P+0x60>
    a07e:	2f 5f       	subi	r18, 0xFF	; 255
    a080:	3f 4f       	sbci	r19, 0xFF	; 255
    a082:	e8 81       	ld	r30, Y
    a084:	f9 81       	ldd	r31, Y+1	; 0x01
    a086:	40 83       	st	Z, r20
    a088:	26 17       	cp	r18, r22
    a08a:	37 07       	cpc	r19, r23
    a08c:	50 f3       	brcs	.-44     	; 0xa062 <usart_fprint_P+0x50>
    a08e:	df 91       	pop	r29
    a090:	cf 91       	pop	r28
    a092:	1f 91       	pop	r17
    a094:	0f 91       	pop	r16
    a096:	ff 90       	pop	r15
    a098:	ef 90       	pop	r14
    a09a:	08 95       	ret

0000a09c <usart_print_P>:
    a09c:	bc 01       	movw	r22, r24
    a09e:	80 91 da 1c 	lds	r24, 0x1CDA
    a0a2:	0e 94 09 50 	call	0xa012	; 0xa012 <usart_fprint_P>
    a0a6:	08 95       	ret

0000a0a8 <usart_xfprint>:
    a0a8:	df 92       	push	r13
    a0aa:	ef 92       	push	r14
    a0ac:	ff 92       	push	r15
    a0ae:	0f 93       	push	r16
    a0b0:	1f 93       	push	r17
    a0b2:	cf 93       	push	r28
    a0b4:	df 93       	push	r29
    a0b6:	d8 2e       	mov	r13, r24
    a0b8:	7b 01       	movw	r14, r22
    a0ba:	db 01       	movw	r26, r22
    a0bc:	0d 90       	ld	r0, X+
    a0be:	00 20       	and	r0, r0
    a0c0:	e9 f7       	brne	.-6      	; 0xa0bc <usart_xfprint+0x14>
    a0c2:	8d 01       	movw	r16, r26
    a0c4:	01 50       	subi	r16, 0x01	; 1
    a0c6:	10 40       	sbci	r17, 0x00	; 0
    a0c8:	06 1b       	sub	r16, r22
    a0ca:	17 0b       	sbc	r17, r23
    a0cc:	c0 e0       	ldi	r28, 0x00	; 0
    a0ce:	d0 e0       	ldi	r29, 0x00	; 0
    a0d0:	07 c0       	rjmp	.+14     	; 0xa0e0 <usart_xfprint+0x38>
    a0d2:	21 96       	adiw	r28, 0x01	; 1
    a0d4:	ee 0d       	add	r30, r14
    a0d6:	ff 1d       	adc	r31, r15
    a0d8:	8d 2d       	mov	r24, r13
    a0da:	60 81       	ld	r22, Z
    a0dc:	0e 94 37 4d 	call	0x9a6e	; 0x9a6e <usart_xputChar>
    a0e0:	fe 01       	movw	r30, r28
    a0e2:	c0 17       	cp	r28, r16
    a0e4:	d1 07       	cpc	r29, r17
    a0e6:	a8 f3       	brcs	.-22     	; 0xa0d2 <usart_xfprint+0x2a>
    a0e8:	df 91       	pop	r29
    a0ea:	cf 91       	pop	r28
    a0ec:	1f 91       	pop	r17
    a0ee:	0f 91       	pop	r16
    a0f0:	ff 90       	pop	r15
    a0f2:	ef 90       	pop	r14
    a0f4:	df 90       	pop	r13
    a0f6:	08 95       	ret

0000a0f8 <usart_xfprintf_P_arg>:
    a0f8:	bf 92       	push	r11
    a0fa:	cf 92       	push	r12
    a0fc:	df 92       	push	r13
    a0fe:	ef 92       	push	r14
    a100:	ff 92       	push	r15
    a102:	0f 93       	push	r16
    a104:	1f 93       	push	r17
    a106:	cf 93       	push	r28
    a108:	df 93       	push	r29
    a10a:	b8 2e       	mov	r11, r24
    a10c:	7b 01       	movw	r14, r22
    a10e:	6a 01       	movw	r12, r20
    a110:	28 2f       	mov	r18, r24
    a112:	30 e0       	ldi	r19, 0x00	; 0
    a114:	8d e1       	ldi	r24, 0x1D	; 29
    a116:	90 e0       	ldi	r25, 0x00	; 0
    a118:	28 9f       	mul	r18, r24
    a11a:	e0 01       	movw	r28, r0
    a11c:	29 9f       	mul	r18, r25
    a11e:	d0 0d       	add	r29, r0
    a120:	38 9f       	mul	r19, r24
    a122:	d0 0d       	add	r29, r0
    a124:	11 24       	eor	r1, r1
    a126:	cd 55       	subi	r28, 0x5D	; 93
    a128:	d2 4e       	sbci	r29, 0xE2	; 226
    a12a:	8e 01       	movw	r16, r28
    a12c:	04 5e       	subi	r16, 0xE4	; 228
    a12e:	1f 4f       	sbci	r17, 0xFF	; 255
    a130:	02 c0       	rjmp	.+4      	; 0xa136 <usart_xfprintf_P_arg+0x3e>
    a132:	0e 94 2a 49 	call	0x9254	; 0x9254 <vPortYield>
    a136:	f8 01       	movw	r30, r16
    a138:	80 81       	ld	r24, Z
    a13a:	81 30       	cpi	r24, 0x01	; 1
    a13c:	d1 f3       	breq	.-12     	; 0xa132 <usart_xfprintf_P_arg+0x3a>
    a13e:	81 e0       	ldi	r24, 0x01	; 1
    a140:	8c 8f       	std	Y+28, r24	; 0x1c
    a142:	6a 8d       	ldd	r22, Y+26	; 0x1a
    a144:	7b 8d       	ldd	r23, Y+27	; 0x1b
    a146:	88 8d       	ldd	r24, Y+24	; 0x18
    a148:	99 8d       	ldd	r25, Y+25	; 0x19
    a14a:	a7 01       	movw	r20, r14
    a14c:	96 01       	movw	r18, r12
    a14e:	0e 94 13 09 	call	0x1226	; 0x1226 <vsnprintf_P>
    a152:	68 8d       	ldd	r22, Y+24	; 0x18
    a154:	79 8d       	ldd	r23, Y+25	; 0x19
    a156:	8b 2d       	mov	r24, r11
    a158:	0e 94 54 50 	call	0xa0a8	; 0xa0a8 <usart_xfprint>
    a15c:	1c 8e       	std	Y+28, r1	; 0x1c
    a15e:	df 91       	pop	r29
    a160:	cf 91       	pop	r28
    a162:	1f 91       	pop	r17
    a164:	0f 91       	pop	r16
    a166:	ff 90       	pop	r15
    a168:	ef 90       	pop	r14
    a16a:	df 90       	pop	r13
    a16c:	cf 90       	pop	r12
    a16e:	bf 90       	pop	r11
    a170:	08 95       	ret

0000a172 <usart_xfprintf_arg>:
    a172:	bf 92       	push	r11
    a174:	cf 92       	push	r12
    a176:	df 92       	push	r13
    a178:	ef 92       	push	r14
    a17a:	ff 92       	push	r15
    a17c:	0f 93       	push	r16
    a17e:	1f 93       	push	r17
    a180:	cf 93       	push	r28
    a182:	df 93       	push	r29
    a184:	b8 2e       	mov	r11, r24
    a186:	7b 01       	movw	r14, r22
    a188:	6a 01       	movw	r12, r20
    a18a:	28 2f       	mov	r18, r24
    a18c:	30 e0       	ldi	r19, 0x00	; 0
    a18e:	8d e1       	ldi	r24, 0x1D	; 29
    a190:	90 e0       	ldi	r25, 0x00	; 0
    a192:	28 9f       	mul	r18, r24
    a194:	e0 01       	movw	r28, r0
    a196:	29 9f       	mul	r18, r25
    a198:	d0 0d       	add	r29, r0
    a19a:	38 9f       	mul	r19, r24
    a19c:	d0 0d       	add	r29, r0
    a19e:	11 24       	eor	r1, r1
    a1a0:	cd 55       	subi	r28, 0x5D	; 93
    a1a2:	d2 4e       	sbci	r29, 0xE2	; 226
    a1a4:	8e 01       	movw	r16, r28
    a1a6:	04 5e       	subi	r16, 0xE4	; 228
    a1a8:	1f 4f       	sbci	r17, 0xFF	; 255
    a1aa:	02 c0       	rjmp	.+4      	; 0xa1b0 <usart_xfprintf_arg+0x3e>
    a1ac:	0e 94 2a 49 	call	0x9254	; 0x9254 <vPortYield>
    a1b0:	f8 01       	movw	r30, r16
    a1b2:	80 81       	ld	r24, Z
    a1b4:	81 30       	cpi	r24, 0x01	; 1
    a1b6:	d1 f3       	breq	.-12     	; 0xa1ac <usart_xfprintf_arg+0x3a>
    a1b8:	81 e0       	ldi	r24, 0x01	; 1
    a1ba:	8c 8f       	std	Y+28, r24	; 0x1c
    a1bc:	6a 8d       	ldd	r22, Y+26	; 0x1a
    a1be:	7b 8d       	ldd	r23, Y+27	; 0x1b
    a1c0:	88 8d       	ldd	r24, Y+24	; 0x18
    a1c2:	99 8d       	ldd	r25, Y+25	; 0x19
    a1c4:	a7 01       	movw	r20, r14
    a1c6:	96 01       	movw	r18, r12
    a1c8:	0e 94 e9 08 	call	0x11d2	; 0x11d2 <vsnprintf>
    a1cc:	68 8d       	ldd	r22, Y+24	; 0x18
    a1ce:	79 8d       	ldd	r23, Y+25	; 0x19
    a1d0:	8b 2d       	mov	r24, r11
    a1d2:	0e 94 54 50 	call	0xa0a8	; 0xa0a8 <usart_xfprint>
    a1d6:	1c 8e       	std	Y+28, r1	; 0x1c
    a1d8:	df 91       	pop	r29
    a1da:	cf 91       	pop	r28
    a1dc:	1f 91       	pop	r17
    a1de:	0f 91       	pop	r16
    a1e0:	ff 90       	pop	r15
    a1e2:	ef 90       	pop	r14
    a1e4:	df 90       	pop	r13
    a1e6:	cf 90       	pop	r12
    a1e8:	bf 90       	pop	r11
    a1ea:	08 95       	ret

0000a1ec <usart_xprint>:
    a1ec:	bc 01       	movw	r22, r24
    a1ee:	80 91 da 1c 	lds	r24, 0x1CDA
    a1f2:	0e 94 54 50 	call	0xa0a8	; 0xa0a8 <usart_xfprint>
    a1f6:	08 95       	ret

0000a1f8 <usart_fprint>:
    a1f8:	1f 93       	push	r17
    a1fa:	cf 93       	push	r28
    a1fc:	df 93       	push	r29
    a1fe:	db 01       	movw	r26, r22
    a200:	0d 90       	ld	r0, X+
    a202:	00 20       	and	r0, r0
    a204:	e9 f7       	brne	.-6      	; 0xa200 <usart_fprint+0x8>
    a206:	9d 01       	movw	r18, r26
    a208:	21 50       	subi	r18, 0x01	; 1
    a20a:	30 40       	sbci	r19, 0x00	; 0
    a20c:	26 1b       	sub	r18, r22
    a20e:	37 0b       	sbc	r19, r23
    a210:	40 e0       	ldi	r20, 0x00	; 0
    a212:	50 e0       	ldi	r21, 0x00	; 0
    a214:	90 e0       	ldi	r25, 0x00	; 0
    a216:	dc 01       	movw	r26, r24
    a218:	aa 0f       	add	r26, r26
    a21a:	bb 1f       	adc	r27, r27
    a21c:	aa 0f       	add	r26, r26
    a21e:	bb 1f       	adc	r27, r27
    a220:	a8 0f       	add	r26, r24
    a222:	b9 1f       	adc	r27, r25
    a224:	aa 0f       	add	r26, r26
    a226:	bb 1f       	adc	r27, r27
    a228:	a0 55       	subi	r26, 0x50	; 80
    a22a:	b6 4f       	sbci	r27, 0xF6	; 246
    a22c:	15 e8       	ldi	r17, 0x85	; 133
    a22e:	ec 01       	movw	r28, r24
    a230:	f3 e0       	ldi	r31, 0x03	; 3
    a232:	cc 0f       	add	r28, r28
    a234:	dd 1f       	adc	r29, r29
    a236:	fa 95       	dec	r31
    a238:	e1 f7       	brne	.-8      	; 0xa232 <usart_fprint+0x3a>
    a23a:	88 0f       	add	r24, r24
    a23c:	99 1f       	adc	r25, r25
    a23e:	c8 0f       	add	r28, r24
    a240:	d9 1f       	adc	r29, r25
    a242:	c2 55       	subi	r28, 0x52	; 82
    a244:	d6 4f       	sbci	r29, 0xF6	; 246
    a246:	13 c0       	rjmp	.+38     	; 0xa26e <usart_fprint+0x76>
    a248:	fb 01       	movw	r30, r22
    a24a:	e4 0f       	add	r30, r20
    a24c:	f5 1f       	adc	r31, r21
    a24e:	90 81       	ld	r25, Z
    a250:	ed 91       	ld	r30, X+
    a252:	fc 91       	ld	r31, X
    a254:	11 97       	sbiw	r26, 0x01	; 1
    a256:	03 c0       	rjmp	.+6      	; 0xa25e <usart_fprint+0x66>
    a258:	81 2f       	mov	r24, r17
    a25a:	8a 95       	dec	r24
    a25c:	f1 f7       	brne	.-4      	; 0xa25a <usart_fprint+0x62>
    a25e:	80 81       	ld	r24, Z
    a260:	85 ff       	sbrs	r24, 5
    a262:	fa cf       	rjmp	.-12     	; 0xa258 <usart_fprint+0x60>
    a264:	4f 5f       	subi	r20, 0xFF	; 255
    a266:	5f 4f       	sbci	r21, 0xFF	; 255
    a268:	e8 81       	ld	r30, Y
    a26a:	f9 81       	ldd	r31, Y+1	; 0x01
    a26c:	90 83       	st	Z, r25
    a26e:	42 17       	cp	r20, r18
    a270:	53 07       	cpc	r21, r19
    a272:	50 f3       	brcs	.-44     	; 0xa248 <usart_fprint+0x50>
    a274:	df 91       	pop	r29
    a276:	cf 91       	pop	r28
    a278:	1f 91       	pop	r17
    a27a:	08 95       	ret

0000a27c <usart_fprintf_P_arg>:
    a27c:	1f 93       	push	r17
    a27e:	cf 93       	push	r28
    a280:	df 93       	push	r29
    a282:	18 2f       	mov	r17, r24
    a284:	fb 01       	movw	r30, r22
    a286:	da 01       	movw	r26, r20
    a288:	90 e0       	ldi	r25, 0x00	; 0
    a28a:	2d e1       	ldi	r18, 0x1D	; 29
    a28c:	30 e0       	ldi	r19, 0x00	; 0
    a28e:	82 9f       	mul	r24, r18
    a290:	e0 01       	movw	r28, r0
    a292:	83 9f       	mul	r24, r19
    a294:	d0 0d       	add	r29, r0
    a296:	92 9f       	mul	r25, r18
    a298:	d0 0d       	add	r29, r0
    a29a:	11 24       	eor	r1, r1
    a29c:	cd 55       	subi	r28, 0x5D	; 93
    a29e:	d2 4e       	sbci	r29, 0xE2	; 226
    a2a0:	8c 8d       	ldd	r24, Y+28	; 0x1c
    a2a2:	81 30       	cpi	r24, 0x01	; 1
    a2a4:	29 f4       	brne	.+10     	; 0xa2b0 <usart_fprintf_P_arg+0x34>
    a2a6:	95 e8       	ldi	r25, 0x85	; 133
    a2a8:	89 2f       	mov	r24, r25
    a2aa:	8a 95       	dec	r24
    a2ac:	f1 f7       	brne	.-4      	; 0xa2aa <usart_fprintf_P_arg+0x2e>
    a2ae:	fc cf       	rjmp	.-8      	; 0xa2a8 <usart_fprintf_P_arg+0x2c>
    a2b0:	81 e0       	ldi	r24, 0x01	; 1
    a2b2:	8c 8f       	std	Y+28, r24	; 0x1c
    a2b4:	6a 8d       	ldd	r22, Y+26	; 0x1a
    a2b6:	7b 8d       	ldd	r23, Y+27	; 0x1b
    a2b8:	88 8d       	ldd	r24, Y+24	; 0x18
    a2ba:	99 8d       	ldd	r25, Y+25	; 0x19
    a2bc:	af 01       	movw	r20, r30
    a2be:	9d 01       	movw	r18, r26
    a2c0:	0e 94 13 09 	call	0x1226	; 0x1226 <vsnprintf_P>
    a2c4:	68 8d       	ldd	r22, Y+24	; 0x18
    a2c6:	79 8d       	ldd	r23, Y+25	; 0x19
    a2c8:	81 2f       	mov	r24, r17
    a2ca:	0e 94 fc 50 	call	0xa1f8	; 0xa1f8 <usart_fprint>
    a2ce:	1c 8e       	std	Y+28, r1	; 0x1c
    a2d0:	df 91       	pop	r29
    a2d2:	cf 91       	pop	r28
    a2d4:	1f 91       	pop	r17
    a2d6:	08 95       	ret

0000a2d8 <usart_fprintf_arg>:
    a2d8:	cf 93       	push	r28
    a2da:	df 93       	push	r29
    a2dc:	fb 01       	movw	r30, r22
    a2de:	da 01       	movw	r26, r20
    a2e0:	90 e0       	ldi	r25, 0x00	; 0
    a2e2:	2d e1       	ldi	r18, 0x1D	; 29
    a2e4:	30 e0       	ldi	r19, 0x00	; 0
    a2e6:	82 9f       	mul	r24, r18
    a2e8:	e0 01       	movw	r28, r0
    a2ea:	83 9f       	mul	r24, r19
    a2ec:	d0 0d       	add	r29, r0
    a2ee:	92 9f       	mul	r25, r18
    a2f0:	d0 0d       	add	r29, r0
    a2f2:	11 24       	eor	r1, r1
    a2f4:	cd 55       	subi	r28, 0x5D	; 93
    a2f6:	d2 4e       	sbci	r29, 0xE2	; 226
    a2f8:	8c 8d       	ldd	r24, Y+28	; 0x1c
    a2fa:	81 30       	cpi	r24, 0x01	; 1
    a2fc:	29 f4       	brne	.+10     	; 0xa308 <usart_fprintf_arg+0x30>
    a2fe:	95 e8       	ldi	r25, 0x85	; 133
    a300:	89 2f       	mov	r24, r25
    a302:	8a 95       	dec	r24
    a304:	f1 f7       	brne	.-4      	; 0xa302 <usart_fprintf_arg+0x2a>
    a306:	fc cf       	rjmp	.-8      	; 0xa300 <usart_fprintf_arg+0x28>
    a308:	81 e0       	ldi	r24, 0x01	; 1
    a30a:	8c 8f       	std	Y+28, r24	; 0x1c
    a30c:	6a 8d       	ldd	r22, Y+26	; 0x1a
    a30e:	7b 8d       	ldd	r23, Y+27	; 0x1b
    a310:	88 8d       	ldd	r24, Y+24	; 0x18
    a312:	99 8d       	ldd	r25, Y+25	; 0x19
    a314:	af 01       	movw	r20, r30
    a316:	9d 01       	movw	r18, r26
    a318:	0e 94 e9 08 	call	0x11d2	; 0x11d2 <vsnprintf>
    a31c:	68 8d       	ldd	r22, Y+24	; 0x18
    a31e:	79 8d       	ldd	r23, Y+25	; 0x19
    a320:	80 91 da 1c 	lds	r24, 0x1CDA
    a324:	0e 94 fc 50 	call	0xa1f8	; 0xa1f8 <usart_fprint>
    a328:	1c 8e       	std	Y+28, r1	; 0x1c
    a32a:	df 91       	pop	r29
    a32c:	cf 91       	pop	r28
    a32e:	08 95       	ret

0000a330 <usart_print>:
    a330:	bc 01       	movw	r22, r24
    a332:	80 91 da 1c 	lds	r24, 0x1CDA
    a336:	0e 94 fc 50 	call	0xa1f8	; 0xa1f8 <usart_fprint>
    a33a:	08 95       	ret

0000a33c <usart_xfprintf_P>:
    a33c:	df 93       	push	r29
    a33e:	cf 93       	push	r28
    a340:	cd b7       	in	r28, 0x3d	; 61
    a342:	de b7       	in	r29, 0x3e	; 62
    a344:	9e 01       	movw	r18, r28
    a346:	26 5f       	subi	r18, 0xF6	; 246
    a348:	3f 4f       	sbci	r19, 0xFF	; 255
    a34a:	8e 81       	ldd	r24, Y+6	; 0x06
    a34c:	68 85       	ldd	r22, Y+8	; 0x08
    a34e:	79 85       	ldd	r23, Y+9	; 0x09
    a350:	a9 01       	movw	r20, r18
    a352:	0e 94 7c 50 	call	0xa0f8	; 0xa0f8 <usart_xfprintf_P_arg>
    a356:	cf 91       	pop	r28
    a358:	df 91       	pop	r29
    a35a:	08 95       	ret

0000a35c <usart_xfprintf>:
    a35c:	df 93       	push	r29
    a35e:	cf 93       	push	r28
    a360:	cd b7       	in	r28, 0x3d	; 61
    a362:	de b7       	in	r29, 0x3e	; 62
    a364:	9e 01       	movw	r18, r28
    a366:	26 5f       	subi	r18, 0xF6	; 246
    a368:	3f 4f       	sbci	r19, 0xFF	; 255
    a36a:	8e 81       	ldd	r24, Y+6	; 0x06
    a36c:	68 85       	ldd	r22, Y+8	; 0x08
    a36e:	79 85       	ldd	r23, Y+9	; 0x09
    a370:	a9 01       	movw	r20, r18
    a372:	0e 94 b9 50 	call	0xa172	; 0xa172 <usart_xfprintf_arg>
    a376:	cf 91       	pop	r28
    a378:	df 91       	pop	r29
    a37a:	08 95       	ret

0000a37c <usart_xprintf_P>:
    a37c:	df 93       	push	r29
    a37e:	cf 93       	push	r28
    a380:	cd b7       	in	r28, 0x3d	; 61
    a382:	de b7       	in	r29, 0x3e	; 62
    a384:	fe 01       	movw	r30, r28
    a386:	36 96       	adiw	r30, 0x06	; 6
    a388:	61 91       	ld	r22, Z+
    a38a:	71 91       	ld	r23, Z+
    a38c:	80 91 da 1c 	lds	r24, 0x1CDA
    a390:	af 01       	movw	r20, r30
    a392:	0e 94 7c 50 	call	0xa0f8	; 0xa0f8 <usart_xfprintf_P_arg>
    a396:	cf 91       	pop	r28
    a398:	df 91       	pop	r29
    a39a:	08 95       	ret

0000a39c <usart_xprintf>:
    a39c:	df 93       	push	r29
    a39e:	cf 93       	push	r28
    a3a0:	cd b7       	in	r28, 0x3d	; 61
    a3a2:	de b7       	in	r29, 0x3e	; 62
    a3a4:	fe 01       	movw	r30, r28
    a3a6:	36 96       	adiw	r30, 0x06	; 6
    a3a8:	61 91       	ld	r22, Z+
    a3aa:	71 91       	ld	r23, Z+
    a3ac:	80 91 da 1c 	lds	r24, 0x1CDA
    a3b0:	af 01       	movw	r20, r30
    a3b2:	0e 94 b9 50 	call	0xa172	; 0xa172 <usart_xfprintf_arg>
    a3b6:	cf 91       	pop	r28
    a3b8:	df 91       	pop	r29
    a3ba:	08 95       	ret

0000a3bc <usart_fprintf_P>:
    a3bc:	df 93       	push	r29
    a3be:	cf 93       	push	r28
    a3c0:	cd b7       	in	r28, 0x3d	; 61
    a3c2:	de b7       	in	r29, 0x3e	; 62
    a3c4:	9e 01       	movw	r18, r28
    a3c6:	26 5f       	subi	r18, 0xF6	; 246
    a3c8:	3f 4f       	sbci	r19, 0xFF	; 255
    a3ca:	8e 81       	ldd	r24, Y+6	; 0x06
    a3cc:	68 85       	ldd	r22, Y+8	; 0x08
    a3ce:	79 85       	ldd	r23, Y+9	; 0x09
    a3d0:	a9 01       	movw	r20, r18
    a3d2:	0e 94 3e 51 	call	0xa27c	; 0xa27c <usart_fprintf_P_arg>
    a3d6:	cf 91       	pop	r28
    a3d8:	df 91       	pop	r29
    a3da:	08 95       	ret

0000a3dc <usart_fprintf>:
    a3dc:	df 93       	push	r29
    a3de:	cf 93       	push	r28
    a3e0:	cd b7       	in	r28, 0x3d	; 61
    a3e2:	de b7       	in	r29, 0x3e	; 62
    a3e4:	9e 01       	movw	r18, r28
    a3e6:	26 5f       	subi	r18, 0xF6	; 246
    a3e8:	3f 4f       	sbci	r19, 0xFF	; 255
    a3ea:	8e 81       	ldd	r24, Y+6	; 0x06
    a3ec:	68 85       	ldd	r22, Y+8	; 0x08
    a3ee:	79 85       	ldd	r23, Y+9	; 0x09
    a3f0:	a9 01       	movw	r20, r18
    a3f2:	0e 94 6c 51 	call	0xa2d8	; 0xa2d8 <usart_fprintf_arg>
    a3f6:	cf 91       	pop	r28
    a3f8:	df 91       	pop	r29
    a3fa:	08 95       	ret

0000a3fc <usart_printf_P>:
    a3fc:	df 93       	push	r29
    a3fe:	cf 93       	push	r28
    a400:	cd b7       	in	r28, 0x3d	; 61
    a402:	de b7       	in	r29, 0x3e	; 62
    a404:	fe 01       	movw	r30, r28
    a406:	36 96       	adiw	r30, 0x06	; 6
    a408:	61 91       	ld	r22, Z+
    a40a:	71 91       	ld	r23, Z+
    a40c:	80 91 da 1c 	lds	r24, 0x1CDA
    a410:	af 01       	movw	r20, r30
    a412:	0e 94 3e 51 	call	0xa27c	; 0xa27c <usart_fprintf_P_arg>
    a416:	cf 91       	pop	r28
    a418:	df 91       	pop	r29
    a41a:	08 95       	ret

0000a41c <usart_printf>:
    a41c:	df 93       	push	r29
    a41e:	cf 93       	push	r28
    a420:	cd b7       	in	r28, 0x3d	; 61
    a422:	de b7       	in	r29, 0x3e	; 62
    a424:	fe 01       	movw	r30, r28
    a426:	36 96       	adiw	r30, 0x06	; 6
    a428:	61 91       	ld	r22, Z+
    a42a:	71 91       	ld	r23, Z+
    a42c:	80 91 da 1c 	lds	r24, 0x1CDA
    a430:	af 01       	movw	r20, r30
    a432:	0e 94 6c 51 	call	0xa2d8	; 0xa2d8 <usart_fprintf_arg>
    a436:	cf 91       	pop	r28
    a438:	df 91       	pop	r29
    a43a:	08 95       	ret

0000a43c <usartClose>:
    a43c:	ef 92       	push	r14
    a43e:	ff 92       	push	r15
    a440:	0f 93       	push	r16
    a442:	1f 93       	push	r17
    a444:	e8 2e       	mov	r14, r24
    a446:	ff 24       	eor	r15, r15
    a448:	8d e1       	ldi	r24, 0x1D	; 29
    a44a:	90 e0       	ldi	r25, 0x00	; 0
    a44c:	e8 9e       	mul	r14, r24
    a44e:	80 01       	movw	r16, r0
    a450:	e9 9e       	mul	r14, r25
    a452:	10 0d       	add	r17, r0
    a454:	f8 9e       	mul	r15, r24
    a456:	10 0d       	add	r17, r0
    a458:	11 24       	eor	r1, r1
    a45a:	0d 55       	subi	r16, 0x5D	; 93
    a45c:	12 4e       	sbci	r17, 0xE2	; 226
    a45e:	f8 01       	movw	r30, r16
    a460:	80 8d       	ldd	r24, Z+24	; 0x18
    a462:	91 8d       	ldd	r25, Z+25	; 0x19
    a464:	0e 94 d5 27 	call	0x4faa	; 0x4faa <vPortFree>
    a468:	f8 01       	movw	r30, r16
    a46a:	86 81       	ldd	r24, Z+6	; 0x06
    a46c:	97 81       	ldd	r25, Z+7	; 0x07
    a46e:	0e 94 d5 27 	call	0x4faa	; 0x4faa <vPortFree>
    a472:	f8 01       	movw	r30, r16
    a474:	82 89       	ldd	r24, Z+18	; 0x12
    a476:	93 89       	ldd	r25, Z+19	; 0x13
    a478:	0e 94 d5 27 	call	0x4faa	; 0x4faa <vPortFree>
    a47c:	0f b6       	in	r0, 0x3f	; 63
    a47e:	f8 94       	cli
    a480:	0f 92       	push	r0
    a482:	f7 01       	movw	r30, r14
    a484:	b3 e0       	ldi	r27, 0x03	; 3
    a486:	ee 0f       	add	r30, r30
    a488:	ff 1f       	adc	r31, r31
    a48a:	ba 95       	dec	r27
    a48c:	e1 f7       	brne	.-8      	; 0xa486 <usartClose+0x4a>
    a48e:	ee 0c       	add	r14, r14
    a490:	ff 1c       	adc	r15, r15
    a492:	ee 0d       	add	r30, r14
    a494:	ff 1d       	adc	r31, r15
    a496:	e2 55       	subi	r30, 0x52	; 82
    a498:	f6 4f       	sbci	r31, 0xF6	; 246
    a49a:	a4 81       	ldd	r26, Z+4	; 0x04
    a49c:	b5 81       	ldd	r27, Z+5	; 0x05
    a49e:	8c 91       	ld	r24, X
    a4a0:	8f 7d       	andi	r24, 0xDF	; 223
    a4a2:	8c 93       	st	X, r24
    a4a4:	04 80       	ldd	r0, Z+4	; 0x04
    a4a6:	f5 81       	ldd	r31, Z+5	; 0x05
    a4a8:	e0 2d       	mov	r30, r0
    a4aa:	80 81       	ld	r24, Z
    a4ac:	8f 77       	andi	r24, 0x7F	; 127
    a4ae:	80 83       	st	Z, r24
    a4b0:	0f 90       	pop	r0
    a4b2:	0f be       	out	0x3f, r0	; 63
    a4b4:	1f 91       	pop	r17
    a4b6:	0f 91       	pop	r16
    a4b8:	ff 90       	pop	r15
    a4ba:	ef 90       	pop	r14
    a4bc:	08 95       	ret

0000a4be <usartOpen>:
    a4be:	7f 92       	push	r7
    a4c0:	8f 92       	push	r8
    a4c2:	9f 92       	push	r9
    a4c4:	af 92       	push	r10
    a4c6:	bf 92       	push	r11
    a4c8:	cf 92       	push	r12
    a4ca:	df 92       	push	r13
    a4cc:	ef 92       	push	r14
    a4ce:	ff 92       	push	r15
    a4d0:	0f 93       	push	r16
    a4d2:	1f 93       	push	r17
    a4d4:	cf 93       	push	r28
    a4d6:	df 93       	push	r29
    a4d8:	78 2e       	mov	r7, r24
    a4da:	4a 01       	movw	r8, r20
    a4dc:	5b 01       	movw	r10, r22
    a4de:	e9 01       	movw	r28, r18
    a4e0:	c8 01       	movw	r24, r16
    a4e2:	0e 94 48 28 	call	0x5090	; 0x5090 <pvPortMalloc>
    a4e6:	9c 01       	movw	r18, r24
    a4e8:	00 97       	sbiw	r24, 0x00	; 0
    a4ea:	c9 f0       	breq	.+50     	; 0xa51e <usartOpen+0x60>
    a4ec:	ed e1       	ldi	r30, 0x1D	; 29
    a4ee:	7e 9e       	mul	r7, r30
    a4f0:	f0 01       	movw	r30, r0
    a4f2:	11 24       	eor	r1, r1
    a4f4:	ed 55       	subi	r30, 0x5D	; 93
    a4f6:	f2 4e       	sbci	r31, 0xE2	; 226
    a4f8:	0f b6       	in	r0, 0x3f	; 63
    a4fa:	f8 94       	cli
    a4fc:	0f 92       	push	r0
    a4fe:	11 82       	std	Z+1, r1	; 0x01
    a500:	10 82       	st	Z, r1
    a502:	82 83       	std	Z+2, r24	; 0x02
    a504:	33 83       	std	Z+3, r19	; 0x03
    a506:	84 83       	std	Z+4, r24	; 0x04
    a508:	35 83       	std	Z+5, r19	; 0x05
    a50a:	97 83       	std	Z+7, r25	; 0x07
    a50c:	86 83       	std	Z+6, r24	; 0x06
    a50e:	20 0f       	add	r18, r16
    a510:	31 1f       	adc	r19, r17
    a512:	31 87       	std	Z+9, r19	; 0x09
    a514:	20 87       	std	Z+8, r18	; 0x08
    a516:	13 87       	std	Z+11, r17	; 0x0b
    a518:	02 87       	std	Z+10, r16	; 0x0a
    a51a:	0f 90       	pop	r0
    a51c:	0f be       	out	0x3f, r0	; 63
    a51e:	ce 01       	movw	r24, r28
    a520:	0e 94 48 28 	call	0x5090	; 0x5090 <pvPortMalloc>
    a524:	9c 01       	movw	r18, r24
    a526:	00 97       	sbiw	r24, 0x00	; 0
    a528:	c9 f0       	breq	.+50     	; 0xa55c <usartOpen+0x9e>
    a52a:	ed e1       	ldi	r30, 0x1D	; 29
    a52c:	7e 9e       	mul	r7, r30
    a52e:	f0 01       	movw	r30, r0
    a530:	11 24       	eor	r1, r1
    a532:	e1 55       	subi	r30, 0x51	; 81
    a534:	f2 4e       	sbci	r31, 0xE2	; 226
    a536:	0f b6       	in	r0, 0x3f	; 63
    a538:	f8 94       	cli
    a53a:	0f 92       	push	r0
    a53c:	11 82       	std	Z+1, r1	; 0x01
    a53e:	10 82       	st	Z, r1
    a540:	82 83       	std	Z+2, r24	; 0x02
    a542:	33 83       	std	Z+3, r19	; 0x03
    a544:	84 83       	std	Z+4, r24	; 0x04
    a546:	35 83       	std	Z+5, r19	; 0x05
    a548:	97 83       	std	Z+7, r25	; 0x07
    a54a:	86 83       	std	Z+6, r24	; 0x06
    a54c:	2c 0f       	add	r18, r28
    a54e:	3d 1f       	adc	r19, r29
    a550:	31 87       	std	Z+9, r19	; 0x09
    a552:	20 87       	std	Z+8, r18	; 0x08
    a554:	d3 87       	std	Z+11, r29	; 0x0b
    a556:	c2 87       	std	Z+10, r28	; 0x0a
    a558:	0f 90       	pop	r0
    a55a:	0f be       	out	0x3f, r0	; 63
    a55c:	e7 2c       	mov	r14, r7
    a55e:	ff 24       	eor	r15, r15
    a560:	ce 01       	movw	r24, r28
    a562:	0e 94 48 28 	call	0x5090	; 0x5090 <pvPortMalloc>
    a566:	9c 01       	movw	r18, r24
    a568:	8d e1       	ldi	r24, 0x1D	; 29
    a56a:	90 e0       	ldi	r25, 0x00	; 0
    a56c:	e8 9e       	mul	r14, r24
    a56e:	f0 01       	movw	r30, r0
    a570:	e9 9e       	mul	r14, r25
    a572:	f0 0d       	add	r31, r0
    a574:	f8 9e       	mul	r15, r24
    a576:	f0 0d       	add	r31, r0
    a578:	11 24       	eor	r1, r1
    a57a:	ed 55       	subi	r30, 0x5D	; 93
    a57c:	f2 4e       	sbci	r31, 0xE2	; 226
    a57e:	20 8f       	std	Z+24, r18	; 0x18
    a580:	31 8f       	std	Z+25, r19	; 0x19
    a582:	d3 8f       	std	Z+27, r29	; 0x1b
    a584:	c2 8f       	std	Z+26, r28	; 0x1a
    a586:	14 8e       	std	Z+28, r1	; 0x1c
    a588:	0f b6       	in	r0, 0x3f	; 63
    a58a:	f8 94       	cli
    a58c:	0f 92       	push	r0
    a58e:	87 01       	movw	r16, r14
    a590:	00 0f       	add	r16, r16
    a592:	11 1f       	adc	r17, r17
    a594:	c7 01       	movw	r24, r14
    a596:	43 e0       	ldi	r20, 0x03	; 3
    a598:	88 0f       	add	r24, r24
    a59a:	99 1f       	adc	r25, r25
    a59c:	4a 95       	dec	r20
    a59e:	e1 f7       	brne	.-8      	; 0xa598 <usartOpen+0xda>
    a5a0:	08 0f       	add	r16, r24
    a5a2:	19 1f       	adc	r17, r25
    a5a4:	02 55       	subi	r16, 0x52	; 82
    a5a6:	16 4f       	sbci	r17, 0xF6	; 246
    a5a8:	d8 01       	movw	r26, r16
    a5aa:	18 96       	adiw	r26, 0x08	; 8
    a5ac:	cd 90       	ld	r12, X+
    a5ae:	dc 90       	ld	r13, X
    a5b0:	19 97       	sbiw	r26, 0x09	; 9
    a5b2:	c5 01       	movw	r24, r10
    a5b4:	b4 01       	movw	r22, r8
    a5b6:	60 50       	subi	r22, 0x00	; 0
    a5b8:	77 4f       	sbci	r23, 0xF7	; 247
    a5ba:	82 4c       	sbci	r24, 0xC2	; 194
    a5bc:	9f 4f       	sbci	r25, 0xFF	; 255
    a5be:	32 e0       	ldi	r19, 0x02	; 2
    a5c0:	66 0f       	add	r22, r22
    a5c2:	77 1f       	adc	r23, r23
    a5c4:	88 1f       	adc	r24, r24
    a5c6:	99 1f       	adc	r25, r25
    a5c8:	3a 95       	dec	r19
    a5ca:	d1 f7       	brne	.-12     	; 0xa5c0 <usartOpen+0x102>
    a5cc:	23 e0       	ldi	r18, 0x03	; 3
    a5ce:	88 0c       	add	r8, r8
    a5d0:	99 1c       	adc	r9, r9
    a5d2:	aa 1c       	adc	r10, r10
    a5d4:	bb 1c       	adc	r11, r11
    a5d6:	2a 95       	dec	r18
    a5d8:	d1 f7       	brne	.-12     	; 0xa5ce <usartOpen+0x110>
    a5da:	a5 01       	movw	r20, r10
    a5dc:	94 01       	movw	r18, r8
    a5de:	0e 94 6a 53 	call	0xa6d4	; 0xa6d4 <__udivmodsi4>
    a5e2:	21 50       	subi	r18, 0x01	; 1
    a5e4:	30 40       	sbci	r19, 0x00	; 0
    a5e6:	f6 01       	movw	r30, r12
    a5e8:	31 83       	std	Z+1, r19	; 0x01
    a5ea:	20 83       	st	Z, r18
    a5ec:	f7 01       	movw	r30, r14
    a5ee:	ee 0f       	add	r30, r30
    a5f0:	ff 1f       	adc	r31, r31
    a5f2:	ee 0f       	add	r30, r30
    a5f4:	ff 1f       	adc	r31, r31
    a5f6:	ee 0d       	add	r30, r14
    a5f8:	ff 1d       	adc	r31, r15
    a5fa:	ee 0f       	add	r30, r30
    a5fc:	ff 1f       	adc	r31, r31
    a5fe:	e0 55       	subi	r30, 0x50	; 80
    a600:	f6 4f       	sbci	r31, 0xF6	; 246
    a602:	01 90       	ld	r0, Z+
    a604:	f0 81       	ld	r31, Z
    a606:	e0 2d       	mov	r30, r0
    a608:	82 e0       	ldi	r24, 0x02	; 2
    a60a:	80 83       	st	Z, r24
    a60c:	d8 01       	movw	r26, r16
    a60e:	14 96       	adiw	r26, 0x04	; 4
    a610:	ed 91       	ld	r30, X+
    a612:	fc 91       	ld	r31, X
    a614:	15 97       	sbiw	r26, 0x05	; 5
    a616:	88 e9       	ldi	r24, 0x98	; 152
    a618:	80 83       	st	Z, r24
    a61a:	16 96       	adiw	r26, 0x06	; 6
    a61c:	ed 91       	ld	r30, X+
    a61e:	fc 91       	ld	r31, X
    a620:	17 97       	sbiw	r26, 0x07	; 7
    a622:	86 e0       	ldi	r24, 0x06	; 6
    a624:	80 83       	st	Z, r24
    a626:	0f 90       	pop	r0
    a628:	0f be       	out	0x3f, r0	; 63
    a62a:	87 2d       	mov	r24, r7
    a62c:	df 91       	pop	r29
    a62e:	cf 91       	pop	r28
    a630:	1f 91       	pop	r17
    a632:	0f 91       	pop	r16
    a634:	ff 90       	pop	r15
    a636:	ef 90       	pop	r14
    a638:	df 90       	pop	r13
    a63a:	cf 90       	pop	r12
    a63c:	bf 90       	pop	r11
    a63e:	af 90       	pop	r10
    a640:	9f 90       	pop	r9
    a642:	8f 90       	pop	r8
    a644:	7f 90       	pop	r7
    a646:	08 95       	ret

0000a648 <__mulsi3>:
    a648:	62 9f       	mul	r22, r18
    a64a:	d0 01       	movw	r26, r0
    a64c:	73 9f       	mul	r23, r19
    a64e:	f0 01       	movw	r30, r0
    a650:	82 9f       	mul	r24, r18
    a652:	e0 0d       	add	r30, r0
    a654:	f1 1d       	adc	r31, r1
    a656:	64 9f       	mul	r22, r20
    a658:	e0 0d       	add	r30, r0
    a65a:	f1 1d       	adc	r31, r1
    a65c:	92 9f       	mul	r25, r18
    a65e:	f0 0d       	add	r31, r0
    a660:	83 9f       	mul	r24, r19
    a662:	f0 0d       	add	r31, r0
    a664:	74 9f       	mul	r23, r20
    a666:	f0 0d       	add	r31, r0
    a668:	65 9f       	mul	r22, r21
    a66a:	f0 0d       	add	r31, r0
    a66c:	99 27       	eor	r25, r25
    a66e:	72 9f       	mul	r23, r18
    a670:	b0 0d       	add	r27, r0
    a672:	e1 1d       	adc	r30, r1
    a674:	f9 1f       	adc	r31, r25
    a676:	63 9f       	mul	r22, r19
    a678:	b0 0d       	add	r27, r0
    a67a:	e1 1d       	adc	r30, r1
    a67c:	f9 1f       	adc	r31, r25
    a67e:	bd 01       	movw	r22, r26
    a680:	cf 01       	movw	r24, r30
    a682:	11 24       	eor	r1, r1
    a684:	08 95       	ret

0000a686 <__udivmodhi4>:
    a686:	aa 1b       	sub	r26, r26
    a688:	bb 1b       	sub	r27, r27
    a68a:	51 e1       	ldi	r21, 0x11	; 17
    a68c:	07 c0       	rjmp	.+14     	; 0xa69c <__udivmodhi4_ep>

0000a68e <__udivmodhi4_loop>:
    a68e:	aa 1f       	adc	r26, r26
    a690:	bb 1f       	adc	r27, r27
    a692:	a6 17       	cp	r26, r22
    a694:	b7 07       	cpc	r27, r23
    a696:	10 f0       	brcs	.+4      	; 0xa69c <__udivmodhi4_ep>
    a698:	a6 1b       	sub	r26, r22
    a69a:	b7 0b       	sbc	r27, r23

0000a69c <__udivmodhi4_ep>:
    a69c:	88 1f       	adc	r24, r24
    a69e:	99 1f       	adc	r25, r25
    a6a0:	5a 95       	dec	r21
    a6a2:	a9 f7       	brne	.-22     	; 0xa68e <__udivmodhi4_loop>
    a6a4:	80 95       	com	r24
    a6a6:	90 95       	com	r25
    a6a8:	bc 01       	movw	r22, r24
    a6aa:	cd 01       	movw	r24, r26
    a6ac:	08 95       	ret

0000a6ae <__divmodhi4>:
    a6ae:	97 fb       	bst	r25, 7
    a6b0:	09 2e       	mov	r0, r25
    a6b2:	07 26       	eor	r0, r23
    a6b4:	0a d0       	rcall	.+20     	; 0xa6ca <__divmodhi4_neg1>
    a6b6:	77 fd       	sbrc	r23, 7
    a6b8:	04 d0       	rcall	.+8      	; 0xa6c2 <__divmodhi4_neg2>
    a6ba:	e5 df       	rcall	.-54     	; 0xa686 <__udivmodhi4>
    a6bc:	06 d0       	rcall	.+12     	; 0xa6ca <__divmodhi4_neg1>
    a6be:	00 20       	and	r0, r0
    a6c0:	1a f4       	brpl	.+6      	; 0xa6c8 <__divmodhi4_exit>

0000a6c2 <__divmodhi4_neg2>:
    a6c2:	70 95       	com	r23
    a6c4:	61 95       	neg	r22
    a6c6:	7f 4f       	sbci	r23, 0xFF	; 255

0000a6c8 <__divmodhi4_exit>:
    a6c8:	08 95       	ret

0000a6ca <__divmodhi4_neg1>:
    a6ca:	f6 f7       	brtc	.-4      	; 0xa6c8 <__divmodhi4_exit>
    a6cc:	90 95       	com	r25
    a6ce:	81 95       	neg	r24
    a6d0:	9f 4f       	sbci	r25, 0xFF	; 255
    a6d2:	08 95       	ret

0000a6d4 <__udivmodsi4>:
    a6d4:	a1 e2       	ldi	r26, 0x21	; 33
    a6d6:	1a 2e       	mov	r1, r26
    a6d8:	aa 1b       	sub	r26, r26
    a6da:	bb 1b       	sub	r27, r27
    a6dc:	fd 01       	movw	r30, r26
    a6de:	0d c0       	rjmp	.+26     	; 0xa6fa <__udivmodsi4_ep>

0000a6e0 <__udivmodsi4_loop>:
    a6e0:	aa 1f       	adc	r26, r26
    a6e2:	bb 1f       	adc	r27, r27
    a6e4:	ee 1f       	adc	r30, r30
    a6e6:	ff 1f       	adc	r31, r31
    a6e8:	a2 17       	cp	r26, r18
    a6ea:	b3 07       	cpc	r27, r19
    a6ec:	e4 07       	cpc	r30, r20
    a6ee:	f5 07       	cpc	r31, r21
    a6f0:	20 f0       	brcs	.+8      	; 0xa6fa <__udivmodsi4_ep>
    a6f2:	a2 1b       	sub	r26, r18
    a6f4:	b3 0b       	sbc	r27, r19
    a6f6:	e4 0b       	sbc	r30, r20
    a6f8:	f5 0b       	sbc	r31, r21

0000a6fa <__udivmodsi4_ep>:
    a6fa:	66 1f       	adc	r22, r22
    a6fc:	77 1f       	adc	r23, r23
    a6fe:	88 1f       	adc	r24, r24
    a700:	99 1f       	adc	r25, r25
    a702:	1a 94       	dec	r1
    a704:	69 f7       	brne	.-38     	; 0xa6e0 <__udivmodsi4_loop>
    a706:	60 95       	com	r22
    a708:	70 95       	com	r23
    a70a:	80 95       	com	r24
    a70c:	90 95       	com	r25
    a70e:	9b 01       	movw	r18, r22
    a710:	ac 01       	movw	r20, r24
    a712:	bd 01       	movw	r22, r26
    a714:	cf 01       	movw	r24, r30
    a716:	08 95       	ret

0000a718 <__prologue_saves__>:
    a718:	2f 92       	push	r2
    a71a:	3f 92       	push	r3
    a71c:	4f 92       	push	r4
    a71e:	5f 92       	push	r5
    a720:	6f 92       	push	r6
    a722:	7f 92       	push	r7
    a724:	8f 92       	push	r8
    a726:	9f 92       	push	r9
    a728:	af 92       	push	r10
    a72a:	bf 92       	push	r11
    a72c:	cf 92       	push	r12
    a72e:	df 92       	push	r13
    a730:	ef 92       	push	r14
    a732:	ff 92       	push	r15
    a734:	0f 93       	push	r16
    a736:	1f 93       	push	r17
    a738:	cf 93       	push	r28
    a73a:	df 93       	push	r29
    a73c:	cd b7       	in	r28, 0x3d	; 61
    a73e:	de b7       	in	r29, 0x3e	; 62
    a740:	ca 1b       	sub	r28, r26
    a742:	db 0b       	sbc	r29, r27
    a744:	0f b6       	in	r0, 0x3f	; 63
    a746:	f8 94       	cli
    a748:	de bf       	out	0x3e, r29	; 62
    a74a:	0f be       	out	0x3f, r0	; 63
    a74c:	cd bf       	out	0x3d, r28	; 61
    a74e:	19 94       	eijmp

0000a750 <__epilogue_restores__>:
    a750:	2a 88       	ldd	r2, Y+18	; 0x12
    a752:	39 88       	ldd	r3, Y+17	; 0x11
    a754:	48 88       	ldd	r4, Y+16	; 0x10
    a756:	5f 84       	ldd	r5, Y+15	; 0x0f
    a758:	6e 84       	ldd	r6, Y+14	; 0x0e
    a75a:	7d 84       	ldd	r7, Y+13	; 0x0d
    a75c:	8c 84       	ldd	r8, Y+12	; 0x0c
    a75e:	9b 84       	ldd	r9, Y+11	; 0x0b
    a760:	aa 84       	ldd	r10, Y+10	; 0x0a
    a762:	b9 84       	ldd	r11, Y+9	; 0x09
    a764:	c8 84       	ldd	r12, Y+8	; 0x08
    a766:	df 80       	ldd	r13, Y+7	; 0x07
    a768:	ee 80       	ldd	r14, Y+6	; 0x06
    a76a:	fd 80       	ldd	r15, Y+5	; 0x05
    a76c:	0c 81       	ldd	r16, Y+4	; 0x04
    a76e:	1b 81       	ldd	r17, Y+3	; 0x03
    a770:	aa 81       	ldd	r26, Y+2	; 0x02
    a772:	b9 81       	ldd	r27, Y+1	; 0x01
    a774:	ce 0f       	add	r28, r30
    a776:	d1 1d       	adc	r29, r1
    a778:	0f b6       	in	r0, 0x3f	; 63
    a77a:	f8 94       	cli
    a77c:	de bf       	out	0x3e, r29	; 62
    a77e:	0f be       	out	0x3f, r0	; 63
    a780:	cd bf       	out	0x3d, r28	; 61
    a782:	ed 01       	movw	r28, r26
    a784:	08 95       	ret

0000a786 <__tablejump2__>:
    a786:	ee 0f       	add	r30, r30
    a788:	ff 1f       	adc	r31, r31

0000a78a <__tablejump__>:
    a78a:	05 90       	lpm	r0, Z+
    a78c:	f4 91       	lpm	r31, Z+
    a78e:	e0 2d       	mov	r30, r0
    a790:	19 94       	eijmp

0000a792 <_exit>:
    a792:	f8 94       	cli

0000a794 <__stop_program>:
    a794:	ff cf       	rjmp	.-2      	; 0xa794 <__stop_program>
